 rpg

 Timestamp is 50fef297 (Tue Jan 22 21:12:07 2013)

 Preferred load address is 00400000

 Start         Length     Name                   Class
 0001:00000000 0014d060H .text                   CODE
 0001:0014d060 000033f8H .text$x                 CODE
 0001:00150460 000142adH .text$yc                CODE
 0001:00164710 0000173bH .text$yd                CODE
 0002:00000000 00000550H .idata$5                DATA
 0002:00000550 00000004H .CRT$XCA                DATA
 0002:00000554 0000134cH .CRT$XCU                DATA
 0002:000018a0 00000004H .CRT$XCZ                DATA
 0002:000018a4 00000004H .CRT$XIA                DATA
 0002:000018a8 00000014H .CRT$XIC                DATA
 0002:000018bc 00000004H .CRT$XIY                DATA
 0002:000018c0 00000004H .CRT$XIZ                DATA
 0002:000018c4 00000004H .CRT$XPA                DATA
 0002:000018c8 00000008H .CRT$XPX                DATA
 0002:000018d0 00000004H .CRT$XPXA               DATA
 0002:000018d4 00000004H .CRT$XPZ                DATA
 0002:000018d8 00000004H .CRT$XTA                DATA
 0002:000018dc 00000004H .CRT$XTZ                DATA
 0002:000018e0 0001d018H .rdata                  DATA
 0002:0001e8f8 0000007cH .rdata$debug            DATA
 0002:0001e974 00001588H .rdata$r                DATA
 0002:0001ff00 0000061cH .rdata$sxdata           DATA
 0002:0002051c 00000004H .rtc$IAA                DATA
 0002:00020520 00000004H .rtc$IZZ                DATA
 0002:00020524 00000004H .rtc$TAA                DATA
 0002:00020528 00000004H .rtc$TZZ                DATA
 0002:00020530 00005594H .xdata$x                DATA
 0002:00025ac4 000000dcH .idata$2                DATA
 0002:00025ba0 00000014H .idata$3                DATA
 0002:00025bb4 00000550H .idata$4                DATA
 0002:00026104 00001550H .idata$6                DATA
 0002:00027654 00000000H .edata                  DATA
 0003:00000000 00004900H .data                   DATA
 0003:00004900 000b9d00H .bss                    DATA
 0004:00000000 000005f0H _RDATA                  DATA
 0005:00000000 000000e8H .rsrc$01                DATA
 0005:000000f0 00002868H .rsrc$02                DATA

  Address         Publics by Value              Rva+Base       Lib:Object

 0000:00000000       __except_list              00000000     <absolute>
 0000:00000187       ___safe_se_handler_count   00000187     <absolute>
 0000:00000000       ___ImageBase               00400000     <linker-defined>
 0001:00000000       ??_GBlendMapBranch@@QAEPAXI@Z 00401000 f i blend.obj
 0001:00000040       ?shrink@BlendMapRoot@@QAEXH@Z 00401040 f i blend.obj
 0001:000000c0       ??0BlendBrush@@QAE@PBDHH@Z 004010c0 f i blend.obj
 0001:00000140       ?gentex@BlendBrush@@QAEXXZ 00401140 f i blend.obj
 0001:00000300       ?reorient@BlendBrush@@QAEX_N00@Z 00401300 f i blend.obj
 0001:00000400       ?growbuf@?$vector@PAUBlendBrush@@@@QAEXH@Z 00401400 f i blend.obj
 0001:00000490       ??1ImageData@@QAE@XZ       00401490 f i blend.obj
 0001:00000490       ?cleanup@ImageData@@QAEXXZ 00401490 f i blend.obj
 0001:000004d0       ??0ImageData@@QAE@XZ       004014d0 f i blend.obj
 0001:000004f0       ??_V@YAXPAX@Z              004014f0 f i blend.obj
 0001:00000500       ??_U@YAPAXI@Z              00401500 f i blend.obj
 0001:00000520       ?newstring@@YAPADPBDI@Z    00401520 f i blend.obj
 0001:00000560       ?newstring@@YAPADPBD@Z     00401560 f i blend.obj
 0001:000005b0       _floorf                    004015b0 f i blend.obj
 0001:00000610       ??3@YAXPAX@Z               00401610 f i blend.obj
 0001:00000630       ?create_ent@cubeloader@@QAEXAAUc_persistent_entity@1@@Z 00401630 f i cubeloader.obj
 0001:00000870       ?preprocess_cubes@cubeloader@@QAEXXZ 00401870 f i cubeloader.obj
 0001:00000990       ?getfloorceil@cubeloader@@QAEHAAUc_sqr@1@AAH1@Z 00401990 f i cubeloader.obj
 0001:00000aa0       ?boundingbox@cubeloader@@QAEXXZ 00401aa0 f i cubeloader.obj
 0001:00000c70       ?hf@cubeloader@@QAEXHHHHHH@Z 00401c70 f i cubeloader.obj
 0001:00000d50       ?create_cubes@cubeloader@@QAEXXZ 00401d50 f i cubeloader.obj
 0001:000011b0       ?load_cube_world@cubeloader@@QAEXPAD@Z 004021b0 f i cubeloader.obj
 0001:00001920       ?growbuf@?$vector@PAD@@QAEXH@Z 00402920 f i server.obj
 0001:00001920       ?growbuf@?$vector@PAUoctaentities@@@@QAEXH@Z 00402920 f i octarender.obj
 0001:00001920       ?growbuf@?$vector@PAUmaterialsurface@@@@QAEXH@Z 00402920 f i pvs.obj
 0001:00001920       ?growbuf@?$vector@PAUplink@@@@QAEXH@Z 00402920 f i octa.obj
 0001:00001920       ?growbuf@?$vector@PAUpart@animmodel@@@@QAEXH@Z 00402920 f i rendermodel.obj
 0001:00001920       ?growbuf@?$vector@PAUvtxarray@@@@QAEXH@Z 00402920 f i octarender.obj
 0001:00001920       ?growbuf@?$vector@PAUkeym@@@@QAEXH@Z 00402920 f i console.obj
 0001:00001920       ?growbuf@?$vector@PAUTexture@@@@QAEXH@Z 00402920 f i rendertext.obj
 0001:00001920       ?growbuf@?$vector@PAUrpgobj@game@@@@QAEXH@Z 00402920 f i objset.obj
 0001:00001920       ?growbuf@?$vector@PBUextentity@@@@QAEXH@Z 00402920 f i lightmap.obj
 0001:00001920       ?growbuf@?$vector@I@@QAEXH@Z 00402920 f i command.obj
 0001:00001920       ?growbuf@?$vector@H@@QAEXH@Z 00402920 f i lightmap.obj
 0001:00001920       ?growbuf@?$vector@PAUextentity@@@@QAEXH@Z 00402920 f i cubeloader.obj
 0001:00001920       ?growbuf@?$vector@PBD@@QAEXH@Z 00402920 f i serverbrowser.obj
 0001:00001920       ?growbuf@?$vector@PAUskelmeshgroup@skelmodel@@@@QAEXH@Z 00402920 f i rendermodel.obj
 0001:00001920       ?growbuf@?$vector@PAUShader@@@@QAEXH@Z 00402920 f i shader.obj
 0001:00001920       ?growbuf@?$vector@PAUident@@@@QAEXH@Z 00402920 f i command.obj
 0001:00001920       ?growbuf@?$vector@PAUphysent@@@@QAEXH@Z 00402920 f i physics.obj
 0001:00001920       ?growbuf@?$vector@PAUmesh@animmodel@@@@QAEXH@Z 00402920 f i rendermodel.obj
 0001:000019a0       ??Rstringformatter@@QAAXPBDZZ 004029a0 f i cubeloader.obj
 0001:000019d0       ??0lightcacheentry@@QAE@XZ 004029d0 f i lightmap.obj
 0001:00001a20       ??1lightcacheentry@@QAE@XZ 00402a20 f i lightmap.obj
 0001:00001a70       ?add@?$vector@PAUoctaentities@@@@QAEAAPAUoctaentities@@ABQAU2@@Z 00402a70 f i octarender.obj
 0001:00001a70       ?add@?$vector@I@@QAEAAIABI@Z 00402a70 f i command.obj
 0001:00001a70       ?add@?$vector@PAUmesh@animmodel@@@@QAEAAPAUmesh@animmodel@@ABQAU23@@Z 00402a70 f i rendermodel.obj
 0001:00001a70       ?add@?$vector@PAUvtxarray@@@@QAEAAPAUvtxarray@@ABQAU2@@Z 00402a70 f i octarender.obj
 0001:00001a70       ?add@?$vector@PBD@@QAEAAPBDABQBD@Z 00402a70 f i serverbrowser.obj
 0001:00001a70       ?add@?$vector@H@@QAEAAHABH@Z 00402a70 f i lightmap.obj
 0001:00001ab0       ?add@?$vector@ULightMap@@@@QAEAAULightMap@@XZ 00402ab0 f i lightmap.obj
 0001:00001ba0       ?shrink@?$vector@ULightMap@@@@QAEXH@Z 00402ba0 f i lightmap.obj
 0001:00001c20       ?add@?$vector@ULightMapTexture@@@@QAEAAULightMapTexture@@XZ 00402c20 f i lightmap.obj
 0001:00001cc0       ??1?$vector@PAUskelmeshgroup@skelmodel@@@@QAE@XZ 00402cc0 f i rendermodel.obj
 0001:00001cc0       ??1?$vector@H@@QAE@XZ      00402cc0 f i lightmap.obj
 0001:00001cc0       ??1?$vector@PAUmesh@animmodel@@@@QAE@XZ 00402cc0 f i rendermodel.obj
 0001:00001cc0       ??1?$vector@PAD@@QAE@XZ    00402cc0 f i server.obj
 0001:00001cc0       ??1?$vector@PAUmaterialsurface@@@@QAE@XZ 00402cc0 f i pvs.obj
 0001:00001cc0       ??1?$vector@PAUoctaentities@@@@QAE@XZ 00402cc0 f i octarender.obj
 0001:00001cc0       ??1?$vector@G@@QAE@XZ      00402cc0 f i octaedit.obj
 0001:00001cc0       ??1?$vector@PAUident@@@@QAE@XZ 00402cc0 f i command.obj
 0001:00001cc0       ??1?$vector@PAUvtxarray@@@@QAE@XZ 00402cc0 f i octarender.obj
 0001:00001cc0       ??1?$vector@I@@QAE@XZ      00402cc0 f i command.obj
 0001:00001cc0       ??1?$vector@PBUextentity@@@@QAE@XZ 00402cc0 f i lightmap.obj
 0001:00001cc0       ??1?$vector@PAUplink@@@@QAE@XZ 00402cc0 f i octa.obj
 0001:00001cc0       ??1?$vector@PAUTexture@@@@QAE@XZ 00402cc0 f i rendertext.obj
 0001:00001cc0       ??1?$vector@D@@QAE@XZ      00402cc0 f i worldio.obj
 0001:00001cc0       ??1?$vector@E@@QAE@XZ      00402cc0 f i octaedit.obj
 0001:00001cc0       ??1?$vector@PAUphysent@@@@QAE@XZ 00402cc0 f i physics.obj
 0001:00001cc0       ??1?$vector@PAUShader@@@@QAE@XZ 00402cc0 f i shader.obj
 0001:00001cc0       ??1?$vector@PAUpart@animmodel@@@@QAE@XZ 00402cc0 f i rendermodel.obj
 0001:00001cc0       ??1?$vector@PAUkeym@@@@QAE@XZ 00402cc0 f i console.obj
 0001:00001ce0       ??0?$vector@PAUShader@@@@QAE@XZ 00402ce0 f i shader.obj
 0001:00001ce0       ??0?$vector@G@@QAE@XZ      00402ce0 f i octaedit.obj
 0001:00001ce0       ??0?$vector@Umergedface@@@@QAE@XZ 00402ce0 f i octarender.obj
 0001:00001ce0       ??0?$vector@PAUvtxarray@@@@QAE@XZ 00402ce0 f i octarender.obj
 0001:00001ce0       ??0?$vector@Uvec@@@@QAE@XZ 00402ce0 f i worldio.obj
 0001:00001ce0       ??0?$vector@Utri@BIH@@@@QAE@XZ 00402ce0 f i rendermodel.obj
 0001:00001ce0       ??0?$vector@Ufacebounds@@@@QAE@XZ 00402ce0 f i octarender.obj
 0001:00001ce0       ??0?$vector@Uanimspec@animmodel@@@@QAE@XZ 00402ce0 f i rendermodel.obj
 0001:00001ce0       ??0?$vector@E@@QAE@XZ      00402ce0 f i octaedit.obj
 0001:00001ce0       ??0?$vector@D@@QAE@XZ      00402ce0 f i worldio.obj
 0001:00001ce0       ??0?$vector@Ulightmaptask@@@@QAE@XZ 00402ce0 f i lightmap.obj
 0001:00001d00       ??1?$vector@Uskelcacheentry@skelmodel@@@@QAE@XZ 00402d00 f i rendermodel.obj
 0001:00001d00       ??1?$vector@Utri@vertmodel@@@@QAE@XZ 00402d00 f i rendermodel.obj
 0001:00001d00       ??1?$vector@Ublendcombo@skelmodel@@@@QAE@XZ 00402d00 f i rendermodel.obj
 0001:00001d00       ??1?$vector@Uivec@@@@QAE@XZ 00402d00 f i worldio.obj
 0001:00001d00       ??1?$vector@Usortkey@@@@QAE@XZ 00402d00 f i octarender.obj
 0001:00001d00       ??1?$vector@Upoly@@@@QAE@XZ 00402d00 f i octa.obj
 0001:00001d00       ??1?$vector@Ureljoint@ragdollskel@@@@QAE@XZ 00402d00 f i rendermodel.obj
 0001:00001d00       ??1?$vector@UShaderParam@@@@QAE@XZ 00402d00 f i octaedit.obj
 0001:00001d00       ??1?$vector@Utri@BIH@@@@QAE@XZ 00402d00 f i rendermodel.obj
 0001:00001d00       ??1?$vector@Uvert@ragdollskel@@@@QAE@XZ 00402d00 f i rendermodel.obj
 0001:00001d00       ??1?$vector@UTex@Slot@@@@QAE@XZ 00402d00 f i texture.obj
 0001:00001d00       ??1?$vector@Upitchcorrect@skelmodel@@@@QAE@XZ 00402d00 f i rendermodel.obj
 0001:00001d00       ??1?$vector@Uvec2@@@@QAE@XZ 00402d00 f i worldio.obj
 0001:00001d00       ??1?$vector@Uvert@vertmodel@@@@QAE@XZ 00402d00 f i rendermodel.obj
 0001:00001d00       ??1?$vector@UBIHNode@@@@QAE@XZ 00402d00 f i bih.obj
 0001:00001d00       ??1?$vector@Uvvertff@vertmodel@@@@QAE@XZ 00402d00 f i rendermodel.obj
 0001:00001d00       ??1?$vector@UUniformLoc@@@@QAE@XZ 00402d00 f i shader.obj
 0001:00001d00       ??1?$vector@Ufacebounds@@@@QAE@XZ 00402d00 f i octarender.obj
 0001:00001d00       ??1?$vector@Utri@skelmodel@@@@QAE@XZ 00402d00 f i rendermodel.obj
 0001:00001d00       ??1?$vector@Ujoint@ragdollskel@@@@QAE@XZ 00402d00 f i rendermodel.obj
 0001:00001d00       ??1?$vector@Uufval@unionfind@@@@QAE@XZ 00402d00 f i material.obj
 0001:00001d00       ??1?$vector@Umd5joint@@@@QAE@XZ 00402d00 f i rendermodel.obj
 0001:00001d00       ??1?$vector@Uvvert@skelmodel@@@@QAE@XZ 00402d00 f i rendermodel.obj
 0001:00001d00       ??1?$vector@Upitchtarget@skelmodel@@@@QAE@XZ 00402d00 f i rendermodel.obj
 0001:00001d00       ??1?$vector@Utcvert@vertmodel@@@@QAE@XZ 00402d00 f i rendermodel.obj
 0001:00001d00       ??1?$vector@Udistlimit@ragdollskel@@@@QAE@XZ 00402d00 f i rendermodel.obj
 0001:00001d00       ??1?$vector@Uvert@skelmodel@@@@QAE@XZ 00402d00 f i rendermodel.obj
 0001:00001d00       ??1?$vector@Ucharinfo@font@@@@QAE@XZ 00402d00 f i rendertext.obj
 0001:00001d00       ??1?$vector@Uanimspec@animmodel@@@@QAE@XZ 00402d00 f i rendermodel.obj
 0001:00001d00       ??1?$vector@Usmdbone@@@@QAE@XZ 00402d00 f i rendermodel.obj
 0001:00001d00       ??1?$vector@Urotfriction@ragdollskel@@@@QAE@XZ 00402d00 f i rendermodel.obj
 0001:00001d00       ??1?$vector@Uvec@@@@QAE@XZ 00402d00 f i worldio.obj
 0001:00001d00       ??1?$vector@Ugrasstri@@@@QAE@XZ 00402d00 f i octarender.obj
 0001:00001d00       ??1?$vector@Upitchdep@skelmodel@@@@QAE@XZ 00402d00 f i rendermodel.obj
 0001:00001d00       ??1?$vector@Ubatchedmodel@@@@QAE@XZ 00402d00 f i rendermodel.obj
 0001:00001d00       ??1?$vector@Utri@ragdollskel@@@@QAE@XZ 00402d00 f i rendermodel.obj
 0001:00001d00       ??1?$vector@Urotlimit@ragdollskel@@@@QAE@XZ 00402d00 f i rendermodel.obj
 0001:00001d00       ??1?$vector@Uvvert@vertmodel@@@@QAE@XZ 00402d00 f i rendermodel.obj
 0001:00001d00       ??1?$vector@Ueditline@@@@QAE@XZ 00402d00 f i 3dgui.obj
 0001:00001d00       ??1?$vector@ULocalShaderParamState@@@@QAE@XZ 00402d00 f i shader.obj
 0001:00001d00       ??1?$vector@Umd5hierarchy@@@@QAE@XZ 00402d00 f i rendermodel.obj
 0001:00001d00       ??1?$vector@Uvvertw@skelmodel@@@@QAE@XZ 00402d00 f i rendermodel.obj
 0001:00001d00       ??1?$vector@UAttribLoc@@@@QAE@XZ 00402d00 f i shader.obj
 0001:00001d00       ??1?$vector@Uavisegmentinfo@@@@QAE@XZ 00402d00 f i movie.obj
 0001:00001d00       ??1?$vector@Uskin@animmodel@@@@QAE@XZ 00402d00 f i rendermodel.obj
 0001:00001d00       ??1?$vector@Uvvertbumpw@skelmodel@@@@QAE@XZ 00402d00 f i rendermodel.obj
 0001:00001d00       ??1?$vector@Umaterialsurface@@@@QAE@XZ 00402d00 f i octarender.obj
 0001:00001d00       ??1?$vector@Uwaterinfo@@@@QAE@XZ 00402d00 f i material.obj
 0001:00001d00       ??1?$vector@Uvvertn@skelmodel@@@@QAE@XZ 00402d00 f i rendermodel.obj
 0001:00001d00       ??1?$vector@Utransparentmodel@@@@QAE@XZ 00402d00 f i rendermodel.obj
 0001:00001d00       ??1?$vector@Ulinkedpart@animmodel@@@@QAE@XZ 00402d00 f i rendermodel.obj
 0001:00001d00       ??1?$vector@Udualquat@@@@QAE@XZ 00402d00 f i rendermodel.obj
 0001:00001d00       ??1?$vector@Uvvertbump@vertmodel@@@@QAE@XZ 00402d00 f i rendermodel.obj
 0001:00001d00       ??1?$vector@Usortitem@@@@QAE@XZ 00402d00 f i command.obj
 0001:00001d00       ??1?$vector@Uvertex@@@@QAE@XZ 00402d00 f i octarender.obj
 0001:00001d00       ??1?$vector@Ulightmaptask@@@@QAE@XZ 00402d00 f i lightmap.obj
 0001:00001d00       ??1?$vector@Umergedface@@@@QAE@XZ 00402d00 f i octarender.obj
 0001:00001d00       ??1?$vector@Uantipode@skelmodel@@@@QAE@XZ 00402d00 f i rendermodel.obj
 0001:00001d00       ??1?$vector@Uvvertbump@skelmodel@@@@QAE@XZ 00402d00 f i rendermodel.obj
 0001:00001d00       ??1?$vector@Uaviindexentry@@@@QAE@XZ 00402d00 f i movie.obj
 0001:00001d20       ??0?$hashset@Ulayoutinfo@@@@QAE@H@Z 00402d20 f i lightmap.obj
 0001:00001db0       ??1?$hashset@Ulayoutinfo@@@@QAE@XZ 00402db0 f i lightmap.obj
 0001:00001e00       ?clear@?$hashset@Ulayoutinfo@@@@QAEXXZ 00402e00 f i lightmap.obj
 0001:00001e70       ?growbuf@?$vector@ULightMap@@@@QAEXH@Z 00402e70 f i lightmap.obj
 0001:00001f00       ?growbuf@?$vector@ULightMapTexture@@@@QAEXH@Z 00402f00 f i lightmap.obj
 0001:00001f90       ?growbuf@?$vector@PAUlightmapworker@@@@QAEXH@Z 00402f90 f i lightmap.obj
 0001:00002020       ?growbuf@?$vector@Upitchdep@skelmodel@@@@QAEXH@Z 00403020 f i rendermodel.obj
 0001:00002020       ?growbuf@?$vector@Uvert@skelmodel@@@@QAEXH@Z 00403020 f i rendermodel.obj
 0001:00002020       ?growbuf@?$vector@Ulightmaptask@@@@QAEXH@Z 00403020 f i lightmap.obj
 0001:00002020       ?growbuf@?$vector@Uvvertw@skelmodel@@@@QAEXH@Z 00403020 f i rendermodel.obj
 0001:000020a0       ?growbuf@?$vector@Ulightmapext@@@@QAEXH@Z 004030a0 f i lightmap.obj
 0001:00002130       ??$access@Ulightmapinfo@@@?$hashset@Ulayoutinfo@@@@QAEPAUlayoutinfo@@ABUlightmapinfo@@@Z 00403130 f i lightmap.obj
 0001:000021b0       ??$?AUlightmapinfo@@@?$hashset@Ulayoutinfo@@@@QAEAAUlayoutinfo@@ABUlightmapinfo@@@Z 004031b0 f i lightmap.obj
 0001:00002230       ?insert@?$hashset@Ulayoutinfo@@@@QAEPAUchain@1@I@Z 00403230 f i lightmap.obj
 0001:000022c0       ?cleanup@meshgroup@animmodel@@UAEXXZ 004032c0 f i rendermodel.obj
 0001:000022c0       ?startrender@textrenderer@@UAEXXZ 004032c0 f i renderparticles.obj
 0001:000022c0       ?endrender@model@@UAEXXZ   004032c0 f i rendermodel.obj
 0001:000022c0       ?startrender@model@@UAEXXZ 004032c0 f i rendermodel.obj
 0001:000022c0       ?poplist@g3d_gui@@UAEXXZ   004032c0 f i 3dgui.obj
 0001:000022c0       ??3@YAXPAX0@Z              004032c0 f i lightmap.obj
 0001:000022c0       ?preloadshaders@model@@UAEXXZ 004032c0 f i rendermodel.obj
 0001:000022c0       ?update@partrenderer@@UAEXXZ 004032c0 f i renderparticles.obj
 0001:000022c0       ?cleanup@model@@UAEXXZ     004032c0 f i rendermodel.obj
 0001:000022c0       ?preloadmeshes@model@@UAEXXZ 004032c0 f i rendermodel.obj
 0001:000022c0       ?doclear@rendertarget@@UAEXXZ 004032c0 f i glare.obj
 0001:000022c0       ?pushlist@g3d_gui@@UAEXXZ  004032c0 f i 3dgui.obj
 0001:000022c0       ?endrender@textrenderer@@UAEXXZ 004032c0 f i renderparticles.obj
 0001:000022c0       ?cleanup@partrenderer@@UAEXXZ 004032c0 f i renderparticles.obj
 0001:000022d0       ?calcsize@ImageData@@QBEHXZ 004032d0 f i lightmap.obj
 0001:00002370       ??0ImageData@@QAE@HHHPAE@Z 00403370 f i lightmap.obj
 0001:000023f0       ?boundbox@model@@QAEXHAAUvec@@0@Z 004033f0 f i lightmap.obj
 0001:00002490       ?above@model@@QAEMH@Z      00403490 f i lightmap.obj
 0001:00002510       ??0clipplanes@@QAE@XZ      00403510 f i octa.obj
 0001:00002510       ??0entity@@QAE@XZ          00403510 f i lightmap.obj
 0001:00002510       ??0plane@@QAE@XZ           00403510 f i lightmap.obj
 0001:00002520       _ceilf                     00403520 f i lightmap.obj
 0001:00002550       ?iszero@vec@@QBE_NXZ       00403550 f i lightmap.obj
 0001:00002590       ??0PackNode@@QAE@GGGG@Z    00403590 f i lightmap.obj
 0001:000025e0       ??1PackNode@@QAE@XZ        004035e0 f i lightmap.obj
 0001:000025f0       ?clear@PackNode@@QAEXXZ    004035f0 f i lightmap.obj
 0001:00002640       _sqrtf                     00403640 f i lightmap.obj
 0001:00002650       _fabsf                     00403650 f i lightmap.obj
 0001:00002670       _cosf                      00403670 f i lightmap.obj
 0001:00002680       _sinf                      00403680 f i lightmap.obj
 0001:00002690       ??0vec@@QAE@MM@Z           00403690 f i lightmap.obj
 0001:00002700       ??0?$hashset@Unormalgroup@@@@QAE@H@Z 00403700 f i normal.obj
 0001:00002790       ??1?$hashset@Unormalgroup@@@@QAE@XZ 00403790 f i normal.obj
 0001:000027e0       ?clear@?$hashset@Unormalgroup@@@@QAEXXZ 004037e0 f i normal.obj
 0001:00002850       ?growbuf@?$vector@Unormal@@@@QAEXH@Z 00403850 f i normal.obj
 0001:000028d0       ?growbuf@?$vector@Utnormal@@@@QAEXH@Z 004038d0 f i normal.obj
 0001:00002960       ??$access@Uvec@@U1@@?$hashset@Unormalgroup@@@@QAEAAUnormalgroup@@ABUvec@@0@Z 00403960 f i normal.obj
 0001:00002a40       ??$access@Uvec@@@?$hashset@Unormalgroup@@@@QAEPAUnormalgroup@@ABUvec@@@Z 00403a40 f i normal.obj
 0001:00002ad0       ?insert@?$hashset@Unormalgroup@@@@QAEPAUchain@1@I@Z 00403ad0 f i normal.obj
 0001:00002bc0       ??9vec@@QBE_NABU0@@Z       00403bc0 f i normal.obj
 0001:00002c00       ?cross@vec@@QAEAAU1@ABU1@00@Z 00403c00 f i normal.obj
 0001:00002cc0       ??8vec@@QBE_NABU0@@Z       00403cc0 f i normal.obj
 0001:00002d00       ??9facevec@@QBE_NABU0@@Z   00403d00 f i octa.obj
 0001:00002d20       ??0?$hashset@Uplink@@@@QAE@H@Z 00403d20 f i octa.obj
 0001:00002d90       ??1?$hashset@U?$hashtableentry@Uvec@@H@@@@QAE@XZ 00403d90 f i worldio.obj
 0001:00002d90       ??1?$hashset@U?$hashtableentry@Uivec@@H@@@@QAE@XZ 00403d90 f i rendermodel.obj
 0001:00002d90       ??1?$hashset@Uplink@@@@QAE@XZ 00403d90 f i octa.obj
 0001:00002de0       ??A?$hashtable@Ucfkey@@Ucfpolys@@@@QAEAAUcfpolys@@ABUcfkey@@@Z 00403de0 f i octa.obj
 0001:00002e90       ??1?$hashset@U?$hashtableentry@Ucfkey@@Ucfpolys@@@@@@QAE@XZ 00403e90 f i octa.obj
 0001:00002ec0       ?clear@?$hashset@U?$hashtableentry@Ucfkey@@Ucfpolys@@@@@@QAEXXZ 00403ec0 f i octa.obj
 0001:00002f70       ?growbuf@?$vector@Upoly@@@@QAEXH@Z 00403f70 f i octa.obj
 0001:00002f70       ?growbuf@?$vector@Ujoint@ragdollskel@@@@QAEXH@Z 00403f70 f i rendermodel.obj
 0001:00002ff0       ??0?$hashset@U?$hashtableentry@Ucfkey@@Ucfpolys@@@@@@QAE@H@Z 00403ff0 f i octa.obj
 0001:00003080       ?deletechunks@?$hashset@U?$hashtableentry@Ucfkey@@Ucfpolys@@@@@@QAEXXZ 00404080 f i octa.obj
 0001:000030f0       ??1chain@?$hashset@U?$hashtableentry@Ucfkey@@Ucfpolys@@@@@@QAE@XZ 004040f0 f i octa.obj
 0001:00003160       ??1?$hashtableentry@Ucfkey@@Ucfpolys@@@@QAE@XZ 00404160 f i octa.obj
 0001:000031c0       ??1cfpolys@@QAE@XZ         004041c0 f i octa.obj
 0001:000031c0       ??1unionfind@@QAE@XZ       004041c0 f i material.obj
 0001:00003210       ?insert@?$hashset@U?$hashtableentry@Ucfkey@@Ucfpolys@@@@@@QAEPAUchain@1@I@Z 00404210 f i octa.obj
 0001:000032d0       ??0chain@?$hashset@U?$hashtableentry@Ucfkey@@Ucfpolys@@@@@@QAE@XZ 004042d0 f i octa.obj
 0001:00003330       ??$access@Upedge@@U1@@?$hashset@Uplink@@@@QAEAAUplink@@ABUpedge@@0@Z 00404330 f i octa.obj
 0001:000033d0       ?insert@?$hashset@Uplink@@@@QAEPAUchain@1@I@Z 004043d0 f i octa.obj
 0001:000034a0       ??1octabrush@@QAE@XZ       004044a0 f i octaedit.obj
 0001:000034d0       ?gui@texturegui@@UAEXAAUg3d_gui@@_N@Z 004044d0 f i octaedit.obj
 0001:00003730       ?showtextures@texturegui@@QAEX_N@Z 00404730 f i octaedit.obj
 0001:00003880       ?show@texturegui@@QAEXXZ   00404880 f i octaedit.obj
 0001:00003950       ??_Grpgmenu@game@@UAEPAXI@Z 00404950 f i rpg.obj
 0001:00003950       ??_Erpgmenu@game@@UAEPAXI@Z 00404950 f i * CIL library *:* CIL module *
 0001:00003950       ??_Emenu@@UAEPAXI@Z        00404950 f i * CIL library *:* CIL module *
 0001:00003950       ??_Etexturegui@@UAEPAXI@Z  00404950 f i * CIL library *:* CIL module *
 0001:00003950       ??_Gtexturegui@@UAEPAXI@Z  00404950 f i octaedit.obj
 0001:00003950       ??_Gmenu@@UAEPAXI@Z        00404950 f i menus.obj
 0001:000039a0       ?add@?$vector@UShaderParam@@@@QAEAAUShaderParam@@ABU2@@Z 004049a0 f i octaedit.obj
 0001:00003a00       ?add@?$vector@G@@QAEAAGABG@Z 00404a00 f i octaedit.obj
 0001:00003a40       ?remove@?$vector@G@@QAEGH@Z 00404a40 f i octaedit.obj
 0001:00003a90       ?insert@?$vector@G@@QAEAAGHABG@Z 00404a90 f i octaedit.obj
 0001:00003b00       ??0?$hashset@Uoctabrush@@@@QAE@H@Z 00404b00 f i octaedit.obj
 0001:00003b90       ?growbuf@?$vector@Upitchcorrect@skelmodel@@@@QAEXH@Z 00404b90 f i rendermodel.obj
 0001:00003b90       ?growbuf@?$vector@Ublendcombo@skelmodel@@@@QAEXH@Z 00404b90 f i rendermodel.obj
 0001:00003b90       ?growbuf@?$vector@Uvvert@vertmodel@@@@QAEXH@Z 00404b90 f i rendermodel.obj
 0001:00003b90       ?growbuf@?$vector@Uvvertn@skelmodel@@@@QAEXH@Z 00404b90 f i rendermodel.obj
 0001:00003b90       ?growbuf@?$vector@Udualquat@@@@QAEXH@Z 00404b90 f i rendermodel.obj
 0001:00003b90       ?growbuf@?$vector@Uvertex@@@@QAEXH@Z 00404b90 f i octarender.obj
 0001:00003b90       ?growbuf@?$vector@UShaderParam@@@@QAEXH@Z 00404b90 f i octaedit.obj
 0001:00003c10       ?growbuf@?$vector@G@@QAEXH@Z 00404c10 f i octaedit.obj
 0001:00003c90       ?growbuf@?$vector@PAUeditinfo@@@@QAEXH@Z 00404c90 f i octaedit.obj
 0001:00003d20       ?deletechunks@?$hashset@Uoctabrush@@@@QAEXXZ 00404d20 f i octaedit.obj
 0001:00003d90       ?growbuf@?$vector@Uvslotmap@@@@QAEXH@Z 00404d90 f i octaedit.obj
 0001:00003e20       ??1chain@?$hashset@Uoctabrush@@@@QAE@XZ 00404e20 f i octaedit.obj
 0001:00003e80       ??$remove@PAD@?$hashset@Uoctabrush@@@@QAE_NABQAD@Z 00404e80 f i octaedit.obj
 0001:00003fa0       ??$access@PAD@?$hashset@Uoctabrush@@@@QAEPAUoctabrush@@ABQAD@Z 00404fa0 f i octaedit.obj
 0001:00004030       ??$?APAD@?$hashset@Uoctabrush@@@@QAEAAUoctabrush@@ABQAD@Z 00405030 f i octaedit.obj
 0001:000040c0       ??$find@H@?$vector@H@@QAEHABH@Z 004050c0 f i octaedit.obj
 0001:000040f0       ?insert@?$hashset@Uoctabrush@@@@QAEPAUchain@1@I@Z 004050f0 f i octaedit.obj
 0001:000041d0       ??0chain@?$hashset@Uoctabrush@@@@QAE@XZ 004051d0 f i octaedit.obj
 0001:00004210       ?growbuf@?$vector@D@@QAEXH@Z 00405210 f i worldio.obj
 0001:00004210       ?growbuf@?$vector@E@@QAEXH@Z 00405210 f i octaedit.obj
 0001:00004290       ??_Eg3d_callback@@UAEPAXI@Z 00405290 f i * CIL library *:* CIL module *
 0001:00004290       ??_Gg3d_callback@@UAEPAXI@Z 00405290 f i octaedit.obj
 0001:000042b0       ??1g3d_callback@@UAE@XZ    004052b0 f i octaedit.obj
 0001:000042c0       ??1VSlot@@QAE@XZ           004052c0 f i octaedit.obj
 0001:00004310       ?reset@VSlot@@QAEXXZ       00405310 f i octaedit.obj
 0001:00004420       ??0VSlot@@QAE@PAUSlot@@H@Z 00405420 f i octaedit.obj
 0001:000044d0       ??8selinfo@@QBE_NABU0@@Z   004054d0 f i octaedit.obj
 0001:00004520       ?set@Shader@@QAEXXZ        00405520 f i octaedit.obj
 0001:00004550       ?rayintersect@plane@@QAE_NABUvec@@0AAM@Z 00405550 f i octaedit.obj
 0001:000045e0       ??0verthash@@QAE@XZ        004055e0 f i octarender.obj
 0001:00004690       ?addvert@verthash@@QAEHABUvertex@@@Z 00405690 f i octarender.obj
 0001:00004860       ?clear@vacollect@@QAEXXZ   00405860 f i octarender.obj
 0001:00004940       ?remapunlit@vacollect@@QAEXAAU?$vector@Usortkey@@@@@Z 00405940 f i octarender.obj
 0001:00004fa0       ?optimize@vacollect@@QAEXXZ 00405fa0 f i octarender.obj
 0001:00005230       ?texsort@vacollect@@SA_NABUsortkey@@0@Z 00406230 f i octarender.obj
 0001:000052f0       ?genverts@vacollect@@QAEXPAX@Z 004062f0 f i octarender.obj
 0001:00005400       ?setupdata@vacollect@@QAEXPAUvtxarray@@@Z 00406400 f i octarender.obj
 0001:00005c10       ??0vacollect@@QAE@XZ       00406c10 f i octarender.obj
 0001:00005d60       ??1vacollect@@QAE@XZ       00406d60 f i octarender.obj
 0001:00005ed0       ??1verthash@@QAE@XZ        00406ed0 f i octarender.obj
 0001:00005f50       ??1?$hashtable@Usortkey@@Usortval@@@@QAE@XZ 00406f50 f i octarender.obj
 0001:00005fb0       ??0vtxarray@@QAE@XZ        00406fb0 f i octarender.obj
 0001:00006040       ??1vtxarray@@QAE@XZ        00407040 f i octarender.obj
 0001:000060e0       ?removeobj@?$vector@PAUmesh@animmodel@@@@QAEXABQAUmesh@animmodel@@@Z 004070e0 f i rendermodel.obj
 0001:000060e0       ?removeobj@?$vector@H@@QAEXABH@Z 004070e0 f i world.obj
 0001:000060e0       ?removeobj@?$vector@PAUvtxarray@@@@QAEXABQAUvtxarray@@@Z 004070e0 f i octarender.obj
 0001:000060e0       ?removeobj@?$vector@PAUskelmeshgroup@skelmodel@@@@QAEXABQAUskelmeshgroup@skelmodel@@@Z 004070e0 f i rendermodel.obj
 0001:000060e0       ?removeobj@?$vector@PAUoctaentities@@@@QAEXABQAUoctaentities@@@Z 004070e0 f i world.obj
 0001:00006130       ??1?$hashset@U?$hashtableentry@IUvboinfo@@@@@@QAE@XZ 00407130 f i octarender.obj
 0001:00006180       ?access@?$hashtable@Usortkey@@Usortval@@@@QAEPAUsortval@@ABUsortkey@@@Z 00407180 f i octarender.obj
 0001:000061f0       ??A?$hashtable@Usortkey@@Usortval@@@@QAEAAUsortval@@ABUsortkey@@@Z 004071f0 f i octarender.obj
 0001:00006280       ??1?$hashset@U?$hashtableentry@Usortkey@@Usortval@@@@@@QAE@XZ 00407280 f i octarender.obj
 0001:000062b0       ?clear@?$hashset@U?$hashtableentry@Usortkey@@Usortval@@@@@@QAEXXZ 004072b0 f i octarender.obj
 0001:00006360       ?removeobj@?$vector@Usortkey@@@@QAEXABUsortkey@@@Z 00407360 f i octarender.obj
 0001:00006440       ?access@?$hashtable@Uedgegroup@@H@@QAEPAHABUedgegroup@@@Z 00407440 f i octarender.obj
 0001:000064c0       ??A?$hashtable@Uedgegroup@@H@@QAEAAHABUedgegroup@@@Z 004074c0 f i octarender.obj
 0001:00006560       ??1?$hashset@U?$hashtableentry@Uedgegroup@@H@@@@QAE@XZ 00407560 f i octarender.obj
 0001:000065b0       ?add@?$vector@Umergedface@@@@QAEAAUmergedface@@ABU2@@Z 004075b0 f i octarender.obj
 0001:00006610       ?move@?$vector@Umergedface@@@@QAEXAAU1@@Z 00407610 f i octarender.obj
 0001:00006690       ?growbuf@?$vector@Ugrasstri@@@@QAEXH@Z 00407690 f i octarender.obj
 0001:00006710       ?growbuf@?$vector@Utjoint@@@@QAEXH@Z 00407710 f i octarender.obj
 0001:000067a0       ??0?$hashset@U?$hashtableentry@IUvboinfo@@@@@@QAE@H@Z 004077a0 f i octarender.obj
 0001:00006830       ??0?$hashset@U?$hashtableentry@Usortkey@@Usortval@@@@@@QAE@H@Z 00407830 f i octarender.obj
 0001:00006830       ??0?$hashset@U?$hashtableentry@Uivec@@H@@@@QAE@H@Z 00407830 f i rendermodel.obj
 0001:000068b0       ?deletechunks@?$hashset@U?$hashtableentry@Usortkey@@Usortval@@@@@@QAEXXZ 004078b0 f i octarender.obj
 0001:00006920       ?growbuf@?$vector@Usortkey@@@@QAEXH@Z 00407920 f i octarender.obj
 0001:000069a0       ?growbuf@?$vector@Uantipode@skelmodel@@@@QAEXH@Z 004079a0 f i rendermodel.obj
 0001:000069a0       ?growbuf@?$vector@Uvec2@@@@QAEXH@Z 004079a0 f i worldio.obj
 0001:000069a0       ?growbuf@?$vector@Usoundslot@@@@QAEXH@Z 004079a0 f i sound.obj
 0001:000069a0       ?growbuf@?$vector@Utcvert@vertmodel@@@@QAEXH@Z 004079a0 f i rendermodel.obj
 0001:000069a0       ?growbuf@?$vector@Uufval@unionfind@@@@QAEXH@Z 004079a0 f i material.obj
 0001:000069a0       ?growbuf@?$vector@UAttribLoc@@@@QAEXH@Z 004079a0 f i shader.obj
 0001:000069a0       ?growbuf@?$vector@Ureljoint@ragdollskel@@@@QAEXH@Z 004079a0 f i rendermodel.obj
 0001:000069a0       ?growbuf@?$vector@UBIHNode@@@@QAEXH@Z 004079a0 f i bih.obj
 0001:000069a0       ?growbuf@?$vector@Ufacebounds@@@@QAEXH@Z 004079a0 f i octarender.obj
 0001:00006a20       ?growbuf@?$vector@Ucubeedge@@@@QAEXH@Z 00407a20 f i octarender.obj
 0001:00006aa0       ??0?$hashset@U?$hashtableentry@Uedgegroup@@H@@@@QAE@H@Z 00407aa0 f i octarender.obj
 0001:00006b30       ?growbuf@?$vector@Uvvertff@vertmodel@@@@QAEXH@Z 00407b30 f i rendermodel.obj
 0001:00006b30       ?growbuf@?$vector@Uvert@ragdollskel@@@@QAEXH@Z 00407b30 f i rendermodel.obj
 0001:00006b30       ?growbuf@?$vector@Umergedface@@@@QAEXH@Z 00407b30 f i octarender.obj
 0001:00006b30       ?growbuf@?$vector@Uzipfile@@@@QAEXH@Z 00407b30 f i zip.obj
 0001:00006b30       ?growbuf@?$vector@Uvvert@skelmodel@@@@QAEXH@Z 00407b30 f i rendermodel.obj
 0001:00006bb0       ??1chain@?$hashset@U?$hashtableentry@Usortkey@@Usortval@@@@@@QAE@XZ 00407bb0 f i octarender.obj
 0001:00006c10       ??1?$hashtableentry@Usortkey@@Usortval@@@@QAE@XZ 00407c10 f i octarender.obj
 0001:00006c60       ??1sortval@@QAE@XZ         00407c60 f i octarender.obj
 0001:00006cb0       ?insert@?$hashset@U?$hashtableentry@IUvboinfo@@@@@@QAEPAUchain@1@I@Z 00407cb0 f i octarender.obj
 0001:00006d70       ?insert@?$hashset@U?$hashtableentry@Usortkey@@Usortval@@@@@@QAEPAUchain@1@I@Z 00407d70 f i octarender.obj
 0001:00006e30       ?insert@?$hashset@U?$hashtableentry@Uedgegroup@@H@@@@QAEPAUchain@1@I@Z 00407e30 f i octarender.obj
 0001:00006ef0       ??0chain@?$hashset@U?$hashtableentry@Usortkey@@Usortval@@@@@@QAE@XZ 00407ef0 f i octarender.obj
 0001:00006f60       ??$remove@I@?$hashset@U?$hashtableentry@IUvboinfo@@@@@@QAE_NABI@Z 00407f60 f i octarender.obj
 0001:00006ff0       _atan2f                    00407ff0 f i octarender.obj
 0001:00007010       ?lerp@bvec@@QAEXABU1@0M@Z  00408010 f i octarender.obj
 0001:000070a0       ?supportpoint@EntAABB@mpr@@QBE?AUvec@@ABU3@@Z 004080a0 f i physics.obj
 0001:00007140       ?contactface@EntOBB@mpr@@QBE?AUvec@@ABU3@0@Z 00408140 f i physics.obj
 0001:000075c0       ?supportpoint@EntOBB@mpr@@QBE?AUvec@@ABU3@@Z 004085c0 f i physics.obj
 0001:00007870       ??0ModelEllipse@mpr@@QAE@ABUvec@@00M@Z 00408870 f i physics.obj
 0001:00007870       ??0ModelOBB@mpr@@QAE@ABUvec@@00M@Z 00408870 f i physics.obj
 0001:00007a10       ?contactface@ModelOBB@mpr@@QBE?AUvec@@ABU3@0@Z 00408a10 f i physics.obj
 0001:00007e90       ?supportpoint@ModelOBB@mpr@@QBE?AUvec@@ABU3@@Z 00408e90 f i physics.obj
 0001:00008130       ?contactface@ModelEllipse@mpr@@QBE?AUvec@@ABU3@0@Z 00409130 f i physics.obj
 0001:000085c0       ?supportpoint@ModelEllipse@mpr@@QBE?AUvec@@ABU3@@Z 004095c0 f i physics.obj
 0001:000088e0       ??0dynentcacheentry@@QAE@XZ 004098e0 f i physics.obj
 0001:00008930       ??1dynentcacheentry@@QAE@XZ 00409930 f i physics.obj
 0001:00008980       ??$collide@UEntOBB@mpr@@UEntCylinder@2@@mpr@@YA_NABUEntOBB@0@ABUEntCylinder@0@PAUvec@@22@Z 00409980 f i physics.obj
 0001:0000a4f0       ??$collide@UEntOBB@mpr@@U12@@mpr@@YA_NABUEntOBB@0@0PAUvec@@11@Z 0040b4f0 f i physics.obj
 0001:0000bc80       ??$collide@UEntOBB@mpr@@UModelEllipse@2@@mpr@@YA_NABUEntOBB@0@ABUModelEllipse@0@PAUvec@@22@Z 0040cc80 f i physics.obj
 0001:0000d400       ??$collide@UEntOBB@mpr@@UModelOBB@2@@mpr@@YA_NABUEntOBB@0@ABUModelOBB@0@PAUvec@@22@Z 0040e400 f i physics.obj
 0001:0000eb80       ??$collide@USolidCube@mpr@@UEntOBB@2@@mpr@@YA_NABUSolidCube@0@ABUEntOBB@0@@Z 0040fb80 f i physics.obj
 0001:0000f6b0       ??$collide@UCubePlanes@mpr@@UEntOBB@2@@mpr@@YA_NABUCubePlanes@0@ABUEntOBB@0@@Z 004106b0 f i physics.obj
 0001:00010590       ??$collide@USolidCube@mpr@@UEntCapsule@2@@mpr@@YA_NABUSolidCube@0@ABUEntCapsule@0@@Z 00411590 f i physics.obj
 0001:00011300       ??$collide@UCubePlanes@mpr@@UEntCapsule@2@@mpr@@YA_NABUCubePlanes@0@ABUEntCapsule@0@@Z 00412300 f i physics.obj
 0001:00012460       _powf                      00413460 f i physics.obj
 0001:00012470       ?reset@physent@@QAEXXZ     00413470 f i physics.obj
 0001:000124f0       ??0physent@@QAE@XZ         004134f0 f i physics.obj
 0001:00012590       ?projectxy@vec@@QAEAAU1@ABU1@M@Z 00413590 f i physics.obj
 0001:000126a0       ?collisionbox@model@@QAEXHAAUvec@@0@Z 004136a0 f i physics.obj
 0001:00012790       ??0shaftbb@@QAE@ABUivec@@HABUbvec@@@Z 00413790 f i pvs.obj
 0001:00012850       ?calcshaft@shaft@@QAEXABUshaftbb@@0@Z 00413850 f i pvs.obj
 0001:00012b40       ?outside@shaft@@QBE_NABUshaftbb@@@Z 00413b40 f i pvs.obj
 0001:00012bf0       ?inside@shaft@@QBE_NABUshaftbb@@@Z 00413bf0 f i pvs.obj
 0001:00012ca0       ??0<unnamed-type-waterplanes>@@QAE@XZ 00413ca0 f i pvs.obj
 0001:00012cf0       ??1<unnamed-type-waterplanes>@@QAE@XZ 00413cf0 f i pvs.obj
 0001:00012d40       ??0pvsworker@@QAE@XZ       00413d40 f i pvs.obj
 0001:00012df0       ??1pvsworker@@QAE@XZ       00413df0 f i pvs.obj
 0001:00012e60       ?hasvoxel@pvsworker@@QAEHABUivec@@HHHHPAH@Z 00413e60 f i pvs.obj
 0001:00013140       ?hidepvs@pvsworker@@QAEXAAUpvsnode@@@Z 00414140 f i pvs.obj
 0001:00013190       ?shaftcullpvs@pvsworker@@QAEXAAUshaft@@AAUpvsnode@@ABUivec@@H@Z 00414190 f i pvs.obj
 0001:000132e0       ?cullpvs@pvsworker@@QAEXAAUpvsnode@@ABUivec@@H@Z 004142e0 f i pvs.obj
 0001:000144e0       ?compresspvs@pvsworker@@QAE_NAAUpvsnode@@HH@Z 004154e0 f i pvs.obj
 0001:00014610       ?serializepvs@pvsworker@@QAE_NAAUpvsnode@@H@Z 00415610 f i pvs.obj
 0001:00014830       ?materialoccluded@pvsworker@@QAE_NAAUpvsnode@@ABUivec@@H11@Z 00415830 f i pvs.obj
 0001:00014910       ?materialoccluded@pvsworker@@QAE_NAAU?$vector@PAUmaterialsurface@@@@@Z 00415910 f i pvs.obj
 0001:00014a20       ?calcpvs@pvsworker@@QAEXABUivec@@H@Z 00415a20 f i pvs.obj
 0001:00014bb0       ?genviewcell@pvsworker@@QAEHABUivec@@H@Z 00415bb0 f i pvs.obj
 0001:00014d30       ?run@pvsworker@@SAHPAX@Z   00415d30 f i pvs.obj
 0001:00014f40       ??0viewcellnode@@QAE@XZ    00415f40 f i pvs.obj
 0001:00014f80       ??1viewcellnode@@QAE@XZ    00415f80 f i pvs.obj
 0001:00014fd0       ?access@?$hashtable@Upvsdata@@H@@QAEPAHABUpvsdata@@@Z 00415fd0 f i pvs.obj
 0001:00015080       ??A?$hashtable@Upvsdata@@H@@QAEAAHABUpvsdata@@@Z 00416080 f i pvs.obj
 0001:00015140       ??1?$hashset@U?$hashtableentry@Upvsdata@@H@@@@QAE@XZ 00416140 f i pvs.obj
 0001:00015190       ?clear@?$hashset@U?$hashtableentry@Upvsdata@@H@@@@QAEXXZ 00416190 f i pvs.obj
 0001:00015200       ?add@?$vector@PAUpvsworker@@@@QAEAAPAUpvsworker@@ABQAU2@@Z 00416200 f i pvs.obj
 0001:00015250       ?deletecontents@?$vector@PAUpvsworker@@@@QAEXXZ 00416250 f i pvs.obj
 0001:000152f0       ?growbuf@?$vector@Upvsnode@@@@QAEXH@Z 004162f0 f i pvs.obj
 0001:00015380       ??0?$hashset@U?$hashtableentry@Upvsdata@@H@@@@QAE@H@Z 00416380 f i pvs.obj
 0001:00015410       ?growbuf@?$vector@Upvsdata@@@@QAEXH@Z 00416410 f i pvs.obj
 0001:000154a0       ?growbuf@?$vector@Uviewcellrequest@@@@QAEXH@Z 004164a0 f i pvs.obj
 0001:00015530       ?growbuf@?$vector@PAUpvsworker@@@@QAEXH@Z 00416530 f i pvs.obj
 0001:000155c0       ?insert@?$hashset@U?$hashtableentry@Upvsdata@@H@@@@QAEPAUchain@1@I@Z 004165c0 f i pvs.obj
 0001:00015680       ??$getlil@H@stream@@QAEHXZ 00416680 f i pvs.obj
 0001:000156a0       ??$getlil@G@stream@@QAEGXZ 004166a0 f i pvs.obj
 0001:000156c0       ??_Goctaentities@@QAEPAXI@Z 004166c0 f i world.obj
 0001:00015740       ?add@?$vector@Uentity@@@@QAEAAUentity@@ABU2@@Z 00416740 f i world.obj
 0001:000157b0       ?growbuf@?$vector@Uentity@@@@QAEXH@Z 004167b0 f i world.obj
 0001:00015840       ?rotate@vec@@QAEAAU1@MABU1@@Z 00416840 f i world.obj
 0001:000159c0       ?concatstring@@YAPADPADPBDI@Z 004169c0 f i world.obj
 0001:00015a00       ??0octaentities@@QAE@ABUivec@@H@Z 00416a00 f i world.obj
 0001:00015ac0       ??1?$hashtable@Uivec@@H@@QAE@XZ 00416ac0 f i rendermodel.obj
 0001:00015ac0       ??1?$hashtable@Uvec@@H@@QAE@XZ 00416ac0 f i worldio.obj
 0001:00015b00       ??1?$hashtable@Uvec2@@H@@QAE@XZ 00416b00 f i worldio.obj
 0001:00015b40       ??1?$hashtable@HU?$vector@Uivec@@@@@@QAE@XZ 00416b40 f i worldio.obj
 0001:00015ba0       ??1?$hashset@U?$hashtableentry@Uvec2@@H@@@@QAE@XZ 00416ba0 f i worldio.obj
 0001:00015bf0       ??1?$hashset@U?$hashtableentry@HU?$vector@Uivec@@@@@@@@QAE@XZ 00416bf0 f i worldio.obj
 0001:00015c20       ?growbuf@?$vector@PAUVSlot@@@@QAEXH@Z 00416c20 f i worldio.obj
 0001:00015cb0       ?growbuf@?$vector@Usortitem@@@@QAEXH@Z 00416cb0 f i command.obj
 0001:00015cb0       ?growbuf@?$vector@Uskelanimspec@skelmodel@@@@QAEXH@Z 00416cb0 f i rendermodel.obj
 0001:00015cb0       ?growbuf@?$vector@Utri@ragdollskel@@@@QAEXH@Z 00416cb0 f i rendermodel.obj
 0001:00015cb0       ?growbuf@?$vector@Uivec@@@@QAEXH@Z 00416cb0 f i worldio.obj
 0001:00015cb0       ?growbuf@?$vector@Uvec@@@@QAEXH@Z 00416cb0 f i worldio.obj
 0001:00015cb0       ?growbuf@?$vector@Usoundconfig@@@@QAEXH@Z 00416cb0 f i sound.obj
 0001:00015cb0       ?growbuf@?$vector@Ueditline@@@@QAEXH@Z 00416cb0 f i 3dgui.obj
 0001:00015cb0       ?growbuf@?$vector@Utransparentmodel@@@@QAEXH@Z 00416cb0 f i rendermodel.obj
 0001:00015d30       ??0?$hashset@U?$hashtableentry@Uvec2@@H@@@@QAE@H@Z 00416d30 f i worldio.obj
 0001:00015db0       ??0?$hashset@U?$hashtableentry@HU?$vector@Uivec@@@@@@@@QAE@H@Z 00416db0 f i worldio.obj
 0001:00015e30       ?deletechunks@?$hashset@U?$hashtableentry@HU?$vector@Uivec@@@@@@@@QAEXXZ 00416e30 f i worldio.obj
 0001:00015ea0       ??1chain@?$hashset@U?$hashtableentry@HU?$vector@Uivec@@@@@@@@QAE@XZ 00416ea0 f i worldio.obj
 0001:00015f00       ??1?$hashtableentry@HU?$vector@Uivec@@@@@@QAE@XZ 00416f00 f i worldio.obj
 0001:00015f50       ?insert@?$hashset@U?$hashtableentry@Uvec@@H@@@@QAEPAUchain@1@I@Z 00416f50 f i worldio.obj
 0001:00015f50       ?insert@?$hashset@U?$hashtableentry@Uivec@@H@@@@QAEPAUchain@1@I@Z 00416f50 f i rendermodel.obj
 0001:00016000       ?insert@?$hashset@U?$hashtableentry@Uvec2@@H@@@@QAEPAUchain@1@I@Z 00417000 f i worldio.obj
 0001:000160b0       ?insert@?$hashset@U?$hashtableentry@HU?$vector@Uivec@@@@@@@@QAEPAUchain@1@I@Z 004170b0 f i worldio.obj
 0001:00016170       ??0chain@?$hashset@U?$hashtableentry@HU?$vector@Uivec@@@@@@@@QAE@XZ 00417170 f i worldio.obj
 0001:000161c0       ??$getlil@M@stream@@QAEMXZ 004171c0 f i worldio.obj
 0001:000161e0       ??1packetbuf@@QAE@XZ       004171e0 f i client.obj
 0001:00016220       ?put@?$vector@D@@QAEXPBDH@Z 00417220 f i server.obj
 0001:00016260       ?growbuf@?$vector@PAUclient@@@@QAEXH@Z 00417260 f i server.obj
 0001:000162f0       ??0serverinfo@@QAE@XZ      004172f0 f i serverbrowser.obj
 0001:000163d0       ?addping@serverinfo@@QAEXHH@Z 004173d0 f i serverbrowser.obj
 0001:00016470       ?compare@serverinfo@@SA_NPAU1@0@Z 00417470 f i serverbrowser.obj
 0001:00016510       ??_Gserverinfo@@QAEPAXI@Z  00417510 f i serverbrowser.obj
 0001:000165a0       ?remove@?$vector@Uresolverresult@@@@QAE?AUresolverresult@@H@Z 004175a0 f i serverbrowser.obj
 0001:00016620       ?deletecontents@?$vector@PAUserverinfo@@@@QAEXXZ 00417620 f i serverbrowser.obj
 0001:000166d0       ?growbuf@?$vector@Uresolverthread@@@@QAEXH@Z 004176d0 f i serverbrowser.obj
 0001:00016760       ?growbuf@?$vector@Uresolverresult@@@@QAEXH@Z 00417760 f i serverbrowser.obj
 0001:000167f0       ?growbuf@?$vector@PAUserverinfo@@@@QAEXH@Z 004177f0 f i serverbrowser.obj
 0001:00016880       ??0editline@@QAE@PBD@Z     00417880 f i 3dgui.obj
 0001:000168e0       ?grow@editline@@QAA_NHPBDZZ 004178e0 f i 3dgui.obj
 0001:00016960       ?set@editline@@QAEXPBDH@Z  00417960 f i 3dgui.obj
 0001:000169e0       ?prepend@editline@@QAEXPBD@Z 004179e0 f i 3dgui.obj
 0001:00016a50       ?append@editline@@QAEXPBD@Z 00417a50 f i 3dgui.obj
 0001:00016ab0       ?read@editline@@QAE_NPAUstream@@H@Z 00417ab0 f i 3dgui.obj
 0001:00016c10       ?del@editline@@QAEXHH@Z    00417c10 f i 3dgui.obj
 0001:00016c60       ?insert@editline@@QAEXPADHH@Z 00417c60 f i 3dgui.obj
 0001:00016ce0       ?combinelines@editline@@QAEXAAU?$vector@Ueditline@@@@@Z 00417ce0 f i 3dgui.obj
 0001:00016da0       ??0editor@@QAE@PBDH0@Z     00417da0 f i 3dgui.obj
 0001:00016ee0       ??1editor@@QAE@XZ          00417ee0 f i 3dgui.obj
 0001:00016f80       ?clear@editor@@QAEXPBD@Z   00417f80 f i 3dgui.obj
 0001:000170c0       ?setfile@editor@@QAEXPBD@Z 004180c0 f i 3dgui.obj
 0001:00017130       ?load@editor@@QAEXXZ       00418130 f i 3dgui.obj
 0001:00017270       ?save@editor@@QAEXXZ       00418270 f i 3dgui.obj
 0001:000172d0       ?region@editor@@QAE_NAAH000@Z 004182d0 f i 3dgui.obj
 0001:000173c0       ?currentline@editor@@QAEAAUeditline@@XZ 004183c0 f i 3dgui.obj
 0001:00017420       ?copyselectionto@editor@@QAEXPAU1@@Z 00418420 f i 3dgui.obj
 0001:00017610       ?tostring@editor@@QAEPADXZ 00418610 f i 3dgui.obj
 0001:00017730       ?selectiontostring@editor@@QAEPADXZ 00418730 f i 3dgui.obj
 0001:000178e0       ?removelines@editor@@QAEXHH@Z 004188e0 f i 3dgui.obj
 0001:00017980       ?del@editor@@QAE_NXZ       00418980 f i 3dgui.obj
 0001:00017b40       ?insert@editor@@QAEXD@Z    00418b40 f i 3dgui.obj
 0001:00017c30       ?insert@editor@@QAEXPBD@Z  00418c30 f i 3dgui.obj
 0001:00017e10       ?insertallfrom@editor@@QAEXPAU1@@Z 00418e10 f i 3dgui.obj
 0001:00017f30       ?key@editor@@QAEXHH@Z      00418f30 f i 3dgui.obj
 0001:00018260       ?hit@editor@@QAEXHH_N@Z    00419260 f i 3dgui.obj
 0001:00018340       ?limitscrolly@editor@@QAEHXZ 00419340 f i 3dgui.obj
 0001:000183d0       ?draw@editor@@QAEXHHH_N@Z  004193d0 f i 3dgui.obj
 0001:00018bc0       ?allowautotab@gui@@UAEX_N@Z 00419bc0 f i 3dgui.obj
 0001:00018bd0       ?autotab@gui@@QAEXXZ       00419bd0 f i 3dgui.obj
 0001:00018c40       ?shouldtab@gui@@UAE_NXZ    00419c40 f i 3dgui.obj
 0001:00018cf0       ?tab@gui@@UAEXPBDH@Z       00419cf0 f i 3dgui.obj
 0001:00018f90       ?pushlist@gui@@UAEXXZ      00419f90 f i 3dgui.obj
 0001:00019100       ?poplist@gui@@UAEXXZ       0041a100 f i 3dgui.obj
 0001:00019210       ?text@gui@@UAEHPBDH0@Z     0041a210 f i 3dgui.obj
 0001:00019240       ?button@gui@@UAEHPBDH0@Z   0041a240 f i 3dgui.obj
 0001:00019270       ?title@gui@@UAEHPBDH0@Z    0041a270 f i 3dgui.obj
 0001:000192a0       ?separator@gui@@UAEXXZ     0041a2a0 f i 3dgui.obj
 0001:000192d0       ?progress@gui@@UAEXM@Z     0041a2d0 f i 3dgui.obj
 0001:00019310       ?strut@gui@@UAEXM@Z        0041a310 f i 3dgui.obj
 0001:00019380       ?space@gui@@UAEXM@Z        0041a380 f i 3dgui.obj
 0001:000193f0       ?spring@gui@@UAEXH@Z       0041a3f0 f i 3dgui.obj
 0001:000194c0       ?column@gui@@UAEXH@Z       0041a4c0 f i 3dgui.obj
 0001:000194f0       ?layout@gui@@QAEHHH@Z      0041a4f0 f i 3dgui.obj
 0001:000195b0       ?mergehits@gui@@UAEX_N@Z   0041a5b0 f i 3dgui.obj
 0001:000195c0       ?ishit@gui@@QAE_NHHHH@Z    0041a5c0 f i 3dgui.obj
 0001:000196c0       ?image@gui@@UAEHPAUTexture@@M_N@Z 0041a6c0 f i 3dgui.obj
 0001:00019770       ?texture@gui@@UAEHAAUVSlot@@M_N@Z 0041a770 f i 3dgui.obj
 0001:00019820       ?playerpreview@gui@@UAEHHHHM_N@Z 0041a820 f i 3dgui.obj
 0001:00019df0       ?modelpreview@gui@@UAEHPBDHM_N@Z 0041adf0 f i 3dgui.obj
 0001:0001a5b0       ?slider@gui@@UAEXAAHHHHPBD@Z 0041b5b0 f i 3dgui.obj
 0001:0001a870       ?field@gui@@UAEPADPBDHHH0H@Z 0041b870 f i 3dgui.obj
 0001:0001a8a0       ?keyfield@gui@@UAEPADPBDHHH0H@Z 0041b8a0 f i 3dgui.obj
 0001:0001a8d0       ?field_@gui@@QAEPADPBDHHH0HH@Z 0041b8d0 f i 3dgui.obj
 0001:0001ae30       ?text_@gui@@QAEXPBDHHH_N1@Z 0041be30 f i 3dgui.obj
 0001:0001aeb0       ?background@gui@@UAEXHHH@Z 0041beb0 f i 3dgui.obj
 0001:0001b0e0       ?icon_@gui@@QAEXPAUTexture@@_NHHH1@Z 0041c0e0 f i 3dgui.obj
 0001:0001b4f0       ?previewslot@gui@@QAEXAAUVSlot@@_NHHH1@Z 0041c4f0 f i 3dgui.obj
 0001:0001c0b0       ?line_@gui@@QAEXHM@Z       0041d0b0 f i 3dgui.obj
 0001:0001c5e0       ?textbox@gui@@UAEXPBDHHH@Z 0041d5e0 f i 3dgui.obj
 0001:0001c6a0       ?button_@gui@@QAEHPBDH0_N1@Z 0041d6a0 f i 3dgui.obj
 0001:0001c8c0       ?drawskin@gui@@SAXHHHHHHHABUvec@@M@Z 0041d8c0 f i 3dgui.obj
 0001:0001cdd0       ?adjustscale@gui@@QAEXXZ   0041ddd0 f i 3dgui.obj
 0001:0001cf30       ?start@gui@@UAEXHMPAH_N@Z  0041df30 f i 3dgui.obj
 0001:0001d3b0       ?adjusthorizontalcolumn@gui@@QAEXHH@Z 0041e3b0 f i 3dgui.obj
 0001:0001d420       ?adjustverticalcolumn@gui@@QAEXHH@Z 0041e420 f i 3dgui.obj
 0001:0001d490       ?adjustcolumns@gui@@QAEXXZ 0041e490 f i 3dgui.obj
 0001:0001d540       ?end@gui@@UAEXXZ           0041e540 f i 3dgui.obj
 0001:0001d980       ?add@?$vector@Uskelanimspec@skelmodel@@@@QAEAAUskelanimspec@skelmodel@@XZ 0041e980 f i rendermodel.obj
 0001:0001d980       ?add@?$vector@Ueditline@@@@QAEAAUeditline@@XZ 0041e980 f i 3dgui.obj
 0001:0001da00       ?insert@?$vector@Ueditline@@@@QAEAAUeditline@@HABU2@@Z 0041ea00 f i 3dgui.obj
 0001:0001dab0       ?insert@?$vector@PAUeditor@@@@QAEAAPAUeditor@@HABQAU2@@Z 0041eab0 f i 3dgui.obj
 0001:0001db20       ??_Ggui@@UAEPAXI@Z         0041eb20 f i 3dgui.obj
 0001:0001db20       ??_Egui@@UAEPAXI@Z         0041eb20 f i * CIL library *:* CIL module *
 0001:0001db70       ??1gui@@UAE@XZ             0041eb70 f i 3dgui.obj
 0001:0001dbb0       ?growbuf@?$vector@PAUeditor@@@@QAEXH@Z 0041ebb0 f i 3dgui.obj
 0001:0001dc40       ?growbuf@?$vector@Ulist@gui@@@@QAEXH@Z 0041ec40 f i 3dgui.obj
 0001:0001dcd0       ?growbuf@?$vector@Ugui@@@@QAEXH@Z 0041ecd0 f i 3dgui.obj
 0001:0001dd50       ??4gui@@QAEAAU0@ABU0@@Z    0041ed50 f i 3dgui.obj
 0001:0001ddc0       ??0gui@@QAE@ABU0@@Z        0041edc0 f i 3dgui.obj
 0001:0001de70       ??_Gg3d_gui@@UAEPAXI@Z     0041ee70 f i 3dgui.obj
 0001:0001de70       ??_Eg3d_gui@@UAEPAXI@Z     0041ee70 f i * CIL library *:* CIL module *
 0001:0001de90       ?screenview@rendertarget@@UBE_NXZ 0041ee90 f i glare.obj
 0001:0001de90       ?skeletal@model@@UBE_NXZ   0041ee90 f i rendermodel.obj
 0001:0001de90       ?shadowcompare@rendertarget@@UBE_NXZ 0041ee90 f i glare.obj
 0001:0001de90       ?usesvertexarray@partrenderer@@UAE_NXZ 0041ee90 f i renderparticles.obj
 0001:0001de90       ?swaptexs@rendertarget@@UBE_NXZ 0041ee90 f i glare.obj
 0001:0001de90       ?flipdebug@shadowmaptexture@@UBE_NXZ 0041ee90 f i shadowmap.obj
 0001:0001de90       ?shouldtab@g3d_gui@@UAE_NXZ 0041ee90 f i 3dgui.obj
 0001:0001de90       ?texrect@rendertarget@@UBE_NXZ 0041ee90 f i glare.obj
 0001:0001de90       ?envmapped@model@@UAE_NXZ  0041ee90 f i rendermodel.obj
 0001:0001dea0       ?playerpreview@g3d_gui@@UAEHHHHM_N@Z 0041eea0 f i 3dgui.obj
 0001:0001deb0       ?modelpreview@g3d_gui@@UAEHPBDHM_N@Z 0041eeb0 f i 3dgui.obj
 0001:0001dec0       ??1g3d_gui@@UAE@XZ         0041eec0 f i 3dgui.obj
 0001:0001ded0       ?traverse@BIH@@QAE_NABUvec@@00MAAMHPAUBIHNode@@MM@Z 0041eed0 f i bih.obj
 0001:0001e250       ?traverse@BIH@@QAE_NABUvec@@0MAAMH@Z 0041f250 f i bih.obj
 0001:0001e3e0       ?init@blobrenderer@@QAEXH@Z 0041f3e0 f i blob.obj
 0001:0001e5f0       ?freeblob@blobrenderer@@QAE_NXZ 0041f5f0 f i blob.obj
 0001:0001e660       ?newblob@blobrenderer@@QAEAAUblobinfo@@ABUvec@@M@Z 0041f660 f i blob.obj
 0001:0001e6e0       ?addvert@blobrenderer@@QAEHABUvec@@@Z 0041f6e0 f i blob.obj
 0001:0001e7f0       ?addtris@blobrenderer@@QAEXPBUvec@@H@Z 0041f7f0 f i blob.obj
 0001:0001ec10       ?gentris@blobrenderer@@QAEXAAUcube@@HABUivec@@HPAUmaterialsurface@@H@Z 0041fc10 f i blob.obj
 0001:0001f880       ?findmaterials@blobrenderer@@QAEXPAUvtxarray@@@Z 00420880 f i blob.obj
 0001:0001fa30       ?findescaped@blobrenderer@@QAEXPAUcube@@ABUivec@@HH@Z 00420a30 f i blob.obj
 0001:0001fb20       ?gentris@blobrenderer@@QAEXPAUcube@@ABUivec@@HH@Z 00420b20 f i blob.obj
 0001:0001fd50       ?addblob@blobrenderer@@QAEPAUblobinfo@@ABUvec@@MM@Z 00420d50 f i blob.obj
 0001:0001ff30       ?setuprenderstate@blobrenderer@@SAXXZ 00420f30 f i blob.obj
 0001:0001ffc0       ?cleanuprenderstate@blobrenderer@@SAXXZ 00420fc0 f i blob.obj
 0001:00020020       ?fadeblob@blobrenderer@@QAEXPAUblobinfo@@M@Z 00421020 f i blob.obj
 0001:00020180       ?renderblob@blobrenderer@@QAEXABUvec@@MM@Z 00421180 f i blob.obj
 0001:000203e0       ??$clip@$0A@@blobrenderer@@SAHPBUvec@@HMMPAU1@@Z 004213e0 f i blob.obj
 0001:00020870       ??$clip@$00@blobrenderer@@SAHPBUvec@@HMMPAU1@@Z 00421870 f i blob.obj
 0001:00020cf0       ??$clip@$01@blobrenderer@@SAHPBUvec@@HMMPAU1@@Z 00421cf0 f i blob.obj
 0001:00021180       ??$split@$01@blobrenderer@@SAHPBUvec@@HMMPAU1@@Z 00422180 f i blob.obj
 0001:00021610       ?freedecal@decalrenderer@@QAEHXZ 00422610 f i decal.obj
 0001:00021670       ?fadedecal@decalrenderer@@QAEXAAUdecalinfo@@E@Z 00422670 f i decal.obj
 0001:00021780       ?clearfadeddecals@decalrenderer@@QAEXXZ 00422780 f i decal.obj
 0001:00021860       ?fadeindecals@decalrenderer@@QAEXXZ 00422860 f i decal.obj
 0001:00021a10       ?fadeoutdecals@decalrenderer@@QAEXXZ 00422a10 f i decal.obj
 0001:00021bd0       ?render@decalrenderer@@QAEXXZ 00422bd0 f i decal.obj
 0001:00021e60       ?adddecal@decalrenderer@@QAEXABUvec@@0MABUbvec@@H@Z 00422e60 f i decal.obj
 0001:00022350       ?clip@decalrenderer@@SAHPBUvec@@HABU2@MMPAU2@@Z 00423350 f i decal.obj
 0001:00022820       ?gentris@decalrenderer@@QAEXAAUcube@@HABUivec@@HPAUmaterialsurface@@H@Z 00423820 f i decal.obj
 0001:00024390       ?findmaterials@decalrenderer@@QAEXPAUvtxarray@@@Z 00425390 f i decal.obj
 0001:00024570       ?findescaped@decalrenderer@@QAEXPAUcube@@ABUivec@@HH@Z 00425570 f i decal.obj
 0001:00024660       ?gentris@decalrenderer@@QAEXPAUcube@@ABUivec@@HH@Z 00425660 f i decal.obj
 0001:00024890       ?calccolor@dynlight@@QAEXXZ 00425890 f i dynlight.obj
 0001:000249f0       ?remove@?$vector@Udynlight@@@@QAEXHH@Z 004259f0 f i dynlight.obj
 0001:00024a50       ?insert@?$vector@PAUdynlight@@@@QAEAAPAUdynlight@@HABQAU2@@Z 00425a50 f i dynlight.obj
 0001:00024ad0       ?growbuf@?$vector@PAUdynlight@@@@QAEXH@Z 00425ad0 f i dynlight.obj
 0001:00024b60       ??$dist_to_bb@Uivec@@@vec@@QBEMABUivec@@0@Z 00425b60 f i dynlight.obj
 0001:00024c30       ??1rendertarget@@UAE@XZ    00425c30 f i glare.obj
 0001:00024c40       ?attachment@rendertarget@@UBEIXZ 00425c40 f i glare.obj
 0001:00024c50       ?colorformats@rendertarget@@UBEPBIXZ 00425c50 f i glare.obj
 0001:00024c60       ?depthformats@rendertarget@@UBEPBIXZ 00425c60 f i glare.obj
 0001:00024c70       ?shouldrender@rendertarget@@UAE_NXZ 00425c70 f i glare.obj
 0001:00024c70       ?flipdebug@rendertarget@@UBE_NXZ 00425c70 f i glare.obj
 0001:00024c70       ?loaddefaultparts@animmodel@@UAE_NXZ 00425c70 f i rendermodel.obj
 0001:00024c70       ?skeletal@skelmodel@@UBE_NXZ 00425c70 f i rendermodel.obj
 0001:00024c70       ?depthtest@rendertarget@@UBE_NXZ 00425c70 f i glare.obj
 0001:00024c70       ?usesvertexarray@?$varenderer@$01@@UAE_NXZ 00425c70 f i renderparticles.obj
 0001:00024c70       ?dorender@rendertarget@@UAE_NXZ 00425c70 f i glare.obj
 0001:00024c70       ?usesvertexarray@?$varenderer@$0A@@@UAE_NXZ 00425c70 f i renderparticles.obj
 0001:00024c70       ?usesvertexarray@?$varenderer@$00@@UAE_NXZ 00425c70 f i renderparticles.obj
 0001:00024c70       ?filter@rendertarget@@UBE_NXZ 00425c70 f i glare.obj
 0001:00024c80       ?cleanupblur@rendertarget@@QAEXXZ 00425c80 f i glare.obj
 0001:00024ce0       ?setupblur@rendertarget@@QAEXXZ 00425ce0 f i glare.obj
 0001:00024df0       ?setup@rendertarget@@QAEXHH@Z 00425df0 f i glare.obj
 0001:00025090       ?rendertiles@rendertarget@@UAEXXZ 00426090 f i glare.obj
 0001:000254b0       ?blur@rendertarget@@QAEXHMHHHH_N@Z 004264b0 f i glare.obj
 0001:000256b0       ?doblur@rendertarget@@UAEXHM@Z 004266b0 f i glare.obj
 0001:00025740       ?scissorrender@rendertarget@@UAE_NAAH000@Z 00426740 f i glare.obj
 0001:000258c0       ?scissorblur@rendertarget@@UAE_NAAH000@Z 004268c0 f i glare.obj
 0001:00025a30       ?render@rendertarget@@QAEXHHHM@Z 00426a30 f i glare.obj
 0001:00025f50       ?dodebug@rendertarget@@UAEXHH@Z 00426f50 f i glare.obj
 0001:00025f50       ?setglare@model@@UAEXMM@Z  00426f50 f i rendermodel.obj
 0001:00025f60       ?debug@rendertarget@@QAEXXZ 00426f60 f i glare.obj
 0001:00026160       ??_Grendertarget@@UAEPAXI@Z 00427160 f i glare.obj
 0001:00026160       ??_Erendertarget@@UAEPAXI@Z 00427160 f i * CIL library *:* CIL module *
 0001:00026180       ?dorender@glaretexture@@UAE_NXZ 00427180 f i glare.obj
 0001:00026190       ??_Gshadowmaptexture@@UAEPAXI@Z 00427190 f i shadowmap.obj
 0001:00026190       ??_Eshadowmaptexture@@UAEPAXI@Z 00427190 f i * CIL library *:* CIL module *
 0001:00026190       ??_Eglaretexture@@UAEPAXI@Z 00427190 f i * CIL library *:* CIL module *
 0001:00026190       ??_Gdepthfxtexture@@UAEPAXI@Z 00427190 f i renderparticles.obj
 0001:00026190       ??_Edepthfxtexture@@UAEPAXI@Z 00427190 f i * CIL library *:* CIL module *
 0001:00026190       ??_Gglaretexture@@UAEPAXI@Z 00427190 f i glare.obj
 0001:000261e0       ??0grasswedge@@QAE@H@Z     004271e0 f i grass.obj
 0001:00026590       ?growbuf@?$vector@Ugrassvert@@@@QAEXH@Z 00427590 f i grass.obj
 0001:00026610       ?growbuf@?$vector@Ugrassgroup@@@@QAEXH@Z 00427610 f i grass.obj
 0001:000266a0       ??0QuadNode@@QAE@HHH@Z     004276a0 f i material.obj
 0001:000266e0       ?clear@QuadNode@@QAEXXZ    004276e0 f i material.obj
 0001:00026720       ??1QuadNode@@QAE@XZ        00427720 f i material.obj
 0001:00026730       ?insert@QuadNode@@QAEXHHH@Z 00427730 f i material.obj
 0001:00026880       ?genmatsurfs@QuadNode@@QAEXGEEHAAPAUmaterialsurface@@@Z 00427880 f i material.obj
 0001:000269e0       ?growbuf@?$vector@Umd5joint@@@@QAEXH@Z 004279e0 f i rendermodel.obj
 0001:000269e0       ?growbuf@?$vector@Umaterialsurface@@@@QAEXH@Z 004279e0 f i material.obj
 0001:00026a70       ?growbuf@?$vector@Uvert@vertmodel@@@@QAEXH@Z 00427a70 f i rendermodel.obj
 0001:00026a70       ?growbuf@?$vector@Uskeladjustment@@@@QAEXH@Z 00427a70 f i rendermodel.obj
 0001:00026a70       ?growbuf@?$vector@Uwaterinfo@@@@QAEXH@Z 00427a70 f i material.obj
 0001:00026af0       ?compressfind@unionfind@@QAEHH@Z 00427af0 f i material.obj
 0001:00026b20       ?unite@unionfind@@QAEXHH@Z 00427b20 f i material.obj
 0001:00026c20       ?clip@glmatrixf@@QAEXABUplane@@ABU1@@Z 00427c20 f i rendergl.obj
 0001:00026d10       ?transposedtransform@glmatrixf@@QBEXABUplane@@AAU2@@Z 00427d10 f i rendergl.obj
 0001:00026e30       _logf                      00427e30 f i rendergl.obj
 0001:00026e40       ?transpose@glmatrixf@@QAEXXZ 00427e40 f i rendergl.obj
 0001:00026f10       ??$mul@MM@glmatrixf@@QAEXQBM0@Z 00427f10 f i rendergl.obj
 0001:000272b0       ??0ragdollskel@@QAE@XZ     004282b0 f i rendermodel.obj
 0001:000273b0       ?setupjoints@ragdollskel@@QAEXXZ 004283b0 f i rendermodel.obj
 0001:000278b0       ?setuprotfrictions@ragdollskel@@QAEXXZ 004288b0 f i rendermodel.obj
 0001:000279c0       ??0ragdolldata@@QAE@PAUragdollskel@@M@Z 004289c0 f i rendermodel.obj
 0001:00027b70       ?calcanimjoint@ragdolldata@@QAEXHABUmatrix3x4@@@Z 00428b70 f i rendermodel.obj
 0001:00027f10       ?calctris@ragdolldata@@QAEXXZ 00428f10 f i rendermodel.obj
 0001:00028180       ?calcboundsphere@ragdolldata@@QAEXXZ 00429180 f i rendermodel.obj
 0001:000282c0       ?init@ragdolldata@@QAEXPAUdynent@@@Z 004292c0 f i rendermodel.obj
 0001:00028410       ??_Gragdolldata@@QAEPAXI@Z 00429410 f i rendermodel.obj
 0001:00028470       ?setframes@animpos@animmodel@@QAEXABUaniminfo@@@Z 00429470 f i rendermodel.obj
 0001:00028560       ??0skin@animmodel@@QAE@XZ  00429560 f i rendermodel.obj
 0001:00028600       ?setuptmus@skin@animmodel@@QAEXPBUanimstate@2@_N@Z 00429600 f i rendermodel.obj
 0001:00028b90       ?setshaderparams@skin@animmodel@@QAEXPAUmesh@2@PBUanimstate@2@_N@Z 00429b90 f i rendermodel.obj
 0001:00029380       ?loadshader@skin@animmodel@@QAEPAUShader@@_N0@Z 0042a380 f i rendermodel.obj
 0001:00029630       ?bind@skin@animmodel@@QAEXPAUmesh@2@PBUanimstate@2@@Z 0042a630 f i rendermodel.obj
 0001:00029cc0       ??1mesh@animmodel@@UAE@XZ  0042acc0 f i rendermodel.obj
 0001:00029cf0       ?calcbb@mesh@animmodel@@UAEXHAAUvec@@0ABUmatrix3x4@@@Z 0042acf0 f i rendermodel.obj
 0001:00029cf0       ?gentris@mesh@animmodel@@UAEXHPAUTexture@@PAU?$vector@Utri@BIH@@@@ABUmatrix3x4@@@Z 0042acf0 f i rendermodel.obj
 0001:00029d00       ?setshader@mesh@animmodel@@UAEXPAUShader@@@Z 0042ad00 f i rendermodel.obj
 0001:00029d70       ??1meshgroup@animmodel@@UAE@XZ 0042ad70 f i rendermodel.obj
 0001:00029e20       ?findtag@meshgroup@animmodel@@UAEHPBD@Z 0042ae20 f i rendermodel.obj
 0001:00029e30       ?concattagtransform@meshgroup@animmodel@@UAEXPAUpart@2@HHABUmatrix3x4@@AAU4@@Z 0042ae30 f i rendermodel.obj
 0001:00029e40       ?gentris@meshgroup@animmodel@@QAEXHAAU?$vector@Uskin@animmodel@@@@PAU?$vector@Utri@BIH@@@@ABUmatrix3x4@@@Z 0042ae40 f i rendermodel.obj
 0001:00029ea0       ?totalframes@meshgroup@animmodel@@UBEHXZ 0042aea0 f i rendermodel.obj
 0001:00029ea0       ?type@md3@@UBEHXZ          0042aea0 f i rendermodel.obj
 0001:00029eb0       ?setalphablend@model@@UAEX_N@Z 0042aeb0 f i rendermodel.obj
 0001:00029eb0       ?setfullbright@model@@UAEXM@Z 0042aeb0 f i rendermodel.obj
 0001:00029eb0       ?init@partrenderer@@UAEXH@Z 0042aeb0 f i renderparticles.obj
 0001:00029eb0       ?killpart@listrenderer@@UAEXPAUlistparticle@@@Z 0042aeb0 f i renderparticles.obj
 0001:00029eb0       ?setspec@model@@UAEXM@Z    0042aeb0 f i rendermodel.obj
 0001:00029eb0       ?setambient@model@@UAEXM@Z 0042aeb0 f i rendermodel.obj
 0001:00029eb0       ?setcullface@model@@UAEX_N@Z 0042aeb0 f i rendermodel.obj
 0001:00029eb0       ?preload@meshgroup@animmodel@@UAEXPAUpart@2@@Z 0042aeb0 f i rendermodel.obj
 0001:00029eb0       ?setalphatest@model@@UAEXM@Z 0042aeb0 f i rendermodel.obj
 0001:00029eb0       ?resettracked@partrenderer@@UAEXPAUphysent@@@Z 0042aeb0 f i renderparticles.obj
 0001:00029eb0       ?setshader@model@@UAEXPAUShader@@@Z 0042aeb0 f i rendermodel.obj
 0001:00029ec0       ?render@meshgroup@animmodel@@UAEXPBUanimstate@2@MABUvec@@1PAUdynent@@PAUpart@2@@Z 0042aec0 f i rendermodel.obj
 0001:00029ec0       ?seedemitter@partrenderer@@UAEXAAUparticleemitter@@ABUvec@@1HMH@Z 0042aec0 f i renderparticles.obj
 0001:00029ed0       ?loadmeshes@animmodel@@UAEPAUmeshgroup@1@PBDPAD@Z 0042aed0 f i rendermodel.obj
 0001:00029ed0       ?write@stream@@UAEHPBXH@Z  0042aed0 f i stream.obj
 0001:00029ed0       ?read@stream@@UAEHPAXH@Z   0042aed0 f i stream.obj
 0001:00029ed0       ?adddepthfx@partrenderer@@UAEHAAUvec@@0@Z 0042aed0 f i renderparticles.obj
 0001:00029ee0       ?sharemeshes@animmodel@@QAAPAUmeshgroup@1@PBDZZ 0042aee0 f i rendermodel.obj
 0001:00029f90       ??0part@animmodel@@QAE@XZ  0042af90 f i rendermodel.obj
 0001:0002a060       ??1part@animmodel@@UAE@XZ  0042b060 f i rendermodel.obj
 0001:0002a130       ?cleanup@part@animmodel@@UAEXXZ 0042b130 f i rendermodel.obj
 0001:0002a140       ?calcbb@part@animmodel@@QAEXHAAUvec@@0ABUmatrix3x4@@@Z 0042b140 f i rendermodel.obj
 0001:0002a3e0       ?gentris@part@animmodel@@QAEXHPAU?$vector@Utri@BIH@@@@ABUmatrix3x4@@@Z 0042b3e0 f i rendermodel.obj
 0001:0002a650       ?link@part@animmodel@@QAE_NPAU12@PBDABUvec@@HHPAU3@@Z 0042b650 f i rendermodel.obj
 0001:0002a710       ?unlink@part@animmodel@@QAE_NPAU12@@Z 0042b710 f i rendermodel.obj
 0001:0002a7b0       ?initskins@part@animmodel@@QAEXPAUTexture@@0H@Z 0042b7b0 f i rendermodel.obj
 0001:0002a850       ?preloadshaders@part@animmodel@@QAEXXZ 0042b850 f i rendermodel.obj
 0001:0002aa30       ?getdefaultanim@part@animmodel@@UAEXAAUaniminfo@@HIPAUdynent@@@Z 0042ba30 f i rendermodel.obj
 0001:0002aa50       ?calcanim@part@animmodel@@QAE_NHHHHPAUdynent@@HAAUaniminfo@@AAH@Z 0042ba50 f i rendermodel.obj
 0001:0002aea0       ?render@part@animmodel@@QAEXHHHMABUvec@@0PAUdynent@@@Z 0042bea0 f i rendermodel.obj
 0001:0002aee0       ?render@part@animmodel@@QAEXHHHMABUvec@@0PAUdynent@@PAUanimstate@2@@Z 0042bee0 f i rendermodel.obj
 0001:0002bc10       ?setanim@part@animmodel@@QAEXHHHHMH@Z 0042cc10 f i rendermodel.obj
 0001:0002bd50       ?loadanim@skelmeshgroup@skelmodel@@UAEPAUskelanimspec@2@PBD@Z 0042cd50 f i rendermodel.obj
 0001:0002bd50       ?linktype@animmodel@@UBEHPAU1@@Z 0042cd50 f i rendermodel.obj
 0001:0002bd60       ?render@animmodel@@QAEXHHHMABUvec@@0PAUdynent@@PAUmodelattach@@@Z 0042cd60 f i rendermodel.obj
 0001:0002bff0       ?render@animmodel@@UAEXHHHABUvec@@MMPAUdynent@@PAUmodelattach@@00M@Z 0042cff0 f i rendermodel.obj
 0001:0002c800       ??0animmodel@@QAE@PBD@Z    0042d800 f i rendermodel.obj
 0001:0002c8b0       ??1animmodel@@UAE@XZ       0042d8b0 f i rendermodel.obj
 0001:0002c990       ?name@animmodel@@UBEPBDXZ  0042d990 f i rendermodel.obj
 0001:0002c9a0       ?cleanup@animmodel@@UAEXXZ 0042d9a0 f i rendermodel.obj
 0001:0002c9d0       ?initmatrix@animmodel@@QAEXAAUmatrix3x4@@@Z 0042d9d0 f i rendermodel.obj
 0001:0002cbb0       ?preloadBIH@animmodel@@UAEXXZ 0042dbb0 f i rendermodel.obj
 0001:0002cc30       ?setBIH@animmodel@@UAEPAUBIH@@XZ 0042dc30 f i rendermodel.obj
 0001:0002cd10       ?envmapped@animmodel@@UAE_NXZ 0042dd10 f i rendermodel.obj
 0001:0002cdb0       ?preloadshaders@animmodel@@UAEXXZ 0042ddb0 f i rendermodel.obj
 0001:0002cde0       ?preloadmeshes@animmodel@@UAEXXZ 0042dde0 f i rendermodel.obj
 0001:0002ce10       ?setshader@animmodel@@UAEXPAUShader@@@Z 0042de10 f i rendermodel.obj
 0001:0002ce70       ?setenvmap@animmodel@@UAEXMMPAUTexture@@@Z 0042de70 f i rendermodel.obj
 0001:0002cef0       ?setspec@animmodel@@UAEXM@Z 0042def0 f i rendermodel.obj
 0001:0002cf50       ?setambient@animmodel@@UAEXM@Z 0042df50 f i rendermodel.obj
 0001:0002cfb0       ?setglow@animmodel@@UAEXMMM@Z 0042dfb0 f i rendermodel.obj
 0001:0002d020       ?setglare@animmodel@@UAEXMM@Z 0042e020 f i rendermodel.obj
 0001:0002d080       ?setalphatest@animmodel@@UAEXM@Z 0042e080 f i rendermodel.obj
 0001:0002d0e0       ?setalphablend@animmodel@@UAEX_N@Z 0042e0e0 f i rendermodel.obj
 0001:0002d140       ?setfullbright@animmodel@@UAEXM@Z 0042e140 f i rendermodel.obj
 0001:0002d1a0       ?setcullface@animmodel@@UAEX_N@Z 0042e1a0 f i rendermodel.obj
 0001:0002d200       ?calcbb@animmodel@@UAEXHAAUvec@@0@Z 0042e200 f i rendermodel.obj
 0001:0002d310       ?startrender@animmodel@@UAEXXZ 0042e310 f i rendermodel.obj
 0001:0002d4a0       ?disabletc@animmodel@@SAXXZ 0042e4a0 f i rendermodel.obj
 0001:0002d4f0       ?disablevbo@animmodel@@SAXXZ 0042e4f0 f i rendermodel.obj
 0001:0002d600       ?disableglow@animmodel@@SAXXZ 0042e600 f i rendermodel.obj
 0001:0002d650       ?endrender@animmodel@@UAEXXZ 0042e650 f i rendermodel.obj
 0001:0002d790       ??_Emesh@animmodel@@UAEPAXI@Z 0042e790 f i * CIL library *:* CIL module *
 0001:0002d790       ??_Gmesh@animmodel@@UAEPAXI@Z 0042e790 f i rendermodel.obj
 0001:0002d7d0       ??_Emeshgroup@animmodel@@UAEPAXI@Z 0042e7d0 f i * CIL library *:* CIL module *
 0001:0002d7d0       ??_Gmeshgroup@animmodel@@UAEPAXI@Z 0042e7d0 f i rendermodel.obj
 0001:0002d800       ??_Epart@animmodel@@UAEPAXI@Z 0042e800 f i * CIL library *:* CIL module *
 0001:0002d800       ??_Gpart@animmodel@@UAEPAXI@Z 0042e800 f i rendermodel.obj
 0001:0002d830       ??_Ganimmodel@@UAEPAXI@Z   0042e830 f i rendermodel.obj
 0001:0002d830       ??_Eanimmodel@@UAEPAXI@Z   0042e830 f i * CIL library *:* CIL module *
 0001:0002d860       ??0vertmesh@vertmodel@@QAE@XZ 0042e860 f i rendermodel.obj
 0001:0002d8e0       ??1vertmesh@vertmodel@@UAE@XZ 0042e8e0 f i rendermodel.obj
 0001:0002d9a0       ?buildnorms@vertmesh@vertmodel@@QAEX_N@Z 0042e9a0 f i rendermodel.obj
 0001:0002dc20       ?calctangents@vertmesh@vertmodel@@QAEX_N@Z 0042ec20 f i rendermodel.obj
 0001:0002dcd0       ?calcbb@vertmesh@vertmodel@@UAEXHAAUvec@@0ABUmatrix3x4@@@Z 0042ecd0 f i rendermodel.obj
 0001:0002de10       ?gentris@vertmesh@vertmodel@@UAEXHPAUTexture@@PAU?$vector@Utri@BIH@@@@ABUmatrix3x4@@@Z 0042ee10 f i rendermodel.obj
 0001:0002e120       ?genvbo@vertmesh@vertmodel@@QAEHAAU?$vector@G@@H@Z 0042f120 f i rendermodel.obj
 0001:0002e1e0       ?interpverts@vertmesh@vertmodel@@QAEXABUanimstate@animmodel@@_N1PIAXAAUskin@4@@Z 0042f1e0 f i rendermodel.obj
 0001:0002ec70       ?render@vertmesh@vertmodel@@QAEXPBUanimstate@animmodel@@AAUskin@4@AAUvbocacheentry@2@@Z 0042fc70 f i rendermodel.obj
 0001:0002ef90       ??0tag@vertmodel@@QAE@XZ   0042ff90 f i rendermodel.obj
 0001:0002ef90       ??0videobuffer@recorder@@QAE@XZ 0042ff90 f i movie.obj
 0001:0002efa0       ??1boneinfo@skelmodel@@QAE@XZ 0042ffa0 f i rendermodel.obj
 0001:0002efa0       ??1tag@vertmodel@@QAE@XZ   0042ffa0 f i rendermodel.obj
 0001:0002efa0       ??1videobuffer@recorder@@QAE@XZ 0042ffa0 f i movie.obj
 0001:0002efa0       ??1zipfile@@QAE@XZ         0042ffa0 f i zip.obj
 0001:0002efa0       ??1soundsample@@QAE@XZ     0042ffa0 f i sound.obj
 0001:0002efc0       ??0vertmeshgroup@vertmodel@@QAE@XZ 0042ffc0 f i rendermodel.obj
 0001:0002f0c0       ??1vertmeshgroup@vertmodel@@UAE@XZ 004300c0 f i rendermodel.obj
 0001:0002f1b0       ?findtag@vertmeshgroup@vertmodel@@UAEHPBD@Z 004301b0 f i rendermodel.obj
 0001:0002f210       ?totalframes@vertmeshgroup@vertmodel@@UBEHXZ 00430210 f i rendermodel.obj
 0001:0002f220       ?concattagtransform@vertmeshgroup@vertmodel@@UAEXPAUpart@animmodel@@HHABUmatrix3x4@@AAU5@@Z 00430220 f i rendermodel.obj
 0001:0002f310       ?calctagmatrix@vertmeshgroup@vertmodel@@QAEXPAUpart@animmodel@@HABUanimstate@4@AAUglmatrixf@@@Z 00430310 f i rendermodel.obj
 0001:0002f820       ?genvbo@vertmeshgroup@vertmodel@@QAEX_N0AAUvbocacheentry@2@@Z 00430820 f i rendermodel.obj
 0001:0002ff40       ?bindvbo@vertmeshgroup@vertmodel@@QAEXPBUanimstate@animmodel@@AAUvbocacheentry@2@@Z 00430f40 f i rendermodel.obj
 0001:00030110       ?cleanup@vertmeshgroup@vertmodel@@UAEXXZ 00431110 f i rendermodel.obj
 0001:000301a0       ?preload@vertmeshgroup@vertmodel@@UAEXPAUpart@animmodel@@@Z 004311a0 f i rendermodel.obj
 0001:000302a0       ?render@vertmeshgroup@vertmodel@@UAEXPBUanimstate@animmodel@@MABUvec@@1PAUdynent@@PAUpart@4@@Z 004312a0 f i rendermodel.obj
 0001:000306f0       ??_Gvertmesh@vertmodel@@UAEPAXI@Z 004316f0 f i rendermodel.obj
 0001:000306f0       ??_Evertmesh@vertmodel@@UAEPAXI@Z 004316f0 f i * CIL library *:* CIL module *
 0001:00030720       ??_Evertmeshgroup@vertmodel@@UAEPAXI@Z 00431720 f i * CIL library *:* CIL module *
 0001:00030720       ??_Gvertmeshgroup@vertmodel@@UAEPAXI@Z 00431720 f i rendermodel.obj
 0001:00030750       ??_Gvertmodel@@UAEPAXI@Z   00431750 f i rendermodel.obj
 0001:00030750       ??_Evertmodel@@UAEPAXI@Z   00431750 f i * CIL library *:* CIL module *
 0001:00030750       ??_Gskelmodel@@UAEPAXI@Z   00431750 f i rendermodel.obj
 0001:00030750       ??_Eskelmodel@@UAEPAXI@Z   00431750 f i * CIL library *:* CIL module *
 0001:000307b0       ??1vertmodel@@UAE@XZ       004317b0 f i rendermodel.obj
 0001:000307b0       ??1skelmodel@@UAE@XZ       004317b0 f i rendermodel.obj
 0001:000307f0       ?sortcmp@blendcombo@skelmodel@@SA_NABU12@0@Z 004317f0 f i rendermodel.obj
 0001:00030850       ?addweight@blendcombo@skelmodel@@QAEHHMH@Z 00431850 f i rendermodel.obj
 0001:00030980       ?finalize@blendcombo@skelmodel@@QAEXH@Z 00431980 f i rendermodel.obj
 0001:00030ab0       ?serialize@blendcombo@skelmodel@@QAEXAAUvvertw@2@@Z 00431ab0 f i rendermodel.obj
 0001:00030c40       ??1skelmesh@skelmodel@@UAE@XZ 00431c40 f i rendermodel.obj
 0001:00030cf0       ?calctangents@skelmesh@skelmodel@@QAEX_N@Z 00431cf0 f i rendermodel.obj
 0001:00030d70       ?calcbb@skelmesh@skelmodel@@UAEXHAAUvec@@0ABUmatrix3x4@@@Z 00431d70 f i rendermodel.obj
 0001:00030e90       ?gentris@skelmesh@skelmodel@@UAEXHPAUTexture@@PAU?$vector@Utri@BIH@@@@ABUmatrix3x4@@@Z 00431e90 f i rendermodel.obj
 0001:00031170       ?assignvert@skelmesh@skelmodel@@QAEXAAUvvertbumpw@2@HAAUvert@2@AAUblendcombo@2@@Z 00432170 f i rendermodel.obj
 0001:00031230       ?genvbo@skelmesh@skelmodel@@QAEHAAU?$vector@G@@H@Z 00432230 f i rendermodel.obj
 0001:00031330       ?fillbump@skelmesh@skelmodel@@QAEXPAEI@Z 00432330 f i rendermodel.obj
 0001:000313c0       ?setshader@skelmesh@skelmodel@@UAEXPAUShader@@@Z 004323c0 f i rendermodel.obj
 0001:00031560       ?render@skelmesh@skelmodel@@QAEXPBUanimstate@animmodel@@AAUskin@4@AAUvbocacheentry@2@@Z 00432560 f i rendermodel.obj
 0001:000318d0       ??0boneinfo@skelmodel@@QAE@XZ 004328d0 f i rendermodel.obj
 0001:00031940       ??0skeleton@skelmodel@@QAE@XZ 00432940 f i rendermodel.obj
 0001:00031ab0       ??1skeleton@skelmodel@@QAE@XZ 00432ab0 f i rendermodel.obj
 0001:00031d80       ?findskelanim@skeleton@skelmodel@@QAEPAUskelanimspec@2@PBDD@Z 00432d80 f i rendermodel.obj
 0001:00031ec0       ?addskelanim@skeleton@skelmodel@@QAEAAUskelanimspec@2@PBD@Z 00432ec0 f i rendermodel.obj
 0001:00031f30       ?findbone@skeleton@skelmodel@@QAEHPBD@Z 00432f30 f i rendermodel.obj
 0001:00031fa0       ?findtag@skeleton@skelmodel@@QAEHPBD@Z 00432fa0 f i rendermodel.obj
 0001:00032000       ?addtag@skeleton@skelmodel@@QAE_NPBDHABUmatrix3x4@@@Z 00433000 f i rendermodel.obj
 0001:000320b0       ?calcantipodes@skeleton@skelmodel@@QAEXXZ 004330b0 f i rendermodel.obj
 0001:00032320       ?remapbones@skeleton@skelmodel@@QAEXXZ 00433320 f i rendermodel.obj
 0001:000326e0       ?addpitchdep@skeleton@skelmodel@@QAEXHH@Z 004336e0 f i rendermodel.obj
 0001:00032790       ?findpitchcorrect@skeleton@skelmodel@@QAEHH@Z 00433790 f i rendermodel.obj
 0001:000327d0       ?initpitchdeps@skeleton@skelmodel@@QAEXXZ 004337d0 f i rendermodel.obj
 0001:00032d90       ?expandbonemask@skeleton@skelmodel@@QAEXPAEHH@Z 00433d90 f i rendermodel.obj
 0001:00032de0       ?applybonemask@skeleton@skelmodel@@QAEXPAGPAEH@Z 00433de0 f i rendermodel.obj
 0001:00032ed0       ?linkchildren@skeleton@skelmodel@@QAEXXZ 00433ed0 f i rendermodel.obj
 0001:00032f30       ?availgpubones@skeleton@skelmodel@@QBEHXZ 00433f30 f i rendermodel.obj
 0001:00032f80       ?calcdeviation@skeleton@skelmodel@@QAEMABUvec@@0ABUdualquat@@1@Z 00433f80 f i rendermodel.obj
 0001:00033490       ?calcpitchcorrects@skeleton@skelmodel@@QAEXMABUvec@@0@Z 00434490 f i rendermodel.obj
 0001:00033680       ?interpmatbones@skeleton@skelmodel@@QAEXPBUanimstate@animmodel@@MABUvec@@1HPBEAAUskelcacheentry@2@@Z 00434680 f i rendermodel.obj
 0001:00034d60       ?interpbones@skeleton@skelmodel@@QAEXPBUanimstate@animmodel@@MABUvec@@1HPBEAAUskelcacheentry@2@@Z 00435d60 f i rendermodel.obj
 0001:00036390       ?initmatragdoll@skeleton@skelmodel@@QAEXAAUragdolldata@@AAUskelcacheentry@2@PAUpart@animmodel@@@Z 00437390 f i rendermodel.obj
 0001:00036880       ?initragdoll@skeleton@skelmodel@@QAEXAAUragdolldata@@AAUskelcacheentry@2@PAUpart@animmodel@@@Z 00437880 f i rendermodel.obj
 0001:00037340       ?genmatragdollbones@skeleton@skelmodel@@QAEXAAUragdolldata@@AAUskelcacheentry@2@PAUpart@animmodel@@@Z 00438340 f i rendermodel.obj
 0001:000375d0       ?genragdollbones@skeleton@skelmodel@@QAEXAAUragdolldata@@AAUskelcacheentry@2@PAUpart@animmodel@@@Z 004385d0 f i rendermodel.obj
 0001:000380a0       ?concattagtransform@skeleton@skelmodel@@QAEXPAUpart@animmodel@@HHABUmatrix3x4@@AAU5@@Z 004390a0 f i rendermodel.obj
 0001:00038180       ?calctags@skeleton@skelmodel@@QAEXPAUpart@animmodel@@PAUskelcacheentry@2@@Z 00439180 f i rendermodel.obj
 0001:00038450       ?cleanup@skeleton@skelmodel@@QAEX_N@Z 00439450 f i rendermodel.obj
 0001:00038520       ?checkskelcache@skeleton@skelmodel@@QAEAAUskelcacheentry@2@PAUpart@animmodel@@PBUanimstate@5@MABUvec@@2PAUragdolldata@@@Z 00439520 f i rendermodel.obj
 0001:00038870       ?setasmbones@skeleton@skelmodel@@QAEXAAUskelcacheentry@2@H@Z 00439870 f i rendermodel.obj
 0001:00038a50       ?getblendoffset@skeleton@skelmodel@@QAEHAAUUniformLoc@@@Z 00439a50 f i rendermodel.obj
 0001:00038b10       ?setglslbones@skeleton@skelmodel@@QAEXAAUUniformLoc@@AAUskelcacheentry@2@1H@Z 00439b10 f i rendermodel.obj
 0001:00038c00       ??0skelmeshgroup@skelmodel@@QAE@XZ 00439c00 f i rendermodel.obj
 0001:00038dc0       ??1skelmeshgroup@skelmodel@@UAE@XZ 00439dc0 f i rendermodel.obj
 0001:00038f20       ?shareskeleton@skelmeshgroup@skelmodel@@QAEXPAD@Z 00439f20 f i rendermodel.obj
 0001:000390a0       ?findtag@skelmeshgroup@skelmodel@@UAEHPBD@Z 0043a0a0 f i rendermodel.obj
 0001:000390b0       ?totalframes@skelmeshgroup@skelmodel@@UBEHXZ 0043a0b0 f i rendermodel.obj
 0001:000390d0       ?genvbo@skelmeshgroup@skelmodel@@QAEX_N0AAUvbocacheentry@2@@Z 0043a0d0 f i rendermodel.obj
 0001:00039c00       ?bindvbo@skelmeshgroup@skelmodel@@QAEXPBUanimstate@animmodel@@AAUvbocacheentry@2@PAUskelcacheentry@2@PAUblendcacheentry@2@@Z 0043ac00 f i rendermodel.obj
 0001:00039e60       ?concattagtransform@skelmeshgroup@skelmodel@@UAEXPAUpart@animmodel@@HHABUmatrix3x4@@AAU5@@Z 0043ae60 f i rendermodel.obj
 0001:00039e70       ?addblendcombo@skelmeshgroup@skelmodel@@QAEHABUblendcombo@2@@Z 0043ae70 f i rendermodel.obj
 0001:00039fa0       ?sortblendcombos@skelmeshgroup@skelmodel@@QAEXXZ 0043afa0 f i rendermodel.obj
 0001:0003a070       ?blendmatbones@skelmeshgroup@skelmodel@@QAEXABUskelcacheentry@2@AAUblendcacheentry@2@@Z 0043b070 f i rendermodel.obj
 0001:0003a160       ?blendbones@skelmeshgroup@skelmodel@@QAEXABUskelcacheentry@2@AAUblendcacheentry@2@@Z 0043b160 f i rendermodel.obj
 0001:0003a340       ?cleanup@skelmeshgroup@skelmodel@@UAEXXZ 0043b340 f i rendermodel.obj
 0001:0003a430       ?checkvbocache@skelmeshgroup@skelmodel@@QAEAAUvbocacheentry@2@AAUskelcacheentry@2@H@Z 0043b430 f i rendermodel.obj
 0001:0003a5b0       ?checkblendcache@skelmeshgroup@skelmodel@@QAEAAUblendcacheentry@2@AAUskelcacheentry@2@H@Z 0043b5b0 f i rendermodel.obj
 0001:0003a710       ?preload@skelmeshgroup@skelmodel@@UAEXPAUpart@animmodel@@@Z 0043b710 f i rendermodel.obj
 0001:0003a8e0       ?render@skelmeshgroup@skelmodel@@UAEXPBUanimstate@animmodel@@MABUvec@@1PAUdynent@@PAUpart@4@@Z 0043b8e0 f i rendermodel.obj
 0001:0003af40       ?sharepartmask@skelpart@skelmodel@@QAEPAEPAUanimpartmask@2@@Z 0043bf40 f i rendermodel.obj
 0001:0003afe0       ?initanimparts@skelpart@skelmodel@@QAEXXZ 0043bfe0 f i rendermodel.obj
 0001:0003b040       ?linktype@skelmodel@@UBEHPAUanimmodel@@@Z 0043c040 f i rendermodel.obj
 0001:0003b090       ??_Gskelmesh@skelmodel@@UAEPAXI@Z 0043c090 f i rendermodel.obj
 0001:0003b090       ??_Eskelmesh@skelmodel@@UAEPAXI@Z 0043c090 f i * CIL library *:* CIL module *
 0001:0003b0c0       ??1?$hashtable@IH@@QAE@XZ  0043c0c0 f i rendermodel.obj
 0001:0003b100       ??_Gskelmeshgroup@skelmodel@@UAEPAXI@Z 0043c100 f i rendermodel.obj
 0001:0003b100       ??_Eskelmeshgroup@skelmodel@@UAEPAXI@Z 0043c100 f i * CIL library *:* CIL module *
 0001:0003b130       ??_Eskelpart@skelmodel@@UAEPAXI@Z 0043c130 f i * CIL library *:* CIL module *
 0001:0003b130       ??_Gskelpart@skelmodel@@UAEPAXI@Z 0043c130 f i rendermodel.obj
 0001:0003b1b0       ??1ragdollskel@@QAE@XZ     0043c1b0 f i rendermodel.obj
 0001:0003b2f0       ?adjust@skeladjustment@@QAEXAAUdualquat@@@Z 0043c2f0 f i rendermodel.obj
 0001:0003b570       ?getcrc@stream@@UAEIXZ     0043c570 f i stream.obj
 0001:0003b570       ?setBIH@model@@UAEPAUBIH@@XZ 0043c570 f i rendermodel.obj
 0001:0003b570       ?type@md2@@UBEHXZ          0043c570 f i rendermodel.obj
 0001:0003b580       ?linktype@md2@@UBEHPAUanimmodel@@@Z 0043c580 f i rendermodel.obj
 0001:0003b590       ?genverts@md2meshgroup@md2@@QAEXPAHAAU?$vector@Utcvert@vertmodel@@@@AAU?$vector@G@@AAU?$vector@Utri@vertmodel@@@@@Z 0043c590 f i rendermodel.obj
 0001:0003b8a0       ?load@md2meshgroup@md2@@QAE_NPBD@Z 0043c8a0 f i rendermodel.obj
 0001:0003be10       ?getdefaultanim@md2part@md2@@UAEXAAUaniminfo@@HIPAUdynent@@@Z 0043ce10 f i rendermodel.obj
 0001:0003bec0       ?loadmeshes@md2@@UAEPAUmeshgroup@animmodel@@PBDPAD@Z 0043cec0 f i rendermodel.obj
 0001:0003bf60       ?load@md2@@UAE_NXZ         0043cf60 f i rendermodel.obj
 0001:0003c1f0       ??_Emd2@@UAEPAXI@Z         0043d1f0 f i * CIL library *:* CIL module *
 0001:0003c1f0       ??_Gsmd@@UAEPAXI@Z         0043d1f0 f i rendermodel.obj
 0001:0003c1f0       ??_Emd3@@UAEPAXI@Z         0043d1f0 f i * CIL library *:* CIL module *
 0001:0003c1f0       ??_Gmd2@@UAEPAXI@Z         0043d1f0 f i rendermodel.obj
 0001:0003c1f0       ??_Gmd3@@UAEPAXI@Z         0043d1f0 f i rendermodel.obj
 0001:0003c1f0       ??_Emd5@@UAEPAXI@Z         0043d1f0 f i * CIL library *:* CIL module *
 0001:0003c1f0       ??_Eobj@@UAEPAXI@Z         0043d1f0 f i * CIL library *:* CIL module *
 0001:0003c1f0       ??_Eiqm@@UAEPAXI@Z         0043d1f0 f i * CIL library *:* CIL module *
 0001:0003c1f0       ??_Gmd5@@UAEPAXI@Z         0043d1f0 f i rendermodel.obj
 0001:0003c1f0       ??_Giqm@@UAEPAXI@Z         0043d1f0 f i rendermodel.obj
 0001:0003c1f0       ??_Gobj@@UAEPAXI@Z         0043d1f0 f i rendermodel.obj
 0001:0003c1f0       ??_Esmd@@UAEPAXI@Z         0043d1f0 f i * CIL library *:* CIL module *
 0001:0003c250       ??_Gmd3meshgroup@md3@@UAEPAXI@Z 0043d250 f i rendermodel.obj
 0001:0003c250       ??_Eobjmeshgroup@obj@@UAEPAXI@Z 0043d250 f i * CIL library *:* CIL module *
 0001:0003c250       ??_Gobjmeshgroup@obj@@UAEPAXI@Z 0043d250 f i rendermodel.obj
 0001:0003c250       ??_Emd3meshgroup@md3@@UAEPAXI@Z 0043d250 f i * CIL library *:* CIL module *
 0001:0003c250       ??_Gmd2meshgroup@md2@@UAEPAXI@Z 0043d250 f i rendermodel.obj
 0001:0003c250       ??_Emd2meshgroup@md2@@UAEPAXI@Z 0043d250 f i * CIL library *:* CIL module *
 0001:0003c2b0       ??_Gmd2part@md2@@UAEPAXI@Z 0043d2b0 f i rendermodel.obj
 0001:0003c2b0       ??_Emd2part@md2@@UAEPAXI@Z 0043d2b0 f i * CIL library *:* CIL module *
 0001:0003c310       ?load@md3meshgroup@md3@@QAE_NPBD@Z 0043d310 f i rendermodel.obj
 0001:0003cae0       ?loadmeshes@md3@@UAEPAUmeshgroup@animmodel@@PBDPAD@Z 0043dae0 f i rendermodel.obj
 0001:0003cb80       ?loaddefaultparts@md3@@UAE_NXZ 0043db80 f i rendermodel.obj
 0001:0003cce0       ?load@md3@@UAE_NXZ         0043dce0 f i rendermodel.obj
 0001:0003ce30       ?type@md5@@UBEHXZ          0043de30 f i rendermodel.obj
 0001:0003ce40       ??0md5mesh@md5@@QAE@XZ     0043de40 f i rendermodel.obj
 0001:0003cef0       ?buildverts@md5mesh@md5@@QAEXAAU?$vector@Umd5joint@@@@@Z 0043def0 f i rendermodel.obj
 0001:0003d1d0       ?load@md5mesh@md5@@QAEXPAUstream@@PADI@Z 0043e1d0 f i rendermodel.obj
 0001:0003d640       ?loadmesh@md5meshgroup@md5@@QAE_NPBDM@Z 0043e640 f i rendermodel.obj
 0001:0003de10       ?loadanim@md5meshgroup@md5@@UAEPAUskelanimspec@skelmodel@@PBD@Z 0043ee10 f i rendermodel.obj
 0001:0003e7e0       ?loadmeshes@md5@@UAEPAUmeshgroup@animmodel@@PBDPAD@Z 0043f7e0 f i rendermodel.obj
 0001:0003e8e0       ?loaddefaultparts@md5@@UAE_NXZ 0043f8e0 f i rendermodel.obj
 0001:0003eaa0       ?load@md5@@UAE_NXZ         0043faa0 f i rendermodel.obj
 0001:0003ec40       ??_Emd5mesh@md5@@UAEPAXI@Z 0043fc40 f i * CIL library *:* CIL module *
 0001:0003ec40       ??_Gmd5mesh@md5@@UAEPAXI@Z 0043fc40 f i rendermodel.obj
 0001:0003ecd0       ??_Gmd5meshgroup@md5@@UAEPAXI@Z 0043fcd0 f i rendermodel.obj
 0001:0003ecd0       ??_Emd5meshgroup@md5@@UAEPAXI@Z 0043fcd0 f i * CIL library *:* CIL module *
 0001:0003ecd0       ??_Esmdmeshgroup@smd@@UAEPAXI@Z 0043fcd0 f i * CIL library *:* CIL module *
 0001:0003ecd0       ??_Gsmdmeshgroup@smd@@UAEPAXI@Z 0043fcd0 f i rendermodel.obj
 0001:0003ecd0       ??_Eiqmmeshgroup@iqm@@UAEPAXI@Z 0043fcd0 f i * CIL library *:* CIL module *
 0001:0003ecd0       ??_Giqmmeshgroup@iqm@@UAEPAXI@Z 0043fcd0 f i rendermodel.obj
 0001:0003ed30       ?type@obj@@UBEHXZ          0043fd30 f i rendermodel.obj
 0001:0003ed40       ?parsevert@objmeshgroup@obj@@QAEXPADAAU?$vector@Uvec@@@@@Z 0043fd40 f i rendermodel.obj
 0001:0003ee30       ?load@objmeshgroup@obj@@QAE_NPBDM@Z 0043fe30 f i rendermodel.obj
 0001:0003faf0       ?loadmeshes@obj@@UAEPAUmeshgroup@animmodel@@PBDPAD@Z 00440af0 f i rendermodel.obj
 0001:0003fb90       ?loaddefaultparts@obj@@UAE_NXZ 00440b90 f i rendermodel.obj
 0001:0003fd30       ?load@obj@@UAE_NXZ         00440d30 f i rendermodel.obj
 0001:0003fe80       ?type@smd@@UBEHXZ          00440e80 f i rendermodel.obj
 0001:0003fe90       ?skipcomment@smdmeshgroup@smd@@QAE_NAAPAD@Z 00440e90 f i rendermodel.obj
 0001:0003ff30       ?skipsection@smdmeshgroup@smd@@QAEXPAUstream@@PADI@Z 00440f30 f i rendermodel.obj
 0001:00040000       ?readname@smdmeshgroup@smd@@QAEXAAPADPADI@Z 00441000 f i rendermodel.obj
 0001:00040090       ?readnodes@smdmeshgroup@smd@@QAEXPAUstream@@PADIAAU?$vector@Usmdbone@@@@@Z 00441090 f i rendermodel.obj
 0001:00040240       ?readmaterial@smdmeshgroup@smd@@QAEXAAPADPADI@Z 00441240 f i rendermodel.obj
 0001:000402f0       ?finalize@smdmeshdata@smdmeshgroup@smd@@QAEXXZ 004412f0 f i rendermodel.obj
 0001:00040450       ?readtriangles@smdmeshgroup@smd@@QAEXPAUstream@@PADI@Z 00441450 f i rendermodel.obj
 0001:00040cb0       ?readskeleton@smdmeshgroup@smd@@QAEXPAUstream@@PADI@Z 00441cb0 f i rendermodel.obj
 0001:00040fd0       ?loadmesh@smdmeshgroup@smd@@QAE_NPBD@Z 00441fd0 f i rendermodel.obj
 0001:00041300       ?readframes@smdmeshgroup@smd@@QAEHPAUstream@@PADIAAU?$vector@Udualquat@@@@@Z 00442300 f i rendermodel.obj
 0001:00041d30       ?loadanim@smdmeshgroup@smd@@UAEPAUskelanimspec@skelmodel@@PBD@Z 00442d30 f i rendermodel.obj
 0001:000420b0       ?loadmeshes@smd@@UAEPAUmeshgroup@animmodel@@PBDPAD@Z 004430b0 f i rendermodel.obj
 0001:000421a0       ?loaddefaultparts@smd@@UAE_NXZ 004431a0 f i rendermodel.obj
 0001:00042320       ?load@smd@@UAE_NXZ         00443320 f i rendermodel.obj
 0001:000424c0       ??1?$hashtable@PBDUsmdmeshdata@smdmeshgroup@smd@@@@QAE@XZ 004434c0 f i rendermodel.obj
 0001:00042520       ??0smdmesh@smd@@QAE@XZ     00443520 f i rendermodel.obj
 0001:000425b0       ??_Gsmdmesh@smd@@UAEPAXI@Z 004435b0 f i rendermodel.obj
 0001:000425b0       ??_Esmdmesh@smd@@UAEPAXI@Z 004435b0 f i * CIL library *:* CIL module *
 0001:00042610       ?type@iqm@@UBEHXZ          00443610 f i rendermodel.obj
 0001:00042620       ?loadiqmmeshes@iqmmeshgroup@iqm@@QAE_NPBDABUiqmheader@@PAE@Z 00443620 f i rendermodel.obj
 0001:00043410       ?loadiqmanims@iqmmeshgroup@iqm@@QAE_NPBDABUiqmheader@@PAE@Z 00444410 f i rendermodel.obj
 0001:00044210       ?loadiqm@iqmmeshgroup@iqm@@QAE_NPBD_N1@Z 00445210 f i rendermodel.obj
 0001:00044350       ?loadanim@iqmmeshgroup@iqm@@UAEPAUskelanimspec@skelmodel@@PBD@Z 00445350 f i rendermodel.obj
 0001:000443f0       ?loadmeshes@iqm@@UAEPAUmeshgroup@animmodel@@PBDPAD@Z 004453f0 f i rendermodel.obj
 0001:000444e0       ?loaddefaultparts@iqm@@UAE_NXZ 004454e0 f i rendermodel.obj
 0001:00044660       ?load@iqm@@UAE_NXZ         00445660 f i rendermodel.obj
 0001:00044800       ?add@?$vector@Ulinkedpart@animmodel@@@@QAEAAUlinkedpart@animmodel@@XZ 00445800 f i rendermodel.obj
 0001:000448a0       ?access@?$hashtable@PBDPAUmeshgroup@animmodel@@@@QAEPAPAUmeshgroup@animmodel@@ABQBD@Z 004458a0 f i rendermodel.obj
 0001:00044930       ??A?$hashtable@PBDPAUmeshgroup@animmodel@@@@QAEAAPAUmeshgroup@animmodel@@ABQBD@Z 00445930 f i rendermodel.obj
 0001:000449d0       ??1?$hashset@U?$hashtableentry@PBDPAUmeshgroup@animmodel@@@@@@QAE@XZ 004459d0 f i rendermodel.obj
 0001:00044a20       ??1?$vector@Uskelanimspec@skelmodel@@@@QAE@XZ 00445a20 f i rendermodel.obj
 0001:00044a40       ??1?$vector@Utag@skelmodel@@@@QAE@XZ 00445a40 f i rendermodel.obj
 0001:00044a60       ?add@?$vector@Utag@skelmodel@@@@QAEAAUtag@skelmodel@@XZ 00445a60 f i rendermodel.obj
 0001:00044ae0       ?insert@?$vector@Upitchdep@skelmodel@@@@QAEAAUpitchdep@skelmodel@@HABU23@@Z 00445ae0 f i rendermodel.obj
 0001:00044ba0       ??1?$hashset@U?$hashtableentry@IH@@@@QAE@XZ 00445ba0 f i rendermodel.obj
 0001:00044bf0       ?clear@?$hashset@U?$hashtableentry@IH@@@@QAEXXZ 00445bf0 f i rendermodel.obj
 0001:00044c50       ?access@?$hashtable@PBDPAUskeleton@skelmodel@@@@QAEPAPAUskeleton@skelmodel@@ABQBD@Z 00445c50 f i rendermodel.obj
 0001:00044ce0       ??A?$hashtable@PBDPAUskeleton@skelmodel@@@@QAEAAPAUskeleton@skelmodel@@ABQBD@Z 00445ce0 f i rendermodel.obj
 0001:00044d80       ??1?$hashset@U?$hashtableentry@PBDPAUskeleton@skelmodel@@@@@@QAE@XZ 00445d80 f i rendermodel.obj
 0001:00044dd0       ??A?$hashtable@Uivec@@H@@QAEAAHABUivec@@@Z 00445dd0 f i rendermodel.obj
 0001:00044e30       ?clear@?$hashset@U?$hashtableentry@Uivec@@H@@@@QAEXXZ 00445e30 f i rendermodel.obj
 0001:00044e90       ?add@?$vector@Umd5joint@@@@QAEAAUmd5joint@@ABU2@@Z 00445e90 f i rendermodel.obj
 0001:00044f00       ?add@?$vector@Umd5hierarchy@@@@QAEAAUmd5hierarchy@@ABU2@@Z 00445f00 f i rendermodel.obj
 0001:00044f50       ??0?$skelcommands@Umd5@@@@QAE@XZ 00445f50 f i rendermodel.obj
 0001:00044fb0       ?inrange@?$vector@Usmdbone@@@@QBE_NH@Z 00445fb0 f i rendermodel.obj
 0001:00044fb0       ?inrange@?$vector@Ucharinfo@font@@@@QBE_NH@Z 00445fb0 f i rendertext.obj
 0001:00044fd0       ?access@?$hashtable@PBDUsmdmeshdata@smdmeshgroup@smd@@@@QAEPAUsmdmeshdata@smdmeshgroup@smd@@ABQBD@Z 00445fd0 f i rendermodel.obj
 0001:00045060       ??A?$hashtable@PBDUsmdmeshdata@smdmeshgroup@smd@@@@QAEAAUsmdmeshdata@smdmeshgroup@smd@@ABQBD@Z 00446060 f i rendermodel.obj
 0001:00045100       ??1?$hashset@U?$hashtableentry@PBDUsmdmeshdata@smdmeshgroup@smd@@@@@@QAE@XZ 00446100 f i rendermodel.obj
 0001:00045130       ??0?$hashset@H@@QAE@H@Z    00446130 f i rendermodel.obj
 0001:000451b0       ??1?$hashset@H@@QAE@XZ     004461b0 f i rendermodel.obj
 0001:00045200       ??0?$skelcommands@Usmd@@@@QAE@XZ 00446200 f i rendermodel.obj
 0001:00045260       ??0?$skelcommands@Uiqm@@@@QAE@XZ 00446260 f i rendermodel.obj
 0001:000452c0       ?access@?$hashtable@PBDPAUmodel@@@@QAEPAPAUmodel@@ABQBD@Z 004462c0 f i rendermodel.obj
 0001:00045350       ?access@?$hashtable@PBDPAUmodel@@@@QAEAAPAUmodel@@ABQBDABQAU2@@Z 00446350 f i rendermodel.obj
 0001:00045400       ??1?$hashset@U?$hashtableentry@PBDPAUmodel@@@@@@QAE@XZ 00446400 f i rendermodel.obj
 0001:00045450       ?growbuf@?$vector@Uanimspec@animmodel@@@@QAEXH@Z 00446450 f i rendermodel.obj
 0001:00045450       ?growbuf@?$vector@Udistlimit@ragdollskel@@@@QAEXH@Z 00446450 f i rendermodel.obj
 0001:00045450       ?growbuf@?$vector@Uaviindexentry@@@@QAEXH@Z 00446450 f i movie.obj
 0001:00045450       ?growbuf@?$vector@Ucharinfo@font@@@@QAEXH@Z 00446450 f i rendertext.obj
 0001:000454d0       ?growbuf@?$vector@Uavisegmentinfo@@@@QAEXH@Z 004464d0 f i movie.obj
 0001:000454d0       ?growbuf@?$vector@Uvvertbump@vertmodel@@@@QAEXH@Z 004464d0 f i rendermodel.obj
 0001:000454d0       ?growbuf@?$vector@Urotlimit@ragdollskel@@@@QAEXH@Z 004464d0 f i rendermodel.obj
 0001:000454d0       ?growbuf@?$vector@Uvvertbump@skelmodel@@@@QAEXH@Z 004464d0 f i rendermodel.obj
 0001:00045550       ?growbuf@?$vector@Urotfriction@ragdollskel@@@@QAEXH@Z 00446550 f i rendermodel.obj
 0001:000455d0       ?growbuf@?$vector@Ulinkedpart@animmodel@@@@QAEXH@Z 004465d0 f i rendermodel.obj
 0001:00045650       ?growbuf@?$vector@Uskin@animmodel@@@@QAEXH@Z 00446650 f i rendermodel.obj
 0001:000456d0       ??0?$hashset@U?$hashtableentry@PBDPAUmeshgroup@animmodel@@@@@@QAE@H@Z 004466d0 f i rendermodel.obj
 0001:00045760       ?growbuf@?$vector@Utri@BIH@@@@QAEXH@Z 00446760 f i rendermodel.obj
 0001:000457e0       ?shrink@?$vector@Uskelanimspec@skelmodel@@@@QAEXH@Z 004467e0 f i rendermodel.obj
 0001:00045820       ?shrink@?$vector@Utag@skelmodel@@@@QAEXH@Z 00446820 f i rendermodel.obj
 0001:00045870       ?growbuf@?$vector@Uvvertbumpw@skelmodel@@@@QAEXH@Z 00446870 f i rendermodel.obj
 0001:00045870       ?growbuf@?$vector@Utag@skelmodel@@@@QAEXH@Z 00446870 f i rendermodel.obj
 0001:00045900       ?add@?$vector@Upitchdep@skelmodel@@@@QAEAAUpitchdep@skelmodel@@ABU23@@Z 00446900 f i rendermodel.obj
 0001:00045970       ?growbuf@?$vector@Uskelcacheentry@skelmodel@@@@QAEXH@Z 00446970 f i rendermodel.obj
 0001:000459f0       ??0?$hashset@U?$hashtableentry@IH@@@@QAE@H@Z 004469f0 f i rendermodel.obj
 0001:00045a70       ??0?$hashset@U?$hashtableentry@PBDPAUskeleton@skelmodel@@@@@@QAE@H@Z 00446a70 f i rendermodel.obj
 0001:00045b00       ?growbuf@?$vector@Utri@vertmodel@@@@QAEXH@Z 00446b00 f i rendermodel.obj
 0001:00045b00       ?growbuf@?$vector@Utri@skelmodel@@@@QAEXH@Z 00446b00 f i rendermodel.obj
 0001:00045b80       ?setpitch@?$vertcommands@Umd2@@@@SAXPAM000@Z 00446b80 f i rendermodel.obj
 0001:00045c40       ?setanim@?$vertcommands@Umd2@@@@SAXPADPAH1PAM1@Z 00446c40 f i rendermodel.obj
 0001:00045d60       ?loadpart@?$vertcommands@Umd3@@@@SAXPADPAM@Z 00446d60 f i rendermodel.obj
 0001:00045f30       ?setpitch@?$vertcommands@Umd3@@@@SAXPAM000@Z 00446f30 f i rendermodel.obj
 0001:00045ff0       ?setanim@?$vertcommands@Umd3@@@@SAXPADPAH1PAM1@Z 00446ff0 f i rendermodel.obj
 0001:00046110       ??0?$modelcommands@Umd3@@Uvertmesh@vertmodel@@@@QAE@XZ 00447110 f i rendermodel.obj
 0001:000461f0       ?growbuf@?$vector@UTex@Slot@@@@QAEXH@Z 004471f0 f i texture.obj
 0001:000461f0       ?growbuf@?$vector@Umd5hierarchy@@@@QAEXH@Z 004471f0 f i rendermodel.obj
 0001:00046270       ?loadpart@?$skelcommands@Umd5@@@@SAXPAD0PAM@Z 00447270 f i rendermodel.obj
 0001:00046470       ?settag@?$skelcommands@Umd5@@@@SAXPAD0PAM11111@Z 00447470 f i rendermodel.obj
 0001:00046740       ?setpitch@?$skelcommands@Umd5@@@@SAXPADPAM111@Z 00447740 f i rendermodel.obj
 0001:000468d0       ?setpitchtarget@?$skelcommands@Umd5@@@@SAXPAD0PAHPAM2@Z 004478d0 f i rendermodel.obj
 0001:00046a90       ?setpitchcorrect@?$skelcommands@Umd5@@@@SAXPAD0PAM11@Z 00447a90 f i rendermodel.obj
 0001:00046bf0       ?setanim@?$skelcommands@Umd5@@@@SAXPAD0PAMPAH22@Z 00447bf0 f i rendermodel.obj
 0001:00046e10       ?setanimpart@?$skelcommands@Umd5@@@@SAXPAD@Z 00447e10 f i rendermodel.obj
 0001:00047070       ?setadjust@?$skelcommands@Umd5@@@@SAXPADPAM11111@Z 00448070 f i rendermodel.obj
 0001:00047250       ??0?$modelcommands@Umd5@@Uskelmesh@skelmodel@@@@QAE@XZ 00448250 f i rendermodel.obj
 0001:00047340       ?loadpart@?$vertcommands@Uobj@@@@SAXPADPAM@Z 00448340 f i rendermodel.obj
 0001:00047510       ?setpitch@?$vertcommands@Uobj@@@@SAXPAM000@Z 00448510 f i rendermodel.obj
 0001:000475d0       ??0?$modelcommands@Uobj@@Uvertmesh@vertmodel@@@@QAE@XZ 004485d0 f i rendermodel.obj
 0001:000476b0       ?growbuf@?$vector@Usmdbone@@@@QAEXH@Z 004486b0 f i rendermodel.obj
 0001:00047730       ??0?$hashset@U?$hashtableentry@PBDUsmdmeshdata@smdmeshgroup@smd@@@@@@QAE@H@Z 00448730 f i rendermodel.obj
 0001:000477b0       ?deletechunks@?$hashset@U?$hashtableentry@PBDUsmdmeshdata@smdmeshgroup@smd@@@@@@QAEXXZ 004487b0 f i rendermodel.obj
 0001:00047820       ?loadpart@?$skelcommands@Usmd@@@@SAXPAD0PAM@Z 00448820 f i rendermodel.obj
 0001:00047a20       ?settag@?$skelcommands@Usmd@@@@SAXPAD0PAM11111@Z 00448a20 f i rendermodel.obj
 0001:00047cf0       ?setpitch@?$skelcommands@Usmd@@@@SAXPADPAM111@Z 00448cf0 f i rendermodel.obj
 0001:00047e80       ?setpitchtarget@?$skelcommands@Usmd@@@@SAXPAD0PAHPAM2@Z 00448e80 f i rendermodel.obj
 0001:00048040       ?setpitchcorrect@?$skelcommands@Usmd@@@@SAXPAD0PAM11@Z 00449040 f i rendermodel.obj
 0001:000481a0       ?setanim@?$skelcommands@Usmd@@@@SAXPAD0PAMPAH22@Z 004491a0 f i rendermodel.obj
 0001:000483c0       ?setanimpart@?$skelcommands@Usmd@@@@SAXPAD@Z 004493c0 f i rendermodel.obj
 0001:00048620       ?setadjust@?$skelcommands@Usmd@@@@SAXPADPAM11111@Z 00449620 f i rendermodel.obj
 0001:00048800       ??0?$modelcommands@Usmd@@Uskelmesh@skelmodel@@@@QAE@XZ 00449800 f i rendermodel.obj
 0001:000488f0       ?loadpart@?$skelcommands@Uiqm@@@@SAXPAD0PAM@Z 004498f0 f i rendermodel.obj
 0001:00048af0       ?settag@?$skelcommands@Uiqm@@@@SAXPAD0PAM11111@Z 00449af0 f i rendermodel.obj
 0001:00048dc0       ?setpitch@?$skelcommands@Uiqm@@@@SAXPADPAM111@Z 00449dc0 f i rendermodel.obj
 0001:00048f50       ?setpitchtarget@?$skelcommands@Uiqm@@@@SAXPAD0PAHPAM2@Z 00449f50 f i rendermodel.obj
 0001:00049110       ?setpitchcorrect@?$skelcommands@Uiqm@@@@SAXPAD0PAM11@Z 0044a110 f i rendermodel.obj
 0001:00049270       ?setanim@?$skelcommands@Uiqm@@@@SAXPAD0PAMPAH22@Z 0044a270 f i rendermodel.obj
 0001:00049490       ?setanimpart@?$skelcommands@Uiqm@@@@SAXPAD@Z 0044a490 f i rendermodel.obj
 0001:000496f0       ?setadjust@?$skelcommands@Uiqm@@@@SAXPADPAM11111@Z 0044a6f0 f i rendermodel.obj
 0001:000498d0       ??0?$modelcommands@Uiqm@@Uskelmesh@skelmodel@@@@QAE@XZ 0044a8d0 f i rendermodel.obj
 0001:000499c0       ?growbuf@?$vector@Umapmodelinfo@@@@QAEXH@Z 0044a9c0 f i rendermodel.obj
 0001:00049a50       ??0?$hashset@U?$hashtableentry@PBDPAUmodel@@@@@@QAE@H@Z 0044aa50 f i rendermodel.obj
 0001:00049ae0       ?growbuf@?$vector@Ubatchedmodel@@@@QAEXH@Z 0044aae0 f i rendermodel.obj
 0001:00049b60       ?growbuf@?$vector@PAUmodelbatch@@@@QAEXH@Z 0044ab60 f i rendermodel.obj
 0001:00049bf0       ??1chain@?$hashset@U?$hashtableentry@PBDUsmdmeshdata@smdmeshgroup@smd@@@@@@QAE@XZ 0044abf0 f i rendermodel.obj
 0001:00049c40       ??1?$hashtableentry@PBDUsmdmeshdata@smdmeshgroup@smd@@@@QAE@XZ 0044ac40 f i rendermodel.obj
 0001:00049c80       ??1smdmeshdata@smdmeshgroup@smd@@QAE@XZ 0044ac80 f i rendermodel.obj
 0001:00049d00       ?insert@?$hashset@U?$hashtableentry@PBDPAUmeshgroup@animmodel@@@@@@QAEPAUchain@1@I@Z 0044ad00 f i rendermodel.obj
 0001:00049dc0       ?insert@?$vector@Upitchcorrect@skelmodel@@@@QAEAAUpitchcorrect@skelmodel@@HABU23@@Z 0044adc0 f i rendermodel.obj
 0001:00049e90       ?insert@?$hashset@U?$hashtableentry@IH@@@@QAEPAUchain@1@I@Z 0044ae90 f i rendermodel.obj
 0001:00049e90       ?insert@?$hashset@U?$hashtableentry@PADPAUfilesval@@@@@@QAEPAUchain@1@I@Z 0044ae90 f i console.obj
 0001:00049f40       ?insert@?$hashset@U?$hashtableentry@PBDPAUskeleton@skelmodel@@@@@@QAEPAUchain@1@I@Z 0044af40 f i rendermodel.obj
 0001:0004a000       ?setdir@?$modelcommands@Umd2@@Uvertmesh@vertmodel@@@@SAXPAD@Z 0044b000 f i rendermodel.obj
 0001:0004a040       ?setdir@?$modelcommands@Umd3@@Uvertmesh@vertmodel@@@@SAXPAD@Z 0044b040 f i rendermodel.obj
 0001:0004a080       ?setskin@?$modelcommands@Umd3@@Uvertmesh@vertmodel@@@@SAXPAD00PAM1@Z 0044b080 f i rendermodel.obj
 0001:0004a1f0       ?setspec@?$modelcommands@Umd3@@Uvertmesh@vertmodel@@@@SAXPADPAH@Z 0044b1f0 f i rendermodel.obj
 0001:0004a300       ?setambient@?$modelcommands@Umd3@@Uvertmesh@vertmodel@@@@SAXPADPAH@Z 0044b300 f i rendermodel.obj
 0001:0004a410       ?setglow@?$modelcommands@Umd3@@Uvertmesh@vertmodel@@@@SAXPADPAH1PAM@Z 0044b410 f i rendermodel.obj
 0001:0004a560       ?setglare@?$modelcommands@Umd3@@Uvertmesh@vertmodel@@@@SAXPADPAM1@Z 0044b560 f i rendermodel.obj
 0001:0004a650       ?setalphatest@?$modelcommands@Umd3@@Uvertmesh@vertmodel@@@@SAXPADPAM@Z 0044b650 f i rendermodel.obj
 0001:0004a760       ?setalphablend@?$modelcommands@Umd3@@Uvertmesh@vertmodel@@@@SAXPADPAH@Z 0044b760 f i rendermodel.obj
 0001:0004a850       ?setcullface@?$modelcommands@Umd3@@Uvertmesh@vertmodel@@@@SAXPADPAH@Z 0044b850 f i rendermodel.obj
 0001:0004a940       ?setenvmap@?$modelcommands@Umd3@@Uvertmesh@vertmodel@@@@SAXPAD0@Z 0044b940 f i rendermodel.obj
 0001:0004aa40       ?setbumpmap@?$modelcommands@Umd3@@Uvertmesh@vertmodel@@@@SAXPAD00@Z 0044ba40 f i rendermodel.obj
 0001:0004abb0       ?setfullbright@?$modelcommands@Umd3@@Uvertmesh@vertmodel@@@@SAXPADPAM@Z 0044bbb0 f i rendermodel.obj
 0001:0004aca0       ?setshader@?$modelcommands@Umd3@@Uvertmesh@vertmodel@@@@SAXPAD0@Z 0044bca0 f i rendermodel.obj
 0001:0004ad90       ?setscroll@?$modelcommands@Umd3@@Uvertmesh@vertmodel@@@@SAXPADPAM1@Z 0044bd90 f i rendermodel.obj
 0001:0004ae80       ?setnoclip@?$modelcommands@Umd3@@Uvertmesh@vertmodel@@@@SAXPADPAH@Z 0044be80 f i rendermodel.obj
 0001:0004af60       ?setlink@?$modelcommands@Umd3@@Uvertmesh@vertmodel@@@@SAXPAH0PADPAM22@Z 0044bf60 f i rendermodel.obj
 0001:0004b020       ?setdir@?$modelcommands@Umd5@@Uskelmesh@skelmodel@@@@SAXPAD@Z 0044c020 f i rendermodel.obj
 0001:0004b060       ?setskin@?$modelcommands@Umd5@@Uskelmesh@skelmodel@@@@SAXPAD00PAM1@Z 0044c060 f i rendermodel.obj
 0001:0004b1d0       ?setspec@?$modelcommands@Umd5@@Uskelmesh@skelmodel@@@@SAXPADPAH@Z 0044c1d0 f i rendermodel.obj
 0001:0004b2e0       ?setambient@?$modelcommands@Umd5@@Uskelmesh@skelmodel@@@@SAXPADPAH@Z 0044c2e0 f i rendermodel.obj
 0001:0004b3f0       ?setglow@?$modelcommands@Umd5@@Uskelmesh@skelmodel@@@@SAXPADPAH1PAM@Z 0044c3f0 f i rendermodel.obj
 0001:0004b540       ?setglare@?$modelcommands@Umd5@@Uskelmesh@skelmodel@@@@SAXPADPAM1@Z 0044c540 f i rendermodel.obj
 0001:0004b630       ?setalphatest@?$modelcommands@Umd5@@Uskelmesh@skelmodel@@@@SAXPADPAM@Z 0044c630 f i rendermodel.obj
 0001:0004b740       ?setalphablend@?$modelcommands@Umd5@@Uskelmesh@skelmodel@@@@SAXPADPAH@Z 0044c740 f i rendermodel.obj
 0001:0004b830       ?setcullface@?$modelcommands@Umd5@@Uskelmesh@skelmodel@@@@SAXPADPAH@Z 0044c830 f i rendermodel.obj
 0001:0004b920       ?setenvmap@?$modelcommands@Umd5@@Uskelmesh@skelmodel@@@@SAXPAD0@Z 0044c920 f i rendermodel.obj
 0001:0004ba20       ?setbumpmap@?$modelcommands@Umd5@@Uskelmesh@skelmodel@@@@SAXPAD00@Z 0044ca20 f i rendermodel.obj
 0001:0004bb90       ?setfullbright@?$modelcommands@Umd5@@Uskelmesh@skelmodel@@@@SAXPADPAM@Z 0044cb90 f i rendermodel.obj
 0001:0004bc80       ?setshader@?$modelcommands@Umd5@@Uskelmesh@skelmodel@@@@SAXPAD0@Z 0044cc80 f i rendermodel.obj
 0001:0004bd70       ?setscroll@?$modelcommands@Umd5@@Uskelmesh@skelmodel@@@@SAXPADPAM1@Z 0044cd70 f i rendermodel.obj
 0001:0004be60       ?setnoclip@?$modelcommands@Umd5@@Uskelmesh@skelmodel@@@@SAXPADPAH@Z 0044ce60 f i rendermodel.obj
 0001:0004bf40       ?setlink@?$modelcommands@Umd5@@Uskelmesh@skelmodel@@@@SAXPAH0PADPAM22@Z 0044cf40 f i rendermodel.obj
 0001:0004c000       ?setdir@?$modelcommands@Uobj@@Uvertmesh@vertmodel@@@@SAXPAD@Z 0044d000 f i rendermodel.obj
 0001:0004c040       ?setskin@?$modelcommands@Uobj@@Uvertmesh@vertmodel@@@@SAXPAD00PAM1@Z 0044d040 f i rendermodel.obj
 0001:0004c1b0       ?setspec@?$modelcommands@Uobj@@Uvertmesh@vertmodel@@@@SAXPADPAH@Z 0044d1b0 f i rendermodel.obj
 0001:0004c2c0       ?setambient@?$modelcommands@Uobj@@Uvertmesh@vertmodel@@@@SAXPADPAH@Z 0044d2c0 f i rendermodel.obj
 0001:0004c3d0       ?setglow@?$modelcommands@Uobj@@Uvertmesh@vertmodel@@@@SAXPADPAH1PAM@Z 0044d3d0 f i rendermodel.obj
 0001:0004c520       ?setglare@?$modelcommands@Uobj@@Uvertmesh@vertmodel@@@@SAXPADPAM1@Z 0044d520 f i rendermodel.obj
 0001:0004c610       ?setalphatest@?$modelcommands@Uobj@@Uvertmesh@vertmodel@@@@SAXPADPAM@Z 0044d610 f i rendermodel.obj
 0001:0004c720       ?setalphablend@?$modelcommands@Uobj@@Uvertmesh@vertmodel@@@@SAXPADPAH@Z 0044d720 f i rendermodel.obj
 0001:0004c810       ?setcullface@?$modelcommands@Uobj@@Uvertmesh@vertmodel@@@@SAXPADPAH@Z 0044d810 f i rendermodel.obj
 0001:0004c900       ?setenvmap@?$modelcommands@Uobj@@Uvertmesh@vertmodel@@@@SAXPAD0@Z 0044d900 f i rendermodel.obj
 0001:0004ca00       ?setbumpmap@?$modelcommands@Uobj@@Uvertmesh@vertmodel@@@@SAXPAD00@Z 0044da00 f i rendermodel.obj
 0001:0004cb70       ?setfullbright@?$modelcommands@Uobj@@Uvertmesh@vertmodel@@@@SAXPADPAM@Z 0044db70 f i rendermodel.obj
 0001:0004cc60       ?setshader@?$modelcommands@Uobj@@Uvertmesh@vertmodel@@@@SAXPAD0@Z 0044dc60 f i rendermodel.obj
 0001:0004cd50       ?setscroll@?$modelcommands@Uobj@@Uvertmesh@vertmodel@@@@SAXPADPAM1@Z 0044dd50 f i rendermodel.obj
 0001:0004ce40       ?setnoclip@?$modelcommands@Uobj@@Uvertmesh@vertmodel@@@@SAXPADPAH@Z 0044de40 f i rendermodel.obj
 0001:0004cf20       ?setlink@?$modelcommands@Uobj@@Uvertmesh@vertmodel@@@@SAXPAH0PADPAM22@Z 0044df20 f i rendermodel.obj
 0001:0004cfe0       ?insert@?$hashset@U?$hashtableentry@PBDUsmdmeshdata@smdmeshgroup@smd@@@@@@QAEPAUchain@1@I@Z 0044dfe0 f i rendermodel.obj
 0001:0004d0a0       ?setdir@?$modelcommands@Usmd@@Uskelmesh@skelmodel@@@@SAXPAD@Z 0044e0a0 f i rendermodel.obj
 0001:0004d0e0       ?setskin@?$modelcommands@Usmd@@Uskelmesh@skelmodel@@@@SAXPAD00PAM1@Z 0044e0e0 f i rendermodel.obj
 0001:0004d250       ?setspec@?$modelcommands@Usmd@@Uskelmesh@skelmodel@@@@SAXPADPAH@Z 0044e250 f i rendermodel.obj
 0001:0004d360       ?setambient@?$modelcommands@Usmd@@Uskelmesh@skelmodel@@@@SAXPADPAH@Z 0044e360 f i rendermodel.obj
 0001:0004d470       ?setglow@?$modelcommands@Usmd@@Uskelmesh@skelmodel@@@@SAXPADPAH1PAM@Z 0044e470 f i rendermodel.obj
 0001:0004d5c0       ?setglare@?$modelcommands@Usmd@@Uskelmesh@skelmodel@@@@SAXPADPAM1@Z 0044e5c0 f i rendermodel.obj
 0001:0004d6b0       ?setalphatest@?$modelcommands@Usmd@@Uskelmesh@skelmodel@@@@SAXPADPAM@Z 0044e6b0 f i rendermodel.obj
 0001:0004d7c0       ?setalphablend@?$modelcommands@Usmd@@Uskelmesh@skelmodel@@@@SAXPADPAH@Z 0044e7c0 f i rendermodel.obj
 0001:0004d8b0       ?setcullface@?$modelcommands@Usmd@@Uskelmesh@skelmodel@@@@SAXPADPAH@Z 0044e8b0 f i rendermodel.obj
 0001:0004d9a0       ?setenvmap@?$modelcommands@Usmd@@Uskelmesh@skelmodel@@@@SAXPAD0@Z 0044e9a0 f i rendermodel.obj
 0001:0004daa0       ?setbumpmap@?$modelcommands@Usmd@@Uskelmesh@skelmodel@@@@SAXPAD00@Z 0044eaa0 f i rendermodel.obj
 0001:0004dc10       ?setfullbright@?$modelcommands@Usmd@@Uskelmesh@skelmodel@@@@SAXPADPAM@Z 0044ec10 f i rendermodel.obj
 0001:0004dd00       ?setshader@?$modelcommands@Usmd@@Uskelmesh@skelmodel@@@@SAXPAD0@Z 0044ed00 f i rendermodel.obj
 0001:0004ddf0       ?setscroll@?$modelcommands@Usmd@@Uskelmesh@skelmodel@@@@SAXPADPAM1@Z 0044edf0 f i rendermodel.obj
 0001:0004dee0       ?setnoclip@?$modelcommands@Usmd@@Uskelmesh@skelmodel@@@@SAXPADPAH@Z 0044eee0 f i rendermodel.obj
 0001:0004dfc0       ?setlink@?$modelcommands@Usmd@@Uskelmesh@skelmodel@@@@SAXPAH0PADPAM22@Z 0044efc0 f i rendermodel.obj
 0001:0004e080       ?setdir@?$modelcommands@Uiqm@@Uskelmesh@skelmodel@@@@SAXPAD@Z 0044f080 f i rendermodel.obj
 0001:0004e0c0       ?setskin@?$modelcommands@Uiqm@@Uskelmesh@skelmodel@@@@SAXPAD00PAM1@Z 0044f0c0 f i rendermodel.obj
 0001:0004e230       ?setspec@?$modelcommands@Uiqm@@Uskelmesh@skelmodel@@@@SAXPADPAH@Z 0044f230 f i rendermodel.obj
 0001:0004e340       ?setambient@?$modelcommands@Uiqm@@Uskelmesh@skelmodel@@@@SAXPADPAH@Z 0044f340 f i rendermodel.obj
 0001:0004e450       ?setglow@?$modelcommands@Uiqm@@Uskelmesh@skelmodel@@@@SAXPADPAH1PAM@Z 0044f450 f i rendermodel.obj
 0001:0004e5a0       ?setglare@?$modelcommands@Uiqm@@Uskelmesh@skelmodel@@@@SAXPADPAM1@Z 0044f5a0 f i rendermodel.obj
 0001:0004e690       ?setalphatest@?$modelcommands@Uiqm@@Uskelmesh@skelmodel@@@@SAXPADPAM@Z 0044f690 f i rendermodel.obj
 0001:0004e7a0       ?setalphablend@?$modelcommands@Uiqm@@Uskelmesh@skelmodel@@@@SAXPADPAH@Z 0044f7a0 f i rendermodel.obj
 0001:0004e890       ?setcullface@?$modelcommands@Uiqm@@Uskelmesh@skelmodel@@@@SAXPADPAH@Z 0044f890 f i rendermodel.obj
 0001:0004e980       ?setenvmap@?$modelcommands@Uiqm@@Uskelmesh@skelmodel@@@@SAXPAD0@Z 0044f980 f i rendermodel.obj
 0001:0004ea80       ?setbumpmap@?$modelcommands@Uiqm@@Uskelmesh@skelmodel@@@@SAXPAD00@Z 0044fa80 f i rendermodel.obj
 0001:0004ebf0       ?setfullbright@?$modelcommands@Uiqm@@Uskelmesh@skelmodel@@@@SAXPADPAM@Z 0044fbf0 f i rendermodel.obj
 0001:0004ece0       ?setshader@?$modelcommands@Uiqm@@Uskelmesh@skelmodel@@@@SAXPAD0@Z 0044fce0 f i rendermodel.obj
 0001:0004edd0       ?setscroll@?$modelcommands@Uiqm@@Uskelmesh@skelmodel@@@@SAXPADPAM1@Z 0044fdd0 f i rendermodel.obj
 0001:0004eec0       ?setnoclip@?$modelcommands@Uiqm@@Uskelmesh@skelmodel@@@@SAXPADPAH@Z 0044fec0 f i rendermodel.obj
 0001:0004efa0       ?setlink@?$modelcommands@Uiqm@@Uskelmesh@skelmodel@@@@SAXPAH0PADPAM22@Z 0044ffa0 f i rendermodel.obj
 0001:0004f060       ?insert@?$hashset@U?$hashtableentry@PBDPAUmodel@@@@@@QAEPAUchain@1@I@Z 00450060 f i rendermodel.obj
 0001:0004f120       ?deletearrays@?$vector@PAD@@QAEXXZ 00450120 f i rendermodel.obj
 0001:0004f150       ??0chain@?$hashset@U?$hashtableentry@PBDUsmdmeshdata@smdmeshgroup@smd@@@@@@QAE@XZ 00450150 f i rendermodel.obj
 0001:0004f1d0       ?growbuf@?$vector@Upitchtarget@skelmodel@@@@QAEXH@Z 004501d0 f i rendermodel.obj
 0001:0004f260       ??$smoothnorms@Uvert@vertmodel@@Utri@2@@mesh@animmodel@@QAEXPAUvert@vertmodel@@HPAUtri@3@HM_N@Z 00450260 f i rendermodel.obj
 0001:0004f850       ??$calctangents@Ubumpvert@vertmodel@@Uvert@2@Utcvert@2@Utri@2@@mesh@animmodel@@QAEXPAUbumpvert@vertmodel@@PAUvert@3@PAUtcvert@3@HPAUtri@3@H_N@Z 00450850 f i rendermodel.obj
 0001:0004ff80       ??$genvbo@Uvvertbump@vertmodel@@@vertmesh@vertmodel@@QAEHAAU?$vector@G@@HAAU?$vector@Uvvertbump@vertmodel@@@@PAHH@Z 00450f80 f i rendermodel.obj
 0001:00050340       ??$genvbo@Uvvert@vertmodel@@@vertmesh@vertmodel@@QAEHAAU?$vector@G@@HAAU?$vector@Uvvert@vertmodel@@@@PAHH@Z 00451340 f i rendermodel.obj
 0001:00050660       ??$genvbo@Uvvertff@vertmodel@@@vertmesh@vertmodel@@QAEHAAU?$vector@G@@HAAU?$vector@Uvvertff@vertmodel@@@@PAHH@Z 00451660 f i rendermodel.obj
 0001:00050940       ??$smoothnorms@Uvert@skelmodel@@Utri@2@@mesh@animmodel@@QAEXPAUvert@skelmodel@@HPAUtri@3@HM_N@Z 00451940 f i rendermodel.obj
 0001:00050f20       ??$buildnorms@Uvert@skelmodel@@Utri@2@@mesh@animmodel@@QAEXPAUvert@skelmodel@@HPAUtri@3@H_N@Z 00451f20 f i rendermodel.obj
 0001:00051160       ??$calctangents@Ubumpvert@skelmodel@@Uvert@2@U32@Utri@2@@mesh@animmodel@@QAEXPAUbumpvert@skelmodel@@PAUvert@3@1HPAUtri@3@H_N@Z 00452160 f i rendermodel.obj
 0001:000518a0       ??$genvbo@Uvvertbumpw@skelmodel@@@skelmesh@skelmodel@@QAEHAAU?$vector@G@@HAAU?$vector@Uvvertbumpw@skelmodel@@@@@Z 004528a0 f i rendermodel.obj
 0001:000519f0       ??$genvbo@Uvvertw@skelmodel@@@skelmesh@skelmodel@@QAEHAAU?$vector@G@@HAAU?$vector@Uvvertw@skelmodel@@@@@Z 004529f0 f i rendermodel.obj
 0001:00051b80       ??$genvbo@Uvvertbump@skelmodel@@@skelmesh@skelmodel@@QAEHAAU?$vector@G@@HAAU?$vector@Uvvertbump@skelmodel@@@@PAHH@Z 00452b80 f i rendermodel.obj
 0001:00051f60       ??$genvbo@Uvvertn@skelmodel@@@skelmesh@skelmodel@@QAEHAAU?$vector@G@@HAAU?$vector@Uvvertn@skelmodel@@@@PAHH@Z 00452f60 f i rendermodel.obj
 0001:00052250       ??$genvbo@Uvvert@skelmodel@@@skelmesh@skelmodel@@QAEHAAU?$vector@G@@HAAU?$vector@Uvvert@skelmodel@@@@PAHH@Z 00453250 f i rendermodel.obj
 0001:00052510       ??$blendbones@Umatrix3x4@@@skelmeshgroup@skelmodel@@SAXAAUmatrix3x4@@PBU2@ABUblendcombo@1@@Z 00453510 f i rendermodel.obj
 0001:00052680       ??$blendbones@Udualquat@@@skelmeshgroup@skelmodel@@SAXAAUdualquat@@PBU2@ABUblendcombo@1@@Z 00453680 f i rendermodel.obj
 0001:00052af0       ??$interpverts@Umatrix3x4@@@skelmesh@skelmodel@@QAEXPIBUmatrix3x4@@0_N1PIAXAAUskin@animmodel@@@Z 00453af0 f i rendermodel.obj
 0001:00053170       ??$interpverts@Udualquat@@@skelmesh@skelmodel@@QAEXPIBUdualquat@@0_N1PIAXAAUskin@animmodel@@@Z 00454170 f i rendermodel.obj
 0001:00053db0       ??$remove@PAD@?$hashset@U?$hashtableentry@PBDPAUmodel@@@@@@QAE_NABQAD@Z 00454db0 f i rendermodel.obj
 0001:00053ea0       ??$modelcommand@$$A6AXPAM000@Z@?$modelcommands@Umd2@@Uvertmesh@vertmodel@@@@QAEXP6AXPAM000@ZPBD2@Z 00454ea0 f i rendermodel.obj
 0001:00053f30       ??$modelcommand@$$A6AXPADPAH1PAM1@Z@?$modelcommands@Umd2@@Uvertmesh@vertmodel@@@@QAEXP6AXPADPAH1PAM1@ZPBD4@Z 00454f30 f i rendermodel.obj
 0001:00053fc0       ??$modelcommand@$$A6AXPADPAM@Z@?$modelcommands@Umd3@@Uvertmesh@vertmodel@@@@QAEXP6AXPADPAM@ZPBD3@Z 00454fc0 f i rendermodel.obj
 0001:00054050       ??$modelcommand@$$A6AXPAM000@Z@?$modelcommands@Umd3@@Uvertmesh@vertmodel@@@@QAEXP6AXPAM000@ZPBD2@Z 00455050 f i rendermodel.obj
 0001:000540e0       ??$modelcommand@$$A6AXPADPAH1PAM1@Z@?$modelcommands@Umd3@@Uvertmesh@vertmodel@@@@QAEXP6AXPADPAH1PAM1@ZPBD4@Z 004550e0 f i rendermodel.obj
 0001:00054170       ??$modelcommand@$$A6AXPAD0PAM@Z@?$modelcommands@Umd5@@Uskelmesh@skelmodel@@@@QAEXP6AXPAD0PAM@ZPBD3@Z 00455170 f i rendermodel.obj
 0001:00054200       ??$modelcommand@$$A6AXPAD0PAM11111@Z@?$modelcommands@Umd5@@Uskelmesh@skelmodel@@@@QAEXP6AXPAD0PAM11111@ZPBD3@Z 00455200 f i rendermodel.obj
 0001:00054290       ??$modelcommand@$$A6AXPADPAM111@Z@?$modelcommands@Umd5@@Uskelmesh@skelmodel@@@@QAEXP6AXPADPAM111@ZPBD3@Z 00455290 f i rendermodel.obj
 0001:00054320       ??$modelcommand@$$A6AXPAD0PAHPAM2@Z@?$modelcommands@Umd5@@Uskelmesh@skelmodel@@@@QAEXP6AXPAD0PAHPAM2@ZPBD4@Z 00455320 f i rendermodel.obj
 0001:000543b0       ??$modelcommand@$$A6AXPAD0PAM11@Z@?$modelcommands@Umd5@@Uskelmesh@skelmodel@@@@QAEXP6AXPAD0PAM11@ZPBD3@Z 004553b0 f i rendermodel.obj
 0001:00054440       ??$modelcommand@$$A6AXPAD0PAMPAH22@Z@?$modelcommands@Umd5@@Uskelmesh@skelmodel@@@@QAEXP6AXPAD0PAMPAH22@ZPBD4@Z 00455440 f i rendermodel.obj
 0001:000544d0       ??$modelcommand@$$A6AXPAD@Z@?$modelcommands@Umd5@@Uskelmesh@skelmodel@@@@QAEXP6AXPAD@ZPBD2@Z 004554d0 f i rendermodel.obj
 0001:00054560       ??$modelcommand@$$A6AXPADPAM11111@Z@?$modelcommands@Umd5@@Uskelmesh@skelmodel@@@@QAEXP6AXPADPAM11111@ZPBD3@Z 00455560 f i rendermodel.obj
 0001:000545f0       ??$modelcommand@$$A6AXPADPAM@Z@?$modelcommands@Uobj@@Uvertmesh@vertmodel@@@@QAEXP6AXPADPAM@ZPBD3@Z 004555f0 f i rendermodel.obj
 0001:00054680       ??$modelcommand@$$A6AXPAM000@Z@?$modelcommands@Uobj@@Uvertmesh@vertmodel@@@@QAEXP6AXPAM000@ZPBD2@Z 00455680 f i rendermodel.obj
 0001:00054710       ??$modelcommand@$$A6AXPAD0PAM@Z@?$modelcommands@Usmd@@Uskelmesh@skelmodel@@@@QAEXP6AXPAD0PAM@ZPBD3@Z 00455710 f i rendermodel.obj
 0001:000547a0       ??$modelcommand@$$A6AXPAD0PAM11111@Z@?$modelcommands@Usmd@@Uskelmesh@skelmodel@@@@QAEXP6AXPAD0PAM11111@ZPBD3@Z 004557a0 f i rendermodel.obj
 0001:00054830       ??$modelcommand@$$A6AXPADPAM111@Z@?$modelcommands@Usmd@@Uskelmesh@skelmodel@@@@QAEXP6AXPADPAM111@ZPBD3@Z 00455830 f i rendermodel.obj
 0001:000548c0       ??$modelcommand@$$A6AXPAD0PAHPAM2@Z@?$modelcommands@Usmd@@Uskelmesh@skelmodel@@@@QAEXP6AXPAD0PAHPAM2@ZPBD4@Z 004558c0 f i rendermodel.obj
 0001:00054950       ??$modelcommand@$$A6AXPAD0PAM11@Z@?$modelcommands@Usmd@@Uskelmesh@skelmodel@@@@QAEXP6AXPAD0PAM11@ZPBD3@Z 00455950 f i rendermodel.obj
 0001:000549e0       ??$modelcommand@$$A6AXPAD0PAMPAH22@Z@?$modelcommands@Usmd@@Uskelmesh@skelmodel@@@@QAEXP6AXPAD0PAMPAH22@ZPBD4@Z 004559e0 f i rendermodel.obj
 0001:00054a70       ??$modelcommand@$$A6AXPAD@Z@?$modelcommands@Usmd@@Uskelmesh@skelmodel@@@@QAEXP6AXPAD@ZPBD2@Z 00455a70 f i rendermodel.obj
 0001:00054b00       ??$modelcommand@$$A6AXPADPAM11111@Z@?$modelcommands@Usmd@@Uskelmesh@skelmodel@@@@QAEXP6AXPADPAM11111@ZPBD3@Z 00455b00 f i rendermodel.obj
 0001:00054b90       ??$modelcommand@$$A6AXPAD0PAM@Z@?$modelcommands@Uiqm@@Uskelmesh@skelmodel@@@@QAEXP6AXPAD0PAM@ZPBD3@Z 00455b90 f i rendermodel.obj
 0001:00054c20       ??$modelcommand@$$A6AXPAD0PAM11111@Z@?$modelcommands@Uiqm@@Uskelmesh@skelmodel@@@@QAEXP6AXPAD0PAM11111@ZPBD3@Z 00455c20 f i rendermodel.obj
 0001:00054cb0       ??$modelcommand@$$A6AXPADPAM111@Z@?$modelcommands@Uiqm@@Uskelmesh@skelmodel@@@@QAEXP6AXPADPAM111@ZPBD3@Z 00455cb0 f i rendermodel.obj
 0001:00054d40       ??$modelcommand@$$A6AXPAD0PAHPAM2@Z@?$modelcommands@Uiqm@@Uskelmesh@skelmodel@@@@QAEXP6AXPAD0PAHPAM2@ZPBD4@Z 00455d40 f i rendermodel.obj
 0001:00054dd0       ??$modelcommand@$$A6AXPAD0PAM11@Z@?$modelcommands@Uiqm@@Uskelmesh@skelmodel@@@@QAEXP6AXPAD0PAM11@ZPBD3@Z 00455dd0 f i rendermodel.obj
 0001:00054e60       ??$modelcommand@$$A6AXPAD0PAMPAH22@Z@?$modelcommands@Uiqm@@Uskelmesh@skelmodel@@@@QAEXP6AXPAD0PAMPAH22@ZPBD4@Z 00455e60 f i rendermodel.obj
 0001:00054ef0       ??$modelcommand@$$A6AXPAD@Z@?$modelcommands@Uiqm@@Uskelmesh@skelmodel@@@@QAEXP6AXPAD@ZPBD2@Z 00455ef0 f i rendermodel.obj
 0001:00054f80       ??$modelcommand@$$A6AXPADPAM11111@Z@?$modelcommands@Uiqm@@Uskelmesh@skelmodel@@@@QAEXP6AXPADPAM11111@ZPBD3@Z 00455f80 f i rendermodel.obj
 0001:00055010       ??$modelcommand@$$A6AXPAD@Z@?$modelcommands@Umd2@@Uvertmesh@vertmodel@@@@QAEXP6AXPAD@ZPBD2@Z 00456010 f i rendermodel.obj
 0001:000550a0       ??$modelcommand@$$A6AXPAD@Z@?$modelcommands@Umd3@@Uvertmesh@vertmodel@@@@QAEXP6AXPAD@ZPBD2@Z 004560a0 f i rendermodel.obj
 0001:00055130       ??$modelcommand@$$A6AXPAD00PAM1@Z@?$modelcommands@Umd3@@Uvertmesh@vertmodel@@@@QAEXP6AXPAD00PAM1@ZPBD3@Z 00456130 f i rendermodel.obj
 0001:000551c0       ??$modelcommand@$$A6AXPADPAH@Z@?$modelcommands@Umd3@@Uvertmesh@vertmodel@@@@QAEXP6AXPADPAH@ZPBD3@Z 004561c0 f i rendermodel.obj
 0001:00055250       ??$modelcommand@$$A6AXPADPAH1PAM@Z@?$modelcommands@Umd3@@Uvertmesh@vertmodel@@@@QAEXP6AXPADPAH1PAM@ZPBD4@Z 00456250 f i rendermodel.obj
 0001:000552e0       ??$modelcommand@$$A6AXPADPAM1@Z@?$modelcommands@Umd3@@Uvertmesh@vertmodel@@@@QAEXP6AXPADPAM1@ZPBD3@Z 004562e0 f i rendermodel.obj
 0001:00055370       ??$modelcommand@$$A6AXPAD0@Z@?$modelcommands@Umd3@@Uvertmesh@vertmodel@@@@QAEXP6AXPAD0@ZPBD2@Z 00456370 f i rendermodel.obj
 0001:00055400       ??$modelcommand@$$A6AXPAD00@Z@?$modelcommands@Umd3@@Uvertmesh@vertmodel@@@@QAEXP6AXPAD00@ZPBD2@Z 00456400 f i rendermodel.obj
 0001:00055490       ??$modelcommand@$$A6AXPAH0PADPAM22@Z@?$modelcommands@Umd3@@Uvertmesh@vertmodel@@@@QAEXP6AXPAH0PADPAM22@ZPBD4@Z 00456490 f i rendermodel.obj
 0001:00055520       ??$modelcommand@$$A6AXPAD00PAM1@Z@?$modelcommands@Umd5@@Uskelmesh@skelmodel@@@@QAEXP6AXPAD00PAM1@ZPBD3@Z 00456520 f i rendermodel.obj
 0001:000555b0       ??$modelcommand@$$A6AXPADPAH@Z@?$modelcommands@Umd5@@Uskelmesh@skelmodel@@@@QAEXP6AXPADPAH@ZPBD3@Z 004565b0 f i rendermodel.obj
 0001:00055640       ??$modelcommand@$$A6AXPADPAH1PAM@Z@?$modelcommands@Umd5@@Uskelmesh@skelmodel@@@@QAEXP6AXPADPAH1PAM@ZPBD4@Z 00456640 f i rendermodel.obj
 0001:000556d0       ??$modelcommand@$$A6AXPADPAM1@Z@?$modelcommands@Umd5@@Uskelmesh@skelmodel@@@@QAEXP6AXPADPAM1@ZPBD3@Z 004566d0 f i rendermodel.obj
 0001:00055760       ??$modelcommand@$$A6AXPADPAM@Z@?$modelcommands@Umd5@@Uskelmesh@skelmodel@@@@QAEXP6AXPADPAM@ZPBD3@Z 00456760 f i rendermodel.obj
 0001:000557f0       ??$modelcommand@$$A6AXPAD0@Z@?$modelcommands@Umd5@@Uskelmesh@skelmodel@@@@QAEXP6AXPAD0@ZPBD2@Z 004567f0 f i rendermodel.obj
 0001:00055880       ??$modelcommand@$$A6AXPAD00@Z@?$modelcommands@Umd5@@Uskelmesh@skelmodel@@@@QAEXP6AXPAD00@ZPBD2@Z 00456880 f i rendermodel.obj
 0001:00055910       ??$modelcommand@$$A6AXPAH0PADPAM22@Z@?$modelcommands@Umd5@@Uskelmesh@skelmodel@@@@QAEXP6AXPAH0PADPAM22@ZPBD4@Z 00456910 f i rendermodel.obj
 0001:000559a0       ??$modelcommand@$$A6AXPAD@Z@?$modelcommands@Uobj@@Uvertmesh@vertmodel@@@@QAEXP6AXPAD@ZPBD2@Z 004569a0 f i rendermodel.obj
 0001:00055a30       ??$modelcommand@$$A6AXPAD00PAM1@Z@?$modelcommands@Uobj@@Uvertmesh@vertmodel@@@@QAEXP6AXPAD00PAM1@ZPBD3@Z 00456a30 f i rendermodel.obj
 0001:00055ac0       ??$modelcommand@$$A6AXPADPAH@Z@?$modelcommands@Uobj@@Uvertmesh@vertmodel@@@@QAEXP6AXPADPAH@ZPBD3@Z 00456ac0 f i rendermodel.obj
 0001:00055b50       ??$modelcommand@$$A6AXPADPAH1PAM@Z@?$modelcommands@Uobj@@Uvertmesh@vertmodel@@@@QAEXP6AXPADPAH1PAM@ZPBD4@Z 00456b50 f i rendermodel.obj
 0001:00055be0       ??$modelcommand@$$A6AXPADPAM1@Z@?$modelcommands@Uobj@@Uvertmesh@vertmodel@@@@QAEXP6AXPADPAM1@ZPBD3@Z 00456be0 f i rendermodel.obj
 0001:00055c70       ??$modelcommand@$$A6AXPAD0@Z@?$modelcommands@Uobj@@Uvertmesh@vertmodel@@@@QAEXP6AXPAD0@ZPBD2@Z 00456c70 f i rendermodel.obj
 0001:00055d00       ??$modelcommand@$$A6AXPAD00@Z@?$modelcommands@Uobj@@Uvertmesh@vertmodel@@@@QAEXP6AXPAD00@ZPBD2@Z 00456d00 f i rendermodel.obj
 0001:00055d90       ??$modelcommand@$$A6AXPAH0PADPAM22@Z@?$modelcommands@Uobj@@Uvertmesh@vertmodel@@@@QAEXP6AXPAH0PADPAM22@ZPBD4@Z 00456d90 f i rendermodel.obj
 0001:00055e20       ??$modelcommand@$$A6AXPAD00PAM1@Z@?$modelcommands@Usmd@@Uskelmesh@skelmodel@@@@QAEXP6AXPAD00PAM1@ZPBD3@Z 00456e20 f i rendermodel.obj
 0001:00055eb0       ??$modelcommand@$$A6AXPADPAH@Z@?$modelcommands@Usmd@@Uskelmesh@skelmodel@@@@QAEXP6AXPADPAH@ZPBD3@Z 00456eb0 f i rendermodel.obj
 0001:00055f40       ??$modelcommand@$$A6AXPADPAH1PAM@Z@?$modelcommands@Usmd@@Uskelmesh@skelmodel@@@@QAEXP6AXPADPAH1PAM@ZPBD4@Z 00456f40 f i rendermodel.obj
 0001:00055fd0       ??$modelcommand@$$A6AXPADPAM1@Z@?$modelcommands@Usmd@@Uskelmesh@skelmodel@@@@QAEXP6AXPADPAM1@ZPBD3@Z 00456fd0 f i rendermodel.obj
 0001:00056060       ??$modelcommand@$$A6AXPADPAM@Z@?$modelcommands@Usmd@@Uskelmesh@skelmodel@@@@QAEXP6AXPADPAM@ZPBD3@Z 00457060 f i rendermodel.obj
 0001:000560f0       ??$modelcommand@$$A6AXPAD0@Z@?$modelcommands@Usmd@@Uskelmesh@skelmodel@@@@QAEXP6AXPAD0@ZPBD2@Z 004570f0 f i rendermodel.obj
 0001:00056180       ??$modelcommand@$$A6AXPAD00@Z@?$modelcommands@Usmd@@Uskelmesh@skelmodel@@@@QAEXP6AXPAD00@ZPBD2@Z 00457180 f i rendermodel.obj
 0001:00056210       ??$modelcommand@$$A6AXPAH0PADPAM22@Z@?$modelcommands@Usmd@@Uskelmesh@skelmodel@@@@QAEXP6AXPAH0PADPAM22@ZPBD4@Z 00457210 f i rendermodel.obj
 0001:000562a0       ??$modelcommand@$$A6AXPAD00PAM1@Z@?$modelcommands@Uiqm@@Uskelmesh@skelmodel@@@@QAEXP6AXPAD00PAM1@ZPBD3@Z 004572a0 f i rendermodel.obj
 0001:00056330       ??$modelcommand@$$A6AXPADPAH@Z@?$modelcommands@Uiqm@@Uskelmesh@skelmodel@@@@QAEXP6AXPADPAH@ZPBD3@Z 00457330 f i rendermodel.obj
 0001:000563c0       ??$modelcommand@$$A6AXPADPAH1PAM@Z@?$modelcommands@Uiqm@@Uskelmesh@skelmodel@@@@QAEXP6AXPADPAH1PAM@ZPBD4@Z 004573c0 f i rendermodel.obj
 0001:00056450       ??$modelcommand@$$A6AXPADPAM1@Z@?$modelcommands@Uiqm@@Uskelmesh@skelmodel@@@@QAEXP6AXPADPAM1@ZPBD3@Z 00457450 f i rendermodel.obj
 0001:000564e0       ??$modelcommand@$$A6AXPADPAM@Z@?$modelcommands@Uiqm@@Uskelmesh@skelmodel@@@@QAEXP6AXPADPAM@ZPBD3@Z 004574e0 f i rendermodel.obj
 0001:00056570       ??$modelcommand@$$A6AXPAD0@Z@?$modelcommands@Uiqm@@Uskelmesh@skelmodel@@@@QAEXP6AXPAD0@ZPBD2@Z 00457570 f i rendermodel.obj
 0001:00056600       ??$modelcommand@$$A6AXPAD00@Z@?$modelcommands@Uiqm@@Uskelmesh@skelmodel@@@@QAEXP6AXPAD00@ZPBD2@Z 00457600 f i rendermodel.obj
 0001:00056690       ??$modelcommand@$$A6AXPAH0PADPAM22@Z@?$modelcommands@Uiqm@@Uskelmesh@skelmodel@@@@QAEXP6AXPAH0PADPAM22@ZPBD4@Z 00457690 f i rendermodel.obj
 0001:00056720       ?insert@?$hashset@H@@QAEPAUchain@1@I@Z 00457720 f i rendermodel.obj
 0001:000567a0       ?accumulate@matrix3x4@@QAEXABU1@M@Z 004577a0 f i rendermodel.obj
 0001:00056910       ??_Gmodel@@UAEPAXI@Z       00457910 f i rendermodel.obj
 0001:00056910       ??_Emodel@@UAEPAXI@Z       00457910 f i * CIL library *:* CIL module *
 0001:00056980       ??0matrix3x3@@QAE@ABUquat@@@Z 00457980 f i rendermodel.obj
 0001:00056b10       ??0dualquat@@QAE@ABUquat@@ABUvec@@@Z 00457b10 f i rendermodel.obj
 0001:00056c20       ?mulorient@dualquat@@QAEXABUquat@@@Z 00457c20 f i rendermodel.obj
 0001:00056e60       ?transposemul@matrix3x4@@QAEXABUmatrix3x3@@ABUvec@@ABU1@@Z 00457e60 f i rendermodel.obj
 0001:00057260       ?invert@dualquat@@QAEAAU1@XZ 00458260 f i rendermodel.obj
 0001:00057360       ?mul@dualquat@@QAEXABU1@@Z 00458360 f i rendermodel.obj
 0001:000573b0       ?transposemul@matrix3x4@@QAEXABU1@0@Z 004583b0 f i rendermodel.obj
 0001:00057830       ?mulorient@dualquat@@QAEXABUquat@@ABU1@@Z 00458830 f i rendermodel.obj
 0001:00057e50       ??0matrix3x4@@QAE@ABUdualquat@@@Z 00458e50 f i rendermodel.obj
 0001:000581a0       ?mul@dualquat@@QAEXABU1@0@Z 004591a0 f i rendermodel.obj
 0001:000584b0       ??0glmatrixf@@QAE@ABUmatrix3x4@@@Z 004594b0 f i rendermodel.obj
 0001:00058520       ?mul@matrix3x4@@QAEXABU1@0@Z 00459520 f i rendermodel.obj
 0001:00058920       ?identity@matrix3x4@@QAEXXZ 00459920 f i rendermodel.obj
 0001:000589d0       ??1model@@UAE@XZ           004599d0 f i rendermodel.obj
 0001:00058a30       ?setglow@model@@UAEXMMM@Z  00459a30 f i rendermodel.obj
 0001:00058a30       ?setenvmap@model@@UAEXMMPAUTexture@@@Z 00459a30 f i rendermodel.obj
 0001:00058a40       ?preloadBIH@model@@UAEXXZ  00459a40 f i rendermodel.obj
 0001:00058a50       ??0model@@QAE@XZ           00459a50 f i rendermodel.obj
 0001:00058b00       ??9animinfo@@QBE_NABU0@@Z  00459b00 f i rendermodel.obj
 0001:00058b50       ?setvariant_@Shader@@QAEXHHPAU1@@Z 00459b50 f i rendermodel.obj
 0001:00058c00       ?mul@matrix3x4@@QAEXABUmatrix3x3@@ABUvec@@ABU1@@Z 00459c00 f i rendermodel.obj
 0001:00059000       ??0matrix3x4@@QAE@ABUmatrix3x3@@ABUvec@@@Z 0045a000 f i rendermodel.obj
 0001:00059060       ?addblurtiles@rendertarget@@QAE_NMMMMM@Z 0045a060 f i renderparticles.obj
 0001:00059240       ?debugscissor@rendertarget@@QAEXHH_N@Z 0045a240 f i renderparticles.obj
 0001:00059370       ?debugblurtiles@rendertarget@@QAEXHH_N@Z 0045a370 f i renderparticles.obj
 0001:00059670       ?finalize@particleemitter@@QAEXXZ 0045a670 f i renderparticles.obj
 0001:00059810       ??1partrenderer@@UAE@XZ    0045a810 f i renderparticles.obj
 0001:00059820       ?calc@partrenderer@@QAEXPAUparticle@@AAH1AAUvec@@2_N@Z 0045a820 f i renderparticles.obj
 0001:00059b00       ??_Gpartrenderer@@UAEPAXI@Z 0045ab00 f i renderparticles.obj
 0001:00059b00       ??_Epartrenderer@@UAEPAXI@Z 0045ab00 f i * CIL library *:* CIL module *
 0001:00059b20       ??1listrenderer@@UAE@XZ    0045ab20 f i renderparticles.obj
 0001:00059b60       ?reset@listrenderer@@UAEXXZ 0045ab60 f i renderparticles.obj
 0001:00059bb0       ?resettracked@listrenderer@@UAEXPAUphysent@@@Z 0045abb0 f i renderparticles.obj
 0001:00059c00       ?addpart@listrenderer@@UAEPAUparticle@@ABUvec@@0HHMH@Z 0045ac00 f i renderparticles.obj
 0001:00059db0       ?count@listrenderer@@UAEHXZ 0045adb0 f i renderparticles.obj
 0001:00059dd0       ?haswork@listrenderer@@UAE_NXZ 0045add0 f i renderparticles.obj
 0001:00059de0       ?render@listrenderer@@UAEXXZ 0045ade0 f i renderparticles.obj
 0001:00059ec0       ??_Glistrenderer@@UAEPAXI@Z 0045aec0 f i renderparticles.obj
 0001:00059ec0       ??_Elistrenderer@@UAEPAXI@Z 0045aec0 f i * CIL library *:* CIL module *
 0001:00059f20       ?startrender@meterrenderer@@UAEXXZ 0045af20 f i renderparticles.obj
 0001:00059f70       ?endrender@meterrenderer@@UAEXXZ 0045af70 f i renderparticles.obj
 0001:00059fc0       ?renderpart@meterrenderer@@UAEXPAUlistparticle@@ABUvec@@1HHPAE@Z 0045afc0 f i renderparticles.obj
 0001:0005a4c0       ??_Gfireballrenderer@@UAEPAXI@Z 0045b4c0 f i renderparticles.obj
 0001:0005a4c0       ??_Efireballrenderer@@UAEPAXI@Z 0045b4c0 f i * CIL library *:* CIL module *
 0001:0005a4c0       ??_Gmeterrenderer@@UAEPAXI@Z 0045b4c0 f i renderparticles.obj
 0001:0005a4c0       ??_Etextrenderer@@UAEPAXI@Z 0045b4c0 f i * CIL library *:* CIL module *
 0001:0005a4c0       ??_Emeterrenderer@@UAEPAXI@Z 0045b4c0 f i * CIL library *:* CIL module *
 0001:0005a4c0       ??_Elightningrenderer@@UAEPAXI@Z 0045b4c0 f i * CIL library *:* CIL module *
 0001:0005a4c0       ??_Gtextrenderer@@UAEPAXI@Z 0045b4c0 f i renderparticles.obj
 0001:0005a4c0       ??_Glightningrenderer@@UAEPAXI@Z 0045b4c0 f i renderparticles.obj
 0001:0005a520       ??0textrenderer@@QAE@H@Z   0045b520 f i renderparticles.obj
 0001:0005a5d0       ?killpart@textrenderer@@UAEXPAUlistparticle@@@Z 0045b5d0 f i renderparticles.obj
 0001:0005a5f0       ?renderpart@textrenderer@@UAEXPAUlistparticle@@ABUvec@@1HHPAE@Z 0045b5f0 f i renderparticles.obj
 0001:0005a800       ??$genpos@$00@@YAXABUvec@@0MHHPAUpartvert@@@Z 0045b800 f i renderparticles.obj
 0001:0005aa10       ??$genrotpos@$0A@@@YAXABUvec@@0MHHPAUpartvert@@H@Z 0045ba10 f i renderparticles.obj
 0001:0005ad30       ?colorformats@depthfxtexture@@UBEPBIXZ 0045bd30 f i renderparticles.obj
 0001:0005ada0       ?addscissorbox@depthfxtexture@@QAE_NABUvec@@0@Z 0045bda0 f i renderparticles.obj
 0001:0005af10       ?screenview@depthfxtexture@@UBE_NXZ 0045bf10 f i renderparticles.obj
 0001:0005af20       ?texrect@depthfxtexture@@UBE_NXZ 0045bf20 f i renderparticles.obj
 0001:0005af40       ?filter@depthfxtexture@@UBE_NXZ 0045bf40 f i renderparticles.obj
 0001:0005af50       ?highprecision@depthfxtexture@@QBE_NXZ 0045bf50 f i renderparticles.obj
 0001:0005af70       ?shouldrender@depthfxtexture@@UAE_NXZ 0045bf70 f i renderparticles.obj
 0001:0005afd0       ?dorender@depthfxtexture@@UAE_NXZ 0045bfd0 f i renderparticles.obj
 0001:0005b090       ?dodebug@depthfxtexture@@UAEXHH@Z 0045c090 f i renderparticles.obj
 0001:0005b120       ?startrender@fireballrenderer@@UAEXXZ 0045c120 f i renderparticles.obj
 0001:0005b130       ?endrender@fireballrenderer@@UAEXXZ 0045c130 f i renderparticles.obj
 0001:0005b170       ?cleanup@fireballrenderer@@UAEXXZ 0045c170 f i renderparticles.obj
 0001:0005b180       ?finddepthfxranges@fireballrenderer@@QAEHPAPAXPAMHHAAUvec@@2@Z 0045c180 f i renderparticles.obj
 0001:0005b760       ?seedemitter@fireballrenderer@@UAEXAAUparticleemitter@@ABUvec@@1HMH@Z 0045c760 f i renderparticles.obj
 0001:0005b850       ?renderpart@fireballrenderer@@UAEXPAUlistparticle@@ABUvec@@1HHPAE@Z 0045c850 f i renderparticles.obj
 0001:0005c170       ??0flarerenderer@@QAE@PBDH@Z 0045d170 f i renderparticles.obj
 0001:0005c250       ?reset@flarerenderer@@UAEXXZ 0045d250 f i renderparticles.obj
 0001:0005c260       ?newflare@flarerenderer@@QAEXAAUvec@@ABU2@EEEMM_N2@Z 0045d260 f i renderparticles.obj
 0001:0005c320       ?addflare@flarerenderer@@QAEXAAUvec@@EEE_N1@Z 0045d320 f i renderparticles.obj
 0001:0005c5a0       ?makelightflares@flarerenderer@@QAEXXZ 0045d5a0 f i renderparticles.obj
 0001:0005c850       ?count@flarerenderer@@UAEHXZ 0045d850 f i renderparticles.obj
 0001:0005c860       ?haswork@flarerenderer@@UAE_NXZ 0045d860 f i renderparticles.obj
 0001:0005c890       ?render@flarerenderer@@UAEXXZ 0045d890 f i renderparticles.obj
 0001:0005cd90       ?addpart@flarerenderer@@UAEPAUparticle@@ABUvec@@0HHMH@Z 0045dd90 f i renderparticles.obj
 0001:0005cda0       ??_E?$varenderer@$00@@UAEPAXI@Z 0045dda0 f i * CIL library *:* CIL module *
 0001:0005cda0       ??_Gflarerenderer@@UAEPAXI@Z 0045dda0 f i renderparticles.obj
 0001:0005cda0       ??_E?$varenderer@$01@@UAEPAXI@Z 0045dda0 f i * CIL library *:* CIL module *
 0001:0005cda0       ??_G?$varenderer@$00@@UAEPAXI@Z 0045dda0 f i renderparticles.obj
 0001:0005cda0       ??_E?$varenderer@$0A@@@UAEPAXI@Z 0045dda0 f i * CIL library *:* CIL module *
 0001:0005cda0       ??_G?$varenderer@$0A@@@UAEPAXI@Z 0045dda0 f i renderparticles.obj
 0001:0005cda0       ??_Eflarerenderer@@UAEPAXI@Z 0045dda0 f i * CIL library *:* CIL module *
 0001:0005cda0       ??_G?$varenderer@$01@@UAEPAXI@Z 0045dda0 f i renderparticles.obj
 0001:0005cdf0       ??0lightningrenderer@@QAE@XZ 0045ddf0 f i renderparticles.obj
 0001:0005cea0       ?startrender@lightningrenderer@@UAEXXZ 0045dea0 f i renderparticles.obj
 0001:0005ceb0       ?endrender@lightningrenderer@@UAEXXZ 0045deb0 f i renderparticles.obj
 0001:0005cec0       ?update@lightningrenderer@@UAEXXZ 0045dec0 f i renderparticles.obj
 0001:0005cf10       ?seedemitter@lightningrenderer@@UAEXAAUparticleemitter@@ABUvec@@1HMH@Z 0045df10 f i renderparticles.obj
 0001:0005d060       ?renderpart@lightningrenderer@@UAEXPAUlistparticle@@ABUvec@@1HHPAE@Z 0045e060 f i renderparticles.obj
 0001:0005d0e0       ?init@?$varenderer@$00@@UAEXH@Z 0045e0e0 f i renderparticles.obj
 0001:0005d0e0       ?init@?$varenderer@$0A@@@UAEXH@Z 0045e0e0 f i renderparticles.obj
 0001:0005d0e0       ?init@?$varenderer@$01@@UAEXH@Z 0045e0e0 f i renderparticles.obj
 0001:0005d1c0       ?reset@?$varenderer@$0A@@@UAEXXZ 0045e1c0 f i renderparticles.obj
 0001:0005d1c0       ?reset@?$varenderer@$01@@UAEXXZ 0045e1c0 f i renderparticles.obj
 0001:0005d1c0       ?reset@?$varenderer@$00@@UAEXXZ 0045e1c0 f i renderparticles.obj
 0001:0005d1d0       ?resettracked@?$varenderer@$0A@@@UAEXPAUphysent@@@Z 0045e1d0 f i renderparticles.obj
 0001:0005d1d0       ?resettracked@?$varenderer@$01@@UAEXPAUphysent@@@Z 0045e1d0 f i renderparticles.obj
 0001:0005d1d0       ?resettracked@?$varenderer@$00@@UAEXPAUphysent@@@Z 0045e1d0 f i renderparticles.obj
 0001:0005d220       ?count@?$varenderer@$0A@@@UAEHXZ 0045e220 f i renderparticles.obj
 0001:0005d220       ?count@?$varenderer@$00@@UAEHXZ 0045e220 f i renderparticles.obj
 0001:0005d220       ?count@?$varenderer@$01@@UAEHXZ 0045e220 f i renderparticles.obj
 0001:0005d230       ?haswork@?$varenderer@$01@@UAE_NXZ 0045e230 f i renderparticles.obj
 0001:0005d230       ?haswork@?$varenderer@$0A@@@UAE_NXZ 0045e230 f i renderparticles.obj
 0001:0005d230       ?haswork@?$varenderer@$00@@UAE_NXZ 0045e230 f i renderparticles.obj
 0001:0005d240       ?addpart@?$varenderer@$0A@@@UAEPAUparticle@@ABUvec@@0HHMH@Z 0045e240 f i renderparticles.obj
 0001:0005d240       ?addpart@?$varenderer@$00@@UAEPAUparticle@@ABUvec@@0HHMH@Z 0045e240 f i renderparticles.obj
 0001:0005d240       ?addpart@?$varenderer@$01@@UAEPAUparticle@@ABUvec@@0HHMH@Z 0045e240 f i renderparticles.obj
 0001:0005d330       ?seedemitter@?$varenderer@$0A@@@UAEXAAUparticleemitter@@ABUvec@@1HMH@Z 0045e330 f i renderparticles.obj
 0001:0005d5b0       ?update@?$varenderer@$0A@@@UAEXXZ 0045e5b0 f i renderparticles.obj
 0001:0005d930       ?render@?$varenderer@$0A@@@UAEXXZ 0045e930 f i renderparticles.obj
 0001:0005d930       ?render@?$varenderer@$01@@UAEXXZ 0045e930 f i renderparticles.obj
 0001:0005d930       ?render@?$varenderer@$00@@UAEXXZ 0045e930 f i renderparticles.obj
 0001:0005d9b0       ?seedemitter@?$varenderer@$01@@UAEXAAUparticleemitter@@ABUvec@@1HMH@Z 0045e9b0 f i renderparticles.obj
 0001:0005ddb0       ?update@?$varenderer@$01@@UAEXXZ 0045edb0 f i renderparticles.obj
 0001:0005de90       ?seedemitter@?$varenderer@$00@@UAEXAAUparticleemitter@@ABUvec@@1HMH@Z 0045ee90 f i renderparticles.obj
 0001:0005e1d0       ?update@?$varenderer@$00@@UAEXXZ 0045f1d0 f i renderparticles.obj
 0001:0005e990       ?growbuf@?$vector@Uparticleemitter@@@@QAEXH@Z 0045f990 f i renderparticles.obj
 0001:0005ea20       ?genverts@?$varenderer@$0A@@@QAEXPAUparticle@@PAUpartvert@@_N@Z 0045fa20 f i renderparticles.obj
 0001:0005eca0       ?genverts@?$varenderer@$01@@QAEXPAUparticle@@PAUpartvert@@_N@Z 0045fca0 f i renderparticles.obj
 0001:0005f3f0       ?genverts@?$varenderer@$00@@QAEXPAUparticle@@PAUpartvert@@_N@Z 004603f0 f i renderparticles.obj
 0001:0005f850       ??4?$vector@PAUTexture@@@@QAEAAU0@ABU0@@Z 00460850 f i rendertext.obj
 0001:0005f8b0       ??4?$vector@Ucharinfo@font@@@@QAEAAU0@ABU0@@Z 004608b0 f i rendertext.obj
 0001:0005f940       ??0?$hashset@Ufont@@@@QAE@H@Z 00460940 f i rendertext.obj
 0001:0005f9d0       ?deletechunks@?$hashset@Ufont@@@@QAEXXZ 004609d0 f i rendertext.obj
 0001:0005fa40       ??1chain@?$hashset@Ufont@@@@QAE@XZ 00460a40 f i rendertext.obj
 0001:0005fa80       ??$?APBD@?$hashset@Ufont@@@@QAEAAUfont@@ABQBD@Z 00460a80 f i rendertext.obj
 0001:0005fa80       ??$?APAD@?$hashset@Ufont@@@@QAEAAUfont@@ABQAD@Z 00460a80 f i rendertext.obj
 0001:0005fb10       ??$access@PBD@?$hashset@Ufont@@@@QAEPAUfont@@ABQBD@Z 00460b10 f i rendertext.obj
 0001:0005fba0       ?insert@?$hashset@Ufont@@@@QAEPAUchain@1@I@Z 00460ba0 f i rendertext.obj
 0001:0005fc80       ??0chain@?$hashset@Ufont@@@@QAE@XZ 00460c80 f i rendertext.obj
 0001:0005fcf0       ??1font@@QAE@XZ            00460cf0 f i rendertext.obj
 0001:0005fd80       ??0renderstate@@QAE@XZ     00460d80 f i renderva.obj
 0001:0005fed0       ??0geombatch@@QAE@ABUelementset@@PAGPAUvtxarray@@@Z 00460ed0 f i renderva.obj
 0001:0005ff60       ?compare@geombatch@@QBEHABU1@@Z 00460f60 f i renderva.obj
 0001:00060020       ?add@?$vector@Ugeombatch@@@@QAEAAUgeombatch@@ABU2@@Z 00461020 f i renderva.obj
 0001:00060090       ?growbuf@?$vector@Ugeombatch@@@@QAEXH@Z 00461090 f i renderva.obj
 0001:00060120       ?setvariant@Shader@@QAEXHHAAUSlot@@AAUVSlot@@@Z 00461120 f i renderva.obj
 0001:00060160       ?access@?$hashtable@PBDUShader@@@@QAEPAUShader@@ABQBD@Z 00461160 f i shader.obj
 0001:000601f0       ??A?$hashtable@PBDUShader@@@@QAEAAUShader@@ABQBD@Z 004611f0 f i shader.obj
 0001:000602a0       ??1?$hashset@U?$hashtableentry@PBDUShader@@@@@@QAE@XZ 004612a0 f i shader.obj
 0001:000602d0       ?insert@?$vector@D@@QAEPADHPBDH@Z 004612d0 f i shader.obj
 0001:00060360       ??0?$hashset@PBD@@QAE@H@Z  00461360 f i shader.obj
 0001:000603f0       ??1?$hashset@PBD@@QAE@XZ   004613f0 f i shader.obj
 0001:00060440       ?add@?$vector@Upostfxpass@@@@QAEAAUpostfxpass@@XZ 00461440 f i shader.obj
 0001:000604e0       ?growbuf@?$vector@ULocalShaderParamState@@@@QAEXH@Z 004614e0 f i shader.obj
 0001:00060560       ?growbuf@?$vector@UUniformLoc@@@@QAEXH@Z 00461560 f i shader.obj
 0001:00060560       ?growbuf@?$vector@Uident@@@@QAEXH@Z 00461560 f i command.obj
 0001:000605e0       ??0?$hashset@U?$hashtableentry@PBDUShader@@@@@@QAE@H@Z 004615e0 f i shader.obj
 0001:00060670       ?deletechunks@?$hashset@U?$hashtableentry@PBDUShader@@@@@@QAEXXZ 00461670 f i shader.obj
 0001:000606e0       ?growbuf@?$vector@Upostfxtex@@@@QAEXH@Z 004616e0 f i shader.obj
 0001:00060770       ?growbuf@?$vector@Upostfxpass@@@@QAEXH@Z 00461770 f i shader.obj
 0001:00060800       ??1chain@?$hashset@U?$hashtableentry@PBDUShader@@@@@@QAE@XZ 00461800 f i shader.obj
 0001:00060850       ??1?$hashtableentry@PBDUShader@@@@QAE@XZ 00461850 f i shader.obj
 0001:00060890       ?insert@?$hashset@U?$hashtableentry@PBDUShader@@@@@@QAEPAUchain@1@I@Z 00461890 f i shader.obj
 0001:00060980       ??0chain@?$hashset@U?$hashtableentry@PBDUShader@@@@@@QAE@XZ 00461980 f i shader.obj
 0001:000609d0       ??$remove@PAD@?$hashset@U?$hashtableentry@PBDUShader@@@@@@QAE_NABQAD@Z 004619d0 f i shader.obj
 0001:00060af0       ??$access@PBD@?$hashset@PBD@@QAEPAPBDABQBD@Z 00461af0 f i shader.obj
 0001:00060b80       ??$?APBD@?$hashset@PBD@@QAEAAPBDABQBD@Z 00461b80 f i shader.obj
 0001:00060c10       ?insert@?$hashset@PBD@@QAEPAUchain@1@I@Z 00461c10 f i shader.obj
 0001:00060ca0       ??0Shader@@QAE@XZ          00461ca0 f i shader.obj
 0001:00060e00       ??1Shader@@QAE@XZ          00461e00 f i shader.obj
 0001:00060f70       ?checkblurtiles@rendertarget@@QAE_NMMMMM@Z 00461f70 f i shadowmap.obj
 0001:00061100       ?attachment@shadowmaptexture@@UBEIXZ 00462100 f i shadowmap.obj
 0001:00061120       ?colorformats@shadowmaptexture@@UBEPBIXZ 00462120 f i shadowmap.obj
 0001:00061170       ?shadowcompare@shadowmaptexture@@UBE_NXZ 00462170 f i shadowmap.obj
 0001:00061180       ?filter@shadowmaptexture@@UBE_NXZ 00462180 f i shadowmap.obj
 0001:000611a0       ?swaptexs@shadowmaptexture@@UBE_NXZ 004621a0 f i shadowmap.obj
 0001:000611b0       ?scissorblur@shadowmaptexture@@UAE_NAAH000@Z 004621b0 f i shadowmap.obj
 0001:000612e0       ?scissorrender@shadowmaptexture@@UAE_NAAH000@Z 004622e0 f i shadowmap.obj
 0001:00061320       ?doclear@shadowmaptexture@@UAEXXZ 00462320 f i shadowmap.obj
 0001:000613d0       ?dorender@shadowmaptexture@@UAE_NXZ 004623d0 f i shadowmap.obj
 0001:00061ed0       ?dodebug@shadowmaptexture@@UAEXHH@Z 00462ed0 f i shadowmap.obj
 0001:00061f30       ??1MSlot@@QAE@XZ           00462f30 f i texture.obj
 0001:00061fb0       ?add@?$vector@PAUSlot@@@@QAEAAPAUSlot@@ABQAU2@@Z 00462fb0 f i texture.obj
 0001:00062000       ?deletecontents@?$vector@PAUSlot@@@@QAEXXZ 00463000 f i texture.obj
 0001:000620b0       ?deletecontents@?$vector@PAUVSlot@@@@QAEXXZ 004630b0 f i texture.obj
 0001:00062140       ?access@?$hashtable@PADUTexture@@@@QAEPAUTexture@@ABQAD@Z 00463140 f i texture.obj
 0001:000621d0       ??A?$hashtable@PADUTexture@@@@QAEAAUTexture@@ABQAD@Z 004631d0 f i texture.obj
 0001:00062270       ??1?$hashset@U?$hashtableentry@PADUTexture@@@@@@QAE@XZ 00463270 f i texture.obj
 0001:000622c0       ?growbuf@?$vector@PAUSlot@@@@QAEXH@Z 004632c0 f i texture.obj
 0001:00062350       ??0?$hashset@U?$hashtableentry@PADUTexture@@@@@@QAE@H@Z 00463350 f i texture.obj
 0001:000623e0       ?growbuf@?$vector@Uenvmap@@@@QAEXH@Z 004633e0 f i texture.obj
 0001:00062480       ?insert@?$hashset@U?$hashtableentry@PADUTexture@@@@@@QAEPAUchain@1@I@Z 00463480 f i texture.obj
 0001:00062560       ??$remove@PAD@?$hashset@U?$hashtableentry@PADUTexture@@@@@@QAE_NABQAD@Z 00463560 f i texture.obj
 0001:00062660       ??_GImageData@@QAEPAXI@Z   00463660 f i texture.obj
 0001:000626b0       ?reset@Slot@@QAEXXZ        004636b0 f i texture.obj
 0001:00062750       ??0Slot@@QAE@H@Z           00463750 f i texture.obj
 0001:000627f0       ??1Slot@@QAE@XZ            004637f0 f i texture.obj
 0001:00062870       ??0MSlot@@QAE@XZ           00463870 f i texture.obj
 0001:000628d0       ?wrap@ImageData@@QAEXPAUSDL_Surface@@@Z 004638d0 f i texture.obj
 0001:00062960       ?replace@ImageData@@QAEXAAU1@@Z 00463960 f i texture.obj
 0001:00062a00       ??0Reflection@@QAE@XZ      00463a00 f i water.obj
 0001:00062a80       ??1Reflection@@QAE@XZ      00463a80 f i water.obj
 0001:00062ad0       ??Rsortfun@@QAE_NABUsortitem@@0@Z 00463ad0 f i command.obj
 0001:00062b80       ??0?$hashset@Uident@@@@QAE@H@Z 00463b80 f i command.obj
 0001:00062c10       ??1?$hashset@Uident@@@@QAE@XZ 00463c10 f i command.obj
 0001:00062c60       ?add@?$vector@Uident@@@@QAEAAUident@@ABU2@@Z 00463c60 f i command.obj
 0001:00062cd0       ?reserve@?$vector@I@@QAE?AU?$databuf@I@@H@Z 00463cd0 f i command.obj
 0001:00062d10       ?remove@?$vector@Usleepcmd@@@@QAE?AUsleepcmd@@H@Z 00463d10 f i command.obj
 0001:00062da0       ?growbuf@?$vector@Usleepcmd@@@@QAEXH@Z 00463da0 f i command.obj
 0001:00062e20       ??$access@PBDUident@@@?$hashset@Uident@@@@QAEAAUident@@ABQBDABU1@@Z 00463e20 f i command.obj
 0001:00062ee0       ??$access@PAD@?$hashset@Uident@@@@QAEPAUident@@ABQAD@Z 00463ee0 f i command.obj
 0001:00062ee0       ??$access@PBD@?$hashset@Uident@@@@QAEPAUident@@ABQBD@Z 00463ee0 f i command.obj
 0001:00062f70       ?insert@?$hashset@Uident@@@@QAEPAUchain@1@I@Z 00463f70 f i command.obj
 0001:00063030       ?getval@ident@@QBEXAAUtagval@@@Z 00464030 f i command.obj
 0001:000630b0       ?getfloat@ident@@QBEMXZ    004640b0 f i command.obj
 0001:00063100       ?getint@ident@@QBEHXZ      00464100 f i command.obj
 0001:00063150       ?getstr@tagval@@QBEPBDXZ   00464150 f i command.obj
 0001:000631a0       ?getstr@ident@@QBEPBDXZ    004641a0 f i command.obj
 0001:000631f0       ??0keym@@QAE@XZ            004641f0 f i console.obj
 0001:00063250       ??1keym@@QAE@XZ            00464250 f i console.obj
 0001:000632a0       ?restore@hline@@QAEXXZ     004642a0 f i console.obj
 0001:000633c0       ?shouldsave@hline@@QAE_NXZ 004643c0 f i console.obj
 0001:000634b0       ?save@hline@@QAEXXZ        004644b0 f i console.obj
 0001:00063590       ??_Ghline@@QAEPAXI@Z       00464590 f i console.obj
 0001:000635f0       ??0filesval@@QAE@HPBD0@Z   004645f0 f i console.obj
 0001:000636c0       ?comparefiles@filesval@@SA_NPBD0@Z 004646c0 f i console.obj
 0001:00063700       ?update@filesval@@QAEXXZ   00464700 f i console.obj
 0001:000637e0       ?insert@?$vector@Ucline@@@@QAEAAUcline@@HABU2@@Z 004647e0 f i console.obj
 0001:00063860       ??1?$hashset@U?$hashtableentry@HUkeym@@@@@@QAE@XZ 00464860 f i console.obj
 0001:00063890       ?clear@?$hashset@U?$hashtableentry@HUkeym@@@@@@QAEXXZ 00464890 f i console.obj
 0001:00063940       ?add@?$vector@PAUhline@@@@QAEAAPAUhline@@ABQAU2@@Z 00464940 f i console.obj
 0001:00063990       ?remove@?$vector@PAUhline@@@@QAEXHH@Z 00464990 f i console.obj
 0001:000639d0       ?access@?$hashtable@Ufileskey@@PAUfilesval@@@@QAEPAPAUfilesval@@ABUfileskey@@@Z 004649d0 f i console.obj
 0001:00063a40       ??A?$hashtable@Ufileskey@@PAUfilesval@@@@QAEAAPAUfilesval@@ABUfileskey@@@Z 00464a40 f i console.obj
 0001:00063ac0       ??1?$hashset@U?$hashtableentry@Ufileskey@@PAUfilesval@@@@@@QAE@XZ 00464ac0 f i console.obj
 0001:00063b10       ?access@?$hashtable@PADPAUfilesval@@@@QAEPAPAUfilesval@@ABQAD@Z 00464b10 f i console.obj
 0001:00063ba0       ??A?$hashtable@PADPAUfilesval@@@@QAEAAPAUfilesval@@ABQAD@Z 00464ba0 f i console.obj
 0001:00063c40       ??1?$hashset@U?$hashtableentry@PADPAUfilesval@@@@@@QAE@XZ 00464c40 f i console.obj
 0001:00063c90       ?add@?$vector@Ucline@@@@QAEAAUcline@@ABU2@@Z 00464c90 f i console.obj
 0001:00063cf0       ??0?$hashset@U?$hashtableentry@HUkeym@@@@@@QAE@H@Z 00464cf0 f i console.obj
 0001:00063d80       ?deletechunks@?$hashset@U?$hashtableentry@HUkeym@@@@@@QAEXXZ 00464d80 f i console.obj
 0001:00063df0       ?growbuf@?$vector@PAUhline@@@@QAEXH@Z 00464df0 f i console.obj
 0001:00063e80       ?growbuf@?$vector@Ureleaseaction@@@@QAEXH@Z 00464e80 f i console.obj
 0001:00063f10       ??0?$hashset@U?$hashtableentry@Ufileskey@@PAUfilesval@@@@@@QAE@H@Z 00464f10 f i console.obj
 0001:00063fa0       ??0?$hashset@U?$hashtableentry@PADPAUfilesval@@@@@@QAE@H@Z 00464fa0 f i console.obj
 0001:00064030       ??1chain@?$hashset@U?$hashtableentry@HUkeym@@@@@@QAE@XZ 00465030 f i console.obj
 0001:00064080       ??1?$hashtableentry@HUkeym@@@@QAE@XZ 00465080 f i console.obj
 0001:000640c0       ?growbuf@?$vector@Ucline@@@@QAEXH@Z 004650c0 f i console.obj
 0001:00064150       ?insert@?$hashset@U?$hashtableentry@HUkeym@@@@@@QAEPAUchain@1@I@Z 00465150 f i console.obj
 0001:00064230       ?insert@?$hashset@U?$hashtableentry@Ufileskey@@PAUfilesval@@@@@@QAEPAUchain@1@I@Z 00465230 f i console.obj
 0001:000642f0       ??0chain@?$hashset@U?$hashtableentry@HUkeym@@@@@@QAE@XZ 004652f0 f i console.obj
 0001:00064340       ?add@?$vector@TSDL_Event@@@@QAEAATSDL_Event@@ABT2@@Z 00465340 f i main.obj
 0001:000643b0       ?remove@?$vector@TSDL_Event@@@@QAEXHH@Z 004653b0 f i main.obj
 0001:00064410       ?remove@?$vector@TSDL_Event@@@@QAE?ATSDL_Event@@H@Z 00465410 f i main.obj
 0001:000644a0       ?growbuf@?$vector@TSDL_Event@@@@QAEXH@Z 004654a0 f i main.obj
 0001:00064530       ?gui@menu@@UAEXAAUg3d_gui@@_N@Z 00465530 f i menus.obj
 0001:000645b0       ?clear@menu@@UAEXXZ        004655b0 f i menus.obj
 0001:000645d0       ??1menu@@UAE@XZ            004655d0 f i menus.obj
 0001:00064610       ?schedule@delayedupdate@@QAEXPBD@Z 00465610 f i menus.obj
 0001:00064660       ?getstring@delayedupdate@@QBEPBDXZ 00465660 f i menus.obj
 0001:000646a0       ?run@delayedupdate@@QAEXXZ 004656a0 f i menus.obj
 0001:000647c0       ?gui@applymenu@@UAEXAAUg3d_gui@@_N@Z 004657c0 f i menus.obj
 0001:00064a30       ?clear@applymenu@@UAEXXZ   00465a30 f i menus.obj
 0001:00064a60       ??0applymenu@@QAE@XZ       00465a60 f i menus.obj
 0001:00064b00       ??_Eapplymenu@@UAEPAXI@Z   00465b00 f i * CIL library *:* CIL module *
 0001:00064b00       ??_Gapplymenu@@UAEPAXI@Z   00465b00 f i menus.obj
 0001:00064b50       ?access@?$hashtable@PBDUmenu@@@@QAEPAUmenu@@ABQBD@Z 00465b50 f i menus.obj
 0001:00064be0       ??A?$hashtable@PBDUmenu@@@@QAEAAUmenu@@ABQBD@Z 00465be0 f i menus.obj
 0001:00064c80       ??1?$hashset@U?$hashtableentry@PBDUmenu@@@@@@QAE@XZ 00465c80 f i menus.obj
 0001:00064cb0       ?insert@?$vector@PAUmenu@@@@QAEAAPAUmenu@@HABQAU2@@Z 00465cb0 f i menus.obj
 0001:00064d30       ?add@?$vector@Udelayedupdate@@@@QAEAAUdelayedupdate@@XZ 00465d30 f i menus.obj
 0001:00064dc0       ?shrink@?$vector@Udelayedupdate@@@@QAEXH@Z 00465dc0 f i menus.obj
 0001:00064e20       ?remove@?$vector@Uchange@@@@QAE?AUchange@@H@Z 00465e20 f i menus.obj
 0001:00064e80       ??0?$hashset@U?$hashtableentry@PBDUmenu@@@@@@QAE@H@Z 00465e80 f i menus.obj
 0001:00064f10       ?deletechunks@?$hashset@U?$hashtableentry@PBDUmenu@@@@@@QAEXXZ 00465f10 f i menus.obj
 0001:00064f80       ?growbuf@?$vector@PAUmenu@@@@QAEXH@Z 00465f80 f i menus.obj
 0001:00065010       ?growbuf@?$vector@Udelayedupdate@@@@QAEXH@Z 00466010 f i menus.obj
 0001:000650a0       ?growbuf@?$vector@Uchange@@@@QAEXH@Z 004660a0 f i menus.obj
 0001:00065130       ??1chain@?$hashset@U?$hashtableentry@PBDUmenu@@@@@@QAE@XZ 00466130 f i menus.obj
 0001:00065180       ??1?$hashtableentry@PBDUmenu@@@@QAE@XZ 00466180 f i menus.obj
 0001:000651d0       ?insert@?$hashset@U?$hashtableentry@PBDUmenu@@@@@@QAEPAUchain@1@I@Z 004661d0 f i menus.obj
 0001:000652b0       ??0chain@?$hashset@U?$hashtableentry@PBDUmenu@@@@@@QAE@XZ 004662b0 f i menus.obj
 0001:00065330       ?addindex@aviwriter@@QAEAAUaviindexentry@@HHH@Z 00466330 f i movie.obj
 0001:000653d0       ?startchunk@aviwriter@@QAEXPBDI@Z 004663d0 f i movie.obj
 0001:00065430       ?listchunk@aviwriter@@QAEXPBD0@Z 00466430 f i movie.obj
 0001:000654a0       ?endlistchunk@aviwriter@@QAEXXZ 004664a0 f i movie.obj
 0001:00065510       ?writechunk@aviwriter@@QAEXPBDPBXI@Z 00466510 f i movie.obj
 0001:00065570       ?close@aviwriter@@QAEXXZ   00466570 f i movie.obj
 0001:000658c0       ??0aviwriter@@QAE@PBDIII_N@Z 004668c0 f i movie.obj
 0001:00065aa0       ??1aviwriter@@QAE@XZ       00466aa0 f i movie.obj
 0001:00065b50       ?open@aviwriter@@QAE_NXZ   00466b50 f i movie.obj
 0001:00066bc0       ?boxsample@aviwriter@@SAXPBEIIIIIIIIAAI11@Z 00467bc0 f i movie.obj
 0001:00066ff0       ?scaleyuv@aviwriter@@QAEXPBEII@Z 00467ff0 f i movie.obj
 0001:00067590       ?encodeyuv@aviwriter@@QAEXPBE@Z 00468590 f i movie.obj
 0001:00067880       ?compressyuv@aviwriter@@QAEXPBE@Z 00468880 f i movie.obj
 0001:00067a20       ?writesound@aviwriter@@QAE_NPAEII@Z 00468a20 f i movie.obj
 0001:00067b80       ?flushsegment@aviwriter@@QAEXXZ 00468b80 f i movie.obj
 0001:00068080       ?nextsegment@aviwriter@@QAE_NXZ 00469080 f i movie.obj
 0001:00068140       ?writevideoframe@aviwriter@@QAE_NPBEIIHI@Z 00469140 f i movie.obj
 0001:00068250       ??0soundbuffer@recorder@@QAE@XZ 00469250 f i movie.obj
 0001:00068260       ??1soundbuffer@recorder@@QAE@XZ 00469260 f i movie.obj
 0001:00068290       ?load@soundbuffer@recorder@@QAEXPAEII@Z 00469290 f i movie.obj
 0001:000682f0       ?insert@?$vector@Uaviindexentry@@@@QAEAAUaviindexentry@@HABU2@@Z 004692f0 f i movie.obj
 0001:00068390       ?add@?$vector@Uavisegmentinfo@@@@QAEAAUavisegmentinfo@@ABU2@@Z 00469390 f i movie.obj
 0001:00068400       ??0?$queue@Usoundbuffer@recorder@@$0IA@@@QAE@XZ 00469400 f i movie.obj
 0001:00068480       ?hasslot@soundconfig@@QBE_NPBUsoundslot@@ABU?$vector@Usoundslot@@@@@Z 00469480 f i sound.obj
 0001:000684c0       ?add@?$vector@Usoundchannel@@@@QAEAAUsoundchannel@@ABU2@@Z 004694c0 f i sound.obj
 0001:00068550       ?inrange@?$vector@Usoundchannel@@@@QBE_NH@Z 00469550 f i sound.obj
 0001:00068570       ?access@?$hashtable@PBDUsoundsample@@@@QAEPAUsoundsample@@ABQBD@Z 00469570 f i sound.obj
 0001:00068600       ??A?$hashtable@PBDUsoundsample@@@@QAEAAUsoundsample@@ABQBD@Z 00469600 f i sound.obj
 0001:000686a0       ??1?$hashset@U?$hashtableentry@PBDUsoundsample@@@@@@QAE@XZ 004696a0 f i sound.obj
 0001:000686d0       ?clear@?$hashset@U?$hashtableentry@PBDUsoundsample@@@@@@QAEXXZ 004696d0 f i sound.obj
 0001:00068780       ?growbuf@?$vector@Usoundchannel@@@@QAEXH@Z 00469780 f i sound.obj
 0001:00068810       ??0?$hashset@U?$hashtableentry@PBDUsoundsample@@@@@@QAE@H@Z 00469810 f i sound.obj
 0001:000688a0       ?deletechunks@?$hashset@U?$hashtableentry@PBDUsoundsample@@@@@@QAEXXZ 004698a0 f i sound.obj
 0001:00068910       ??1chain@?$hashset@U?$hashtableentry@PBDUsoundsample@@@@@@QAE@XZ 00469910 f i sound.obj
 0001:00068910       ??1chain@?$hashset@U?$hashtableentry@PBDUzipfile@@@@@@QAE@XZ 00469910 f i zip.obj
 0001:00068970       ??1?$hashtableentry@PBDUsoundsample@@@@QAE@XZ 00469970 f i sound.obj
 0001:00068970       ??1?$hashtableentry@PBDUzipfile@@@@QAE@XZ 00469970 f i zip.obj
 0001:000689c0       ?insert@?$hashset@U?$hashtableentry@PBDUsoundsample@@@@@@QAEPAUchain@1@I@Z 004699c0 f i sound.obj
 0001:00068aa0       ??0chain@?$hashset@U?$hashtableentry@PBDUsoundsample@@@@@@QAE@XZ 00469aa0 f i sound.obj
 0001:00068af0       ??0ecjacobian@@QAE@ABUgfield@@0@Z 00469af0 f i crypto.obj
 0001:00068b90       ??0ecjacobian@@QAE@ABUgfield@@00@Z 00469b90 f i crypto.obj
 0001:00068c40       ?parsedigits@?$bigint@$0N@@@SAHPAGHPBD@Z 00469c40 f i crypto.obj
 0001:00068d10       ?close@filestream@@UAEXXZ  00469d10 f i stream.obj
 0001:00068d30       ?end@filestream@@UAE_NXZ   00469d30 f i stream.obj
 0001:00068d50       ?tell@filestream@@UAE_JXZ  00469d50 f i stream.obj
 0001:00068d60       ?seek@filestream@@UAE_N_JH@Z 00469d60 f i stream.obj
 0001:00068d90       ?read@filestream@@UAEHPAXH@Z 00469d90 f i stream.obj
 0001:00068db0       ?write@filestream@@UAEHPBXH@Z 00469db0 f i stream.obj
 0001:00068dd0       ?getchar@filestream@@UAEHXZ 00469dd0 f i stream.obj
 0001:00068de0       ?putchar@filestream@@UAE_NH@Z 00469de0 f i stream.obj
 0001:00068e00       ?getline@filestream@@UAE_NPADH@Z 00469e00 f i stream.obj
 0001:00068e20       ?putstring@filestream@@UAE_NPBD@Z 00469e20 f i stream.obj
 0001:00068e40       ?printf@filestream@@UAAHPBDZZ 00469e40 f i stream.obj
 0001:00068e60       ??_Gfilestream@@UAEPAXI@Z  00469e60 f i stream.obj
 0001:00068e60       ??_Efilestream@@UAEPAXI@Z  00469e60 f i * CIL library *:* CIL module *
 0001:00068ee0       ??0gzstream@@QAE@XZ        00469ee0 f i stream.obj
 0001:00068f80       ?readbyte@gzstream@@QAEHH@Z 00469f80 f i stream.obj
 0001:00068fd0       ?skipbytes@gzstream@@QAEXH@Z 00469fd0 f i stream.obj
 0001:00069020       ?checkheader@gzstream@@QAE_NXZ 0046a020 f i stream.obj
 0001:00069280       ?open@gzstream@@QAE_NPAUstream@@PBD_NH@Z 0046a280 f i stream.obj
 0001:000693c0       ?getcrc@gzstream@@UAEIXZ   0046a3c0 f i stream.obj
 0001:000693d0       ?finishreading@gzstream@@QAEXXZ 0046a3d0 f i stream.obj
 0001:000694c0       ?stopreading@gzstream@@QAEXXZ 0046a4c0 f i stream.obj
 0001:000694e0       ?finishwriting@gzstream@@QAEXXZ 0046a4e0 f i stream.obj
 0001:000695c0       ?stopwriting@gzstream@@QAEXXZ 0046a5c0 f i stream.obj
 0001:000695e0       ?close@gzstream@@UAEXXZ    0046a5e0 f i stream.obj
 0001:00069660       ?end@gzstream@@UAE_NXZ     0046a660 f i stream.obj
 0001:00069680       ?tell@gzstream@@UAE_JXZ    0046a680 f i stream.obj
 0001:000696a0       ?rawtell@gzstream@@UAE_JXZ 0046a6a0 f i stream.obj
 0001:000696c0       ?size@gzstream@@UAE_JXZ    0046a6c0 f i stream.obj
 0001:00069740       ?rawsize@gzstream@@UAE_JXZ 0046a740 f i stream.obj
 0001:00069760       ?seek@gzstream@@UAE_N_JH@Z 0046a760 f i stream.obj
 0001:000698f0       ?read@gzstream@@UAEHPAXH@Z 0046a8f0 f i stream.obj
 0001:000699d0       ?write@gzstream@@UAEHPBXH@Z 0046a9d0 f i stream.obj
 0001:00069a90       ??_Egzstream@@UAEPAXI@Z    0046aa90 f i * CIL library *:* CIL module *
 0001:00069a90       ??_Ggzstream@@UAEPAXI@Z    0046aa90 f i stream.obj
 0001:00069b00       ??0utf8stream@@QAE@XZ      0046ab00 f i stream.obj
 0001:00069b80       ?readbuf@utf8stream@@QAE_NH@Z 0046ab80 f i stream.obj
 0001:00069c60       ?checkheader@utf8stream@@QAE_NXZ 0046ac60 f i stream.obj
 0001:00069ca0       ?open@utf8stream@@QAE_NPAUstream@@PBD_N@Z 0046aca0 f i stream.obj
 0001:00069d30       ?close@utf8stream@@UAEXXZ  0046ad30 f i stream.obj
 0001:00069d70       ?end@utf8stream@@UAE_NXZ   0046ad70 f i stream.obj
 0001:00069d90       ?tell@utf8stream@@UAE_JXZ  0046ad90 f i stream.obj
 0001:00069db0       ?seek@utf8stream@@UAE_N_JH@Z 0046adb0 f i stream.obj
 0001:00069f20       ?read@utf8stream@@UAEHPAXH@Z 0046af20 f i stream.obj
 0001:00069fb0       ?getline@utf8stream@@UAE_NPADH@Z 0046afb0 f i stream.obj
 0001:0006a080       ?write@utf8stream@@UAEHPBXH@Z 0046b080 f i stream.obj
 0001:0006a2a0       ??_Eutf8stream@@UAEPAXI@Z  0046b2a0 f i * CIL library *:* CIL module *
 0001:0006a2a0       ??_Gutf8stream@@UAEPAXI@Z  0046b2a0 f i stream.obj
 0001:0006a330       ?growbuf@?$vector@Upackagedir@@@@QAEXH@Z 0046b330 f i stream.obj
 0001:0006a3b0       ??_Estream@@UAEPAXI@Z      0046b3b0 f i * CIL library *:* CIL module *
 0001:0006a3b0       ??_Gstream@@UAEPAXI@Z      0046b3b0 f i stream.obj
 0001:0006a3d0       ?rawtell@stream@@UAE_JXZ   0046b3d0 f i stream.obj
 0001:0006a3e0       ?rawsize@stream@@UAE_JXZ   0046b3e0 f i stream.obj
 0001:0006a3f0       ?getchar@stream@@UAEHXZ    0046b3f0 f i stream.obj
 0001:0006a410       ?putstring@stream@@UAE_NPBD@Z 0046b410 f i stream.obj
 0001:0006a440       ?putchar@stream@@UAE_NH@Z  0046b440 f i stream.obj
 0001:0006a460       ?putline@stream@@UAE_NPBD@Z 0046b460 f i stream.obj
 0001:0006a490       ??1stream@@UAE@XZ          0046b490 f i stream.obj
 0001:0006a4a0       ?tell@stream@@UAE_JXZ      0046b4a0 f i stream.obj
 0001:0006a4b0       ?seek@stream@@UAE_N_JH@Z   0046b4b0 f i stream.obj
 0001:0006a4c0       ??0ziparchive@@QAE@XZ      0046b4c0 f i zip.obj
 0001:0006a530       ??1ziparchive@@QAE@XZ      0046b530 f i zip.obj
 0001:0006a5d0       ??1?$hashtable@PBDUzipfile@@@@QAE@XZ 0046b5d0 f i zip.obj
 0001:0006a630       ?readbuf@zipstream@@QAEXI@Z 0046b630 f i zip.obj
 0001:0006a6d0       ?open@zipstream@@QAE_NPAUziparchive@@PAUzipfile@@@Z 0046b6d0 f i zip.obj
 0001:0006a790       ?stopreading@zipstream@@QAEXXZ 0046b790 f i zip.obj
 0001:0006a800       ?close@zipstream@@UAEXXZ   0046b800 f i zip.obj
 0001:0006a840       ?size@zipstream@@UAE_JXZ   0046b840 f i zip.obj
 0001:0006a850       ?end@zipstream@@UAE_NXZ    0046b850 f i zip.obj
 0001:0006a870       ?tell@zipstream@@UAE_JXZ   0046b870 f i zip.obj
 0001:0006a8a0       ?seek@zipstream@@UAE_N_JH@Z 0046b8a0 f i zip.obj
 0001:0006aad0       ?read@zipstream@@UAEHPAXH@Z 0046bad0 f i zip.obj
 0001:0006abf0       ??_Ezipstream@@UAEPAXI@Z   0046bbf0 f i * CIL library *:* CIL module *
 0001:0006abf0       ??_Gzipstream@@UAEPAXI@Z   0046bbf0 f i zip.obj
 0001:0006ac90       ?access@?$hashtable@PBDUzipfile@@@@QAEPAUzipfile@@ABQBD@Z 0046bc90 f i zip.obj
 0001:0006ad20       ??A?$hashtable@PBDUzipfile@@@@QAEAAUzipfile@@ABQBD@Z 0046bd20 f i zip.obj
 0001:0006adc0       ??1?$hashset@U?$hashtableentry@PBDUzipfile@@@@@@QAE@XZ 0046bdc0 f i zip.obj
 0001:0006adf0       ??1?$vector@Uzipfile@@@@QAE@XZ 0046bdf0 f i zip.obj
 0001:0006ae10       ?add@?$vector@Uzipfile@@@@QAEAAUzipfile@@XZ 0046be10 f i zip.obj
 0001:0006aea0       ?add@?$vector@PAUziparchive@@@@QAEAAPAUziparchive@@ABQAU2@@Z 0046bea0 f i zip.obj
 0001:0006aef0       ?removeobj@?$vector@PAUziparchive@@@@QAEXABQAUziparchive@@@Z 0046bef0 f i zip.obj
 0001:0006af40       ??0?$hashset@U?$hashtableentry@PBDUzipfile@@@@@@QAE@H@Z 0046bf40 f i zip.obj
 0001:0006afd0       ?deletechunks@?$hashset@U?$hashtableentry@PBDUzipfile@@@@@@QAEXXZ 0046bfd0 f i zip.obj
 0001:0006b040       ?shrink@?$vector@Uzipfile@@@@QAEXH@Z 0046c040 f i zip.obj
 0001:0006b080       ?growbuf@?$vector@PAUziparchive@@@@QAEXH@Z 0046c080 f i zip.obj
 0001:0006b110       ?insert@?$hashset@U?$hashtableentry@PBDUzipfile@@@@@@QAEPAUchain@1@I@Z 0046c110 f i zip.obj
 0001:0006b1d0       ??0chain@?$hashset@U?$hashtableentry@PBDUzipfile@@@@@@QAE@XZ 0046c1d0 f i zip.obj
 0001:0006b230       ?st_update@stats@game@@QAEXXZ 0046c230 f i ent.obj
 0001:0006b350       ?selectedweapon@rpgobj@game@@QAEAAU12@XZ 0046c350 f i ent.obj
 0001:0006b390       ?usesound@rpgobj@game@@QAEXPAUrpgent@2@@Z 0046c390 f i ent.obj
 0001:0006b3c0       ?usemana@rpgobj@game@@QAE_NAAU12@@Z 0046c3c0 f i ent.obj
 0001:0006b420       ?exec@rpgaction@game@@QAEXPAUrpgobj@2@00@Z 0046c420 f i ent.obj
 0001:0006b490       ?useaction@rpgobj@game@@QAEXAAU12@AAUrpgent@2@_N@Z 0046c490 f i ent.obj
 0001:0006b4f0       ?deletecontents@?$vector@PAUrpgobj@game@@@@QAEXXZ 0046c4f0 f i objset.obj
 0001:0006b530       ?removeobj@?$vector@PAUrpgobj@game@@@@QAEXABQAUrpgobj@game@@@Z 0046c530 f i objset.obj
 0001:0006b580       ?insert@?$vector@PAUrpgobj@game@@@@QAEAAPAUrpgobj@game@@HABQAU23@@Z 0046c580 f i objset.obj
 0001:0006b5f0       ?access@?$hashtable@PADPAD@@QAEPAPADABQAD@Z 0046c5f0 f i objset.obj
 0001:0006b680       ??A?$hashtable@PADPAD@@QAEAAPADABQAD@Z 0046c680 f i objset.obj
 0001:0006b720       ??1?$hashset@U?$hashtableentry@PADPAD@@@@QAE@XZ 0046c720 f i objset.obj
 0001:0006b770       ??0?$hashset@U?$hashtableentry@PADPAD@@@@QAE@H@Z 0046c770 f i objset.obj
 0001:0006b800       ?insert@?$hashset@U?$hashtableentry@PADPAD@@@@QAEPAUchain@1@I@Z 0046c800 f i objset.obj
 0001:0006b8c0       ?droploot@rpgobj@game@@QAEXXZ 0046c8c0 f i objset.obj
 0001:0006b940       ?takedamage@rpgobj@game@@QAEXHAAU12@@Z 0046c940 f i objset.obj
 0001:0006bab0       ?addaction@rpgobj@game@@QAEXPAD0_N@Z 0046cab0 f i objset.obj
 0001:0006bbf0       ?take@rpgobj@game@@QAEPAU12@PAD@Z 0046cbf0 f i objset.obj
 0001:0006bc60       ??0dynent@@QAE@XZ          0046cc60 f i objset.obj
 0001:0006bec0       ??0rpgent@game@@QAE@PAUrpgobj@1@ABUvec@@MHH@Z 0046cec0 f i objset.obj
 0001:0006bfd0       ?placedinworld@rpgobj@game@@QAEXPAUrpgent@2@@Z 0046cfd0 f i objset.obj
 0001:0006c070       ?update@rpgobj@game@@QAEXXZ 0046d070 f i objset.obj
 0001:0006c190       ?scriptinit@rpgobj@game@@QAEXXZ 0046d190 f i objset.obj
 0001:0006c200       ??0stats@game@@QAE@XZ      0046d200 f i objset.obj
 0001:0006c2b0       ??0rpgobj@game@@QAE@PBD@Z  0046d2b0 f i objset.obj
 0001:0006c3c0       ??_Grpgobj@game@@UAEPAXI@Z 0046d3c0 f i objset.obj
 0001:0006c3c0       ??_Erpgobj@game@@UAEPAXI@Z 0046d3c0 f i * CIL library *:* CIL module *
 0001:0006c3f0       ?guiaction@rpgobj@game@@QAEXAAUg3d_gui@@PAUrpgaction@2@@Z 0046d3f0 f i objset.obj
 0001:0006c460       ?remove@rpgobj@game@@QAEXPAU12@@Z 0046d460 f i objset.obj
 0001:0006c4c0       ?st_reset@stats@game@@QAEXXZ 0046d4c0 f i objset.obj
 0001:0006c540       ?recalcstats@rpgobj@game@@QAEXXZ 0046d540 f i objset.obj
 0001:0006c5e0       ?selectuse@rpgobj@game@@QAEXXZ 0046d5e0 f i objset.obj
 0001:0006c660       ?invgui@rpgobj@game@@QAEXAAUg3d_gui@@PAU12@@Z 0046d660 f i objset.obj
 0001:0006c7d0       ?gui@rpgobj@game@@UAEXAAUg3d_gui@@_N@Z 0046d7d0 f i objset.obj
 0001:0006cb80       ??1dynent@@QAE@XZ          0046db80 f i objset.obj
 0001:0006cba0       ??1rpgaction@game@@QAE@XZ  0046dba0 f i objset.obj
 0001:0006cbd0       ??_Grpgaction@game@@QAEPAXI@Z 0046dbd0 f i objset.obj
 0001:0006cbf0       ??1rpgobj@game@@UAE@XZ     0046dbf0 f i objset.obj
 0001:0006cd10       ??0rpgmenu@game@@QAE@XZ    0046dd10 f i rpg.obj
 0001:0006cdb0       ?show@rpgmenu@game@@QAEXH@Z 0046ddb0 f i rpg.obj
 0001:0006ceb0       ?gui@rpgmenu@game@@UAEXAAUg3d_gui@@_N@Z 0046deb0 f i rpg.obj
 0001:0006cf60       ?st_show@stats@game@@QAEXAAUg3d_gui@@@Z 0046df60 f i rpg.obj
 0001:0006da70       _enet_host_bandwidth_limit 0046ea70 f   enet:host.obj
 0001:0006da90       _enet_host_bandwidth_throttle 0046ea90 f   enet:host.obj
 0001:0006de20       _enet_host_connect         0046ee20 f   enet:host.obj
 0001:0006e030       _enet_host_create          0046f030 f   enet:host.obj
 0001:0006e2d0       _enet_host_destroy         0046f2d0 f   enet:host.obj
 0001:0006e350       _enet_peer_disconnect      0046f350 f   enet:peer.obj
 0001:0006e3e0       _enet_peer_dispatch_incoming_reliable_commands 0046f3e0 f   enet:peer.obj
 0001:0006e600       _enet_peer_dispatch_incoming_unreliable_commands 0046f600 f   enet:peer.obj
 0001:0006e790       _enet_peer_ping            0046f790 f   enet:peer.obj
 0001:0006e810       _enet_peer_queue_acknowledgement 0046f810 f   enet:peer.obj
 0001:0006e8e0       _enet_peer_queue_incoming_command 0046f8e0 f   enet:peer.obj
 0001:0006ebc0       _enet_peer_queue_outgoing_command 0046fbc0 f   enet:peer.obj
 0001:0006ec40       _enet_peer_receive         0046fc40 f   enet:peer.obj
 0001:0006ed00       _enet_peer_reset           0046fd00 f   enet:peer.obj
 0001:0006eed0       _enet_peer_reset_queues    0046fed0 f   enet:peer.obj
 0001:0006efd0       _enet_peer_setup_outgoing_command 0046ffd0 f   enet:peer.obj
 0001:0006f0d0       _enet_peer_throttle        004700d0 f   enet:peer.obj
 0001:0006f140       _enet_peer_throttle_configure 00470140 f   enet:peer.obj
 0001:0006f1f0       _enet_address_get_host_ip  004701f0 f   enet:win32.obj
 0001:0006f220       _enet_address_set_host     00470220 f   enet:win32.obj
 0001:0006f260       _enet_deinitialize         00470260 f   enet:win32.obj
 0001:0006f270       _enet_initialize           00470270 f   enet:win32.obj
 0001:0006f2e0       _enet_socket_bind          004702e0 f   enet:win32.obj
 0001:0006f350       _enet_socket_connect       00470350 f   enet:win32.obj
 0001:0006f3e0       _enet_socket_create        004703e0 f   enet:win32.obj
 0001:0006f400       _enet_socket_destroy       00470400 f   enet:win32.obj
 0001:0006f420       _enet_socket_receive       00470420 f   enet:win32.obj
 0001:0006f4e0       _enet_socket_send          004704e0 f   enet:win32.obj
 0001:0006f590       _enet_socket_set_option    00470590 f   enet:win32.obj
 0001:0006f650       _enet_socket_wait          00470650 f   enet:win32.obj
 0001:0006f750       _enet_socketset_select     00470750 f   enet:win32.obj
 0001:0006f7a0       _enet_time_get             004707a0 f   enet:win32.obj
 0001:0006f7b0       _enet_time_set             004707b0 f   enet:win32.obj
 0001:0006f7d0       _enet_host_check_events    004707d0 f   enet:protocol.obj
 0001:0006f800       _enet_host_flush           00470800 f   enet:protocol.obj
 0001:0006f820       _enet_host_service         00470820 f   enet:protocol.obj
 0001:0006fb00       _enet_protocol_command_size 00470b00 f   enet:protocol.obj
 0001:00071f60       _enet_packet_create        00472f60 f   enet:packet.obj
 0001:00071ff0       _enet_packet_destroy       00472ff0 f   enet:packet.obj
 0001:00072030       _enet_list_clear           00473030 f   enet:list.obj
 0001:00072040       _enet_list_insert          00473040 f   enet:list.obj
 0001:00072060       _enet_list_move            00473060 f   enet:list.obj
 0001:000720a0       _enet_list_remove          004730a0 f   enet:list.obj
 0001:000720c0       _enet_free                 004730c0 f   enet:callbacks.obj
 0001:000720d0       _enet_malloc               004730d0 f   enet:callbacks.obj
 0001:000720f2       ___WSAFDIsSet@8            004730f2 f   ws2_32:WS2_32.dll
 0001:000720f8       _free                      004730f8 f   LIBCMT:free.obj
 0001:00072130       __set_abort_behavior       00473130 f   LIBCMT:abort.obj
 0001:0007214f       _abort                     0047314f f   LIBCMT:abort.obj
 0001:00072192       _malloc                    00473192 f   LIBCMT:malloc.obj
 0001:00072230       _strncpy                   00473230 f   LIBCMT:strncpy.obj
 0001:00072354       ___onexitinit              00473354 f   LIBCMT:onexit.obj
 0001:00072383       __onexit                   00473383 f   LIBCMT:onexit.obj
 0001:00072479       _atexit                    00473479 f   LIBCMT:onexit.obj
 0001:0007248e       __vsnprintf                0047348e f   LIBCMT:vsnprint.obj
 0001:000724a9       __vsnprintf_l              004734a9 f   LIBCMT:vsnprint.obj
 0001:00072560       _strncmp                   00473560 f   LIBCMT:strncmp.obj
 0001:000725d8       ??_L@YGXPAXIHP6EX0@Z1@Z    004735d8 f   LIBCMT:ehvecctr.obj
 0001:00072640       ??_M@YGXPAXIHP6EX0@Z@Z     00473640 f   LIBCMT:ehvecdtr.obj
 0001:000726af       ?__ArrayUnwind@@YGXPAXIHP6EX0@Z@Z 004736af f   LIBCMT:ehvecdtr.obj
 0001:00072710       _memmove                   00473710 f   LIBCMT:memmove.obj
 0001:00072d60       _ceil                      00473d60 f   LIBCMT:ceil_pentium4.obj
 0001:00072da0       __ceil_pentium4            00473da0 f   LIBCMT:ceil_pentium4.obj
 0001:00072e80       _strrchr                   00473e80 f   LIBCMT:strrchr.obj
 0001:00072fc0       _strpbrk                   00473fc0 f   LIBCMT:strpbrk.obj
 0001:00073000       __purecall                 00474000 f   LIBCMT:purevirt.obj
 0001:0007302a       ??1type_info@@UAE@XZ       0047402a f   LIBCMT:typinfo.obj
 0001:00073038       ??8type_info@@QBE_NABV0@@Z 00474038 f   LIBCMT:typinfo.obj
 0001:00073056       ??_Etype_info@@UAEPAXI@Z   00474056 f i LIBCMT:typinfo.obj
 0001:00073056       ??_Gtype_info@@UAEPAXI@Z   00474056 f i LIBCMT:typinfo.obj
 0001:00073075       __get_printf_count_output  00474075 f   LIBCMT:printf.obj
 0001:0007308a       _printf                    0047408a f   LIBCMT:printf.obj
 0001:00073140       _strstr                    00474140 f   LIBCMT:strstr.obj
 0001:000733a3       _remove                    004743a3 f   LIBCMT:unlink.obj
 0001:000733e3       _rename                    004743e3 f   LIBCMT:rename.obj
 0001:000734a4       __fclose_nolock            004744a4 f   LIBCMT:fclose.obj
 0001:00073510       _fclose                    00474510 f   LIBCMT:fclose.obj
 0001:00073587       __fsopen                   00474587 f   LIBCMT:fopen.obj
 0001:0007364b       _fopen                     0047464b f   LIBCMT:fopen.obj
 0001:00073660       _setvbuf                   00474660 f   LIBCMT:setvbuf.obj
 0001:00073766       __fwrite_nolock            00474766 f   LIBCMT:fwrite.obj
 0001:000738bd       _fwrite                    004748bd f   LIBCMT:fwrite.obj
 0001:0007393b       ??0_LocaleUpdate@@QAE@PAUlocaleinfo_struct@@@Z 0047493b f i LIBCMT:_ctype.obj
 0001:000739c3       __isalpha_l                004749c3 f i LIBCMT:_ctype.obj
 0001:00073a19       __isdigit_l                00474a19 f i LIBCMT:_ctype.obj
 0001:00073a69       __isspace_l                00474a69 f i LIBCMT:_ctype.obj
 0001:00073ab9       __isxdigit_l               00474ab9 f i LIBCMT:_ctype.obj
 0001:00073b0f       _isalpha                   00474b0f f i LIBCMT:_ctype.obj
 0001:00073b3c       _isdigit                   00474b3c f i LIBCMT:_ctype.obj
 0001:00073b67       _isspace                   00474b67 f i LIBCMT:_ctype.obj
 0001:00073b92       _isxdigit                  00474b92 f i LIBCMT:_ctype.obj
 0001:00073bc0       _memchr                    00474bc0 f   LIBCMT:memchr.obj
 0001:00073c6d       ___copy_path_to_wide_string 00474c6d f   LIBCMT:crt0dat.obj
 0001:00073d1d       ___crtCorExitProcess       00474d1d f   LIBCMT:crt0dat.obj
 0001:00073d4f       ___crtExitProcess          00474d4f f   LIBCMT:crt0dat.obj
 0001:00073d65       __amsg_exit                00474d65 f   LIBCMT:crt0dat.obj
 0001:00073d81       __c_exit                   00474d81 f   LIBCMT:crt0dat.obj
 0001:00073d90       __cexit                    00474d90 f   LIBCMT:crt0dat.obj
 0001:00073d9f       __cinit                    00474d9f f   LIBCMT:crt0dat.obj
 0001:00073e30       __exit                     00474e30 f   LIBCMT:crt0dat.obj
 0001:00073e44       __init_pointers            00474e44 f   LIBCMT:crt0dat.obj
 0001:00073e98       __initterm_e               00474e98 f   LIBCMT:crt0dat.obj
 0001:00073eba       __lockexit                 00474eba f   LIBCMT:crt0dat.obj
 0001:00073ec3       __unlockexit               00474ec3 f   LIBCMT:crt0dat.obj
 0001:00073ffb       _exit                      00474ffb f   LIBCMT:crt0dat.obj
 0001:0007400f       _atoi                      0047500f f   LIBCMT:atox.obj
 0001:00074018       _atol                      00475018 f   LIBCMT:atox.obj
 0001:0007402c       _sscanf                    0047502c f   LIBCMT:sscanf.obj
 0001:000740bb       __time64                   004750bb f   LIBCMT:time64.obj
 0001:0007410a       __localtime64              0047510a f   LIBCMT:loctim64.obj
 0001:0007412f       __localtime64_s            0047512f f   LIBCMT:loctim64.obj
 0001:000743a7       __Strftime_l               004753a7 f   LIBCMT:strftime.obj
 0001:000744c8       _strftime                  004754c8 f   LIBCMT:strftime.obj
 0001:000744e5       __tolower_l                004754e5 f   LIBCMT:tolower.obj
 0001:00074626       _tolower                   00475626 f   LIBCMT:tolower.obj
 0001:00074660       _strchr                    00475660 f   LIBCMT:strchr.obj
 0001:000746ce       ___from_strstr_to_strchr   004756ce     LIBCMT:strchr.obj
 0001:0007478b       __strtod_l                 0047578b f   LIBCMT:strtod.obj
 0001:000748a0       _strtod                    004758a0 f   LIBCMT:strtod.obj
 0001:000748b5       ___ascii_stricmp           004758b5 f   LIBCMT:stricmp.obj
 0001:000748ee       __stricmp                  004758ee f   LIBCMT:stricmp.obj
 0001:00074935       __stricmp_l                00475935 f   LIBCMT:stricmp.obj
 0001:00074bec       _strtol                    00475bec f   LIBCMT:strtol.obj
 0001:00074c20       _strspn                    00475c20 f   LIBCMT:strspn.obj
 0001:00074c66       _fputs                     00475c66 f   LIBCMT:fputs.obj
 0001:00074d6c       _fprintf                   00475d6c f   LIBCMT:fprintf.obj
 0001:00074e7e       _fputc                     00475e7e f   LIBCMT:fputc.obj
 0001:00074f80       _strcspn                   00475f80 f   LIBCMT:strcspn.obj
 0001:00074fc6       __atof_l                   00475fc6 f   LIBCMT:atof.obj
 0001:00075062       _atof                      00476062 f   LIBCMT:atof.obj
 0001:00075073       _wcsncpy                   00476073 f   LIBCMT:wcsncpy.obj
 0001:000750bd       __toupper_l                004760bd f   LIBCMT:toupper.obj
 0001:000751ff       _toupper                   004761ff f   LIBCMT:toupper.obj
 0001:0007522b       __vscprintf                0047622b f   LIBCMT:vsprintf.obj
 0001:00075245       __vscprintf_helper         00476245 f   LIBCMT:vsprintf.obj
 0001:0007529f       _feof                      0047629f f   LIBCMT:feoferr.obj
 0001:000752c5       __ftelli64                 004762c5 f   LIBCMT:ftelli64.obj
 0001:00075339       __ftelli64_nolock          00476339 f   LIBCMT:ftelli64.obj
 0001:000756e4       __fseeki64                 004766e4 f   LIBCMT:fseeki64.obj
 0001:00075766       __fseeki64_nolock          00476766 f   LIBCMT:fseeki64.obj
 0001:00075817       __fread_nolock_s           00476817 f   LIBCMT:fread.obj
 0001:000759da       _fread                     004769da f   LIBCMT:fread.obj
 0001:000759f5       _fread_s                   004769f5 f   LIBCMT:fread.obj
 0001:00075a86       _fgetc                     00476a86 f   LIBCMT:fgetc.obj
 0001:00075b7f       _fgets                     00476b7f f   LIBCMT:fgets.obj
 0001:00075cbe       _vfprintf                  00476cbe f   LIBCMT:vfprintf.obj
 0001:00075cdb       _vfprintf_helper           00476cdb f   LIBCMT:vfprintf.obj
 0001:00075dec       __fseek_nolock             00476dec f   LIBCMT:fseek.obj
 0001:00075e7b       _fseek                     00476e7b f   LIBCMT:fseek.obj
 0001:00075efa       __ftell_nolock             00476efa f   LIBCMT:ftell.obj
 0001:00076253       _ftell                     00477253 f   LIBCMT:ftell.obj
 0001:000762bb       _WinMainCRTStartup         004772bb f   LIBCMT:wincrt0.obj
 0001:0007643c       @__security_check_cookie@4 0047743c f   LIBCMT:secchk.obj
 0001:00076450       _memset                    00477450 f   LIBCMT:memset.obj
 0001:000764e0       __get_sys_err_msg          004774e0 f i LIBCMT:perror.obj
 0001:00076506       _perror                    00477506 f   LIBCMT:perror.obj
 0001:000765a0       _memcpy                    004775a0 f   LIBCMT:memcpy.obj
 0001:00076be4       ___doserrno                00477be4 f   LIBCMT:dosmap.obj
 0001:00076bf7       __dosmaperr                00477bf7 f   LIBCMT:dosmap.obj
 0001:00076c18       __errno                    00477c18 f   LIBCMT:dosmap.obj
 0001:00076c2b       __get_errno_from_oserr     00477c2b f   LIBCMT:dosmap.obj
 0001:00076c6c       __heap_init                00477c6c f   LIBCMT:heapinit.obj
 0001:00076c81       ___get_sigabrt             00477c81 f   LIBCMT:winsig.obj
 0001:00076c8e       __initp_misc_winsig        00477c8e f   LIBCMT:winsig.obj
 0001:00076caa       _raise                     00477caa f   LIBCMT:winsig.obj
 0001:00076e9b       __call_reportfault         00477e9b f   LIBCMT:invarg.obj
 0001:00076fbe       __initp_misc_invarg        00477fbe f   LIBCMT:invarg.obj
 0001:00076fcb       __invalid_parameter        00477fcb f   LIBCMT:invarg.obj
 0001:00076ff6       __invalid_parameter_noinfo 00477ff6 f   LIBCMT:invarg.obj
 0001:00077006       __invoke_watson            00478006 f   LIBCMT:invarg.obj
 0001:00077031       __callnewh                 00478031 f   LIBCMT:handler.obj
 0001:00077057       __initp_heap_handler       00478057 f   LIBCMT:handler.obj
 0001:00077064       __FF_MSGBANNER             00478064 f   LIBCMT:crt0msg.obj
 0001:0007709d       __GET_RTERRMSG             0047809d f   LIBCMT:crt0msg.obj
 0001:000770c1       __NMSG_WRITE               004780c1 f   LIBCMT:crt0msg.obj
 0001:0007727c       __msize                    0047827c f   LIBCMT:msize.obj
 0001:000772ad       __calloc_crt               004782ad f   LIBCMT:crtheap.obj
 0001:000772f7       __malloc_crt               004782f7 f   LIBCMT:crtheap.obj
 0001:00077340       __realloc_crt              00478340 f   LIBCMT:crtheap.obj
 0001:0007738c       __recalloc_crt             0047838c f   LIBCMT:crtheap.obj
 0001:000773e0       __SEH_prolog4              004783e0 f   LIBCMT:sehprolg4.obj
 0001:00077425       __SEH_epilog4              00478425 f   LIBCMT:sehprolg4.obj
 0001:00077440       __except_handler4          00478440 f   LIBCMT:chandler4.obj
 0001:000775d5       __flsbuf                   004785d5 f   LIBCMT:_flsbuf.obj
 0001:00077722       __output_l                 00478722 f   LIBCMT:output.obj
 0001:00078394       ?_inconsistency@@YAXXZ     00479394 f   LIBCMT:hooks.obj
 0001:000783cc       ?terminate@@YAXXZ          004793cc f   LIBCMT:hooks.obj
 0001:00078400       ?unexpected@@YAXXZ         00479400 f   LIBCMT:hooks.obj
 0001:00078413       __initp_eh_hooks           00479413 f   LIBCMT:hooks.obj
 0001:00078424       ___isa_available_init      00479424 f   LIBCMT:cpu_disp.obj
 0001:0007855d       ___libm_error_support      0047955d f   LIBCMT:libm_error.obj
 0001:00078845       __sse2_mathfcns_init       00479845 f   LIBCMT:mathfcns.obj
 0001:00078854       __ceil_default             00479854 f   LIBCMT:ceil.obj
 0001:00078927       __initp_misc_purevirt      00479927 f   LIBCMT:inithelp.obj
 0001:00078940       _strcmp                    00479940 f   LIBCMT:strcmp.obj
 0001:000789cc       ?_Type_info_dtor@type_info@@CAXPAV1@@Z 004799cc f   LIBCMT:typname.obj
 0001:00078a3d       ___initstdio               00479a3d f   LIBCMT:_file.obj
 0001:00078ab0       ___endstdio                00479ab0 f   LIBCMT:_file.obj
 0001:00078ad7       ___iob_func                00479ad7 f   LIBCMT:_file.obj
 0001:00078add       __lock_file                00479add f   LIBCMT:_file.obj
 0001:00078b1c       __lock_file2               00479b1c f   LIBCMT:_file.obj
 0001:00078b4c       __unlock_file              00479b4c f   LIBCMT:_file.obj
 0001:00078b86       __unlock_file2             00479b86 f   LIBCMT:_file.obj
 0001:00078bb3       __ftbuf                    00479bb3 f   LIBCMT:_sftbuf.obj
 0001:00078be4       __stbuf                    00479be4 f   LIBCMT:_sftbuf.obj
 0001:00078c8a       __wremove                  00479c8a f   LIBCMT:wunlink.obj
 0001:00078cb8       __wrename                  00479cb8 f   LIBCMT:wrename.obj
 0001:00078ceb       ___crtFlsAlloc             00479ceb f   LIBCMT:winapisupp.obj
 0001:00078d09       ___crtFlsFree              00479d09 f   LIBCMT:winapisupp.obj
 0001:00078d28       ___crtFlsGetValue          00479d28 f   LIBCMT:winapisupp.obj
 0001:00078d47       ___crtFlsSetValue          00479d47 f   LIBCMT:winapisupp.obj
 0001:00078d69       ___crtGetShowWindowMode    00479d69 f   LIBCMT:winapisupp.obj
 0001:00078d8a       ___crtIsPackagedApp        00479d8a f   LIBCMT:winapisupp.obj
 0001:00078dc8       ___crtLoadWinApiPointers   00479dc8 f   LIBCMT:winapisupp.obj
 0001:00079007       ___crtSetUnhandledExceptionFilter 0047a007 f   LIBCMT:winapisupp.obj
 0001:00079015       ___crtTerminateProcess     0047a015 f   LIBCMT:winapisupp.obj
 0001:0007902a       ___crtUnhandledException   0047a02a f   LIBCMT:winapisupp.obj
 0001:00079040       __fileno                   0047a040 f   LIBCMT:fileno.obj
 0001:00079064       __close                    0047a064 f   LIBCMT:close.obj
 0001:0007912e       __close_nolock             0047a12e f   LIBCMT:close.obj
 0001:000791c8       __freebuf                  0047a1c8 f   LIBCMT:_freebuf.obj
 0001:000791f8       __fflush_nolock            0047a1f8 f   LIBCMT:fflush.obj
 0001:0007923e       __flush                    0047a23e f   LIBCMT:fflush.obj
 0001:000792a2       __flushall                 0047a2a2 f   LIBCMT:fflush.obj
 0001:0007938f       __getstream                0047a38f f   LIBCMT:stream.obj
 0001:000794a7       __openfile                 0047a4a7 f   LIBCMT:_open.obj
 0001:00079720       __local_unwind4            0047a720 f   LIBCMT:exsup4.obj
 0001:000797f6       __seh_longjmp_unwind4@4    0047a7f6 f   LIBCMT:exsup4.obj
 0001:00079812       @_EH4_CallFilterFunc@8     0047a812 f   LIBCMT:exsup4.obj
 0001:00079829       @_EH4_TransferToHandler@8  0047a829 f   LIBCMT:exsup4.obj
 0001:00079842       @_EH4_GlobalUnwind2@8      0047a842 f   LIBCMT:exsup4.obj
 0001:0007985b       @_EH4_LocalUnwind@16       0047a85b f   LIBCMT:exsup4.obj
 0001:00079872       __write                    0047a872 f   LIBCMT:write.obj
 0001:00079954       __write_nolock             0047a954 f   LIBCMT:write.obj
 0001:0007a17e       ___addlocaleref            0047b17e f   LIBCMT:localref.obj
 0001:0007a20e       ___freetlocinfo            0047b20e f   LIBCMT:localref.obj
 0001:0007a368       ___removelocaleref         0047b368 f   LIBCMT:localref.obj
 0001:0007a403       ___updatetlocinfo          0047b403 f   LIBCMT:localref.obj
 0001:0007a47f       __updatetlocinfoEx_nolock  0047b47f f   LIBCMT:localref.obj
 0001:0007a4ca       ___initmbctable            0047b4ca f   LIBCMT:mbctype.obj
 0001:0007a785       ___updatetmbcinfo          0047b785 f   LIBCMT:mbctype.obj
 0001:0007a82a       __setmbcp                  0047b82a f   LIBCMT:mbctype.obj
 0001:0007a9d8       __setmbcp_nolock           0047b9d8 f   LIBCMT:mbctype.obj
 0001:0007abcd       __isctype_l                0047bbcd f   LIBCMT:isctype.obj
 0001:0007ac7c       __freefls@4                0047bc7c f   LIBCMT:tidtable.obj
 0001:0007adb3       __getptd                   0047bdb3 f   LIBCMT:tidtable.obj
 0001:0007adcb       __getptd_noexit            0047bdcb f   LIBCMT:tidtable.obj
 0001:0007ae3a       __initptd                  0047be3a f   LIBCMT:tidtable.obj
 0001:0007aeed       __mtinit                   0047beed f   LIBCMT:tidtable.obj
 0001:0007af63       __mtterm                   0047bf63 f   LIBCMT:tidtable.obj
 0001:0007af80       __locterm                  0047bf80 f   LIBCMT:wsetloca.obj
 0001:0007afd2       __RTC_Initialize           0047bfd2 f   LIBCMT:initsect.obj
 0001:0007aff2       __RTC_Terminate            0047bff2 f   LIBCMT:initsect.obj
 0001:0007b012       __lock                     0047c012 f   LIBCMT:mlock.obj
 0001:0007b046       __mtdeletelocks            0047c046 f   LIBCMT:mlock.obj
 0001:0007b09a       __mtinitlocknum            0047c09a f   LIBCMT:mlock.obj
 0001:0007b141       __mtinitlocks              0047c141 f   LIBCMT:mlock.obj
 0001:0007b176       __unlock                   0047c176 f   LIBCMT:mlock.obj
 0001:0007b190       __FindPESection            0047c190 f   LIBCMT:pesect.obj
 0001:0007b1e0       __IsNonwritableInCurrentImage 0047c1e0 f   LIBCMT:pesect.obj
 0001:0007b2a0       __ValidateImageBase        0047c2a0 f   LIBCMT:pesect.obj
 0001:0007b2d1       __initp_misc_cfltcvt_tab   0047c2d1 f   LIBCMT:cmiscdat.obj
 0001:0007b2f0       __initp_misc_rand_s        0047c2f0 f   LIBCMT:rand_s.obj
 0001:0007b300       _strlen                    0047c300 f   LIBCMT:strlen.obj
 0001:0007b42d       __input_l                  0047c42d f   LIBCMT:input.obj
 0001:0007c550       __aulldiv                  0047d550 f   LIBCMT:ulldiv.obj
 0001:0007c5b8       ___daylight                0047d5b8 f   LIBCMT:timeset.obj
 0001:0007c5be       ___dstbias                 0047d5be f   LIBCMT:timeset.obj
 0001:0007c5c4       ___timezone                0047d5c4 f   LIBCMT:timeset.obj
 0001:0007c5ca       ___tzname                  0047d5ca f   LIBCMT:timeset.obj
 0001:0007c5d0       __get_daylight             0047d5d0 f   LIBCMT:timeset.obj
 0001:0007c5fa       __get_dstbias              0047d5fa f   LIBCMT:timeset.obj
 0001:0007c624       __get_timezone             0047d624 f   LIBCMT:timeset.obj
 0001:0007c64e       __gmtime64_s               0047d64e f   LIBCMT:gmtime64.obj
 0001:0007c877       ___tzset                   0047d877 f   LIBCMT:tzset.obj
 0001:0007c8c7       __isindst                  0047d8c7 f   LIBCMT:tzset.obj
 0001:0007d00f       ___getgmtimebuf            0047e00f f   LIBCMT:gmtime.obj
 0001:0007d050       __alldiv                   0047e050 f   LIBCMT:lldiv.obj
 0001:0007d100       __allrem                   0047e100 f   LIBCMT:llrem.obj
 0001:0007d1b2       _strcpy_s                  0047e1b2 f   LIBCMT:strcpy_s.obj
 0001:0007dc02       __Wcsftime_l               0047ec02 f   LIBCMT:wcsftime.obj
 0001:0007dd43       __freea                    0047ed43 f i LIBCMT:wcsftime.obj
 0001:0007dd61       __isleadbyte_l             0047ed61 f i LIBCMT:_wctype.obj
 0001:0007dd97       _isleadbyte                0047ed97 f i LIBCMT:_wctype.obj
 0001:0007df91       ___crtLCMapStringA         0047ef91 f   LIBCMT:a_map.obj
 0001:0007dfd5       __fltin2                   0047efd5 f   LIBCMT:cfin.obj
 0001:0007e080       __fpmath                   0047f080 f   LIBCMT:fpinit.obj
 0001:0007e097       __cfltcvt_init             0047f097 f   LIBCMT:fpinit.obj
 0001:0007e0f7       __ioinit                   0047f0f7 f   LIBCMT:ioinit.obj
 0001:0007e3a5       ___strgtold12_l            0047f3a5 f   LIBCMT:strgtold.obj
 0001:0007eb21       __lseeki64                 0047fb21 f   LIBCMT:lseeki64.obj
 0001:0007ec1d       __lseeki64_nolock          0047fc1d f   LIBCMT:lseeki64.obj
 0001:0007ec90       __chkstk                   0047fc90 f   LIBCMT:chkstk.obj
 0001:0007ec90       __alloca_probe             0047fc90     LIBCMT:chkstk.obj
 0001:0007ecbb       __read                     0047fcbb f   LIBCMT:read.obj
 0001:0007edc3       __read_nolock              0047fdc3 f   LIBCMT:read.obj
 0001:0007f552       __filbuf                   00480552 f   LIBCMT:_filbuf.obj
 0001:0007f673       _memcpy_s                  00480673 f   LIBCMT:memcpy_s.obj
 0001:0007f6f2       __lseek                    004806f2 f   LIBCMT:lseek.obj
 0001:0007f7d4       __lseek_nolock             004807d4 f   LIBCMT:lseek.obj
 0001:0007f846       ?__CxxUnhandledExceptionFilter@@YGJPAU_EXCEPTION_POINTERS@@@Z 00480846 f   LIBCMT:unhandld.obj
 0001:0007f887       ___CxxSetUnhandledExceptionFilter 00480887 f   LIBCMT:unhandld.obj
 0001:0007f895       __XcptFilter               00480895 f   LIBCMT:winxfltr.obj
 0001:0007f9f0       __setargv                  004809f0 f   LIBCMT:stdargv.obj
 0001:0007fc1d       __setenvp                  00480c1d f   LIBCMT:stdenvp.obj
 0001:0007fcfe       ___set_app_type            00480cfe f   LIBCMT:errmode.obj
 0001:0007fd0b       __set_error_mode           00480d0b f   LIBCMT:errmode.obj
 0001:0007fd4b       ___security_init_cookie    00480d4b f   LIBCMT:gs_support.obj
 0001:0007fde5       ___crtGetEnvironmentStringsA 00480de5 f   LIBCMT:a_env.obj
 0001:0007fe70       __wincmdln                 00480e70 f   LIBCMT:wincmdln.obj
 0001:0007fecf       ___raise_securityfailure   00480ecf f   LIBCMT:gs_report.obj
 0001:0007ff0c       ___report_gsfailure        00480f0c f   LIBCMT:gs_report.obj
 0001:00080005       __VEC_memset               00481005 f   LIBCMT:p4_memset.obj
 0001:000800cd       ___sys_errlist             004810cd f   LIBCMT:syserr.obj
 0001:000800d3       ___sys_nerr                004810d3 f   LIBCMT:syserr.obj
 0001:000800d9       ___lock_fhandle            004810d9 f   LIBCMT:osfinfo.obj
 0001:00080165       __alloc_osfhnd             00481165 f   LIBCMT:osfinfo.obj
 0001:0008030a       __free_osfhnd              0048130a f   LIBCMT:osfinfo.obj
 0001:00080390       __get_osfhandle            00481390 f   LIBCMT:osfinfo.obj
 0001:000803f7       __set_osfhnd               004813f7 f   LIBCMT:osfinfo.obj
 0001:00080479       __unlock_fhandle           00481479 f   LIBCMT:osfinfo.obj
 0001:0008049f       __crt_debugger_hook        0048149f f   LIBCMT:dbghook.obj
 0001:000804a7       _wcscat_s                  004814a7 f   LIBCMT:wcscat_s.obj
 0001:00080513       _wcscpy_s                  00481513 f   LIBCMT:wcscpy_s.obj
 0001:0008056f       _wcslen                    0048156f f   LIBCMT:wcslen.obj
 0001:00080588       _wcsncpy_s                 00481588 f   LIBCMT:wcsncpy_s.obj
 0001:00080646       ___crtMessageBoxW          00481646 f   LIBCMT:crtmboxw.obj
 0001:00080828       _realloc                   00481828 f   LIBCMT:realloc.obj
 0001:000808d3       __recalloc                 004818d3 f   LIBCMT:recalloc.obj
 0001:0008093c       __calloc_impl              0048193c f   LIBCMT:calloc_impl.obj
 0001:000809b6       __isatty                   004819b6 f   LIBCMT:isatty.obj
 0001:00080a0a       __getbuf                   00481a0a f   LIBCMT:_getbuf.obj
 0001:00080a50       __wctomb_s_l               00481a50 f   LIBCMT:wctomb.obj
 0001:00080b72       _wctomb_s                  00481b72 f   LIBCMT:wctomb.obj
 0001:00080b90       __aulldvrm                 00481b90 f   LIBCMT:ulldvrm.obj
 0001:00080c25       __matherr                  00481c25 f   LIBCMT:matherr.obj
 0001:00080c28       __frnd                     00481c28 f   LIBCMT:frnd.obj
 0001:00080c3a       __errcode                  00481c3a f   LIBCMT:fpexcept.obj
 0001:00080c6c       __except1                  00481c6c f   LIBCMT:fpexcept.obj
 0001:00080d34       __handle_exc               00481d34 f   LIBCMT:fpexcept.obj
 0001:00080f10       __handle_qnan1             00481f10 f   LIBCMT:fpexcept.obj
 0001:00080f60       __raise_exc                00481f60 f   LIBCMT:fpexcept.obj
 0001:00080f81       __raise_exc_ex             00481f81 f   LIBCMT:fpexcept.obj
 0001:00081266       __set_errno_from_matherr   00482266 f   LIBCMT:fpexcept.obj
 0001:00081293       __umatherr                 00482293 f   LIBCMT:fpexcept.obj
 0001:00081331       __decomp                   00482331 f   LIBCMT:util.obj
 0001:00081403       __set_exp                  00482403 f   LIBCMT:util.obj
 0001:0008142e       __sptype                   0048242e f   LIBCMT:util.obj
 0001:0008148a       ___set_fpsr_sse2           0048248a f   LIBCMT:fpctrl.obj
 0001:00081500       __clrfp                    00482500 f   LIBCMT:fpctrl.obj
 0001:0008150f       __ctrlfp                   0048250f f   LIBCMT:fpctrl.obj
 0001:00081538       __set_statfp               00482538 f   LIBCMT:fpctrl.obj
 0001:0008158e       __statfp                   0048258e f   LIBCMT:fpctrl.obj
 0001:0008159c       _strncpy_s                 0048259c f   LIBCMT:strncpy_s.obj
 0001:00081640       _GetTableIndexFromLocaleName 00482640 f   LIBCMT:winapinls.obj
 0001:0008168e       ___crtCompareStringEx      0048268e f   LIBCMT:winapinls.obj
 0001:000816da       ___crtDownlevelLocaleNameToLCID 004826da f   LIBCMT:winapinls.obj
 0001:00081704       ___crtGetDateFormatEx      00482704 f   LIBCMT:winapinls.obj
 0001:0008174d       ___crtGetTimeFormatEx      0048274d f   LIBCMT:winapinls.obj
 0001:00081782       ___crtLCMapStringEx        00482782 f   LIBCMT:winapinls.obj
 0001:000817ce       ___wcsnicmp_ascii          004827ce f   LIBCMT:winapinls.obj
 0001:0008183c       __fcloseall                0048283c f   LIBCMT:closeall.obj
 0001:000818d9       __commit                   004828d9 f   LIBCMT:commit.obj
 0001:000819bf       __sopen_helper             004829bf f   LIBCMT:open.obj
 0001:00081a86       __sopen_nolock             00482a86 f   LIBCMT:open.obj
 0001:00081ad2       __sopen_s                  00482ad2 f   LIBCMT:open.obj
 0001:00081af0       __mbsnbcmp                 00482af0 f   LIBCMT:mbsnbcmp.obj
 0001:00081b08       __mbsnbcmp_l               00482b08 f   LIBCMT:mbsnbcmp.obj
 0001:00081c1d       __mbsnbicmp                00482c1d f   LIBCMT:mbsnbicm.obj
 0001:00081c35       __mbsnbicmp_l              00482c35 f   LIBCMT:mbsnbicm.obj
 0001:00081e00       __global_unwind2           00482e00 f   LIBCMT:exsup.obj
 0001:00081e65       __local_unwind2            00482e65 f   LIBCMT:exsup.obj
 0001:00081ee9       __abnormal_termination     00482ee9 f   LIBCMT:exsup.obj
 0001:00081f0c       __NLG_Notify1              00482f0c f   LIBCMT:exsup.obj
 0001:00081f15       __NLG_Notify               00482f15 f   LIBCMT:exsup.obj
 0001:00081f2c       __NLG_Dispatch2            00482f2c     LIBCMT:exsup.obj
 0001:00081f2c       __NLG_Dispatch             00482f2c     LIBCMT:exsup.obj
 0001:00081f34       __NLG_Call                 00482f34 f   LIBCMT:exsup.obj
 0001:00081f36       __NLG_Return2              00482f36     LIBCMT:exsup.obj
 0001:00081f38       __mbtowc_l                 00482f38 f   LIBCMT:mbtowc.obj
 0001:0008202b       _mbtowc                    0048302b f   LIBCMT:mbtowc.obj
 0001:00082043       __putwch_nolock            00483043 f   LIBCMT:putwch.obj
 0001:00082084       ___free_lconv_mon          00483084 f   LIBCMT:initmon.obj
 0001:00082180       ___free_lconv_num          00483180 f   LIBCMT:initnum.obj
 0001:000821e7       ___free_lc_time            004831e7 f   LIBCMT:inittime.obj
 0001:00082653       ___crtGetStringTypeA       00483653 f   LIBCMT:a_str.obj
 0001:00082691       ____lc_codepage_func       00483691 f   LIBCMT:initctyp.obj
 0001:000826b7       _wcsnlen                   004836b7 f   LIBCMT:wcslen_s.obj
 0001:000826d6       __fptrap                   004836d6 f   LIBCMT:crt0fp.obj
 0001:000826e0       __allmul                   004836e0 f   LIBCMT:llmul.obj
 0001:00082714       __ungetc_nolock            00483714 f   LIBCMT:ungetc.obj
 0001:000827f4       __getenv_helper_nolock     004837f4 f   LIBCMT:getenv.obj
 0001:00082878       __wcsicmp                  00483878 f   LIBCMT:wcsicmp.obj
 0001:0008290b       __wcsicmp_l                0048390b f   LIBCMT:wcsicmp.obj
 0001:000829e4       __mbstowcs_l_helper        004839e4 f   LIBCMT:mbstowcs.obj
 0001:00082b43       __mbstowcs_s_l             00483b43 f   LIBCMT:mbstowcs.obj
 0001:00082c20       __alloca_probe_16          00483c20 f   LIBCMT:alloca16.obj
 0001:00082c36       __alloca_probe_8           00483c36     LIBCMT:alloca16.obj
 0001:00082c4c       _iswctype                  00483c4c f   LIBCMT:iswctype.obj
 0001:00082c9e       __ld12tod                  00483c9e f   LIBCMT:intrncvt.obj
 0001:0008320e       __ld12tof                  0048420e f   LIBCMT:intrncvt.obj
 0001:0008377e       __cfltcvt                  0048477e f   LIBCMT:cvt.obj
 0001:0008379f       __cfltcvt_l                0048479f f   LIBCMT:cvt.obj
 0001:00083825       __cftoa_l                  00484825 f   LIBCMT:cvt.obj
 0001:00083b7f       __cftoe                    00484b7f f   LIBCMT:cvt.obj
 0001:00083cec       __cftoe_l                  00484cec f   LIBCMT:cvt.obj
 0001:00083ea2       __cftof_l                  00484ea2 f   LIBCMT:cvt.obj
 0001:00083f61       __cftog_l                  00484f61 f   LIBCMT:cvt.obj
 0001:0008405e       __cropzeros                0048505e f   LIBCMT:cvt.obj
 0001:0008406f       __cropzeros_l              0048506f f   LIBCMT:cvt.obj
 0001:000840ed       __fassign                  004850ed f   LIBCMT:cvt.obj
 0001:00084105       __fassign_l                00485105 f   LIBCMT:cvt.obj
 0001:00084145       __forcdecpt                00485145 f   LIBCMT:cvt.obj
 0001:00084156       __forcdecpt_l              00485156 f   LIBCMT:cvt.obj
 0001:000841c8       __positive                 004851c8 f   LIBCMT:cvt.obj
 0001:0008420a       __setdefaultprecision      0048520a f   LIBCMT:fp8.obj
 0001:00084231       ___mtold12                 00485231 f   LIBCMT:mantold.obj
 0001:00084469       __ismbblead                00485469 f   LIBCMT:ismbbyte.obj
 0001:00084510       __wsopen_nolock            00485510 f   LIBCMT:wopen.obj
 0001:00084c61       __strnicmp                 00485c61 f   LIBCMT:strnicmp.obj
 0001:00084ccc       __strnicmp_l               00485ccc f   LIBCMT:strnicmp.obj
 0001:00084d7b       ___termconout              00485d7b f   LIBCMT:initcon.obj
 0001:00084d92       ___initconout              00485d92 f   LIBCMT:initcon.obj
 0001:00084db1       ___wtomb_environ           00485db1 f   LIBCMT:wtombenv.obj
 0001:00084e3e       __mbsnbicoll               00485e3e f   LIBCMT:mbsnbico.obj
 0001:00084e56       __mbsnbicoll_l             00485e56 f   LIBCMT:mbsnbico.obj
 0001:00084f0a       __towlower_l               00485f0a f   LIBCMT:towlower.obj
 0001:00084fbc       __fptostr                  00485fbc f   LIBCMT:_fptostr.obj
 0001:0008506c       __atodbl_l                 0048606c f   LIBCMT:atodbl.obj
 0001:000850f8       __atoflt_l                 004860f8 f   LIBCMT:atodbl.obj
 0001:00085184       ___dtold                   00486184 f   LIBCMT:cfout.obj
 0001:0008524a       __fltout2                  0048624a f   LIBCMT:cfout.obj
 0001:000852e0       __alldvrm                  004862e0 f   LIBCMT:lldvrm.obj
 0001:000853c0       __aullshr                  004863c0 f   LIBCMT:ullshr.obj
 0001:000853df       __controlfp_s              004863df f   LIBCMT:contrlfp.obj
 0001:0008543c       __chsize_nolock            0048643c f   LIBCMT:chsize.obj
 0001:000855f0       __get_fmode                004865f0 f   LIBCMT:setmode.obj
 0001:0008561a       __setmode_nolock           0048661a f   LIBCMT:setmode.obj
 0001:000856f0       ___ascii_strnicmp          004866f0 f   LIBCMT:_strnicm.obj
 0001:00085751       ___crtsetenv               00486751 f   LIBCMT:setenv.obj
 0001:00085a52       __strnicoll_l              00486a52 f   LIBCMT:strnicol.obj
 0001:00085da0       ___crtCompareStringA       00486da0 f   LIBCMT:a_cmp.obj
 0001:00085de1       ___crtLCMapStringW         00486de1 f   LIBCMT:w_map.obj
 0001:00085e10       _$I10_OUTPUT               00486e10 f   LIBCMT:x10fout.obj
 0001:0008687d       __control87                0048787d f i LIBCMT:ieee87.obj
 0001:00086c14       __strdup                   00487c14 f   LIBCMT:strdup.obj
 0001:00086c64       __mbschr                   00487c64 f   LIBCMT:mbschr.obj
 0001:00086c79       __mbschr_l                 00487c79 f   LIBCMT:mbschr.obj
 0001:00086d14       _IsProcessorFeaturePresent@4 00487d14 f   kernel32:KERNEL32.dll
 0001:00086d1a       _RtlUnwind@16              00487d1a f   kernel32:KERNEL32.dll
 0001:00086dd0       ?shouldsaveblendmap@@YAEXZ 00487dd0 f   blend.obj
 0001:00086de0       ?saveblendmap@@YAXPAUstream@@@Z 00487de0 f   blend.obj
 0001:00086e00       ?saveblendmap@@YAXPAUstream@@EAAUBlendMapNode@@@Z 00487e00 f   blend.obj
 0001:00086e70       ?loadblendmap@@YA_NPAUstream@@H@Z 00487e70 f   blend.obj
 0001:00086e90       ?loadblendmap@@YA_NPAUstream@@AAEAAUBlendMapNode@@@Z 00487e90 f   blend.obj
 0001:00086fb0       ?renderblendbrush@@YAXXZ   00487fb0 f   blend.obj
 0001:00087100       ?run@?$_icmd_moveblendmap@$0DAN@@@SAXPAH0@Z 00488100 f   blend.obj
 0001:000871d0       ?run@?$_icmd_clearblendmap@$0CPO@@@SAXXZ 004881d0 f   blend.obj
 0001:00087220       ?showblendmap@@YAXXZ       00488220 f   blend.obj
 0001:000872b0       ?invertblendmap@@YAXXZ     004882b0 f   blend.obj
 0001:00087420       ?invertblendmapsel@@YAXXZ  00488420 f   blend.obj
 0001:000875f0       ?clearblendmapsel@@YAXXZ   004885f0 f   blend.obj
 0001:000877c0       ?run@?$_icmd_paintblendmap@$0CMK@@@SAXPAH@Z 004887c0 f   blend.obj
 0001:00087800       ?trypaintblendmap@@YAXXZ   00488800 f   blend.obj
 0001:00087860       ?stoppaintblendmap@@YAXXZ  00488860 f   blend.obj
 0001:00087880       ?paintblendmap@@YAX_N@Z    00488880 f   blend.obj
 0001:00087a10       ?rotateblendbrush@@YAXPAH@Z 00488a10 f   blend.obj
 0001:00087af0       ?canpaintblendmap@@YA_N_N00@Z 00488af0 f   blend.obj
 0001:00087b80       ?curblendbrush@@YAXXZ      00488b80 f   blend.obj
 0001:00087ba0       ?getblendbrushname@@YAXPAH@Z 00488ba0 f   blend.obj
 0001:00087c20       ?setblendbrush@@YAXPBD@Z   00488c20 f   blend.obj
 0001:00087c90       ?nextblendbrush@@YAXPAH@Z  00488c90 f   blend.obj
 0001:00087cf0       ?addblendbrush@@YAXPBD0@Z  00488cf0 f   blend.obj
 0001:00087f00       ?delblendbrush@@YAXPBD@Z   00488f00 f   blend.obj
 0001:00088000       ?clearblendbrushes@@YAXXZ  00489000 f   blend.obj
 0001:00088080       ?cleanupblendmap@@YAXXZ    00489080 f   blend.obj
 0001:000880c0       ?moveblendmap@@YAXHH@Z     004890c0 f   blend.obj
 0001:00088140       ?moveblendmap@@YAXEAAUBlendMapNode@@HHHHH@Z 00489140 f   blend.obj
 0001:00088230       ?shrinkblendmap@@YAXH@Z    00489230 f   blend.obj
 0001:00088240       ?enlargeblendmap@@YAXXZ    00489240 f   blend.obj
 0001:000882a0       ?resetblendmap@@YAXXZ      004892a0 f   blend.obj
 0001:00088300       ?blitblendmap@@YAXPAEHHHHH@Z 00489300 f   blend.obj
 0001:000886f0       ?var_blendpaintmode@@YAXXZ 004896f0 f   blend.obj
 0001:00088710       ?optimizeblendmap@@YAXXZ   00489710 f   blend.obj
 0001:00088840       ?invertblendmap@@YAXHHHH@Z 00489840 f   blend.obj
 0001:00088ac0       ?fillblendmap@@YAXHHHHE@Z  00489ac0 f   blend.obj
 0001:00088e00       ?lookupblendmap@@YAEPAUBlendMapCache@@ABUvec@@@Z 00489e00 f   blend.obj
 0001:00089010       ?setblendmaporigin@@YA_NPAUBlendMapCache@@ABUivec@@H@Z 0048a010 f   blend.obj
 0001:000891a0       ?freeblendmapcache@@YAXAAPAUBlendMapCache@@@Z 0048a1a0 f   blend.obj
 0001:000891c0       ?newblendmapcache@@YAPAUBlendMapCache@@XZ 0048a1c0 f   blend.obj
 0001:00089220       ?shrink@BlendMapBranch@@QAEEAAUBlendMapNode@@H@Z 0048a220 f   blend.obj
 0001:00089250       ?splitsolid@BlendMapNode@@QAEXAAEE@Z 0048a250 f   blend.obj
 0001:000892e0       ?cleanup@BlendMapNode@@QAEXH@Z 0048a2e0 f   blend.obj
 0001:00089320       ?importcube@@YAXPAD@Z      0048a320 f   cubeloader.obj
 0001:00089520       ?dumplms@@YAXXZ            0048a520 f   lightmap.obj
 0001:000896b0       ?brightestlight@@YAPAUentity@@ABUvec@@0@Z 0048a6b0 f   lightmap.obj
 0001:00089a60       ?lightreaching@@YAXABUvec@@AAU1@1_NPAUextentity@@M@Z 0048aa60 f   lightmap.obj
 0001:0008a6f0       ?initlights@@YAXXZ         0048b6f0 f   lightmap.obj
 0001:0008a760       ?lightents@@YAX_N@Z        0048b760 f   lightmap.obj
 0001:0008a860       ?lightent@@YAXAAUextentity@@M@Z 0048b860 f   lightmap.obj
 0001:0008a920       ?genlightmaptexs@@YAXHH@Z  0048b920 f   lightmap.obj
 0001:0008adf0       ?var_batchlightmaps@@YAXXZ 0048bdf0 f   lightmap.obj
 0001:0008ae90       ?var_roundlightmaptex@@YAXXZ 0048be90 f   lightmap.obj
 0001:0008b070       ?genreservedlightmaptexs@@YAXXZ 0048c070 f   lightmap.obj
 0001:0008b610       ?var_convertlms@@YAXXZ     0048c610 f   lightmap.obj
 0001:0008b820       ?fixrotatedlightmaps@@YAXXZ 0048c820 f   lightmap.obj
 0001:0008b880       ?fixrotatedlightmaps@@YAXAAUcube@@ABUivec@@H@Z 0048c880 f   lightmap.obj
 0001:0008bc30       ?fixlightmapnormals@@YAXXZ 0048cc30 f   lightmap.obj
 0001:0008bef0       ?var_fullbrightlevel@@YAXXZ 0048cef0 f   lightmap.obj
 0001:0008bf00       ?var_fullbright@@YAXXZ     0048cf00 f   lightmap.obj
 0001:0008bf20       ?setfullbrightlevel@@YAXH@Z 0048cf20 f   lightmap.obj
 0001:0008c030       ?clearlightmaps@@YAXXZ     0048d030 f   lightmap.obj
 0001:0008c130       ?patchlight@@YAXPAH@Z      0048d130 f   lightmap.obj
 0001:0008c600       ?calclight@@YAXPAH@Z       0048d600 f   lightmap.obj
 0001:0008cf00       ?setlightmapquality@@YA_NH@Z 0048df00 f   lightmap.obj
 0001:0008cf90       ?setupthread@lightmapworker@@QAE_NXZ 0048df90 f   lightmap.obj
 0001:0008cfd0       ?reset@lightmapworker@@QAEXXZ 0048dfd0 f   lightmap.obj
 0001:0008d030       ?cleanupthread@lightmapworker@@QAEXXZ 0048e030 f   lightmap.obj
 0001:0008d060       ??1lightmapworker@@QAE@XZ  0048e060 f   lightmap.obj
 0001:0008d150       ??0lightmapworker@@QAE@XZ  0048e150 f   lightmap.obj
 0001:0008d2d0       ?resetlightmaps@@YAX_N@Z   0048e2d0 f   lightmap.obj
 0001:0008d350       ?cleanuplightmaps@@YAXXZ   0048e350 f   lightmap.obj
 0001:0008ec20       ?work@lightmapworker@@SAHPAX@Z 0048fc20 f   lightmap.obj
 0001:00091cc0       ?checklightcache@@YAABU?$vector@H@@HH@Z 00492cc0 f   lightmap.obj
 0001:00091e30       ?clearlightcache@@YAXH@Z   00492e30 f   lightmap.obj
 0001:00091f60       ?var_lightcachesize@@YAXXZ 00492f60 f   lightmap.obj
 0001:00096ec0       ?copy@LightMap@@QAEXGGPAEGG@Z 00497ec0 f   lightmap.obj
 0001:00096f30       ?insert@LightMap@@QAE_NAAG0PAEGG@Z 00497f30 f   lightmap.obj
 0001:00096f90       ?insert@PackNode@@QAE_NAAG0GG@Z 00497f90 f   lightmap.obj
 0001:00097200       ?show_calclight_progress@@YAXXZ 00498200 f   lightmap.obj
 0001:00097480       ?check_calclight_canceled@@YAXXZ 00498480 f   lightmap.obj
 0001:000974d0       ?setsurface@@YAXAAUcube@@HABUsurfaceinfo@@PBUvertinfo@@H@Z 004984d0 f   lightmap.obj
 0001:000977b0       ?setsurfaces@@YAXAAUcube@@PBUsurfaceinfo@@PBUvertinfo@@H@Z 004987b0 f   lightmap.obj
 0001:00097820       ?brightencube@@YAXAAUcube@@@Z 00498820 f   lightmap.obj
 0001:00097870       ?setupsunlight@@YAXXZ      00498870 f   lightmap.obj
 0001:00097a60       ?setsunlightdir@@YAXXZ     00498a60 f   lightmap.obj
 0001:00097bc0       ?var_sunlightpitch@@YAXXZ  00498bc0 f   lightmap.obj
 0001:00097bd0       ?var_sunlightyaw@@YAXXZ    00498bd0 f   lightmap.obj
 0001:00097be0       ?var_sunlightscale@@YAXXZ  00498be0 f   lightmap.obj
 0001:00097bf0       ?var_sunlight@@YAXXZ       00498bf0 f   lightmap.obj
 0001:00097c40       ?var_skylight@@YAXXZ       00498c40 f   lightmap.obj
 0001:00097c90       ?var_ambient@@YAXXZ        00498c90 f   lightmap.obj
 0001:00097ce0       ?clearlights@@YAXXZ        00498ce0 f   lightmap.obj
 0001:00097da0       ?previewblends@@YAXABUivec@@0@Z 00498da0 f   lightmap.obj
 0001:00097fb0       ?updatelerpbounds@@YAXMPBUlerpvert@@HAAUlerpbounds@@1@Z 00498fb0 f   normal.obj
 0001:00098080       ?setlerpstep@@YAXMAAUlerpbounds@@@Z 00499080 f   normal.obj
 0001:000982d0       ?addnormals@@YAXAAUcube@@ABUivec@@H@Z 004992d0 f   normal.obj
 0001:000991d0       ?show_addnormals_progress@@YAXXZ 0049a1d0 f   normal.obj
 0001:00099940       ?initlerpbounds@@YAXMMPBUlerpvert@@HAAUlerpbounds@@1@Z 0049a940 f   normal.obj
 0001:00099a90       ?lerpnormal@@YAXMMPBUlerpvert@@HAAUlerpbounds@@1AAUvec@@2@Z 0049aa90 f   normal.obj
 0001:00099e20       ?calclerpverts@@YAXPBUvec2@@PBUvec@@PAUlerpvert@@AAH@Z 0049ae20 f   normal.obj
 0001:00099f50       ?findnormal@@YAXABUvec@@0AAU1@@Z 0049af50 f   normal.obj
 0001:00099fb0       ?calcnormals@@YAX_N@Z      0049afb0 f   normal.obj
 0001:0009a070       ?clearnormals@@YAXXZ       0049b070 f   normal.obj
 0001:0009a6f0       ?calcmerges@@YAXXZ         0049b6f0 f   octa.obj
 0001:0009a7d0       ?genmerges@@YAXPAUcube@@ABUivec@@H@Z 0049b7d0 f   octa.obj
 0001:0009ab80       ?mergepolys@@YAXHABUivec@@0HAAU?$vector@Upoly@@@@@Z 0049bb80 f   octa.obj
 0001:0009ae60       ?addmerges@@YAXHABUivec@@0HAAU?$vector@Upoly@@@@@Z 0049be60 f   octa.obj
 0001:0009af20       ?addmerge@@YAXAAUcube@@HABUivec@@1HAAUpoly@@@Z 0049bf20 f   octa.obj
 0001:0009b180       ?mergepolys@@YA_NHAAU?$hashset@Uplink@@@@AAU?$vector@PAUplink@@@@HAAUpoly@@2ABUpedge@@@Z 0049c180 f   octa.obj
 0001:0009b510       ?genpoly@@YA_NAAUcube@@HABUivec@@HHAAU2@AAHAAUpoly@@@Z 0049c510 f   octa.obj
 0001:0009bd20       ?clippoly@@YA_NAAUpoly@@ABUfacebounds@@@Z 0049cd20 f   octa.obj
 0001:0009c1a0       ?mincubeface@@YA_NABUcube@@HABUivec@@HAAUfacebounds@@@Z 0049d1a0 f   octa.obj
 0001:0009c280       ?mincubeface@@YAXABUcube@@HABUivec@@HABUfacebounds@@AAU3@GG@Z 0049d280 f   octa.obj
 0001:0009c700       ?mergefaces@@YAHHPAUfacebounds@@H@Z 0049d700 f   octa.obj
 0001:0009c8a0       ?genclipplanes@@YAXABUcube@@HHHHAAUclipplanes@@_N@Z 0049d8a0 f   octa.obj
 0001:0009d470       ?calcvert@@YAXABUcube@@HHHHAAUvec@@H_N@Z 0049e470 f   octa.obj
 0001:0009d4f0       ?classifyface@@YAHABUcube@@HHHHH@Z 0049e4f0 f   octa.obj
 0001:0009d830       ?visibleface@@YA_NABUcube@@HHHHHGGG@Z 0049e830 f   octa.obj
 0001:0009de80       ?collapsedface@@YA_NABUcube@@H@Z 0049ee80 f   octa.obj
 0001:0009f0d0       ?faceedges@@YAIABUcube@@H@Z 004a00d0 f   octa.obj
 0001:0009f170       ?faceconvexity@@YAHABUcube@@H@Z 004a0170 f   octa.obj
 0001:0009f1c0       ?faceconvexity@@YAHQBUivec@@AAH@Z 004a01c0 f   octa.obj
 0001:0009f310       ?notouchingface@@YA_NABUcube@@H@Z 004a0310 f   octa.obj
 0001:0009f340       ?touchingface@@YA_NABUcube@@H@Z 004a0340 f   octa.obj
 0001:0009f370       ?collideface@@YA_NABUcube@@H@Z 004a0370 f   octa.obj
 0001:0009f420       ?edgespan2vectorcube@@YAXAAUcube@@@Z 004a0420 f   octa.obj
 0001:0009fa20       ?genvertp@@YAXAAUcube@@AAUivec@@11AAUplane@@_N@Z 004a0a20 f   octa.obj
 0001:0009fd40       ?remip_@@YAXXZ             004a0d40 f   octa.obj
 0001:0009fde0       ?remip@@YA_NAAUcube@@HHHH@Z 004a0de0 f   octa.obj
 0001:000a03a0       ?visibleorient@@YAHABUcube@@H@Z 004a13a0 f   octa.obj
 0001:000a0450       ?crushededge@@YA_NEH@Z     004a1450 f   octa.obj
 0001:000a0470       ?subdividecube@@YA_NAAUcube@@_N1@Z 004a1470 f   octa.obj
 0001:000a0cf0       ?forcemip@@YAXAAUcube@@_N@Z 004a1cf0 f   octa.obj
 0001:000a0e40       ?getmippedtexture@@YAHABUcube@@H@Z 004a1e40 f   octa.obj
 0001:000a0f70       ?neighbourcube@@YAABUcube@@ABU1@HHHHHAAUivec@@AAH@Z 004a1f70 f   octa.obj
 0001:000a10d0       ?lookupmaterial@@YAHABUvec@@@Z 004a20d0 f   octa.obj
 0001:000a1170       ?validatec@@YAXPAUcube@@H@Z 004a2170 f   octa.obj
 0001:000a1250       ?isvalidcube@@YA_NABUcube@@@Z 004a2250 f   octa.obj
 0001:000a13e0       ?printcube@@YAXXZ          004a23e0 f   octa.obj
 0001:000a1460       ?optiface@@YAXPAEAAUcube@@@Z 004a2460 f   octa.obj
 0001:000a15b0       ?setcubevector@@YAXAAUcube@@HHHHABUivec@@@Z 004a25b0 f   octa.obj
 0001:000a16a0       ?getcubevector@@YAXAAUcube@@HHHHAAUivec@@@Z 004a26a0 f   octa.obj
 0001:000a1740       ?discardchildren@@YAXAAUcube@@_NH@Z 004a2740 f   octa.obj
 0001:000a1820       ?freecubeext@@YAXAAUcube@@@Z 004a2820 f   octa.obj
 0001:000a1840       ?familysize@@YAHABUcube@@@Z 004a2840 f   octa.obj
 0001:000a1870       ?newcubeext@@YAPAUcubeext@@AAUcube@@H_N@Z 004a2870 f   octa.obj
 0001:000a1970       ?growcubeext@@YAPAUcubeext@@PAU1@H@Z 004a2970 f   octa.obj
 0001:000a19d0       ?setcubeext@@YAXAAUcube@@PAUcubeext@@@Z 004a29d0 f   octa.obj
 0001:000a19f0       ?calcmergedsize@@YAHHABUivec@@HPBUvertinfo@@H@Z 004a29f0 f   octa.obj
 0001:000a1bc0       ?flataxisface@@YA_NABUcube@@H@Z 004a2bc0 f   octa.obj
 0001:000a1bf0       ?faceconvexity@@YAHPBUvertinfo@@HH@Z 004a2bf0 f   octa.obj
 0001:000a1d50       ?genfaceverts@@YAXABUcube@@HQAUivec@@@Z 004a2d50 f   octa.obj
 0001:000a21b0       ?faceconvexity@@YAHQBUivec@@@Z 004a31b0 f   octa.obj
 0001:000a2270       ?visibletris@@YAHABUcube@@HHHHHGG@Z 004a3270 f   octa.obj
 0001:000a27f0       ?invalidatemerges@@YAXAAUcube@@ABUivec@@H_N@Z 004a37f0 f   octa.obj
 0001:000a2830       ?lookupcube@@YAAAUcube@@HHHHAAUivec@@AAH@Z 004a3830 f   octa.obj
 0001:000a29a0       ?mpremip@@YAX_N@Z          004a39a0 f   octa.obj
 0001:000a2a50       ?freeocta@@YAXPAUcube@@@Z  004a3a50 f   octa.obj
 0001:000a2b10       ?newcubes@@YAPAUcube@@IH@Z 004a3b10 f   octa.obj
 0001:000a30d0       ?rendertexturepanel@@YAXHH@Z 004a40d0 f   octaedit.obj
 0001:000a39f0       ?showtexgui@@YAXPAH@Z      004a49f0 f   octaedit.obj
 0001:000a3a40       ?g3d_texturemenu@@YAXXZ    004a4a40 f   octaedit.obj
 0001:000a3a50       ?editmat@@YAXPAD0@Z        004a4a50 f   octaedit.obj
 0001:000a3c00       ?mpeditmat@@YAXHHAAUselinfo@@_N@Z 004a4c00 f   octaedit.obj
 0001:000a3e30       ?setmat@@YAXAAUcube@@GGGGH@Z 004a4e30 f   octaedit.obj
 0001:000a3f10       ?rotate@@YAXPAH@Z          004a4f10 f   octaedit.obj
 0001:000a4020       ?mprotate@@YAXHAAUselinfo@@_N@Z 004a5020 f   octaedit.obj
 0001:000a43c0       ?flip@@YAXXZ               004a53c0 f   octaedit.obj
 0001:000a44d0       ?mpflip@@YAXAAUselinfo@@_N@Z 004a54d0 f   octaedit.obj
 0001:000a47a0       ?rotatecube@@YAXAAUcube@@H@Z 004a57a0 f   octaedit.obj
 0001:000a49e0       ?rotatequad@@YAXAAUcube@@000@Z 004a59e0 f   octaedit.obj
 0001:000a4aa0       ?flipcube@@YAXAAUcube@@H@Z 004a5aa0 f   octaedit.obj
 0001:000a4f60       ?mflip@@YAII@Z             004a5f60 f   octaedit.obj
 0001:000a4f80       ?rflip@@YAII@Z             004a5f80 f   octaedit.obj
 0001:000a4f90       ?cflip@@YAII@Z             004a5f90 f   octaedit.obj
 0001:000a4fb0       ?dflip@@YAII@Z             004a5fb0 f   octaedit.obj
 0001:000a4fe0       ?run@?$_icmd_replacesel@$0HLI@@@SAXXZ 004a5fe0 f   octaedit.obj
 0001:000a4ff0       ?run@?$_icmd_replace@$0HLH@@@SAXXZ 004a5ff0 f   octaedit.obj
 0001:000a5000       ?replace@@YAX_N@Z          004a6000 f   octaedit.obj
 0001:000a5130       ?mpreplacetex@@YAXHH_NAAUselinfo@@0@Z 004a6130 f   octaedit.obj
 0001:000a5440       ?replacetexcube@@YAXAAUcube@@HH@Z 004a6440 f   octaedit.obj
 0001:000a5490       ?run@?$_icmd_getreptex@$0HJJ@@@SAXXZ 004a6490 f   octaedit.obj
 0001:000a55c0       ?gettexname@@YAXPAH0@Z     004a65c0 f   octaedit.obj
 0001:000a5640       ?getseltex@@YAXXZ          004a6640 f   octaedit.obj
 0001:000a56b0       ?getcurtex@@YAXXZ          004a66b0 f   octaedit.obj
 0001:000a5700       ?gettex@@YAXXZ             004a6700 f   octaedit.obj
 0001:000a58d0       ?edittex_@@YAXPAH@Z        004a68d0 f   octaedit.obj
 0001:000a5ac0       ?edittex@@YAXH_N@Z         004a6ac0 f   octaedit.obj
 0001:000a5b20       ?compactmruvslots@@YAXXZ   004a6b20 f   octaedit.obj
 0001:000a5c30       ?filltexlist@@YAXXZ        004a6c30 f   octaedit.obj
 0001:000a5d30       ?mpedittex@@YAXHHAAUselinfo@@_N@Z 004a6d30 f   octaedit.obj
 0001:000a5f20       ?vshaderparam@@YAXPBDPAM111@Z 004a6f20 f   octaedit.obj
 0001:000a61a0       ?vreset@@YAXXZ             004a71a0 f   octaedit.obj
 0001:000a63b0       ?vcolor@@YAXPAM00@Z        004a73b0 f   octaedit.obj
 0001:000a6650       ?valpha@@YAXPAM0@Z         004a7650 f   octaedit.obj
 0001:000a68c0       ?vlayer@@YAXPAH@Z          004a78c0 f   octaedit.obj
 0001:000a6af0       ?vscale@@YAXPAM@Z          004a7af0 f   octaedit.obj
 0001:000a6d60       ?vscroll@@YAXPAM0@Z        004a7d60 f   octaedit.obj
 0001:000a6fb0       ?voffset@@YAXPAH0@Z        004a7fb0 f   octaedit.obj
 0001:000a7200       ?vrotate@@YAXPAH@Z         004a8200 f   octaedit.obj
 0001:000a7440       ?vdelta@@YAXPAD@Z          004a8440 f   octaedit.obj
 0001:000a7590       ?mpeditvslot@@YAXAAUVSlot@@HAAUselinfo@@_N@Z 004a8590 f   octaedit.obj
 0001:000a78c0       ?edittexcube@@YAXAAUcube@@HHAA_N@Z 004a88c0 f   octaedit.obj
 0001:000a7d20       ?tofronttex@@YAXXZ         004a8d20 f   octaedit.obj
 0001:000a7d50       ?delcube@@YAXXZ            004a8d50 f   octaedit.obj
 0001:000a7e60       ?mpdelcube@@YAXAAUselinfo@@_N@Z 004a8e60 f   octaedit.obj
 0001:000a7ff0       ?pushsel@@YAXPAH@Z         004a8ff0 f   octaedit.obj
 0001:000a80a0       ?editface@@YAXPAH0@Z       004a90a0 f   octaedit.obj
 0001:000a80e0       ?mpeditface@@YAXHHAAUselinfo@@_N@Z 004a90e0 f   octaedit.obj
 0001:000a8710       ?linkedpush@@YAXAAUcube@@HHHHH@Z 004a9710 f   octaedit.obj
 0001:000a8830       ?pushedge@@YAXAAEHH@Z      004a9830 f   octaedit.obj
 0001:000a88d0       ?bounded@@YAHH@Z           004a98d0 f   octaedit.obj
 0001:000a88f0       ?edithmap@@YAXHH@Z         004a98f0 f   octaedit.obj
 0001:000a8940       ?run@hmap@@YAXHH@Z         004a9940 f   octaedit.obj
 0001:000a8db0       ?rippleandset@hmap@@YAXXZ  004a9db0 f   octaedit.obj
 0001:000a8e10       ?smooth@hmap@@YAXXZ        004a9e10 f   octaedit.obj
 0001:000a8f00       ?paint@hmap@@YAXXZ         004a9f00 f   octaedit.obj
 0001:000a8f80       ?ripple@hmap@@YAXHHH_N@Z   004a9f80 f   octaedit.obj
 0001:000a9770       ?select@hmap@@YAXHHH@Z     004aa770 f   octaedit.obj
 0001:000a9be0       ?addpoint@hmap@@YAXHHHH@Z  004aabe0 f   octaedit.obj
 0001:000a9c10       ?pushside@hmap@@YAXAAUcube@@HHHH@Z 004aac10 f   octaedit.obj
 0001:000a9c80       ?getface@hmap@@YAIPAUcube@@H@Z 004aac80 f   octaedit.obj
 0001:000a9cc0       ?getcube@hmap@@YAPAUcube@@Uivec@@H@Z 004aacc0 f   octaedit.obj
 0001:000a9df0       ?run@?$_icmd_hmapselect@$0EGC@@@SAXXZ 004aadf0 f   octaedit.obj
 0001:000a9ec0       ?run@?$_icmd_hmapcancel@$0EFK@@@SAXXZ 004aaec0 f   octaedit.obj
 0001:000a9ed0       ?brushvert@@YAXPAH00@Z     004aaed0 f   octaedit.obj
 0001:000a9fe0       ?clearbrush@@YAXXZ         004aafe0 f   octaedit.obj
 0001:000aa030       ?compacteditvslots@@YAXXZ  004ab030 f   octaedit.obj
 0001:000aa0e0       ?paste@@YAXXZ              004ab0e0 f   octaedit.obj
 0001:000aa200       ?pastehilite@@YAXXZ        004ab200 f   octaedit.obj
 0001:000aa280       ?copy@@YAXXZ               004ab280 f   octaedit.obj
 0001:000aa2b0       ?mppaste@@YAXAAPAUeditinfo@@AAUselinfo@@_N@Z 004ab2b0 f   octaedit.obj
 0001:000aa2d0       ?mpcopy@@YAXAAPAUeditinfo@@AAUselinfo@@_N@Z 004ab2d0 f   octaedit.obj
 0001:000aa4b0       ?pastebrush@@YAXPAD@Z      004ab4b0 f   octaedit.obj
 0001:000aa760       ?pasteblock@@YAXAAUblock3@@AAUselinfo@@_N@Z 004ab760 f   octaedit.obj
 0001:000aa930       ?savebrush@@YAXPAD@Z       004ab930 f   octaedit.obj
 0001:000aab80       ?delbrush@@YAXPAD@Z        004abb80 f   octaedit.obj
 0001:000aabe0       ?editredo@@YAXXZ           004abbe0 f   octaedit.obj
 0001:000aac00       ?editundo@@YAXXZ           004abc00 f   octaedit.obj
 0001:000aac20       ?swapundo@@YAXAAUundolist@@0PBD@Z 004abc20 f   octaedit.obj
 0001:000aaf30       ?makeundo@@YAXXZ           004abf30 f   octaedit.obj
 0001:000aaff0       ?makeundoex@@YAXAAUselinfo@@@Z 004abff0 f   octaedit.obj
 0001:000ab020       ?addundo@@YAXPAUundoblock@@@Z 004ac020 f   octaedit.obj
 0001:000ab080       ?newundocube@@YAPAUundoblock@@AAUselinfo@@@Z 004ac080 f   octaedit.obj
 0001:000ab140       ?clearundos@@YAXXZ         004ac140 f   octaedit.obj
 0001:000ab150       ?pruneundos@@YAXH@Z        004ac150 f   octaedit.obj
 0001:000ab290       ?pasteundo@@YAXPAUundoblock@@@Z 004ac290 f   octaedit.obj
 0001:000ab3a0       ?freeundo@@YAXPAUundoblock@@@Z 004ac3a0 f   octaedit.obj
 0001:000ab3c0       ?selgridmap@@YAXAAUselinfo@@PAH@Z 004ac3c0 f   octaedit.obj
 0001:000ab4d0       ?freeblock@@YAXPAUblock3@@_N@Z 004ac4d0 f   octaedit.obj
 0001:000ab5b0       ?blockcopy@@YAPAUblock3@@ABU1@H@Z 004ac5b0 f   octaedit.obj
 0001:000ab610       ?blockcopy@@YAXABUblock3@@HPAU1@@Z 004ac610 f   octaedit.obj
 0001:000ab790       ?changed@@YAXABUblock3@@_N@Z 004ac790 f   octaedit.obj
 0001:000ab8e0       ?readychanges@@YAXAAUblock3@@PAUcube@@ABUivec@@H@Z 004ac8e0 f   octaedit.obj
 0001:000aba70       ?tryedit@@YAXXZ            004aca70 f   octaedit.obj
 0001:000abaa0       ?rendereditcursor@@YAXXZ   004acaa0 f   octaedit.obj
 0001:000acd30       ?editmoveplane@@YAXABUvec@@0HMAAU1@1_N@Z 004add30 f   octaedit.obj
 0001:000acec0       ?updateselection@@YAXXZ    004adec0 f   octaedit.obj
 0001:000acf50       ?normalizelookupcube@@YAXHHH@Z 004adf50 f   octaedit.obj
 0001:000acfe0       ?countselchild@@YAXPAUcube@@ABUivec@@H@Z 004adfe0 f   octaedit.obj
 0001:000ad0f0       ?run@?$_icmd_havesel@$0NI@@@SAXXZ 004ae0f0 f   octaedit.obj
 0001:000ad110       ?blockcube@@YAAAUcube@@HHHABUblock3@@H@Z 004ae110 f   octaedit.obj
 0001:000ad1c0       ?run@?$_icmd_edittoggle@$0LN@@@SAXXZ 004ae1c0 f   octaedit.obj
 0001:000ad1d0       ?selextend@@YAXXZ          004ae1d0 f   octaedit.obj
 0001:000ad2b0       ?reorient@@YAXXZ           004ae2b0 f   octaedit.obj
 0001:000ad300       ?toggleedit@@YAX_N@Z       004ae300 f   octaedit.obj
 0001:000ad410       ?cancelsel@@YAXXZ          004ae410 f   octaedit.obj
 0001:000ad460       ?cubecancel@@YAXXZ         004ae460 f   octaedit.obj
 0001:000ad4a0       ?forcenextundo@@YAXXZ      004ae4a0 f   octaedit.obj
 0001:000ad4b0       ?var_hmapedit@@YAXXZ       004ae4b0 f   octaedit.obj
 0001:000ad4c0       ?var_gridpower@@YAXXZ      004ae4c0 f   octaedit.obj
 0001:000ad540       ?var_moving@@YAXXZ         004ae540 f   octaedit.obj
 0001:000ad630       ?var_dragging@@YAXXZ       004ae630 f   octaedit.obj
 0001:000ad690       ?boxsgrid@@YAXHUvec@@0H@Z  004ae690 f   octaedit.obj
 0001:000ad880       ?boxs3D@@YAXABUvec@@U1@H@Z 004ae880 f   octaedit.obj
 0001:000ad8f0       ?boxs@@YAXHUvec@@ABU1@@Z   004ae8f0 f   octaedit.obj
 0001:000ad9d0       ?commitchanges@@YAX_N@Z    004ae9d0 f   octaedit.obj
 0001:000ada50       ?noedit@@YA_N_N0@Z         004aea50 f   octaedit.obj
 0001:000ae160       ?recalc@@YAXXZ             004af160 f   octarender.obj
 0001:000ae170       ?precachetextures@@YAXXZ   004af170 f   octarender.obj
 0001:000ae340       ?findtjoints@@YAXHABUedgegroup@@@Z 004af340 f   octarender.obj
 0001:000ae4b0       ?addtjoint@@YAXABUedgegroup@@ABUcubeedge@@H@Z 004af4b0 f   octarender.obj
 0001:000ae590       ?updateva@@YAHPAUcube@@HHHHH@Z 004af590 f   octarender.obj
 0001:000ae9b0       ?var_vacubesize@@YAXXZ     004af9b0 f   octarender.obj
 0001:000aea50       ?var_vafacemin@@YAXXZ      004afa50 f   octarender.obj
 0001:000aeaf0       ?var_vafacemax@@YAXXZ      004afaf0 f   octarender.obj
 0001:000aecb0       ?setva@@YAXAAUcube@@HHHHH@Z 004afcb0 f   octarender.obj
 0001:000aeff0       ?calcmatbb@@YAXHHHHAAUivec@@0@Z 004afff0 f   octarender.obj
 0001:000af130       ?calcgeombb@@YAXHHHHAAUivec@@0@Z 004b0130 f   octarender.obj
 0001:000af290       ?rendercube@@YAXAAUcube@@HHHHHAAH@Z 004b0290 f   octarender.obj
 0001:000af520       ?addmergedverts@@YAXHABUivec@@@Z 004b0520 f   octarender.obj
 0001:000af750       ?findmergedfaces@@YAHAAUcube@@ABUivec@@HHH@Z 004b0750 f   octarender.obj
 0001:000af860       ?genmergedfaces@@YAHAAUcube@@ABUivec@@HH@Z 004b0860 f   octarender.obj
 0001:000afb40       ?updatevabb@@YAXPAUvtxarray@@_N@Z 004b0b40 f   octarender.obj
 0001:000afe40       ?clearvas@@YAXPAUcube@@@Z  004b0e40 f   octarender.obj
 0001:000aff30       ?newva@@YAPAUvtxarray@@HHHH@Z 004b0f30 f   octarender.obj
 0001:000b00f0       ?addskyverts@@YAXABUivec@@H@Z 004b10f0 f   octarender.obj
 0001:000b0560       ?genskyfaces@@YAXAAUcube@@ABUivec@@H@Z 004b1560 f   octarender.obj
 0001:000b06b0       ?minskyface@@YAXAAUcube@@HABUivec@@HAAUfacebounds@@@Z 004b16b0 f   octarender.obj
 0001:000b0970       ?gencubeverts@@YAXAAUcube@@HHHHH@Z 004b1970 f   octarender.obj
 0001:000b1230       ?gencubeedges@@YAXPAUcube@@HHHH@Z 004b2230 f   octarender.obj
 0001:000b1320       ?gencubeedges@@YAXAAUcube@@HHHH@Z 004b2320 f   octarender.obj
 0001:000b1a60       ?addcubeverts@@YAXAAUVSlot@@HHPAUvec@@HGGPAUvertinfo@@HHGH_NH@Z 004b2a60 f   octarender.obj
 0001:000b24d0       ?decodenormal@@YA?AUvec@@G@Z 004b34d0 f   octarender.obj
 0001:000b26e0       ?addgrasstri@@YAXHPAUvertex@@HGG@Z 004b36e0 f   octarender.obj
 0001:000b2e70       ?addtris@@YAXABUsortkey@@HPAUvertex@@PAHHHHH@Z 004b3e70 f   octarender.obj
 0001:000b3590       ?var_filltjoints@@YAXXZ    004b4590 f   octarender.obj
 0001:000b3630       ?calcshadowmask@@YAHPAUvec@@H@Z 004b4630 f   octarender.obj
 0001:000b3910       ?addvbo@@YAPAEPAUvtxarray@@HHH@Z 004b4910 f   octarender.obj
 0001:000b3980       ?flushvbo@@YAXH@Z          004b4980 f   octarender.obj
 0001:000b39f0       ?readva@@YA_NPAUvtxarray@@AAPAGAAPAE@Z 004b49f0 f   octarender.obj
 0001:000b3b10       ?genvbo@@YAXHPAXHPAPAUvtxarray@@H@Z 004b4b10 f   octarender.obj
 0001:000b3c80       ?destroyvbo@@YAXI@Z        004b4c80 f   octarender.obj
 0001:000b3d00       ?var_vbosize@@YAXXZ        004b4d00 f   octarender.obj
 0001:000b3da0       ?octarender@@YAXXZ         004b4da0 f   octarender.obj
 0001:000b3ee0       ?updatevabbs@@YAX_N@Z      004b4ee0 f   octarender.obj
 0001:000b4220       ?reduceslope@@YAXAAUivec@@@Z 004b5220 f   octarender.obj
 0001:000b42e0       ?findtjoints@@YAXXZ        004b52e0 f   octarender.obj
 0001:000b43c0       ?encodenormal@@YAGABUvec@@@Z 004b53c0 f   octarender.obj
 0001:000b4490       ?destroyva@@YAXPAUvtxarray@@_N@Z 004b5490 f   octarender.obj
 0001:000b45a0       ?allchanged@@YAX_N@Z       004b55a0 f   octarender.obj
 0001:000b9410       ?run@?$_icmd_attack@$0ICP@@@SAXPAH@Z 004ba410 f   physics.obj
 0001:000b9430       ?run@?$_icmd_jump@$0ICO@@@SAXPAH@Z 004ba430 f   physics.obj
 0001:000b9450       ?run@?$_icmd_right@$0ICM@@@SAXPAH@Z 004ba450 f   physics.obj
 0001:000b9480       ?run@?$_icmd_left@$0ICL@@@SAXPAH@Z 004ba480 f   physics.obj
 0001:000b94b0       ?run@?$_icmd_forward@$0ICK@@@SAXPAH@Z 004ba4b0 f   physics.obj
 0001:000b94e0       ?run@?$_icmd_backward@$0ICJ@@@SAXPAH@Z 004ba4e0 f   physics.obj
 0001:000b9510       ?moveplayer@@YAXPAUphysent@@H_N@Z 004ba510 f   physics.obj
 0001:000b95c0       ?interppos@@YAXPAUphysent@@@Z 004ba5c0 f   physics.obj
 0001:000b9670       ?physicsframe@@YAXXZ       004ba670 f   physics.obj
 0001:000b96d0       ?moveplayer@@YA_NPAUphysent@@H_NH@Z 004ba6d0 f   physics.obj
 0001:000b9b10       ?modifygravity@@YAXPAUphysent@@_NH@Z 004bab10 f   physics.obj
 0001:000b9d70       ?modifyvelocity@@YAXPAUphysent@@_N11H@Z 004bad70 f   physics.obj
 0001:000ba140       ?vecfromyawpitch@@YAXMMHHAAUvec@@@Z 004bb140 f   physics.obj
 0001:000ba290       ?phystest@@YAXXZ           004bb290 f   physics.obj
 0001:000ba3e0       ?dropheight@@YAMAAUentity@@@Z 004bb3e0 f   physics.obj
 0001:000ba470       ?droptofloor@@YA_NAAUvec@@MM@Z 004bb470 f   physics.obj
 0001:000ba6a0       ?movecamera@@YA_NPAUphysent@@ABUvec@@MM@Z 004bb6a0 f   physics.obj
 0001:000ba860       ?move@@YA_NPAUphysent@@AAUvec@@@Z 004bb860 f   physics.obj
 0001:000bad70       ?findfloor@@YA_NPAUphysent@@_NABUvec@@AA_NAAU2@@Z 004bbd70 f   physics.obj
 0001:000bb030       ?landing@@YAXPAUphysent@@AAUvec@@ABU2@_N@Z 004bc030 f   physics.obj
 0001:000bb080       ?falling@@YAXPAUphysent@@AAUvec@@ABU2@@Z 004bc080 f   physics.obj
 0001:000bb180       ?trystepdown@@YA_NPAUphysent@@AAUvec@@_N@Z 004bc180 f   physics.obj
 0001:000bb270       ?trystepdown@@YA_NPAUphysent@@AAUvec@@MMM_N@Z 004bc270 f   physics.obj
 0001:000bb6d0       ?trystepup@@YA_NPAUphysent@@AAUvec@@ABU2@M2@Z 004bc6d0 f   physics.obj
 0001:000bbdb0       ?switchfloor@@YAXPAUphysent@@AAUvec@@ABU2@@Z 004bcdb0 f   physics.obj
 0001:000bc140       ?slideagainst@@YAXPAUphysent@@AAUvec@@ABU2@_N3@Z 004bd140 f   physics.obj
 0001:000bc3f0       ?recalcdir@@YAXPAUphysent@@ABUvec@@AAU2@@Z 004bd3f0 f   physics.obj
 0001:000bc4d0       ?collide@@YA_NPAUphysent@@ABUvec@@M_N@Z 004bd4d0 f   physics.obj
 0001:000bcbf0       ?mmcollide@@YA_NPAUphysent@@ABUvec@@AAUoctaentities@@@Z 004bdbf0 f   physics.obj
 0001:000bcdb0       ?rotatebb@@YAXAAUvec@@0H@Z 004bddb0 f   physics.obj
 0001:000bcef0       ?plcollide@@YA_NPAUphysent@@ABUvec@@@Z 004bdef0 f   physics.obj
 0001:000bd1a0       ?updatedynentcache@@YAXPAUphysent@@@Z 004be1a0 f   physics.obj
 0001:000bd2e0       ?checkdynentcache@@YAABU?$vector@PAUphysent@@@@HH@Z 004be2e0 f   physics.obj
 0001:000bd460       ?var_dynentsize@@YAXXZ     004be460 f   physics.obj
 0001:000bd470       ?cleardynentcache@@YAXXZ   004be470 f   physics.obj
 0001:000bd4c0       ?rectcollide@@YA_NPAUphysent@@ABUvec@@1MMMME@Z 004be4c0 f   physics.obj
 0001:000bd860       ?ellipsecollide@@YA_NPAUphysent@@ABUvec@@11MMMMM@Z 004be860 f   physics.obj
 0001:000bdc90       ?ellipserectcollide@@YA_NPAUphysent@@ABUvec@@11MMMMM@Z 004bec90 f   physics.obj
 0001:000be170       ?rayfloor@@YAMABUvec@@AAU1@HM@Z 004bf170 f   physics.obj
 0001:000be220       ?raycubelos@@YA_NABUvec@@0AAU1@@Z 004bf220 f   physics.obj
 0001:000be370       ?raycubepos@@YAMABUvec@@0AAU1@MHH@Z 004bf370 f   physics.obj
 0001:000be410       ?raycube@@YAMABUvec@@0MHHPAUextentity@@@Z 004bf410 f   physics.obj
 0001:000bf3d0       ?entinmap@@YA_NPAUdynent@@_N@Z 004c03d0 f   physics.obj
 0001:000bf6d0       ?rayent@@YAMABUvec@@0MHHAAH1@Z 004c06d0 f   physics.obj
 0001:000bf790       ?resetclipplanes@@YAXXZ    004c0790 f   physics.obj
 0001:000bf7c0       ?pointincube@@YA_NABUclipplanes@@ABUvec@@@Z 004c07c0 f   physics.obj
 0001:000bf890       ?shadowray@@YAMPAUShadowRayCache@@ABUvec@@1MHPAUextentity@@@Z 004c0890 f   physics.obj
 0001:000c02b0       ?shadowray@@YAMABUvec@@0MHPAUextentity@@@Z 004c12b0 f   physics.obj
 0001:000c0c60       ?newshadowraycache@@YAPAUShadowRayCache@@XZ 004c1c60 f   physics.obj
 0001:000c0cc0       ?freeshadowraycache@@YAXAAPAUShadowRayCache@@@Z 004c1cc0 f   physics.obj
 0001:000c0ce0       ?resetshadowraycache@@YAXPAUShadowRayCache@@@Z 004c1ce0 f   physics.obj
 0001:000c0d10       ?dropenttofloor@@YAXPAUentity@@@Z 004c1d10 f   physics.obj
 0001:000c0e90       ?getnumviewcells@@YAHXZ    004c1e90 f   pvs.obj
 0001:000c0ea0       ?loadpvs@@YAXPAUstream@@H@Z 004c1ea0 f   pvs.obj
 0001:000c0fe0       ?loadviewcells@@YAPAUviewcellnode@@PAUstream@@@Z 004c1fe0 f   pvs.obj
 0001:000c10d0       ?savepvs@@YAXPAUstream@@@Z 004c20d0 f   pvs.obj
 0001:000c11b0       ?saveviewcells@@YAXPAUstream@@AAUviewcellnode@@@Z 004c21b0 f   pvs.obj
 0001:000c1210       ?waterpvsoccluded@@YA_NH@Z 004c2210 f   pvs.obj
 0001:000c1280       ?pvsoccluded@@YA_NABUivec@@0@Z 004c2280 f   pvs.obj
 0001:000c1520       ?pvsstats@@YAXXZ           004c2520 f   pvs.obj
 0001:000c1570       ?genpvs@@YAXPAH@Z          004c2570 f   pvs.obj
 0001:000c1c10       ?testpvs@@YAXPAH@Z         004c2c10 f   pvs.obj
 0001:000c20d0       ?clearpvs@@YAXXZ           004c30d0 f   pvs.obj
 0001:000c2130       ?setviewcell@@YAXABUvec@@@Z 004c3130 f   pvs.obj
 0001:000c21e0       ?var_lockpvs@@YAXXZ        004c31e0 f   pvs.obj
 0001:000c3140       ?mapname@@YAXXZ            004c4140 f   world.obj
 0001:000c3190       ?mapenlarge@@YAXXZ         004c4190 f   world.obj
 0001:000c31a0       ?newmap@@YAXPAH@Z          004c41a0 f   world.obj
 0001:000c31f0       ?shrinkmap@@YAXXZ          004c41f0 f   world.obj
 0001:000c3500       ?enlargemap@@YA_N_N@Z      004c4500 f   world.obj
 0001:000c36d0       ?resetmap@@YAXXZ           004c46d0 f   world.obj
 0001:000c37b0       ?splitocta@@YAXPAUcube@@H@Z 004c47b0 f   world.obj
 0001:000c3800       ?findplayerspawn@@YAXPAUdynent@@HH@Z 004c4800 f   world.obj
 0001:000c3990       ?findentity@@YAHHHHH@Z     004c4990 f   world.obj
 0001:000c39f0       ?entattr@@YAXPAH00@Z       004c49f0 f   world.obj
 0001:000c3e90       ?enttype@@YAXPADPAH@Z      004c4e90 f   world.obj
 0001:000c41e0       ?run@?$_icmd_entindex@$0EAF@@@SAXXZ 004c51e0 f   world.obj
 0001:000c4200       ?run@?$_icmd_entget@$0EAE@@@SAXXZ 004c5200 f   world.obj
 0001:000c4230       ?run@?$_icmd_insel@$0EAD@@@SAXXZ 004c5230 f   world.obj
 0001:000c4300       ?run@?$_icmd_entloop@$0EAC@@@SAXPAI@Z 004c5300 f   world.obj
 0001:000c4560       ?run@?$_icmd_entselect@$0EAB@@@SAXPAI@Z 004c5560 f   world.obj
 0001:000c4610       ?run@?$_icmd_enthavesel@$0EAA@@@SAXXZ 004c5610 f   world.obj
 0001:000c4670       ?nearestent@@YAXXZ         004c5670 f   world.obj
 0001:000c47a0       ?printent@@YAXAAUextentity@@PAD@Z 004c57a0 f   world.obj
 0001:000c4810       ?entset@@YAXPADPAH1111@Z   004c5810 f   world.obj
 0001:000c4c10       ?entpaste@@YAXXZ           004c5c10 f   world.obj
 0001:000c4f80       ?entcopy@@YAXXZ            004c5f80 f   world.obj
 0001:000c5080       ?newent@@YAXPADPAH1111@Z   004c6080 f   world.obj
 0001:000c50f0       ?newentity@@YAXHHHHHH@Z    004c60f0 f   world.obj
 0001:000c5200       ?newentity@@YAPAUextentity@@_NABUvec@@HHHHHHAAH@Z 004c6200 f   world.obj
 0001:000c53d0       ?attachent@@YAXXZ          004c63d0 f   world.obj
 0001:000c5720       ?dropent@@YAXXZ            004c6720 f   world.obj
 0001:000c5a70       ?dropentity@@YA_NAAUentity@@H@Z 004c6a70 f   world.obj
 0001:000c5c90       ?findtype@@YAHPAD@Z        004c6c90 f   world.obj
 0001:000c5d00       ?delent@@YAXXZ             004c6d00 f   world.obj
 0001:000c5ff0       ?entautoview@@YAXPAH@Z     004c6ff0 f   world.obj
 0001:000c6170       ?entpush@@YAXPAH@Z         004c7170 f   world.obj
 0001:000c66f0       ?var_entmoving@@YAXXZ      004c76f0 f   world.obj
 0001:000c6780       ?enttoggle@@YA_NH@Z        004c7780 f   world.obj
 0001:000c6830       ?renderentradius@@YAXAAUextentity@@_N@Z 004c7830 f   world.obj
 0001:000c6bd0       ?renderentcone@@YAXABUextentity@@ABUvec@@MM@Z 004c7bd0 f   world.obj
 0001:000c7140       ?renderentarrow@@YAXABUextentity@@ABUvec@@M@Z 004c8140 f   world.obj
 0001:000c7530       ?renderentattachment@@YAXABUextentity@@@Z 004c8530 f   world.obj
 0001:000c7560       ?renderentsphere@@YAXABUextentity@@M@Z 004c8560 f   world.obj
 0001:000c7630       ?renderentring@@YAXABUextentity@@MH@Z 004c8630 f   world.obj
 0001:000c76f0       ?entrotate@@YAXPAH@Z       004c86f0 f   world.obj
 0001:000c7ab0       ?entflip@@YAXXZ            004c8ab0 f   world.obj
 0001:000c7d10       ?attachentities@@YAXXZ     004c8d10 f   world.obj
 0001:000c7e60       ?attachentity@@YAXAAUextentity@@@Z 004c8e60 f   world.obj
 0001:000c7f60       ?detachentity@@YAXAAUextentity@@@Z 004c8f60 f   world.obj
 0001:000c7f80       ?makeundoent@@YAXXZ        004c8f80 f   world.obj
 0001:000c7fb0       ?newundoent@@YAPAUundoblock@@XZ 004c8fb0 f   world.obj
 0001:000c8050       ?entadd@@YAXH@Z            004c9050 f   world.obj
 0001:000c80a0       ?noentedit@@YA_NXZ         004c90a0 f   world.obj
 0001:000c80d0       ?var_entediting@@YAXXZ     004c90d0 f   world.obj
 0001:000c8100       ?entname@@YAPADAAUentity@@@Z 004c9100 f   world.obj
 0001:000c83e0       ?modifyoctaentity@@YAXHHAAUextentity@@PAUcube@@ABUivec@@H22HPAUvtxarray@@@Z 004c93e0 f   world.obj
 0001:000c88e0       ?getentboundingbox@@YA_NAAUextentity@@AAUivec@@1@Z 004c98e0 f   world.obj
 0001:000c8a30       ?entselectionbox@@YAXABUentity@@AAUvec@@1@Z 004c9a30 f   world.obj
 0001:000c8b40       ?pointinsel@@YA_NAAUselinfo@@AAUvec@@@Z 004c9b40 f   world.obj
 0001:000c8be0       ?entcancel@@YAXXZ          004c9be0 f   world.obj
 0001:000c8bf0       ?haveselent@@YA_NXZ        004c9bf0 f   world.obj
 0001:000c8c00       ?entdrag@@YAXABUvec@@@Z    004c9c00 f   world.obj
 0001:000c9190       ?hoveringonent@@YA_NHH@Z   004ca190 f   world.obj
 0001:000c9210       ?renderentselection@@YAXABUvec@@0_N@Z 004ca210 f   world.obj
 0001:000c9700       ?pasteundoents@@YAXPAUundoblock@@@Z 004ca700 f   world.obj
 0001:000c97f0       ?copyundoents@@YAPAUundoblock@@PAU1@@Z 004ca7f0 f   world.obj
 0001:000c98a0       ?freeoctaentities@@YAXAAUcube@@@Z 004ca8a0 f   world.obj
 0001:000c9930       ?emptymap@@YA_NH_NPBD0@Z   004ca930 f   world.obj
 0001:000c9ce0       ?entitiesinoctanodes@@YAXXZ 004cace0 f   world.obj
 0001:000c9ef0       ?startmap@@YAXPBD@Z        004caef0 f   world.obj
 0001:000ca430       ?writeobj@@YAXPAD@Z        004cb430 f   worldio.obj
 0001:000cb0d0       ?savemap@@YAXPAD@Z         004cc0d0 f   worldio.obj
 0001:000cb0e0       ?savecurrentmap@@YAXXZ     004cc0e0 f   worldio.obj
 0001:000cb0f0       ?load_world@@YA_NPBD0@Z    004cc0f0 f   worldio.obj
 0001:000cc110       ?save_world@@YA_NPBD_N@Z   004cd110 f   worldio.obj
 0001:000cc7c0       ?loadvslots@@YAXPAUstream@@H@Z 004cd7c0 f   worldio.obj
 0001:000cca70       ?loadvslot@@YAXPAUstream@@AAUVSlot@@H@Z 004cda70 f   worldio.obj
 0001:000ccda0       ?savevslots@@YAXPAUstream@@H@Z 004cdda0 f   worldio.obj
 0001:000ccec0       ?savevslot@@YAXPAUstream@@AAUVSlot@@H@Z 004cdec0 f   worldio.obj
 0001:000cd0f0       ?loadchildren@@YAPAUcube@@PAUstream@@ABUivec@@HAA_N@Z 004ce0f0 f   worldio.obj
 0001:000cd190       ?loadc@@YAXPAUstream@@AAUcube@@ABUivec@@HAA_N@Z 004ce190 f   worldio.obj
 0001:000ce2f0       ?convertoldsurfaces@@YAXAAUcube@@ABUivec@@HPAUsurfacecompat@@HPAUnormalscompat@@HPAUmergecompat@@H@Z 004cf2f0 f   worldio.obj
 0001:000cf170       ?savec@@YAXPAUcube@@ABUivec@@HPAUstream@@_N@Z 004d0170 f   worldio.obj
 0001:000cfc80       ?backup@@YAXPAD0@Z         004d0c80 f   worldio.obj
 0001:000cfce0       ?mapcfgname@@YAXXZ         004d0ce0 f   worldio.obj
 0001:000cfda0       ?setmapfilenames@@YAXPBD0@Z 004d0da0 f   worldio.obj
 0001:000cff90       ?getmapfilenames@@YAXPBD0PAD11@Z 004d0f90 f   worldio.obj
 0001:000d00c0       ?cutogz@@YAXPAD@Z          004d10c0 f   worldio.obj
 0001:000d00e0       ?clearmapcrc@@YAXXZ        004d10e0 f   worldio.obj
 0001:000d00f0       ?clientkeepalive@@YAXXZ    004d10f0 f   client.obj
 0001:000d0110       ?run@?$_icmd_localdisconnect@$0LI@@@SAXXZ 004d1110 f   client.obj
 0001:000d0120       ?run@?$_icmd_localconnect@$0LH@@@SAXXZ 004d1120 f   client.obj
 0001:000d0180       ?run@?$_icmd_disconnect@$0LG@@@SAXPAH@Z 004d1180 f   client.obj
 0001:000d0190       ?run@?$_icmd_lanconnect@$0LE@@@SAXPAHPAD@Z 004d1190 f   client.obj
 0001:000d01b0       ?run@?$_icmd_connect@$0LD@@@SAXPADPAH0@Z 004d11b0 f   client.obj
 0001:000d01d0       ?trydisconnect@@YAX_N@Z    004d11d0 f   client.obj
 0001:000d0270       ?disconnect@@YAX_N0@Z      004d1270 f   client.obj
 0001:000d0320       ?reconnect@@YAXPBD@Z       004d1320 f   client.obj
 0001:000d0350       ?connectserv@@YAXPBDH0@Z   004d1350 f   client.obj
 0001:000d0530       ?abortconnect@@YAXXZ       004d1530 f   client.obj
 0001:000d0580       ?run@?$_icmd_connectedport@$0DM@@@SAXXZ 004d1580 f   client.obj
 0001:000d05c0       ?run@?$_icmd_connectedip@$0DG@@@SAXXZ 004d15c0 f   client.obj
 0001:000d0650       ?connectedpeer@@YAPBU_ENetAddress@@XZ 004d1650 f   client.obj
 0001:000d0660       ?run@?$_icmd_isconnected@$0CK@@@SAXPAH0@Z 004d1660 f   client.obj
 0001:000d06b0       ?throttle@@YAXXZ           004d16b0 f   client.obj
 0001:000d06e0       ?var_throttle_decel@@YAXXZ 004d16e0 f   client.obj
 0001:000d0710       ?var_throttle_accel@@YAXXZ 004d1710 f   client.obj
 0001:000d0740       ?var_throttle_interval@@YAXXZ 004d1740 f   client.obj
 0001:000d0770       ?var_rate@@YAXXZ           004d1770 f   client.obj
 0001:000d07a0       ?setrate@@YAXH@Z           004d17a0 f   client.obj
 0001:000d07d0       ?isconnected@@YA_N_N0@Z    004d17d0 f   client.obj
 0001:000d0800       ?multiplayer@@YA_N_N@Z     004d1800 f   client.obj
 0001:000d0880       ?serveroption@@YA_NPAD@Z   004d1880 f   server.obj
 0001:000d0970       ?stoplistenserver@@YAXXZ   004d1970 f   server.obj
 0001:000d09b0       ?startlistenserver@@YAXPAH@Z 004d19b0 f   server.obj
 0001:000d0a20       ?initserver@@YAX_N0@Z      004d1a20 f   server.obj
 0001:000d0b20       ?setuplistenserver@@YA_N_N@Z 004d1b20 f   server.obj
 0001:000d0d00       ?servererror@@YA_N_NPBD@Z  004d1d00 f   server.obj
 0001:000d0d20       ?rundedicatedserver@@YAXXZ 004d1d20 f   server.obj
 0001:000d11b0       ?logoutfv@@YAXPBDPAD@Z     004d21b0 f   server.obj
 0001:000d1270       _WinMain@16                004d2270 f   server.obj
 0001:000d1b50       ?serverslice@@YAX_NI@Z     004d2b50 f   server.obj
 0001:000d1ea0       ?updatetime@@YAXXZ         004d2ea0 f   server.obj
 0001:000d1ee0       ?updatemasterserver@@YAXXZ 004d2ee0 f   server.obj
 0001:000d1f20       ?var_serverport@@YAXXZ     004d2f20 f   server.obj
 0001:000d1f30       ?var_maxclients@@YAXXZ     004d2f30 f   server.obj
 0001:000d1f50       ?checkserversockets@@YAXXZ 004d2f50 f   server.obj
 0001:000d21e0       ?flushmasterinput@@YAXXZ   004d31e0 f   server.obj
 0001:000d2260       ?flushmasteroutput@@YAXXZ  004d3260 f   server.obj
 0001:000d22e0       ?processmasterinput@@YAXXZ 004d32e0 f   server.obj
 0001:000d23f0       ?requestmasterf@@YA_NPBDZZ 004d33f0 f   server.obj
 0001:000d2430       ?requestmaster@@YA_NPBD@Z  004d3430 f   server.obj
 0001:000d24b0       ?connectmaster@@YAIXZ      004d34b0 f   server.obj
 0001:000d2540       ?var_masterport@@YAXXZ     004d3540 f   server.obj
 0001:000d2550       ?var_mastername@@YAXXZ     004d3550 f   server.obj
 0001:000d2560       ?disconnectmaster@@YAXXZ   004d3560 f   server.obj
 0001:000d25c0       ?process@@YAXPAU_ENetPacket@@HH@Z 004d35c0 f   server.obj
 0001:000d2620       ?kicknonlocalclients@@YAXH@Z 004d3620 f   server.obj
 0001:000d2700       ?disconnect_client@@YAXHH@Z 004d3700 f   server.obj
 0001:000d27d0       ?cleanupserver@@YAXXZ      004d37d0 f   server.obj
 0001:000d2830       ?delclient@@YAXPAUclient@@@Z 004d3830 f   server.obj
 0001:000d2880       ?addclient@@YAAAUclient@@H@Z 004d3880 f   server.obj
 0001:000d29c0       ?logoutf@@YAXPBDZZ         004d39c0 f   server.obj
 0001:000d29d0       ?setlogfile@@YAXPBD@Z      004d39d0 f   server.obj
 0001:000d2a40       ?getlogfile@@YAPAU_iobuf@@XZ 004d3a40 f   server.obj
 0001:000d2a50       ?closelogfile@@YAXXZ       004d3a50 f   server.obj
 0001:000d2a70       ?hasnonlocalclients@@YA_NXZ 004d3a70 f   server.obj
 0001:000d2a80       ?localdisconnect@@YAX_N@Z  004d3a80 f   server.obj
 0001:000d2b20       ?localconnect@@YAXXZ       004d3b20 f   server.obj
 0001:000d2b70       ?disconnectreason@@YAPBDH@Z 004d3b70 f   server.obj
 0001:000d2bf0       ?haslocalclients@@YA_NXZ   004d3bf0 f   server.obj
 0001:000d2ef0       ?writeservercfg@@YAXXZ     004d3ef0 f   serverbrowser.obj
 0001:000d2f00       ?run@?$_icmd_clearservers@$0CKG@@@SAXPAH@Z 004d3f00 f   serverbrowser.obj
 0001:000d2f10       ?run@?$_icmd_keepserver@$0CKF@@@SAXPBDPAH0@Z 004d3f10 f   serverbrowser.obj
 0001:000d2f40       ?run@?$_icmd_addserver@$0CKE@@@SAXPBDPAH0@Z 004d3f40 f   serverbrowser.obj
 0001:000d2f70       ?initservers@@YAXXZ        004d3f70 f   serverbrowser.obj
 0001:000d2fa0       ?updatefrommaster@@YAXXZ   004d3fa0 f   serverbrowser.obj
 0001:000d3050       ?retrieveservers@@YAXAAU?$vector@D@@@Z 004d4050 f   serverbrowser.obj
 0001:000d3270       ?clearservers@@YAX_N@Z     004d4270 f   serverbrowser.obj
 0001:000d3310       ?connectselected@@YAXXZ    004d4310 f   serverbrowser.obj
 0001:000d3340       ?showservers@@YAPBDPAUg3d_gui@@PAIHH@Z 004d4340 f   serverbrowser.obj
 0001:000d33c0       ?refreshservers@@YAXXZ     004d43c0 f   serverbrowser.obj
 0001:000d34a0       ?sortservers@@YAXXZ        004d44a0 f   serverbrowser.obj
 0001:000d34c0       ?checkpings@@YAXXZ         004d44c0 f   serverbrowser.obj
 0001:000d3750       ?checkresolver@@YAXXZ      004d4750 f   serverbrowser.obj
 0001:000d3840       ?pingservers@@YAXXZ        004d4840 f   serverbrowser.obj
 0001:000d3b70       ?connectthread@@YAHPAX@Z   004d4b70 f   serverbrowser.obj
 0001:000d3c70       ?resolvercheck@@YA_NPAPBDPAU_ENetAddress@@@Z 004d4c70 f   serverbrowser.obj
 0001:000d3d70       ?resolverquery@@YAXPBD@Z   004d4d70 f   serverbrowser.obj
 0001:000d3df0       ?resolverclear@@YAXXZ      004d4df0 f   serverbrowser.obj
 0001:000d3eb0       ?resolverstop@@YAXAAUresolverthread@@@Z 004d4eb0 f   serverbrowser.obj
 0001:000d3f00       ?resolverinit@@YAXXZ       004d4f00 f   serverbrowser.obj
 0001:000d3fa0       ?resolverloop@@YAHPAX@Z    004d4fa0 f   serverbrowser.obj
 0001:000d4120       ?connectwithtimeout@@YAHIPBDABU_ENetAddress@@@Z 004d5120 f   serverbrowser.obj
 0001:000d42a0       ?addserver@@YAXPBDH0_N@Z   004d52a0 f   serverbrowser.obj
 0001:000d4440       ?resolverwait@@YA_NPBDPAU_ENetAddress@@@Z 004d5440 f   serverbrowser.obj
 0001:000d5180       ?consolebox@@YAXHHHH@Z     004d6180 f   3dgui.obj
 0001:000d52f0       ?g3d_render@@YAXXZ         004d62f0 f   3dgui.obj
 0001:000d56c0       ?g3d_limitscale@@YAXM@Z    004d66c0 f   3dgui.obj
 0001:000d56d0       ?g3d_movecursor@@YA_NHH@Z  004d66d0 f   3dgui.obj
 0001:000d57a0       ?g3d_resetcursor@@YAXXZ    004d67a0 f   3dgui.obj
 0001:000d57c0       ?g3d_cursorpos@@YAXAAM0@Z  004d67c0 f   3dgui.obj
 0001:000d57f0       ?menukey@@YA_NH_NH@Z       004d67f0 f   3dgui.obj
 0001:000d5eb0       ?run@?$_icmd_textexec@$0CPN@@@SAXPAH@Z 004d6eb0 f   3dgui.obj
 0001:000d5f00       ?run@?$_icmd_textcurrentline@$0CPH@@@SAXXZ 004d6f00 f   3dgui.obj
 0001:000d5f30       ?run@?$_icmd_textclear@$0CPG@@@SAXXZ 004d6f30 f   3dgui.obj
 0001:000d5f60       ?run@?$_icmd_textselectall@$0CPF@@@SAXXZ 004d6f60 f   3dgui.obj
 0001:000d5fa0       ?run@?$_icmd_textmark@$0CPE@@@SAXPAH@Z 004d6fa0 f   3dgui.obj
 0001:000d6030       ?run@?$_icmd_textpaste@$0CPA@@@SAXXZ 004d7030 f   3dgui.obj
 0001:000d6080       ?run@?$_icmd_textcopy@$0COP@@@SAXXZ 004d7080 f   3dgui.obj
 0001:000d60d0       ?run@?$_icmd_textinit@$0COL@@@SAXPAD00@Z 004d70d0 f   3dgui.obj
 0001:000d61c0       ?run@?$_icmd_textload@$0COB@@@SAXPAD@Z 004d71c0 f   3dgui.obj
 0001:000d6240       ?run@?$_icmd_textsave@$0CNJ@@@SAXPAD@Z 004d7240 f   3dgui.obj
 0001:000d62b0       ?run@?$_icmd_textmode@$0CNF@@@SAXPAH@Z 004d72b0 f   3dgui.obj
 0001:000d62f0       ?run@?$_icmd_textprev@$0CNB@@@SAXXZ 004d72f0 f   3dgui.obj
 0001:000d6330       ?run@?$_icmd_textfocus@$0CNA@@@SAXPADPAH@Z 004d7330 f   3dgui.obj
 0001:000d6380       ?run@?$_icmd_textshow@$0CMM@@@SAXXZ 004d7380 f   3dgui.obj
 0001:000d63f0       ?run@?$_icmd_textlist@$0CMG@@@SAXXZ 004d73f0 f   3dgui.obj
 0001:000d67f0       ?g3d_windowhit@@YA_N_N0@Z  004d77f0 f   3dgui.obj
 0001:000d6880       ?g3d_addgui@@YAXPAUg3d_callback@@AAUvec@@H@Z 004d7880 f   3dgui.obj
 0001:000d6a70       ??0BIH@@QAE@PAU?$vector@Utri@BIH@@@@@Z 004d7a70 f   bih.obj
 0001:000d6f10       ?build@BIH@@QAEXAAU?$vector@UBIHNode@@@@PAGHABUvec@@2H@Z 004d7f10 f   bih.obj
 0001:000d7930       ?triintersect@BIH@@SA_NAAUtri@1@ABUvec@@1MAAMHPAU21@@Z 004d8930 f   bih.obj
 0001:000d7c90       ?mmintersect@@YA_NABUextentity@@ABUvec@@1MHAAM@Z 004d8c90 f   bih.obj
 0001:000d7fe0       ?flushblobs@@YAXXZ         004d8fe0 f   blob.obj
 0001:000d8000       ?renderblob@@YAXHABUvec@@MM@Z 004d9000 f   blob.obj
 0001:000d8070       ?initblobs@@YAXH@Z         004d9070 f   blob.obj
 0001:000d80d0       ?var_blobdyntris@@YAXXZ    004d90d0 f   blob.obj
 0001:000d8100       ?var_blobstattris@@YAXXZ   004d9100 f   blob.obj
 0001:000d8130       ?var_blobmargin@@YAXXZ     004d9130 f   blob.obj
 0001:000d8140       ?var_blobfadehigh@@YAXXZ   004d9140 f   blob.obj
 0001:000d8150       ?var_blobfadelow@@YAXXZ    004d9150 f   blob.obj
 0001:000d8160       ?var_blobheight@@YAXXZ     004d9160 f   blob.obj
 0001:000d8170       ?var_blobintensity@@YAXXZ  004d9170 f   blob.obj
 0001:000d8180       ?resetblobs@@YAXXZ         004d9180 f   blob.obj
 0001:000d8240       ?adddecal@@YAXHABUvec@@0MABUbvec@@H@Z 004d9240 f   decal.obj
 0001:000d8300       ?renderdecals@@YAX_N@Z     004d9300 f   decal.obj
 0001:000d8490       ?initdecals@@YAXXZ         004d9490 f   decal.obj
 0001:000d85d0       ?var_maxdecaltris@@YAXXZ   004d95d0 f   decal.obj
 0001:000d85e0       ?cleardecals@@YAXXZ        004d95e0 f   decal.obj
 0001:000d86e0       ?setdynlights@@YAHPAUvtxarray@@@Z 004d96e0 f   dynlight.obj
 0001:000d8c20       ?calcdynlightmask@@YAXPAUvtxarray@@@Z 004d9c20 f   dynlight.obj
 0001:000d8d60       ?dynlightreaching@@YAXABUvec@@AAU1@1_N@Z 004d9d60 f   dynlight.obj
 0001:000d8e90       ?getdynlight@@YA_NHAAUvec@@AAM0@Z 004d9e90 f   dynlight.obj
 0001:000d8ee0       ?finddynlights@@YAHXZ      004d9ee0 f   dynlight.obj
 0001:000d9240       ?updatedynlights@@YAXXZ    004da240 f   dynlight.obj
 0001:000d9360       ?cleardynlights@@YAXXZ     004da360 f   dynlight.obj
 0001:000d93f0       ?addglare@@YAXXZ           004da3f0 f   glare.obj
 0001:000d96b0       ?drawglaretex@@YAXXZ       004da6b0 f   glare.obj
 0001:000d9700       ?viewglaretex@@YAXXZ       004da700 f   glare.obj
 0001:000d9720       ?var_glaresize@@YAXXZ      004da720 f   glare.obj
 0001:000d9730       ?cleanupglare@@YAXXZ       004da730 f   glare.obj
 0001:000d9d50       ?rendergrass@@YAXXZ        004dad50 f   grass.obj
 0001:000da0f0       ?generategrass@@YAXXZ      004db0f0 f   grass.obj
 0001:000dbd00       ?var_grasscolour@@YAXXZ    004dcd00 f   grass.obj
 0001:000dc760       ?rendermaterials@@YAXXZ    004dd760 f   material.obj
 0001:000dda80       ?var_waterfallenv@@YAXXZ   004dea80 f   material.obj
 0001:000e0070       ?getglasscolor@@YAABUbvec@@H@Z 004e1070 f   material.obj
 0001:000e00a0       ?var_glass4colour@@YAXXZ   004e10a0 f   material.obj
 0001:000e00e0       ?var_glass3colour@@YAXXZ   004e10e0 f   material.obj
 0001:000e0120       ?var_glass2colour@@YAXXZ   004e1120 f   material.obj
 0001:000e0160       ?var_glasscolour@@YAXXZ    004e1160 f   material.obj
 0001:000e01a0       ?rendermatgrid@@YAXAAU?$vector@PAUmaterialsurface@@@@@Z 004e11a0 f   material.obj
 0001:000e0380       ?sortmaterials@@YAXAAU?$vector@PAUmaterialsurface@@@@@Z 004e1380 f   material.obj
 0001:000e0890       ?var_optmats@@YAXXZ        004e1890 f   material.obj
 0001:000e0c80       ?visiblematerial@@YAHABUcube@@HHHHHG@Z 004e1c80 f   material.obj
 0001:000e0d60       ?getmaterialdesc@@YAPBDHPBD@Z 004e1d60 f   material.obj
 0001:000e0e60       ?findmaterialname@@YAPBDH@Z 004e1e60 f   material.obj
 0001:000e1e90       ?optimizematsurfs@@YAHPAUmaterialsurface@@H@Z 004e2e90 f   material.obj
 0001:000e2160       ?genmatsurfs@@YAXABUcube@@HHHHAAU?$vector@Umaterialsurface@@@@@Z 004e3160 f   material.obj
 0001:000e22a0       ?setupmaterials@@YAXHH@Z   004e32a0 f   material.obj
 0001:000e2af0       ?findmaterial@@YAHPBD@Z    004e3af0 f   material.obj
 0001:000e2c50       ?gl_drawhud@@YAXHH@Z       004e3c50 f   rendergl.obj
 0001:000e37c0       ?drawcrosshair@@YAXHH@Z    004e47c0 f   rendergl.obj
 0001:000e3ac0       ?writecrosshairs@@YAXPAUstream@@@Z 004e4ac0 f   rendergl.obj
 0001:000e3d90       ?run@?$_icmd_getcrosshair@$0IPF@@@SAXPAH@Z 004e4d90 f   rendergl.obj
 0001:000e3e10       ?loadcrosshair_@@YAXPBDPAH@Z 004e4e10 f   rendergl.obj
 0001:000e3e80       ?loadcrosshair@@YAXPBDH@Z  004e4e80 f   rendergl.obj
 0001:000e3ee0       ?drawdamagescreen@@YAXHH@Z 004e4ee0 f   rendergl.obj
 0001:000e40f0       ?var_damagescreen@@YAXXZ   004e50f0 f   rendergl.obj
 0001:000e4110       ?drawdamagecompass@@YAXHH@Z 004e5110 f   rendergl.obj
 0001:000e43c0       ?gl_drawmainmenu@@YAXHH@Z  004e53c0 f   rendergl.obj
 0001:000e44c0       ?gl_drawframe@@YAXHH@Z     004e54c0 f   rendergl.obj
 0001:000e4dc0       ?addmotionblur@@YAXXZ      004e5dc0 f   rendergl.obj
 0001:000e5110       ?var_motionblur@@YAXXZ     004e6110 f   rendergl.obj
 0001:000e5160       ?drawminimap@@YAXXZ        004e6160 f   rendergl.obj
 0001:000e5190       ?clipminimap@@YAXAAUivec@@0PAUcube@@HHHH@Z 004e6190 f   rendergl.obj
 0001:000e52a0       ?var_minimapsize@@YAXXZ    004e62a0 f   rendergl.obj
 0001:000e52d0       ?var_minimapcolour@@YAXXZ  004e62d0 f   rendergl.obj
 0001:000e5300       ?drawcubemap@@YAXHABUvec@@MMABUcubemapside@@@Z 004e6300 f   rendergl.obj
 0001:000e55f0       ?drawreflection@@YAXM_NHABUbvec@@@Z 004e65f0 f   rendergl.obj
 0001:000e6260       ?rendergame@@YAX_N@Z       004e7260 f   rendergl.obj
 0001:000e62d0       ?drawfogoverlay@@YAXHMH@Z  004e72d0 f   rendergl.obj
 0001:000e69e0       ?var_fogcolour@@YAXXZ      004e79e0 f   rendergl.obj
 0001:000e6a10       ?setenvmatrix@@YAXXZ       004e7a10 f   rendergl.obj
 0001:000e6b10       ?popscissor@@YAXXZ         004e7b10 f   rendergl.obj
 0001:000e6b60       ?pushscissor@@YAHMMMM@Z    004e7b60 f   rendergl.obj
 0001:000e6d90       ?calcspherescissor@@YAXABUvec@@MAAM111@Z 004e7d90 f   rendergl.obj
 0001:000e7120       ?popprojection@@YAXXZ      004e8120 f   rendergl.obj
 0001:000e7180       ?pushprojection@@YAXABUglmatrixf@@@Z 004e8180 f   rendergl.obj
 0001:000e71e0       ?project@@YAXMMH_N00M@Z    004e81e0 f   rendergl.obj
 0001:000e7340       ?readmatrices@@YAXXZ       004e8340 f   rendergl.obj
 0001:000e73a0       ?recomputecamera@@YAXXZ    004e83a0 f   rendergl.obj
 0001:000e7990       ?mousemove@@YAXHH@Z        004e8990 f   rendergl.obj
 0001:000e7b70       ?fixcamerarange@@YAXXZ     004e8b70 f   rendergl.obj
 0001:000e7be0       ?isthirdperson@@YA_NXZ     004e8be0 f   rendergl.obj
 0001:000e7c10       ?computezoom@@YAXXZ        004e8c10 f   rendergl.obj
 0001:000e7da0       ?var_zoom@@YAXXZ           004e8da0 f   rendergl.obj
 0001:000e7dc0       ?transplayer@@YAXXZ        004e8dc0 f   rendergl.obj
 0001:000e7ea0       ?findorientation@@YAXXZ    004e8ea0 f   rendergl.obj
 0001:000e81b0       ?run@?$_icmd_getcampos@$0DEA@@@SAXXZ 004e91b0 f   rendergl.obj
 0001:000e8380       ?run@?$_icmd_getcamroll@$0DDL@@@SAXXZ 004e9380 f   rendergl.obj
 0001:000e83a0       ?run@?$_icmd_getcampitch@$0DDK@@@SAXXZ 004e93a0 f   rendergl.obj
 0001:000e83c0       ?run@?$_icmd_getcamyaw@$0DDJ@@@SAXXZ 004e93c0 f   rendergl.obj
 0001:000e8610       ?cleanupgl@@YAXXZ          004e9610 f   rendergl.obj
 0001:000e8690       ?gl_init@@YAXHHHHH@Z       004e9690 f   rendergl.obj
 0001:000e88c0       ?glext@@YAXPAD@Z           004e98c0 f   rendergl.obj
 0001:000e88f0       ?gl_checkextensions@@YAXXZ 004e98f0 f   rendergl.obj
 0001:000e9ba0       ?hasext@@YA_NPBD0@Z        004eaba0 f   rendergl.obj
 0001:000e9c90       ?getprocaddress@@YAPAXPBD@Z 004eac90 f   rendergl.obj
 0001:000e9ca0       ?cleanupmotionblur@@YAXXZ  004eaca0 f   rendergl.obj
 0001:000e9ce0       ?clearminimap@@YAXXZ       004eace0 f   rendergl.obj
 0001:000e9d10       ?defattrib@varray@@YAXHHI@Z 004ead10 f   rendergl.obj
 0001:000e9e10       ?begin@varray@@YAXI@Z      004eae10 f   rendergl.obj
 0001:000e9e20       ?end@varray@@YAHXZ         004eae20 f   rendergl.obj
 0001:000e9fc0       ?enable@varray@@YAXXZ      004eafc0 f   rendergl.obj
 0001:000ea000       ?disable@varray@@YAXXZ     004eb000 f   rendergl.obj
 0001:000ea080       ?drawglare@@YAXXZ          004eb080 f   rendergl.obj
 0001:000ea400       ?start@modelpreview@@YAX_N@Z 004eb400 f   rendergl.obj
 0001:000ea640       ?end@modelpreview@@YAXXZ   004eb640 f   rendergl.obj
 0001:000ea740       ?drawtextures@@YAXXZ       004eb740 f   rendergl.obj
 0001:000ea770       ?enablepolygonoffset@@YAXI@Z 004eb770 f   rendergl.obj
 0001:000ea870       ?disablepolygonoffset@@YAXI@Z 004eb870 f   rendergl.obj
 0001:000ea8f0       ?invalidatepostfx@@YAXXZ   004eb8f0 f   rendergl.obj
 0001:000eb940       ?setbbfrommodel@@YAXPAUdynent@@PBD@Z 004ec940 f   rendermodel.obj
 0001:000eba30       ?renderclient@@YAXPAUdynent@@PBDPAUmodelattach@@HHHHHM_N@Z 004eca30 f   rendermodel.obj
 0001:000ebd10       ?loadskin@@YAXPBD0AAPAUTexture@@1@Z 004ecd10 f   rendermodel.obj
 0001:000ebef0       ?run@?$_icmd_findanims@$0DPD@@@SAXPAD@Z 004ecef0 f   rendermodel.obj
 0001:000ec0f0       ?findanims@@YAXPBDAAU?$vector@H@@@Z 004ed0f0 f   rendermodel.obj
 0001:000ec140       ?matchanim@@YA_NPBD0@Z     004ed140 f   rendermodel.obj
 0001:000ec1c0       ?rendermodelquery@@YAXPAUmodel@@PAUdynent@@ABUvec@@M@Z 004ed1c0 f   rendermodel.obj
 0001:000ec3c0       ?endmodelquery@@YAXXZ      004ed3c0 f   rendermodel.obj
 0001:000ec4f0       ?startmodelquery@@YAXPAUoccludequery@@@Z 004ed4f0 f   rendermodel.obj
 0001:000ec500       ?endmodelbatches@@YAXXZ    004ed500 f   rendermodel.obj
 0001:000ecaf0       ?renderbatchedmodel@@YAXPAUmodel@@AAUbatchedmodel@@@Z 004edaf0 f   rendermodel.obj
 0001:000ecc60       ?addbatchedmodel@@YAAAUmodelbatch@@PAUmodel@@@Z 004edc60 f   rendermodel.obj
 0001:000ecd60       ?startmodelbatches@@YAXXZ  004edd60 f   rendermodel.obj
 0001:000ecd80       ?renderellipse@@YAXAAUvec@@MMM@Z 004edd80 f   rendermodel.obj
 0001:000ecee0       ?render3dbox@@YAXAAUvec@@MMMM@Z 004edee0 f   rendermodel.obj
 0001:000ed310       ?render2dbox@@YAXAAUvec@@MMM@Z 004ee310 f   rendermodel.obj
 0001:000ed400       ?modeloccluded@@YA_NABUvec@@M@Z 004ee400 f   rendermodel.obj
 0001:000ed4c0       ?clearmodel@@YAXPAD@Z      004ee4c0 f   rendermodel.obj
 0001:000ed560       ?cleanupmodels@@YAXXZ      004ee560 f   rendermodel.obj
 0001:000ed5a0       ?clear_mdls@@YAXXZ         004ee5a0 f   rendermodel.obj
 0001:000ed5f0       ?preloadmodelshaders@@YAXXZ 004ee5f0 f   rendermodel.obj
 0001:000ed640       ?run@?$_icmd_nummapmodels@$0BGA@@@SAXXZ 004ee640 f   rendermodel.obj
 0001:000ed660       ?run@?$_icmd_mapmodelname@$0BFP@@@SAXPAH@Z 004ee660 f   rendermodel.obj
 0001:000ed6e0       ?getmminfo@@YAPAUmapmodelinfo@@H@Z 004ee6e0 f   rendermodel.obj
 0001:000ed700       ?mapmodelreset@@YAXPAH@Z   004ee700 f   rendermodel.obj
 0001:000ed730       ?mapmodelcompat@@YAXPAH00PAD1@Z 004ee730 f   rendermodel.obj
 0001:000ed740       ?mmodel@@YAXPAD@Z          004ee740 f   rendermodel.obj
 0001:000ed7a0       ?rdanimjoints@@YAXPAH@Z    004ee7a0 f   rendermodel.obj
 0001:000ed860       ?rdlimitrot@@YAXPAH0PAM1111@Z 004ee860 f   rendermodel.obj
 0001:000ed9e0       ?rdlimitdist@@YAXPAH0PAM1@Z 004ee9e0 f   rendermodel.obj
 0001:000edaf0       ?rdjoint@@YAXPAH0000@Z     004eeaf0 f   rendermodel.obj
 0001:000edc10       ?rdtri@@YAXPAH00@Z         004eec10 f   rendermodel.obj
 0001:000edd00       ?rdeye@@YAXPAH@Z           004eed00 f   rendermodel.obj
 0001:000eddc0       ?rdvert@@YAXPAM000@Z       004eedc0 f   rendermodel.obj
 0001:000edf00       ?mdlname@@YAXXZ            004eef00 f   rendermodel.obj
 0001:000edf30       ?mdlextendbb@@YAXPAM00@Z   004eef30 f   rendermodel.obj
 0001:000edf90       ?mdlbb@@YAXPAM00@Z         004eef90 f   rendermodel.obj
 0001:000edfd0       ?mdlshadow@@YAXPAH@Z       004eefd0 f   rendermodel.obj
 0001:000ee000       ?mdlpitch@@YAXPAM@Z        004ef000 f   rendermodel.obj
 0001:000ee030       ?mdlyaw@@YAXPAM@Z          004ef030 f   rendermodel.obj
 0001:000ee060       ?mdltrans@@YAXPAM00@Z      004ef060 f   rendermodel.obj
 0001:000ee0c0       ?mdlscale@@YAXPAH@Z        004ef0c0 f   rendermodel.obj
 0001:000ee110       ?mdlspin@@YAXPAM0@Z        004ef110 f   rendermodel.obj
 0001:000ee150       ?mdlshader@@YAXPAD@Z       004ef150 f   rendermodel.obj
 0001:000ee1a0       ?mdlfullbright@@YAXPAM@Z   004ef1a0 f   rendermodel.obj
 0001:000ee1d0       ?mdlenvmap@@YAXPAM0PAD@Z   004ef1d0 f   rendermodel.obj
 0001:000ee230       ?mdlglare@@YAXPAM0@Z       004ef230 f   rendermodel.obj
 0001:000ee280       ?mdlglow@@YAXPAH0PAM@Z     004ef280 f   rendermodel.obj
 0001:000ee310       ?mdldepthoffset@@YAXPAH@Z  004ef310 f   rendermodel.obj
 0001:000ee340       ?mdlalphadepth@@YAXPAH@Z   004ef340 f   rendermodel.obj
 0001:000ee370       ?mdlalphablend@@YAXPAH@Z   004ef370 f   rendermodel.obj
 0001:000ee3a0       ?mdlalphatest@@YAXPAM@Z    004ef3a0 f   rendermodel.obj
 0001:000ee3f0       ?mdlambient@@YAXPAH@Z      004ef3f0 f   rendermodel.obj
 0001:000ee450       ?mdlspec@@YAXPAH@Z         004ef450 f   rendermodel.obj
 0001:000ee4b0       ?mdlellipsecollide@@YAXPAH@Z 004ef4b0 f   rendermodel.obj
 0001:000ee4e0       ?mdlcollide@@YAXPAH@Z      004ef4e0 f   rendermodel.obj
 0001:000ee510       ?mdlcullface@@YAXPAH@Z     004ef510 f   rendermodel.obj
 0001:000ee950       ?var_bumpmodels@@YAXXZ     004ef950 f   rendermodel.obj
 0001:000ee960       ?var_glowmodels@@YAXXZ     004ef960 f   rendermodel.obj
 0001:000ee970       ?var_envmapmodels@@YAXXZ   004ef970 f   rendermodel.obj
 0001:000ee980       ?var_lightmodels@@YAXXZ    004ef980 f   rendermodel.obj
 0001:000ee990       ?cleanragdoll@@YAXPAUdynent@@@Z 004ef990 f   rendermodel.obj
 0001:000ee9b0       ?rendermodel@@YAXPAUentitylight@@PBDHABUvec@@MMHPAUdynent@@PAUmodelattach@@HHM@Z 004ef9b0 f   rendermodel.obj
 0001:000ef5e0       ?flushpreloadedmodels@@YAX_N@Z 004f05e0 f   rendermodel.obj
 0001:000ef6a0       ?preloadusedmapmodels@@YAX_N0@Z 004f06a0 f   rendermodel.obj
 0001:000ef850       ?loadmodel@@YAPAUmodel@@PBDH_N@Z 004f0850 f   rendermodel.obj
 0001:000efee0       ?updateparticles@@YAXXZ    004f0ee0 f   renderparticles.obj
 0001:000f0b30       ?regularshape@@YAXHHHHHHABUvec@@MHH@Z 004f1b30 f   renderparticles.obj
 0001:000f14d0       ?particle_flare@@YAXABUvec@@0HHHMPAUphysent@@@Z 004f24d0 f   renderparticles.obj
 0001:000f1510       ?particle_meter@@YAXABUvec@@MHHHHM@Z 004f2510 f   renderparticles.obj
 0001:000f15a0       ?particle_textcopy@@YAXABUvec@@PBDHHHMH@Z 004f25a0 f   renderparticles.obj
 0001:000f1690       ?particle_splash@@YAXHHHABUvec@@HMHH@Z 004f2690 f   renderparticles.obj
 0001:000f16d0       ?regular_particle_splash@@YAXHHHABUvec@@HMHHH@Z 004f26d0 f   renderparticles.obj
 0001:000f1740       ?canaddparticles@@YA_NXZ   004f2740 f   renderparticles.obj
 0001:000f1ab0       ?cleanupparticles@@YAXXZ   004f2ab0 f   renderparticles.obj
 0001:000f1ad0       ?particleinit@@YAXXZ       004f2ad0 f   renderparticles.obj
 0001:000f1b80       ?var_fewparticles@@YAXXZ   004f2b80 f   renderparticles.obj
 0001:000f1b90       ?var_maxparticles@@YAXXZ   004f2b90 f   renderparticles.obj
 0001:000f3f70       ?binddepthfxparams@@YAXMM_NPAX@Z 004f4f70 f   renderparticles.obj
 0001:000f42b0       ?binddepthfxtex@@YA_NXZ    004f52b0 f   renderparticles.obj
 0001:000f43d0       ?cleanupdepthfx@@YAXXZ     004f53d0 f   renderparticles.obj
 0001:000f4470       ?var_depthfxfilter@@YAXXZ  004f5470 f   renderparticles.obj
 0001:000f4480       ?var_depthfxrect@@YAXXZ    004f5480 f   renderparticles.obj
 0001:000f4490       ?var_depthfxsize@@YAXXZ    004f5490 f   renderparticles.obj
 0001:000f44a0       ?var_fpdepthfx@@YAXXZ      004f54a0 f   renderparticles.obj
 0001:000f44b0       ?addparticleemitters@@YAXXZ 004f54b0 f   renderparticles.obj
 0001:000f45c0       ?finddepthfxranges@@YAXXZ  004f55c0 f   renderparticles.obj
 0001:000f4750       ?renderparticles@@YAX_N@Z  004f5750 f   renderparticles.obj
 0001:000f4fe0       ?drawdepthfxtex@@YAXXZ     004f5fe0 f   renderparticles.obj
 0001:000f5050       ?viewdepthfxtex@@YAXXZ     004f6050 f   renderparticles.obj
 0001:000f5070       ?clearparticleemitters@@YAXXZ 004f6070 f   renderparticles.obj
 0001:000f5090       ?printparticles@@YA_NAAUextentity@@PAD@Z 004f6090 f   renderparticles.obj
 0001:000f51c0       ?clearparticles@@YAXXZ     004f61c0 f   renderparticles.obj
 0001:000f5200       ?seedparticles@@YAXXZ      004f6200 f   renderparticles.obj
 0001:000f58d0       ?drawskyoutline@@YAXXZ     004f68d0 f   rendersky.obj
 0001:000f59f0       ?drawskylimits@@YA_N_N@Z   004f69f0 f   rendersky.obj
 0001:000f5a60       ?cleanupsky@@YAXXZ         004f6a60 f   rendersky.obj
 0001:000f5cc0       ?var_fogdomecolour@@YAXXZ  004f6cc0 f   rendersky.obj
 0001:000f6810       ?draw_env_overlay@@YAXHPAUTexture@@MM@Z 004f7810 f   rendersky.obj
 0001:000f6c00       ?draw_envbox@@YAXHMMHPAPAUTexture@@@Z 004f7c00 f   rendersky.obj
 0001:000f6f70       ?draw_envbox_face@@YAXMMHHHMMHHHMMHHHMMHHHI@Z 004f7f70 f   rendersky.obj
 0001:000f70f0       ?var_cloudlayer@@YAXXZ     004f80f0 f   rendersky.obj
 0001:000f7110       ?var_cloudbox@@YAXXZ       004f8110 f   rendersky.obj
 0001:000f7130       ?var_skybox@@YAXXZ         004f8130 f   rendersky.obj
 0001:000f7150       ?loadskyoverlay@@YAPAUTexture@@PBD@Z 004f8150 f   rendersky.obj
 0001:000f7240       ?loadsky@@YAXPBDQAPAUTexture@@@Z 004f8240 f   rendersky.obj
 0001:000f7440       ?drawskybox@@YAXH_N@Z      004f8440 f   rendersky.obj
 0001:000f7e20       ?limitsky@@YA_NXZ          004f8e20 f   rendersky.obj
 0001:000f7f20       ?reloadfonts@@YAXXZ        004f8f20 f   rendertext.obj
 0001:000f8530       ?tabify@@YAXPBDPAH@Z       004f9530 f   rendertext.obj
 0001:000f8630       ?setfont@@YA_NPBD@Z        004f9630 f   rendertext.obj
 0001:000f8660       ?fontalias@@YAXPBD0@Z      004f9660 f   rendertext.obj
 0001:000f86d0       ?fontskip@@YAXPAH@Z        004f96d0 f   rendertext.obj
 0001:000f8740       ?fontchar@@YAXPAH000000@Z  004f9740 f   rendertext.obj
 0001:000f87f0       ?fonttex@@YAXPAD@Z         004f97f0 f   rendertext.obj
 0001:000f8870       ?fontscale@@YAXPAH@Z       004f9870 f   rendertext.obj
 0001:000f8890       ?fontoffset@@YAXPAD@Z      004f9890 f   rendertext.obj
 0001:000f88b0       ?newfont@@YAXPAD0PAH1@Z    004f98b0 f   rendertext.obj
 0001:000f89d0       ?gettextres@@YAXAAH0@Z     004f99d0 f   rendertext.obj
 0001:000f8a20       ?draw_textf@@YAXPBDHHZZ    004f9a20 f   rendertext.obj
 0001:000f8a90       ?text_posf@@YAXPBDHAAM1H@Z 004f9a90 f   rendertext.obj
 0001:000f8d90       ?text_visible@@YAHPBDMMH@Z 004f9d90 f   rendertext.obj
 0001:000f9040       ?text_boundsf@@YAXPBDAAM1H@Z 004fa040 f   rendertext.obj
 0001:000f9230       ?draw_text@@YAXPBDHHHHHHHH@Z 004fa230 f   rendertext.obj
 0001:000f9810       ?text_widthf@@YAMPBD@Z     004fa810 f   rendertext.obj
 0001:000f99a0       ?renderreflectedskyvas@@YAXAAU?$vector@PAUvtxarray@@@@H@Z 004fa9a0 f   renderva.obj
 0001:000f9ab0       ?renderskyva@@YAXPAUvtxarray@@_N@Z 004faab0 f   renderva.obj
 0001:000f9ba0       ?findreflectedvas@@YAXAAU?$vector@PAUvtxarray@@@@H@Z 004faba0 f   renderva.obj
 0001:000fa080       ?cleanupTMUs@@YAXAAUrenderstate@@M_N@Z 004fb080 f   renderva.obj
 0001:000fa260       ?setupTMUs@@YAXAAUrenderstate@@M_N@Z 004fb260 f   renderva.obj
 0001:000fa8d0       ?setupcaustics@@YAXHMPAM@Z 004fb8d0 f   renderva.obj
 0001:000faec0       ?var_caustics@@YAXXZ       004fbec0 f   renderva.obj
 0001:000faed0       ?cleanupva@@YAXXZ          004fbed0 f   renderva.obj
 0001:000fb2e0       ?renderva@@YAXAAUrenderstate@@PAUvtxarray@@H_N2@Z 004fc2e0 f   renderva.obj
 0001:000fb700       ?rendershadowmappass@@YAXAAUrenderstate@@PAUvtxarray@@@Z 004fc700 f   renderva.obj
 0001:000fb7e0       ?renderfoggedvas@@YAXAAUrenderstate@@_N@Z 004fc7e0 f   renderva.obj
 0001:000fb9a0       ?renderzpass@@YAXAAUrenderstate@@PAUvtxarray@@@Z 004fc9a0 f   renderva.obj
 0001:000fe260       ?renderquery@@YAXAAUrenderstate@@PAUoccludequery@@PAUvtxarray@@_N@Z 004ff260 f   renderva.obj
 0001:000fe3b0       ?rendershadowmapreceivers@@YAXXZ 004ff3b0 f   renderva.obj
 0001:000fe7b0       ?rendermapmodel@@YAXAAUextentity@@@Z 004ff7b0 f   renderva.obj
 0001:000fe820       ?findvisiblemms@@YAXABU?$vector@PAUextentity@@@@@Z 004ff820 f   renderva.obj
 0001:000feb10       ?clearqueries@@YAXXZ       004ffb10 f   renderva.obj
 0001:000feb60       ?flipqueries@@YAXXZ        004ffb60 f   renderva.obj
 0001:000fec40       ?restorevfcP@@YAXXZ        004ffc40 f   renderva.obj
 0001:000fec60       ?savevfcP@@YAXXZ           004ffc60 f   renderva.obj
 0001:000fec80       ?setvfcP@@YAXMABUvec@@0@Z  004ffc80 f   renderva.obj
 0001:000ff300       ?calcvfcD@@YAXXZ           00500300 f   renderva.obj
 0001:000ff3c0       ?findvisiblevas@@YAXAAU?$vector@PAUvtxarray@@@@_N@Z 005003c0 f   renderva.obj
 0001:000ff4a0       ?sortvisiblevas@@YAXXZ     005004a0 f   renderva.obj
 0001:000ff4e0       ?addvisibleva@@YAXPAUvtxarray@@@Z 005004e0 f   renderva.obj
 0001:000ff610       ?vadist@@YAMPAUvtxarray@@ABUvec@@@Z 00500610 f   renderva.obj
 0001:000ff6f0       ?isvisiblecube@@YAHABUivec@@H@Z 005006f0 f   renderva.obj
 0001:000ff9a0       ?rendersky@@YA_N_N@Z       005009a0 f   renderva.obj
 0001:000ffae0       ?renderdepthobstacles@@YAXABUvec@@0MPAMH@Z 00500ae0 f   renderva.obj
 0001:00100320       ?bboccluded@@YA_NABUivec@@0@Z 00501320 f   renderva.obj
 0001:00100510       ?newquery@@YAPAUoccludequery@@PAX@Z 00501510 f   renderva.obj
 0001:00100570       ?drawbb@@YAXABUivec@@0ABUvec@@@Z 00501570 f   renderva.obj
 0001:00100af0       ?checkquery@@YA_NPAUoccludequery@@_N@Z 00501af0 f   renderva.obj
 0001:00100b50       ?rendergeom@@YAXM_N@Z      00501b50 f   renderva.obj
 0001:001021a0       ?renderreflectedmapmodels@@YAXXZ 005031a0 f   renderva.obj
 0001:00102390       ?renderalphageom@@YAX_N@Z  00503390 f   renderva.obj
 0001:00102aa0       ?renderreflectedgeom@@YAX_N0@Z 00503aa0 f   renderva.obj
 0001:00102af0       ?visiblecubes@@YAX_N@Z     00503af0 f   renderva.obj
 0001:00102c20       ?rendermapmodels@@YAXXZ    00503c20 f   renderva.obj
 0001:00102ff0       ?renderoutline@@YAXXZ      00503ff0 f   renderva.obj
 0001:001032f0       ?getnumqueries@@YAHXZ      005042f0 f   renderva.obj
 0001:00103310       ?loadcaustics@@YAX_N@Z     00504310 f   renderva.obj
 0001:001033e0       ?isfoggedsphere@@YA_NMABUvec@@@Z 005043e0 f   renderva.obj
 0001:00103480       ?resetqueries@@YAXXZ       00504480 f   renderva.obj
 0001:001034b0       ?isvisiblesphere@@YAHMABUvec@@@Z 005044b0 f   renderva.obj
 0001:00103540       ?renderblendbrush@@YAXIMMMM@Z 00504540 f   renderva.obj
 0001:00103ed0       ?reloadshaders@@YAXXZ      00504ed0 f   shader.obj
 0001:00104060       ?cleanupshaders@@YAXXZ     00505060 f   shader.obj
 0001:001042b0       ?committmufunc@@YAXI_NAAUtmufunc@@1@Z 005052b0 f   shader.obj
 0001:00104420       ?parsetmufunc@@YAXAAUtmu@@AAUtmufunc@@PBD@Z 00505420 f   shader.obj
 0001:00104660       ?run@?$_icmd_setpostfx@$0IAO@@@SAXPADPAM111@Z 00505660 f   shader.obj
 0001:001046e0       ?run@?$_icmd_addpostfx@$0IAI@@@SAXPADPAH10PAM222@Z 005056e0 f   shader.obj
 0001:001047d0       ?clearpostfx@@YAXXZ        005057d0 f   shader.obj
 0001:001048a0       ?cleanuppostfx@@YAX_N@Z    005058a0 f   shader.obj
 0001:00104ad0       ?run@?$_icmd_defuniformparam@$0HEO@@@SAXPADPAM111@Z 00505ad0 f   shader.obj
 0001:00104c30       ?run@?$_icmd_defpixelparam@$0HEN@@@SAXPADPAHPAM222@Z 00505c30 f   shader.obj
 0001:00104c90       ?run@?$_icmd_defvertexparam@$0HEM@@@SAXPADPAHPAM222@Z 00505c90 f   shader.obj
 0001:00104e20       ?run@?$_icmd_setshaderparam@$0HEL@@@SAXPADPAM111@Z 00505e20 f   shader.obj
 0001:00104f80       ?run@?$_icmd_setuniformparam@$0HEK@@@SAXPADPAM111@Z 00505f80 f   shader.obj
 0001:001050e0       ?run@?$_icmd_setpixelparam@$0HEJ@@@SAXPAHPAM111@Z 005060e0 f   shader.obj
 0001:00105130       ?run@?$_icmd_setvertexparam@$0HEI@@@SAXPAHPAM111@Z 00506130 f   shader.obj
 0001:00105270       ?addshaderparam@@YAXPBDHHMMMM@Z 00506270 f   shader.obj
 0001:001053e0       ?isshadernative@@YAXPAD@Z  005063e0 f   shader.obj
 0001:00105430       ?isshaderdefined@@YAXPAD@Z 00506430 f   shader.obj
 0001:00105470       ?run@?$_icmd_forceshader@$0HBE@@@SAXPBD@Z 00506470 f   shader.obj
 0001:001054b0       ?fastshader@@YAXPAD0PAH@Z  005064b0 f   shader.obj
 0001:00105520       ?altshader@@YAXPAD0@Z      00506520 f   shader.obj
 0001:00105550       ?linkvslotshader@@YAXAAUVSlot@@_N@Z 00506550 f   shader.obj
 0001:00105710       ?linkslotshader@@YAXAAUSlot@@_N@Z 00506710 f   shader.obj
 0001:00105850       ?setslotshader@@YAXAAUSlot@@@Z 00506850 f   shader.obj
 0001:001058e0       ?resetslotshader@@YAXXZ    005068e0 f   shader.obj
 0001:00105900       ?findshaderparam@@YAPAUShaderParam@@AAUVSlot@@PBDHH@Z 00506900 f   shader.obj
 0001:00105a40       ?findshaderparam@@YAPAUShaderParam@@AAUSlot@@PBDHH@Z 00506a40 f   shader.obj
 0001:00105b20       ?setshader@@YAXPAD@Z       00506b20 f   shader.obj
 0001:00105b70       ?variantshader@@YAXPAHPAD011@Z 00506b70 f   shader.obj
 0001:00105ee0       ?shader@@YAXPAHPAD11@Z     00506ee0 f   shader.obj
 0001:001062b0       ?fixdetailshader@Shader@@QAEX_N0@Z 005072b0 f   shader.obj
 0001:00106390       ?var_shaderdetail@@YAXXZ   00507390 f   shader.obj
 0001:001063a0       ?var_nativeshaders@@YAXXZ  005073a0 f   shader.obj
 0001:001063b0       ?fixshaderdetail@@YAXXZ    005073b0 f   shader.obj
 0001:00106450       ?useshader@@YAXPAUShader@@@Z 00507450 f   shader.obj
 0001:00106510       ?defershader@@YAXPAHPBD1@Z 00507510 f   shader.obj
 0001:00108a50       ?genemufog@@YAXAAU?$vector@D@@0HH@Z 00509a50 f   shader.obj
 0001:00108f70       ?newshader@@YAPAUShader@@HPBD00PAU1@H@Z 00509f70 f   shader.obj
 0001:00109860       ?cleanup@Shader@@QAEX_N@Z  0050a860 f   shader.obj
 0001:00109a60       ?compile@Shader@@QAE_NXZ   0050aa60 f   shader.obj
 0001:00109c60       ?var_forceglsl@@YAXXZ      0050ac60 f   shader.obj
 0001:00109c80       ?var_shaderprecision@@YAXXZ 0050ac80 f   shader.obj
 0001:00109ca0       ?var_shaders@@YAXXZ        0050aca0 f   shader.obj
 0001:0010a2f0       ?allocenvparams@Shader@@QAEXPAUSlot@@@Z 0050b2f0 f   shader.obj
 0001:0010b410       ?loadshaders@@YAXXZ        0050c410 f   shader.obj
 0001:0010b680       ?setslotparams@Shader@@QAEXAAUSlot@@AAUVSlot@@@Z 0050c680 f   shader.obj
 0001:0010b6c0       ?invalidateenvparams@@YAXHHH@Z 0050c6c0 f   shader.obj
 0001:0010b6f0       ?setlocalparamfv@@YAXPBDHHPBM@Z 0050c6f0 f   shader.obj
 0001:0010b720       ?scaletmu@@YAXHHH@Z        0050c720 f   shader.obj
 0001:0010b760       ?uniformlocversion@Shader@@SAHXZ 0050c760 f   shader.obj
 0001:0010b7e0       ?inittmus@@YAXXZ           0050c7e0 f   shader.obj
 0001:0010b930       ?renderpostfx@@YAXXZ       0050c930 f   shader.obj
 0001:0010c130       ?setupshaders@@YAXXZ       0050d130 f   shader.obj
 0001:0010c310       ?checkglslsupport@@YA_NXZ  0050d310 f   shader.obj
 0001:0010c420       ?colortmu@@YAXHMMMM@Z      0050d420 f   shader.obj
 0001:0010c4c0       ?setupblurkernel@@YAXHMPAM0@Z 0050d4c0 f   shader.obj
 0001:0010c8f0       ?setblurshader@@YAXHHHPAM0I@Z 0050d8f0 f   shader.obj
 0001:0010cf50       ?setlocalparamf@@YAXPBDHHMMMM@Z 0050df50 f   shader.obj
 0001:0010d020       ?setenvparamf@@YAXPBDHHMMMM@Z 0050e020 f   shader.obj
 0001:0010d0f0       ?setuptmu@@YAXHPBD0@Z      0050e0f0 f   shader.obj
 0001:0010d240       ?resettmu@@YAXH@Z          0050e240 f   shader.obj
 0001:0010d2c0       ?useshaderbyname@@YAPAUShader@@PBD@Z 0050e2c0 f   shader.obj
 0001:0010d300       ?flushenvparams@Shader@@QAEXPAUSlot@@@Z 0050e300 f   shader.obj
 0001:0010d410       ?bindprograms@Shader@@QAEXXZ 0050e410 f   shader.obj
 0001:0010d480       ?getshaderparamname@@YAPBDPBD@Z 0050e480 f   shader.obj
 0001:0010d4f0       ?lookupshaderbyname@@YAPAUShader@@PBD@Z 0050e4f0 f   shader.obj
 0001:0010d560       ?calcshadowmapbb@@YAXABUvec@@MMAAM111@Z 0050e560 f   shadowmap.obj
 0001:0010df00       ?cleanshadowmap@@YAXXZ     0050ef00 f   shadowmap.obj
 0001:0010dfa0       ?var_shadowmapangle@@YAXXZ 0050efa0 f   shadowmap.obj
 0001:0010dfb0       ?setshadowdir@@YAXH@Z      0050efb0 f   shadowmap.obj
 0001:0010e060       ?var_shadowmapambient@@YAXXZ 0050f060 f   shadowmap.obj
 0001:0010e0b0       ?var_shadowmapprecision@@YAXXZ 0050f0b0 f   shadowmap.obj
 0001:0010e0c0       ?var_fpshadowmap@@YAXXZ    0050f0c0 f   shadowmap.obj
 0001:0010e0d0       ?var_shadowmapsize@@YAXXZ  0050f0d0 f   shadowmap.obj
 0001:0010e0e0       ?isshadowmapreceiver@@YA_NPAUvtxarray@@@Z 0050f0e0 f   shadowmap.obj
 0001:0010e270       ?pushshadowmap@@YAXXZ      0050f270 f   shadowmap.obj
 0001:0010e730       ?popshadowmap@@YAXXZ       0050f730 f   shadowmap.obj
 0001:0010e770       ?isshadowmapcaster@@YA_NABUvec@@M@Z 0050f770 f   shadowmap.obj
 0001:0010e860       ?addshadowmapcaster@@YA_NABUvec@@MM@Z 0050f860 f   shadowmap.obj
 0001:0010e910       ?rendershadowmap@@YAXXZ    0050f910 f   shadowmap.obj
 0001:0010e990       ?viewshadowmap@@YAXXZ      0050f990 f   shadowmap.obj
 0001:0010e9b0       ?guessshadowdir@@YAXXZ     0050f9b0 f   shadowmap.obj
 0001:00110220       ?mergenormalmaps@@YAXPAD0@Z 00511220 f   texture.obj
 0001:001106e0       ?flipnormalmapy@@YAXPAD0@Z 005116e0 f   texture.obj
 0001:00110900       ?screenshot@@YAXPAD@Z      00511900 f   texture.obj
 0001:00110c00       ?saveimage@@YAXPBDHAAUImageData@@_N@Z 00511c00 f   texture.obj
 0001:00110d30       ?guessimageformat@@YAHPBDH@Z 00511d30 f   texture.obj
 0001:00110da0       ?savetga@@YAXPBDAAUImageData@@_N@Z 00511da0 f   texture.obj
 0001:00111070       ?writepngchunk@@YAXPAUstream@@PBDPAEI@Z 00512070 f   texture.obj
 0001:00111130       ?gendds@@YAXPAD0@Z         00512130 f   texture.obj
 0001:00111620       ?loaddds@@YA_NPBDAAUImageData@@@Z 00512620 f   texture.obj
 0001:001117e0       ?reloadtextures@@YAXXZ     005127e0 f   texture.obj
 0001:00111990       ?reloadtex@@YAXPAD@Z       00512990 f   texture.obj
 0001:00111ad0       ?reloadtexture@@YA_NPBD@Z  00512ad0 f   texture.obj
 0001:00111b20       ?cleanuptextures@@YAXXZ    00512b20 f   texture.obj
 0001:00111c80       ?cleanuptexture@@YAXPAUTexture@@@Z 00512c80 f   texture.obj
 0001:00111cd0       ?genenvmap@@YAIABUvec@@HH@Z 00512cd0 f   texture.obj
 0001:001121b0       ?clearenvmaps@@YAXXZ       005131b0 f   texture.obj
 0001:00112220       ?cubemaploadwildcard@@YAPAUTexture@@PAU1@PBD_N22@Z 00513220 f   texture.obj
 0001:00112960       ?var_envmapsize@@YAXXZ     00513960 f   texture.obj
 0001:00112970       ?forcecubemapload@@YAXI@Z  00513970 f   texture.obj
 0001:001153e0       ?texffenv@@YAXPAH@Z        005163e0 f   texture.obj
 0001:00115410       ?texcolor@@YAXPAM00@Z      00516410 f   texture.obj
 0001:001154c0       ?texalpha@@YAXPAM0@Z       005164c0 f   texture.obj
 0001:00115530       ?texlayer@@YAXPAHPAD0PAM@Z 00516530 f   texture.obj
 0001:001155d0       ?texscale@@YAXPAM@Z        005165d0 f   texture.obj
 0001:00115620       ?texrotate_@@YAXPAH@Z      00516620 f   texture.obj
 0001:00115670       ?texoffset_@@YAXPAH0@Z     00516670 f   texture.obj
 0001:001156c0       ?texscroll@@YAXPAM0@Z      005166c0 f   texture.obj
 0001:00115720       ?autograss@@YAXPAD@Z       00516720 f   texture.obj
 0001:00115780       ?texture@@YAXPAD0PAH11PAM@Z 00516780 f   texture.obj
 0001:001159a0       ?findslottex@@YAHPBD@Z     005169a0 f   texture.obj
 0001:00115a00       ?run@?$_icmd_fixinsidefaces@$0GIF@@@SAXPAH@Z 00516a00 f   texture.obj
 0001:00115d10       ?findvslot@@YAPAUVSlot@@AAUSlot@@ABU1@1@Z 00516d10 f   texture.obj
 0001:00116700       ?run@?$_icmd_compactvslots@$0FLB@@@SAXXZ 00517700 f   texture.obj
 0001:00116830       ?materialreset@@YAXXZ      00517830 f   texture.obj
 0001:00116860       ?texturereset@@YAXPAH@Z    00517860 f   texture.obj
 0001:00116960       ?settexture@@YA_NPBDH@Z    00517960 f   texture.obj
 0001:001174e0       ?loadsurface@@YAPAUSDL_Surface@@PBD@Z 005184e0 f   texture.obj
 0001:00117570       ?canloadsurface@@YA_NPBD@Z 00518570 f   texture.obj
 0001:001175b0       ?forcergbimage@@YAXAAUImageData@@@Z 005185b0 f   texture.obj
 0001:00117740       ?scaleimage@@YAXAAUImageData@@HH@Z 00518740 f   texture.obj
 0001:00117850       ?texblur@@YAXAAUImageData@@HH@Z 00518850 f   texture.obj
 0001:00117990       ?texnormal@@YAXAAUImageData@@H@Z 00518990 f   texture.obj
 0001:00117c30       ?texflip@@YAXAAUImageData@@@Z 00518c30 f   texture.obj
 0001:00117d60       ?fixsurfaceformat@@YAPAUSDL_Surface@@PAU1@@Z 00518d60 f   texture.obj
 0001:00117e30       ?checkgrayscale@@YA_NPAUSDL_Surface@@@Z 00518e30 f   texture.obj
 0001:00117e80       ?creatergbasurface@@YAPAUSDL_Surface@@PAU1@@Z 00518e80 f   texture.obj
 0001:00117ee0       ?creatergbsurface@@YAPAUSDL_Surface@@PAU1@@Z 00518ee0 f   texture.obj
 0001:00117f30       ?wrapsurface@@YAPAUSDL_Surface@@PAXHHH@Z 00518f30 f   texture.obj
 0001:00118400       ?createcompressedtexture@@YAXHHHPAEHHHHHII@Z 00519400 f   texture.obj
 0001:00118480       ?uncompressedformat@@YAII@Z 00519480 f   texture.obj
 0001:001185c0       ?textarget@@YAII@Z         005195c0 f   texture.obj
 0001:001185e0       ?uploadcompressedtexture@@YAXIIIHHPAEHHH_N@Z 005195e0 f   texture.obj
 0001:00118700       ?uploadtexture@@YAXIIHHIIPAXHHH_N@Z 00519700 f   texture.obj
 0001:00118a60       ?resizetexture@@YAXHH_N0IHAAH1@Z 00519a60 f   texture.obj
 0001:00118bd0       ?var_usenp2@@YAXXZ         00519bd0 f   texture.obj
 0001:00118bf0       ?var_hwmipmap@@YAXXZ       00519bf0 f   texture.obj
 0001:00118c10       ?formatsize@@YAHI@Z        00519c10 f   texture.obj
 0001:00118c50       ?compressedformat@@YAIIHHH@Z 00519c50 f   texture.obj
 0001:00118cf0       ?var_aniso@@YAXXZ          00519cf0 f   texture.obj
 0001:00118d10       ?var_bilinear@@YAXXZ       00519d10 f   texture.obj
 0001:00118d30       ?var_trilinear@@YAXXZ      00519d30 f   texture.obj
 0001:00118d50       ?var_texcompressquality@@YAXXZ 00519d50 f   texture.obj
 0001:00118da0       ?var_texcompress@@YAXXZ    00519da0 f   texture.obj
 0001:00118dc0       ?var_texreduce@@YAXXZ      00519dc0 f   texture.obj
 0001:00118de0       ?var_reducefilter@@YAXXZ   00519de0 f   texture.obj
 0001:00118e00       ?var_maxtexsize@@YAXXZ     00519e00 f   texture.obj
 0001:00118e20       ?texagrad@@YAXAAUImageData@@MMMM@Z 00519e20 f   texture.obj
 0001:00118fd0       ?texpremul@@YAXAAUImageData@@@Z 00519fd0 f   texture.obj
 0001:001190d0       ?texgrey@@YAXAAUImageData@@@Z 0051a0d0 f   texture.obj
 0001:001192a0       ?texmix@@YAXAAUImageData@@HHHH@Z 0051a2a0 f   texture.obj
 0001:00119490       ?texdecal@@YAXAAUImageData@@@Z 0051a490 f   texture.obj
 0001:00119610       ?texdup@@YAXAAUImageData@@HH@Z 0051a610 f   texture.obj
 0001:00119680       ?texffmask@@YAXAAUImageData@@MM@Z 0051a680 f   texture.obj
 0001:001198c0       ?texcolormask@@YAXAAUImageData@@ABUvec@@1@Z 0051a8c0 f   texture.obj
 0001:00119af0       ?texcolorify@@YAXAAUImageData@@ABUvec@@U2@@Z 0051aaf0 f   texture.obj
 0001:00119c30       ?texmad@@YAXAAUImageData@@ABUvec@@1@Z 0051ac30 f   texture.obj
 0001:00119d10       ?texoffset@@YAXAAUImageData@@HH@Z 0051ad10 f   texture.obj
 0001:00119ea0       ?texrotate@@YAXAAUImageData@@HH@Z 0051aea0 f   texture.obj
 0001:00119ef0       ?texreorient@@YAXAAUImageData@@_N11H@Z 0051aef0 f   texture.obj
 0001:0011c890       ?linkslotshaders@@YAXXZ    0051d890 f   texture.obj
 0001:0011c970       ?reloadtexture@@YA_NAAUTexture@@@Z 0051d970 f   texture.obj
 0001:0011ca90       ?cubemapload@@YAPAUTexture@@PBD_N11@Z 0051da90 f   texture.obj
 0001:0011cbd0       ?setuptexcompress@@YAXXZ   0051dbd0 f   texture.obj
 0001:0011cc20       ?setuptexparameters@@YAXHPAXHHII@Z 0051dc20 f   texture.obj
 0001:0011cd60       ?genenvmaps@@YAXXZ         0051dd60 f   texture.obj
 0001:0011ce40       ?closestenvmap@@YAGABUvec@@@Z 0051de40 f   texture.obj
 0001:0011cf10       ?lookupmaterialslot@@YAAAUMSlot@@H_N@Z 0051df10 f   texture.obj
 0001:0011cf50       ?lookupenvmap@@YAIAAUSlot@@@Z 0051df50 f   texture.obj
 0001:0011cf90       ?lookupenvmap@@YAIG@Z      0051df90 f   texture.obj
 0001:0011cfe0       ?loadalphamask@@YAXPAUTexture@@@Z 0051dfe0 f   texture.obj
 0001:0011d160       ?compactvslots@@YAHXZ      0051e160 f   texture.obj
 0001:0011d480       ?textureload@@YAPAUTexture@@PBDH_N1@Z 0051e480 f   texture.obj
 0001:0011d5a0       ?clearslots@@YAXXZ         0051e5a0 f   texture.obj
 0001:0011d600       ?closestenvmap@@YAGHHHHH@Z 0051e600 f   texture.obj
 0001:0011d6a0       ?initenvmaps@@YAXXZ        0051e6a0 f   texture.obj
 0001:0011d800       ?compactvslot@@YAXAAH@Z    0051e800 f   texture.obj
 0001:0011d850       ?compactvslots@@YAXPAUcube@@H@Z 0051e850 f   texture.obj
 0001:0011d950       ?mergevslot@@YAXAAUVSlot@@ABU1@1@Z 0051e950 f   texture.obj
 0001:0011da40       ?editvslot@@YAPAUVSlot@@ABU1@0@Z 0051ea40 f   texture.obj
 0001:0011db50       ?lookupslot@@YAAAUSlot@@H_N@Z 0051eb50 f   texture.obj
 0001:0011db80       ?loadthumbnail@@YAPAUTexture@@AAUSlot@@@Z 0051eb80 f   texture.obj
 0001:0011e310       ?texalign@@YAHPAXHH@Z      0051f310 f   texture.obj
 0001:0011e330       ?blurtexture@@YAXHHHHPAEPBEH@Z 0051f330 f   texture.obj
 0001:0011e400       ?blurnormals@@YAXHHHPAUbvec@@PBU1@H@Z 0051f400 f   texture.obj
 0001:0011e460       ?lookupvslot@@YAAAUVSlot@@H_N@Z 0051f460 f   texture.obj
 0001:0011e4d0       ?loadlayermasks@@YAXXZ     0051f4d0 f   texture.obj
 0001:0011e5b0       ?savepng@@YAXPBDAAUImageData@@_N@Z 0051f5b0 f   texture.obj
 0001:0011e9c0       ?createtexture@@YAXHHHPAXHHIIHHH_NI@Z 0051f9c0 f   texture.obj
 0001:0011ebf0       ?loadimage@@YA_NPBDAAUImageData@@@Z 0051fbf0 f   texture.obj
 0001:0011f640       ?maskreflection@@YAXAAUReflection@@M_N1@Z 00520640 f   water.obj
 0001:0011fa60       ?queryreflection@@YAXAAUReflection@@_N@Z 00520a60 f   water.obj
 0001:00120050       ?addreflection@@YAXAAUmaterialsurface@@@Z 00521050 f   water.obj
 0001:001201c0       ?addwaterfallrefraction@@YAXAAUmaterialsurface@@@Z 005211c0 f   water.obj
 0001:00120250       ?genwatertex@@YAXAAI00_N@Z 00521250 f   water.obj
 0001:001205c0       ?var_reflectsize@@YAXXZ    005215c0 f   water.obj
 0001:001205d0       ?cleanreflection@@YAXAAUReflection@@@Z 005215d0 f   water.obj
 0001:00120630       ?var_waterfade@@YAXXZ      00521630 f   water.obj
 0001:00120640       ?renderwaterff@@YAXXZ      00521640 f   water.obj
 0001:00120cb0       ?cleanupwaterTMUs@@YAX_N@Z 00521cb0 f   water.obj
 0001:00120d30       ?setupreflectTMUs@@YAXXZ   00521d30 f   water.obj
 0001:00120dd0       ?setuprefractTMUs@@YAXXZ   00521dd0 f   water.obj
 0001:00120ea0       ?setprojtexmatrix@@YAXAAUReflection@@_N@Z 00521ea0 f   water.obj
 0001:00120f90       ?var_lava4colour@@YAXXZ    00521f90 f   water.obj
 0001:00120fd0       ?var_lava3colour@@YAXXZ    00521fd0 f   water.obj
 0001:00121010       ?var_lava2colour@@YAXXZ    00522010 f   water.obj
 0001:00121050       ?var_lavacolour@@YAXXZ     00522050 f   water.obj
 0001:00121090       ?getwaterspec@@YAHH@Z      00522090 f   water.obj
 0001:001210c0       ?var_water4fallcolour@@YAXXZ 005220c0 f   water.obj
 0001:001210f0       ?var_water4colour@@YAXXZ   005220f0 f   water.obj
 0001:00121130       ?var_water3fallcolour@@YAXXZ 00522130 f   water.obj
 0001:00121160       ?var_water3colour@@YAXXZ   00522160 f   water.obj
 0001:001211a0       ?var_water2fallcolour@@YAXXZ 005221a0 f   water.obj
 0001:001211d0       ?var_water2colour@@YAXXZ   005221d0 f   water.obj
 0001:00121210       ?var_waterfallcolour@@YAXXZ 00522210 f   water.obj
 0001:00121240       ?var_watercolour@@YAXXZ    00522240 f   water.obj
 0001:00121300       ?var_vertwater@@YAXXZ      00522300 f   water.obj
 0001:001213a0       ?renderflatwater@@YAXHHHIIH@Z 005223a0 f   water.obj
 0001:00121bd0       ?renderwaterlod@@YAIHHHIH@Z 00522bd0 f   water.obj
 0001:00121db0       ?calcwatersubdiv@@YAIHHHI@Z 00522db0 f   water.obj
 0001:00121f60       ?rendervertwater@@YAXIHHHIH@Z 00522f60 f   water.obj
 0001:00124d10       ?var_waterfallrefract@@YAXXZ 00525d10 f   water.obj
 0001:00124d20       ?var_waterenvmap@@YAXXZ    00525d20 f   water.obj
 0001:00124d30       ?var_waterrefract@@YAXXZ   00525d30 f   water.obj
 0001:00124d40       ?var_waterreflect@@YAXXZ   00525d40 f   water.obj
 0001:00124d50       ?getlavacolor@@YAABUbvec@@H@Z 00525d50 f   water.obj
 0001:00124d80       ?getlavafog@@YAHH@Z        00525d80 f   water.obj
 0001:00124db0       ?renderwater@@YAXXZ        00525db0 f   water.obj
 0001:00125fb0       ?queryreflections@@YAXXZ   00526fb0 f   water.obj
 0001:00126390       ?drawreflections@@YAXXZ    00527390 f   water.obj
 0001:00126cd0       ?preloadwatershaders@@YAX_N@Z 00527cd0 f   water.obj
 0001:00126ee0       ?getwatercolor@@YAABUbvec@@H@Z 00527ee0 f   water.obj
 0001:00126f10       ?getwaterfallcolor@@YAABUbvec@@H@Z 00527f10 f   water.obj
 0001:00126f40       ?getwaterfog@@YAHH@Z       00527f40 f   water.obj
 0001:00126f70       ?renderlava@@YAXABUmaterialsurface@@PAUTexture@@M@Z 00527f70 f   water.obj
 0001:00126fe0       ?setupwaterfallrefract@@YAXII@Z 00527fe0 f   water.obj
 0001:00127040       ?cleanreflections@@YAXXZ   00528040 f   water.obj
 0001:00127bc0       ?clearsleep_@@YAXPAH@Z     00528bc0 f   command.obj
 0001:00127be0       ?checksleep@@YAXH@Z        00528be0 f   command.obj
 0001:00127c90       ?addsleep@@YAXPAHPAD@Z     00528c90 f   command.obj
 0001:00127d30       ?run@?$_stdcmd@$0LGJ@@@SAXPAH@Z 00528d30 f   command.obj
 0001:00127d60       ?run@?$_stdcmd@$0LGG@@@SAXPAD00@Z 00528d60 f   command.obj
 0001:00127d90       ?strreplace@@YAPADPBD00@Z  00528d90 f   command.obj
 0001:00127f90       ?run@?$_stdcmd@$0LEM@@@SAXPAD@Z 00528f90 f   command.obj
 0001:00127fb0       ?run@?$_stdcmd@$0LEL@@@SAXPAD0@Z 00528fb0 f   command.obj
 0001:00127ff0       ?run@?$_stdcmd@$0LEK@@@SAXPAD@Z 00528ff0 f   command.obj
 0001:00128010       ?run@?$_stdcmd@$0LEJ@@@SAXPAD@Z 00529010 f   command.obj
 0001:00128030       ?run@?$_stdcmd@$0LEI@@@SAXPAD0@Z 00529030 f   command.obj
 0001:00128080       ?run@?$_stdcmd@$0LEH@@@SAXPAD0@Z 00529080 f   command.obj
 0001:001280d0       ?run@?$_stdcmd@$0LEG@@@SAXPAD0@Z 005290d0 f   command.obj
 0001:00128120       ?run@?$_stdcmd@$0LEF@@@SAXPAD0@Z 00529120 f   command.obj
 0001:00128170       ?run@?$_stdcmd@$0LEE@@@SAXPAD0@Z 00529170 f   command.obj
 0001:001281c0       ?run@?$_stdcmd@$0LED@@@SAXPAD0@Z 005291c0 f   command.obj
 0001:00128210       ?run@?$_stdcmd@$0LEC@@@SAXPAD0@Z 00529210 f   command.obj
 0001:00128260       ?run@?$_stdcmd@$0LEB@@@SAXPAH0@Z 00529260 f   command.obj
 0001:001282b0       ?run@?$_stdcmd@$0LDP@@@SAXPAUtagval@@H@Z 005292b0 f   command.obj
 0001:001283b0       ?run@?$_stdcmd@$0LDO@@@SAXPAUtagval@@H@Z 005293b0 f   command.obj
 0001:00128530       ?run@?$_stdcmd@$0LDN@@@SAXPAUtagval@@H@Z 00529530 f   command.obj
 0001:00128610       ?run@?$_stdcmd@$0LCO@@@SAXPAUtagval@@H@Z 00529610 f   command.obj
 0001:00128700       ?run@?$_stdcmd@$0LBK@@@SAXPAM@Z 00529700 f   command.obj
 0001:00128720       ?run@?$_stdcmd@$0LBJ@@@SAXPAH@Z 00529720 f   command.obj
 0001:00128740       ?run@?$_stdcmd@$0LBI@@@SAXPAUtagval@@H@Z 00529740 f   command.obj
 0001:001288a0       ?run@?$_stdcmd@$0LBC@@@SAXPAUtagval@@H@Z 005298a0 f   command.obj
 0001:001289f0       ?run@?$_stdcmd@$0LAM@@@SAXPAUtagval@@H@Z 005299f0 f   command.obj
 0001:00128ac0       ?run@?$_stdcmd@$0LAG@@@SAXPAUtagval@@H@Z 00529ac0 f   command.obj
 0001:00128b90       ?run@?$_stdcmd@$0LAA@@@SAXPAM@Z 00529b90 f   command.obj
 0001:00128bb0       ?run@?$_stdcmd@$0KPP@@@SAXPAM@Z 00529bb0 f   command.obj
 0001:00128bd0       ?run@?$_stdcmd@$0KPO@@@SAXPAM@Z 00529bd0 f   command.obj
 0001:00128c10       ?run@?$_stdcmd@$0KPN@@@SAXPAM@Z 00529c10 f   command.obj
 0001:00128c40       ?run@?$_stdcmd@$0KPM@@@SAXPAM0@Z 00529c40 f   command.obj
 0001:00128c70       ?run@?$_stdcmd@$0KPL@@@SAXPAM@Z 00529c70 f   command.obj
 0001:00128ca0       ?run@?$_stdcmd@$0KPK@@@SAXPAM@Z 00529ca0 f   command.obj
 0001:00128cd0       ?run@?$_stdcmd@$0KPJ@@@SAXPAM@Z 00529cd0 f   command.obj
 0001:00128d00       ?run@?$_stdcmd@$0KPI@@@SAXPAM@Z 00529d00 f   command.obj
 0001:00128d30       ?run@?$_stdcmd@$0KPH@@@SAXPAM@Z 00529d30 f   command.obj
 0001:00128d60       ?run@?$_stdcmd@$0KPG@@@SAXPAM@Z 00529d60 f   command.obj
 0001:00128d90       ?run@?$_stdcmd@$0KPF@@@SAXPAM@Z 00529d90 f   command.obj
 0001:00128dc0       ?run@?$_stdcmd@$0KPE@@@SAXPAM0@Z 00529dc0 f   command.obj
 0001:00128e20       ?run@?$_stdcmd@$0KPD@@@SAXPAM0@Z 00529e20 f   command.obj
 0001:00128e60       ?run@?$_stdcmd@$0KPC@@@SAXPAH0@Z 00529e60 f   command.obj
 0001:00128ea0       ?run@?$_stdcmd@$0KPB@@@SAXPAH0@Z 00529ea0 f   command.obj
 0001:00128ee0       ?run@?$_stdcmd@$0KOP@@@SAXPAUtagval@@H@Z 00529ee0 f   command.obj
 0001:00128fb0       ?run@?$_stdcmd@$0KOF@@@SAXPAUtagval@@H@Z 00529fb0 f   command.obj
 0001:00129080       ?run@?$_stdcmd@$0KNL@@@SAXPAH0@Z 0052a080 f   command.obj
 0001:001290a0       ?run@?$_stdcmd@$0KNK@@@SAXPAH0@Z 0052a0a0 f   command.obj
 0001:001290c0       ?run@?$_stdcmd@$0KNJ@@@SAXPAH0@Z 0052a0c0 f   command.obj
 0001:001290e0       ?run@?$_stdcmd@$0KNI@@@SAXPAH0@Z 0052a0e0 f   command.obj
 0001:00129100       ?run@?$_stdcmd@$0KNH@@@SAXPAH0@Z 0052a100 f   command.obj
 0001:00129120       ?run@?$_stdcmd@$0KNG@@@SAXPAH@Z 0052a120 f   command.obj
 0001:00129140       ?run@?$_stdcmd@$0KNF@@@SAXPAH0@Z 0052a140 f   command.obj
 0001:00129160       ?run@?$_stdcmd@$0KNE@@@SAXPAH0@Z 0052a160 f   command.obj
 0001:00129180       ?run@?$_stdcmd@$0KND@@@SAXPAUtagval@@@Z 0052a180 f   command.obj
 0001:001291f0       ?run@?$_stdcmd@$0KNC@@@SAXPAH0@Z 0052a1f0 f   command.obj
 0001:00129210       ?run@?$_stdcmd@$0KNB@@@SAXPAM0@Z 0052a210 f   command.obj
 0001:00129240       ?run@?$_stdcmd@$0KNA@@@SAXPAM0@Z 0052a240 f   command.obj
 0001:00129270       ?run@?$_stdcmd@$0KMP@@@SAXPAM0@Z 0052a270 f   command.obj
 0001:001292a0       ?run@?$_stdcmd@$0KMO@@@SAXPAM0@Z 0052a2a0 f   command.obj
 0001:001292d0       ?run@?$_stdcmd@$0KMN@@@SAXPAM0@Z 0052a2d0 f   command.obj
 0001:00129300       ?run@?$_stdcmd@$0KMM@@@SAXPAM0@Z 0052a300 f   command.obj
 0001:00129330       ?run@?$_stdcmd@$0KML@@@SAXPAH0@Z 0052a330 f   command.obj
 0001:00129350       ?run@?$_stdcmd@$0KMK@@@SAXPAH0@Z 0052a350 f   command.obj
 0001:00129370       ?run@?$_stdcmd@$0KMJ@@@SAXPAH0@Z 0052a370 f   command.obj
 0001:00129390       ?run@?$_stdcmd@$0KMI@@@SAXPAH0@Z 0052a390 f   command.obj
 0001:001293b0       ?run@?$_stdcmd@$0KMH@@@SAXPAH0@Z 0052a3b0 f   command.obj
 0001:001293d0       ?run@?$_stdcmd@$0KMG@@@SAXPAH0@Z 0052a3d0 f   command.obj
 0001:001293f0       ?run@?$_stdcmd@$0KMF@@@SAXPAM0@Z 0052a3f0 f   command.obj
 0001:00129420       ?run@?$_stdcmd@$0KME@@@SAXPAM0@Z 0052a420 f   command.obj
 0001:00129450       ?run@?$_stdcmd@$0KMD@@@SAXPAM0@Z 0052a450 f   command.obj
 0001:00129480       ?run@?$_stdcmd@$0KMC@@@SAXPAH0@Z 0052a480 f   command.obj
 0001:001294a0       ?run@?$_stdcmd@$0KMB@@@SAXPAH0@Z 0052a4a0 f   command.obj
 0001:001294c0       ?run@?$_stdcmd@$0KMA@@@SAXPAH0@Z 0052a4c0 f   command.obj
 0001:001294e0       ?sortlist@@YAXPADPAUident@@1PAI@Z 0052a4e0 f   command.obj
 0001:001297a0       ?run@?$_stdcmd@$0KHH@@@SAXPAUident@@PAD1PAI@Z 0052a7a0 f   command.obj
 0001:00129960       ?run@?$_stdcmd@$0KFK@@@SAXPAUident@@PADPAI@Z 0052a960 f   command.obj
 0001:00129980       ?run@?$_stdcmd@$0KFJ@@@SAXPAUident@@PADPAI@Z 0052a980 f   command.obj
 0001:001299a0       ?run@?$_stdcmd@$0KFI@@@SAXPAD0@Z 0052a9a0 f   command.obj
 0001:001299e0       ?run@?$_stdcmd@$0KFH@@@SAXPAD0@Z 0052a9e0 f   command.obj
 0001:00129a00       ?listsplice@@YAXPBD0PAH11@Z 0052aa00 f   command.obj
 0001:00129cc0       ?listdel@@YAPADPBD0@Z      0052acc0 f   command.obj
 0001:00129e60       ?listincludes@@YAHPBD0H@Z  0052ae60 f   command.obj
 0001:0012a0c0       ?prettylist@@YAXPBD0@Z     0052b0c0 f   command.obj
 0001:0012a340       ?looplist@@YAXPAUident@@PBDPBI_N@Z 0052b340 f   command.obj
 0001:0012a510       ?run@?$_stdcmd@$0JOM@@@SAXPAD@Z 0052b510 f   command.obj
 0001:0012a560       ?run@?$_stdcmd@$0JOL@@@SAXPAD@Z 0052b560 f   command.obj
 0001:0012a5b0       ?run@?$_stdcmd@$0JOK@@@SAXPAD@Z 0052b5b0 f   command.obj
 0001:0012a5f0       ?run@?$_stdcmd@$0JOJ@@@SAXPAD@Z 0052b5f0 f   command.obj
 0001:0012a630       ?run@?$_stdcmd@$0JOH@@@SAXPAD@Z 0052b630 f   command.obj
 0001:0012a650       ?run@?$_stdcmd@$0JOE@@@SAXPAD@Z 0052b650 f   command.obj
 0001:0012a6b0       ?run@?$_stdcmd@$0JNN@@@SAXPAD@Z 0052b6b0 f   command.obj
 0001:0012a710       ?run@?$_stdcmd@$0JNG@@@SAXPAD@Z 0052b710 f   command.obj
 0001:0012a770       ?run@?$_stdcmd@$0JNA@@@SAXPAUtagval@@@Z 0052b770 f   command.obj
 0001:0012a790       ?run@?$_stdcmd@$0JML@@@SAXPAD@Z 0052b790 f   command.obj
 0001:0012a7a0       ?getalias_@@YAXPAD@Z       0052b7a0 f   command.obj
 0001:0012a840       ?sublist@@YAXPBDPAH11@Z    0052b840 f   command.obj
 0001:0012a9b0       ?substr@@YAXPADPAH11@Z     0052b9b0 f   command.obj
 0001:0012aa40       ?at@@YAXPAUtagval@@H@Z     0052ba40 f   command.obj
 0001:0012abe0       ?listlen@@YAHPBD@Z         0052bbe0 f   command.obj
 0001:0012ae30       ?indexlist@@YAPADPBDH@Z    0052be30 f   command.obj
 0001:0012b180       ?format@@YAXPAUtagval@@H@Z 0052c180 f   command.obj
 0001:0012b3b0       ?result@@YAXAAUtagval@@@Z  0052c3b0 f   command.obj
 0001:0012b3d0       ?concatword@@YAXPAUtagval@@H@Z 0052c3d0 f   command.obj
 0001:0012b400       ?concat@@YAXPAUtagval@@H@Z 0052c400 f   command.obj
 0001:0012b430       ?run@?$_stdcmd@$0JDA@@@SAXPAUident@@PAHPAI@Z 0052c430 f   command.obj
 0001:0012b470       ?run@?$_stdcmd@$0JCL@@@SAXPAUident@@PAHPAI@Z 0052c470 f   command.obj
 0001:0012b4b0       ?loopconc@@YAPADPAUident@@HPAI_N@Z 0052c4b0 f   command.obj
 0001:0012b770       ?run@?$_stdcmd@$0JBC@@@SAXPAI0@Z 0052c770 f   command.obj
 0001:0012b7b0       ?run@?$_stdcmd@$0JBB@@@SAXPAUident@@PAHPAI2@Z 0052c7b0 f   command.obj
 0001:0012b870       ?run@?$_stdcmd@$0JAF@@@SAXPAUident@@PAHPAI@Z 0052c870 f   command.obj
 0001:0012b980       ?run@?$_stdcmd@$0IOF@@@SAXPAUtagval@@00@Z 0052c980 f   command.obj
 0001:0012ba00       ?run@?$_stdcmd@$0IOE@@@SAXPAUtagval@@PAI1@Z 0052ca00 f   command.obj
 0001:0012bab0       ?run@?$_stdcmd@$0IOD@@@SAXPAI@Z 0052cab0 f   command.obj
 0001:0012bac0       ?writecfg@@YAXPBD@Z        0052cac0 f   command.obj
 0001:0012bfb0       ?validateblock@@YA_NPBD@Z  0052cfb0 f   command.obj
 0001:0012c210       ?executeret@@YAXPBDAAUtagval@@@Z 0052d210 f   command.obj
 0001:0012c350       ?executeret@@YAXPBIAAUtagval@@@Z 0052d350 f   command.obj
 0001:0012ece0       ?printvar@@YAXPAUident@@@Z 0052fce0 f   command.obj
 0001:0012ed40       ?printsvar@@YAXPAUident@@PBD@Z 0052fd40 f   command.obj
 0001:0012ed70       ?printfvar@@YAXPAUident@@M@Z 0052fd70 f   command.obj
 0001:0012ee00       ?printvar@@YAXPAUident@@H@Z 0052fe00 f   command.obj
 0001:0012ee80       ?freecode@@YAXPAI@Z        0052fe80 f   command.obj
 0001:0012ef00       ?compilecode@@YAPAIPBD@Z   0052ff00 f   command.obj
 0001:001316c0       ?conc@@YAPADPAUtagval@@H_NPBD@Z 005326c0 f   command.obj
 0001:00131ac0       ?unescapestring@@YAHPADPBD1@Z 00532ac0 f   command.obj
 0001:00131b10       ?parsestring@@YAPBDPBD@Z   00532b10 f   command.obj
 0001:00131bb0       ?addkeyword@@YA_NHPBD@Z    00532bb0 f   command.obj
 0001:00131bf0       ?setsvarchecked@@YAXPAUident@@PBD@Z 00532bf0 f   command.obj
 0001:00131c90       ?setfvarchecked@@YAXPAUident@@M@Z 00532c90 f   command.obj
 0001:00131d80       ?clampfvar@@YAMPAUident@@MMM@Z 00532d80 f   command.obj
 0001:00131df0       ?setvarchecked@@YAXPAUident@@H@Z 00532df0 f   command.obj
 0001:00131e80       ?clampvar@@YAHPAUident@@HHH@Z 00532e80 f   command.obj
 0001:00131ee0       ?getalias@@YAPBDPBD@Z      00532ee0 f   command.obj
 0001:00131f30       ?getfvarmax@@YAMPBD@Z      00532f30 f   command.obj
 0001:00131f60       ?getfvarmin@@YAMPBD@Z      00532f60 f   command.obj
 0001:00131f90       ?getvarmax@@YAHPBD@Z       00532f90 f   command.obj
 0001:00131fb0       ?getvarmin@@YAHPBD@Z       00532fb0 f   command.obj
 0001:00131fd0       ?run@?$_icmd_alias@$0BNN@@@SAXPBDPAUtagval@@@Z 00532fd0 f   command.obj
 0001:00131ff0       ?alias@@YAXPBD0@Z          00532ff0 f   command.obj
 0001:00132250       ?resetvar@@YAXPAD@Z        00533250 f   command.obj
 0001:00132280       ?readident@@YAPAUident@@PBD@Z 00533280 f   command.obj
 0001:001322c0       ?writeident@@YAPAUident@@PBDH@Z 005332c0 f   command.obj
 0001:00132320       ?newident@@YAPAUident@@PBDH@Z 00533320 f   command.obj
 0001:00132460       ?run@?$_icmd_push@$0BFD@@@SAXPAUident@@PAUtagval@@PAI@Z 00533460 f   command.obj
 0001:00132580       ?run@?$_icmd_nodebug@$0BCP@@@SAXPAI@Z 00533580 f   command.obj
 0001:00132aa0       ?clearoverride@@YAXAAUident@@@Z 00533aa0 f   command.obj
 0001:00132b30       ?clear_command@@YAXXZ      00533b30 f   command.obj
 0001:00132f80       ?stringret@@YAXPAD@Z       00533f80 f   command.obj
 0001:00132f90       ?explodelist@@YAXPBDAAU?$vector@PAD@@H@Z 00533f90 f   command.obj
 0001:00133020       ?floatret@@YAXM@Z          00534020 f   command.obj
 0001:00133040       ?floatstr@@YAPBDM@Z        00534040 f   command.obj
 0001:001330c0       ?executestr@@YAPADPBD@Z    005340c0 f   command.obj
 0001:001330d0       ?identexists@@YA_NPBD@Z    005340d0 f   command.obj
 0001:001330f0       ?intstr@@YAPBDH@Z          005340f0 f   command.obj
 0001:00133140       ?escapestring@@YAPBDPBD@Z  00534140 f   command.obj
 0001:001333b0       ?escapeid@@YAPBDPBD@Z      005343b0 f   command.obj
 0001:001333e0       ?setsvar@@YAXPBD0_N@Z      005343e0 f   command.obj
 0001:00133490       ?getident@@YAPAUident@@PBD@Z 00534490 f   command.obj
 0001:001334a0       ?setfvar@@YAXPBDM_N1@Z     005344a0 f   command.obj
 0001:00133540       ?svariable@@YAPADPBD0PAPADP6AXXZH@Z 00534540 f   command.obj
 0001:001335c0       ?executebool@@YA_NPBI@Z    005345c0 f   command.obj
 0001:00133660       ?execute@@YAHPBI@Z         00534660 f   command.obj
 0001:00133700       ?clearoverrides@@YAXXZ     00534700 f   command.obj
 0001:00133820       ?clearsleep@@YAX_N@Z       00534820 f   command.obj
 0001:001338a0       ?setvar@@YAXPBDH_N1@Z      005348a0 f   command.obj
 0001:00133940       ?execute@@YAHPBD@Z         00534940 f   command.obj
 0001:00133b00       ?fvariable@@YAMPBDMMMPAMP6AXXZH@Z 00534b00 f   command.obj
 0001:00133b60       ?execfile@@YA_NPBD_N@Z     00534b60 f   command.obj
 0001:00133c10       ?variable@@YAHPBDHHHPAHP6AXXZH@Z 00534c10 f   command.obj
 0001:00133c70       ?result@@YAXPBD@Z          00534c70 f   command.obj
 0001:00133cd0       ?intret@@YAXH@Z            00534cd0 f   command.obj
 0001:00133ce0       ?addcommand@@YA_NPBDP6AXXZ0@Z 00534ce0 f   command.obj
 0001:00134530       ?complete@@YAXPADPBD@Z     00535530 f   console.obj
 0001:001348e0       ?addlistcomplete@@YAXPAD0@Z 005358e0 f   console.obj
 0001:00134900       ?addfilecomplete@@YAXPAD00@Z 00535900 f   console.obj
 0001:00134920       ?addcomplete@@YAXPADH00@Z  00535920 f   console.obj
 0001:00134ad0       ?resetcomplete@@YAXXZ      00535ad0 f   console.obj
 0001:00134bf0       ?clear_console@@YAXXZ      00535bf0 f   console.obj
 0001:00134c00       ?keypress@@YAXH_NH@Z       00535c00 f   console.obj
 0001:00134ca0       ?consolekey@@YAXH_NH@Z     00535ca0 f   console.obj
 0001:001353a0       ?execbind@@YAXAAUkeym@@_N@Z 005363a0 f   console.obj
 0001:001354c0       ?onrelease@@YAXPBD@Z       005364c0 f   console.obj
 0001:00135550       ?history_@@YAXPAH@Z        00536550 f   console.obj
 0001:001355d0       ?pasteconsole@@YAXXZ       005365d0 f   console.obj
 0001:001356e0       ?run@?$_icmd_saycommand@$0BBE@@@SAXPAD@Z 005366e0 f   console.obj
 0001:00135700       ?inputcommand@@YAXPAD000@Z 00536700 f   console.obj
 0001:00135840       ?run@?$_icmd_searcheditbinds@$0PN@@@SAXPAD@Z 00536840 f   console.obj
 0001:00135850       ?run@?$_icmd_searchspecbinds@$0PM@@@SAXPAD@Z 00536850 f   console.obj
 0001:00135860       ?run@?$_icmd_searchbinds@$0PL@@@SAXPAD@Z 00536860 f   console.obj
 0001:00135870       ?run@?$_icmd_geteditbind@$0PK@@@SAXPAD@Z 00536870 f   console.obj
 0001:00135880       ?run@?$_icmd_getspecbind@$0PJ@@@SAXPAD@Z 00536880 f   console.obj
 0001:00135890       ?run@?$_icmd_getbind@$0PI@@@SAXPAD@Z 00536890 f   console.obj
 0001:001358a0       ?run@?$_icmd_editbind@$0PH@@@SAXPAD0@Z 005368a0 f   console.obj
 0001:001358e0       ?run@?$_icmd_specbind@$0PG@@@SAXPAD0@Z 005368e0 f   console.obj
 0001:00135920       ?run@?$_icmd_bind@$0PF@@@SAXPAD0@Z 00536920 f   console.obj
 0001:00135960       ?bindkey@@YAXPAD0HPBD@Z    00536960 f   console.obj
 0001:00135a30       ?getbind@@YAXPADH@Z        00536a30 f   console.obj
 0001:00135aa0       ?findbind@@YAPAUkeym@@PAD@Z 00536aa0 f   console.obj
 0001:00135b00       ?searchbinds@@YAXPADH@Z    00536b00 f   console.obj
 0001:00135ce0       ?keymap@@YAXPAHPAD@Z       00536ce0 f   console.obj
 0001:00135da0       ?drawconlines@@YAHHHHHHHHH@Z 00536da0 f   console.obj
 0001:00135f70       ?run@?$_icmd_clearconsole@$0GD@@@SAXXZ 00536f70 f   console.obj
 0001:00135fb0       ?run@?$_icmd_miniconskip@$0GB@@@SAXPAH@Z 00536fb0 f   console.obj
 0001:00135fd0       ?run@?$_icmd_conskip@$0GA@@@SAXPAH@Z 00536fd0 f   console.obj
 0001:00136000       ?setconskip@@YAXAAHHH@Z    00537000 f   console.obj
 0001:00136080       ?run@?$_icmd_toggleconsole@$0DG@@@SAXXZ 00537080 f   console.obj
 0001:00136090       ?conline@@YAXHPBD@Z        00537090 f   console.obj
 0001:00136130       ?var_maxcon@@YAXXZ         00537130 f   console.obj
 0001:00136180       ?conoutfv@@YAXHPBDPAD@Z    00537180 f   console.obj
 0001:001361d0       ?addreleaseaction@@YAPBDPAD@Z 005371d0 f   console.obj
 0001:00136220       ?writebinds@@YAXPAUstream@@@Z 00537220 f   console.obj
 0001:001363d0       ?writecompletions@@YAXPAUstream@@@Z 005373d0 f   console.obj
 0001:001365f0       ?rendercommand@@YAHHHH@Z   005375f0 f   console.obj
 0001:00136700       ?renderconsole@@YAHHHH@Z   00537700 f   console.obj
 0001:00136880       ?getkeyname@@YAPBDH@Z      00537880 f   console.obj
 0001:001368b0       ?conoutf@@YAXPBDZZ         005378b0 f   console.obj
 0001:00136900       ?conoutf@@YAXHPBDZZ        00537900 f   console.obj
 0001:00136aa0       ?getclockmillis@@YAHXZ     00537aa0 f   main.obj
 0001:00136af0       ?var_clockfix@@YAXXZ       00537af0 f   main.obj
 0001:00136b10       ?var_clockerror@@YAXXZ     00537b10 f   main.obj
 0001:00136b90       ?getfps_@@YAXPAH@Z         00537b90 f   main.obj
 0001:00136c00       ?updatefpshistory@@YAXH@Z  00537c00 f   main.obj
 0001:00136c30       ?resetfpshistory@@YAXXZ    00537c30 f   main.obj
 0001:00136c50       ?stackdumper@@YAXIPAU_EXCEPTION_POINTERS@@@Z 00537c50 f   main.obj
 0001:00136e80       ?limitfps@@YAXAAHH@Z       00537e80 f   main.obj
 0001:00136f10       ?swapbuffers@@YAXXZ        00537f10 f   main.obj
 0001:00136f30       ?checkinput@@YAXXZ         00537f30 f   main.obj
 0001:00137250       ?pushevent@@YAXABTSDL_Event@@@Z 00538250 f   main.obj
 0001:00137260       ?resetgl@@YAXXZ            00538260 f   main.obj
 0001:00137440       ?setupscreen@@YAXAAH00@Z   00538440 f   main.obj
 0001:00137a90       ?cleargamma@@YAXXZ         00538a90 f   main.obj
 0001:00137ac0       ?restoregamma@@YAXXZ       00538ac0 f   main.obj
 0001:00137b30       ?var_gamma@@YAXXZ          00538b30 f   main.obj
 0001:00137b90       ?screenres@@YAXPAH0@Z      00538b90 f   main.obj
 0001:00137bf0       ?var_fullscreen@@YAXXZ     00538bf0 f   main.obj
 0001:00137c30       ?setfullscreen@@YAX_N@Z    00538c30 f   main.obj
 0001:00137c60       ?inputgrab@@YAX_N@Z        00538c60 f   main.obj
 0001:00137c90       ?restorebackground@@YAXXZ  00538c90 f   main.obj
 0001:00137d80       ?var_vsync@@YAXXZ          00538d80 f   main.obj
 0001:00137da0       ?var_fsaa@@YAXXZ           00538da0 f   main.obj
 0001:00137dc0       ?var_stencilbits@@YAXXZ    00538dc0 f   main.obj
 0001:00137de0       ?var_depthbits@@YAXXZ      00538de0 f   main.obj
 0001:00137e00       ?var_colorbits@@YAXXZ      00538e00 f   main.obj
 0001:00137e20       ?var_scr_h@@YAXXZ          00538e20 f   main.obj
 0001:00137e40       ?var_scr_w@@YAXXZ          00538e40 f   main.obj
 0001:00137e60       ?quit@@YAXXZ               00538e60 f   main.obj
 0001:00137ed0       ?cleanup@@YAXXZ            00538ed0 f   main.obj
 0001:00137f60       ?writeinitcfg@@YAXXZ       00538f60 f   main.obj
 0001:00138090       ?initwarning@@YA_NPBDHH@Z  00539090 f   main.obj
 0001:001380a0       ?getfps@@YAXAAH00@Z        005390a0 f   main.obj
 0001:00138110       _SDL_main                  00539110 f   main.obj
 0001:00138aa0       ?keyrepeat@@YAX_N@Z        00539aa0 f   main.obj
 0001:00138ac0       ?interceptkey@@YA_NH@Z     00539ac0 f   main.obj
 0001:00138ba0       ?renderprogress@@YAXMPBDI_N@Z 00539ba0 f   main.obj
 0001:00139610       ?renderbackground@@YAXPBDPAUTexture@@00_N2@Z 0053a610 f   main.obj
 0001:0013a9f0       ?fatal@@YAXPBDZZ           0053b9f0 f   main.obj
 0001:0013ae60       ?guimodelpreview@@YAXPAD00PAMPAH@Z 0053be60 f   menus.obj
 0001:0013afb0       ?guiplayerpreview@@YAXPAH00PADPAM0@Z 0053bfb0 f   menus.obj
 0001:0013b030       ?run@?$_icmd_cleargui@$0CDL@@@SAXPAH@Z 0053c030 f   menus.obj
 0001:0013b050       ?guiservers@@YAXPAIPAH1@Z  0053c050 f   menus.obj
 0001:0013b0c0       ?newgui@@YAXPAD000@Z       0053c0c0 f   menus.obj
 0001:0013b1e0       ?guialign@@YAXPAHPAI@Z     0053c1e0 f   menus.obj
 0001:0013b230       ?guilist@@YAXPAI@Z         0053c230 f   menus.obj
 0001:0013b260       ?guikeyfield@@YAXPADPAH0@Z 0053c260 f   menus.obj
 0001:0013b2c0       ?guieditor@@YAXPADPAH11@Z  0053c2c0 f   menus.obj
 0001:0013b310       ?guifield@@YAXPADPAH0@Z    0053c310 f   menus.obj
 0001:0013b370       ?guibitfield@@YAXPAD0PAH0@Z 0053c370 f   menus.obj
 0001:0013b3f0       ?guiradio@@YAXPAD0PAM0@Z   0053c3f0 f   menus.obj
 0001:0013b460       ?guicheckbox@@YAXPAD0PAM10@Z 0053c460 f   menus.obj
 0001:0013b500       ?guinameslider@@YAXPAD000@Z 0053c500 f   menus.obj
 0001:0013b690       ?guilistslider@@YAXPAD00@Z 0053c690 f   menus.obj
 0001:0013b840       ?guislider@@YAXPADPAH10@Z  0053c840 f   menus.obj
 0001:0013bab0       ?guicolumn@@YAXPAH@Z       0053cab0 f   menus.obj
 0001:0013bad0       ?guispring@@YAXPAH@Z       0053cad0 f   menus.obj
 0001:0013bb00       ?guistrut@@YAXPAMPAH@Z     0053cb00 f   menus.obj
 0001:0013bb30       ?guibar@@YAXXZ             0053cb30 f   menus.obj
 0001:0013bb40       ?guitab@@YAXPAD@Z          0053cb40 f   menus.obj
 0001:0013bb60       ?guititle@@YAXPAD@Z        0053cb60 f   menus.obj
 0001:0013bb80       ?guitext@@YAXPAD0@Z        0053cb80 f   menus.obj
 0001:0013bc10       ?guitextbox@@YAXPADPAH11@Z 0053cc10 f   menus.obj
 0001:0013bc70       ?guicolor@@YAXPAH@Z        0053cc70 f   menus.obj
 0001:0013bcc0       ?guiimage@@YAXPAD0PAMPAH0@Z 0053ccc0 f   menus.obj
 0001:0013bd90       ?guibutton@@YAXPAD00@Z     0053cd90 f   menus.obj
 0001:0013be70       ?guinoautotab@@YAXPAI@Z    0053ce70 f   menus.obj
 0001:0013bea0       ?guistayopen@@YAXPAI@Z     0053cea0 f   menus.obj
 0001:0013bec0       ?guionclear@@YAXPAD@Z      0053cec0 f   menus.obj
 0001:0013bf00       ?clearguis@@YAXH@Z         0053cf00 f   menus.obj
 0001:0013bf50       ?hidegui@@YAXPBD@Z         0053cf50 f   menus.obj
 0001:0013bf70       ?showgui@@YAXPBD@Z         0053cf70 f   menus.obj
 0001:0013bfc0       ?restoregui@@YAXH@Z        0053cfc0 f   menus.obj
 0001:0013c010       ?pushgui@@YAXPAUmenu@@H@Z  0053d010 f   menus.obj
 0001:0013c180       ?removegui@@YAXPAUmenu@@@Z 0053d180 f   menus.obj
 0001:0013c1e0       ?popgui@@YAXXZ             0053d1e0 f   menus.obj
 0001:0013c200       ?addchange@@YAXPBDH@Z      0053d200 f   menus.obj
 0001:0013c310       ?clearchanges@@YAXH@Z      0053d310 f   menus.obj
 0001:0013c3d0       ?menuprocess@@YAXXZ        0053d3d0 f   menus.obj
 0001:0013c4f0       ?cleargui@@YAHH@Z          0053d4f0 f   menus.obj
 0001:0013c5e0       ?g3d_mainmenu@@YAXXZ       0053d5e0 f   menus.obj
 0001:0013c6a0       ?clearmainmenu@@YAXXZ      0053d6a0 f   menus.obj
 0001:0013c6e0       ?menuinfrontofplayer@@YA?AUvec@@XZ 0053d6e0 f   menus.obj
 0001:0013c7f0       ?run@?$_icmd_movierecording@$0EKH@@@SAXXZ 0053d7f0 f   movie.obj
 0001:0013c810       ?movie@@YAXPAD@Z           0053d810 f   movie.obj
 0001:0013c870       ?drawhud@recorder@@YAXXZ   0053d870 f   movie.obj
 0001:0013cad0       ?readbuffer@recorder@@YA_NXZ 0053dad0 f   movie.obj
 0001:0013cbf0       ?readbuffer@recorder@@YAXAAUvideobuffer@1@I@Z 0053dbf0 f   movie.obj
 0001:0013d9c0       ?drawquad@recorder@@YAXMMMMMM@Z 0053e9c0 f   movie.obj
 0001:0013daf0       ?start@recorder@@YAXPBDHHH_N@Z 0053eaf0 f   movie.obj
 0001:0013de90       ?soundencoder@recorder@@YAXPAXPAEH@Z 0053ee90 f   movie.obj
 0001:0013df50       ?videoencoder@recorder@@YAHPAX@Z 0053ef50 f   movie.obj
 0001:0013e220       ?gettime@recorder@@YAHXZ   0053f220 f   movie.obj
 0001:0013e280       ?calcquality@recorder@@YAMXZ 0053f280 f   movie.obj
 0001:0013e2e0       ?isrecording@recorder@@YA_NXZ 0053f2e0 f   movie.obj
 0001:0013e2f0       ?stop@recorder@@YAXXZ      0053f2f0 f   movie.obj
 0001:0013e480       ?cleanup@recorder@@YAXXZ   0053f480 f   movie.obj
 0001:0013e520       ?capture@recorder@@YAXXZ   0053f520 f   movie.obj
 0001:0013e670       ?updatemumble@@YAXXZ       0053f670 f   sound.obj
 0001:0013e810       ?closemumble@@YAXXZ        0053f810 f   sound.obj
 0001:0013e850       ?var_mumble@@YAXXZ         0053f850 f   sound.obj
 0001:0013e8a0       ?resetsound@@YAXXZ         0053f8a0 f   sound.obj
 0001:0013eaa0       ?sound@@YAXPAH@Z           0053faa0 f   sound.obj
 0001:0013eac0       ?playsoundname@@YAHPBDPBUvec@@HHHHHHH@Z 0053fac0 f   sound.obj
 0001:0013eb60       ?playsound@@YAHHPBUvec@@PAUextentity@@HHHHHH@Z 0053fb60 f   sound.obj
 0001:0013f090       ?updatechannel@@YA_NAAUsoundchannel@@@Z 00540090 f   sound.obj
 0001:0013f2e0       ?checkmapsounds@@YAXXZ     005402e0 f   sound.obj
 0001:0013f3c0       ?stopmapsound@@YAXPAUextentity@@@Z 005403c0 f   sound.obj
 0001:0013f440       ?stopmapsounds@@YAXXZ      00540440 f   sound.obj
 0001:0013f4c0       ?resetchannels@@YAXXZ      005404c0 f   sound.obj
 0001:0013f520       ?altmapsound@@YAXPADPAH@Z  00540520 f   sound.obj
 0001:0013f560       ?altsound@@YAXPADPAH@Z     00540560 f   sound.obj
 0001:0013f5a0       ?mapsound@@YAXPADPAH1@Z    005405a0 f   sound.obj
 0001:0013f630       ?registersound@@YAXPADPAH@Z 00540630 f   sound.obj
 0001:0013f910       ?startmusic@@YAXPAD0@Z     00540910 f   sound.obj
 0001:0013fa70       ?loadmusic@@YAPAU_Mix_Music@@PBD@Z 00540a70 f   sound.obj
 0001:0013fb60       ?musicdone@@YAXXZ          00540b60 f   sound.obj
 0001:0013fc10       ?var_soundbufferlen@@YAXXZ 00540c10 f   sound.obj
 0001:0013fc30       ?var_soundfreq@@YAXXZ      00540c30 f   sound.obj
 0001:0013fc50       ?var_soundchans@@YAXXZ     00540c50 f   sound.obj
 0001:0013fc70       ?stopmusic@@YAXXZ          00540c70 f   sound.obj
 0001:0013fd20       ?setmusicvol@@YAXH@Z       00540d20 f   sound.obj
 0001:0013fd60       ?var_musicvol@@YAXXZ       00540d60 f   sound.obj
 0001:0013fda0       ?var_soundvol@@YAXXZ       00540da0 f   sound.obj
 0001:0013fdd0       ?stopchannels@@YAXXZ       00540dd0 f   sound.obj
 0001:0013fe40       ?syncchannel@@YAXAAUsoundchannel@@@Z 00540e40 f   sound.obj
 0001:0013fe90       ?freechannel@@YAXH@Z       00540e90 f   sound.obj
 0001:0013fed0       ?newchannel@@YAAAUsoundchannel@@HPAUsoundslot@@PBUvec@@PAUextentity@@HH@Z 00540ed0 f   sound.obj
 0001:00140020       ?stopsounds@@YAXXZ         00541020 f   sound.obj
 0001:00140090       ?initsound@@YAXXZ          00541090 f   sound.obj
 0001:00140100       ?initmumble@@YAXXZ         00541100 f   sound.obj
 0001:001401c0       ?updatesounds@@YAXXZ       005411c0 f   sound.obj
 0001:001402f0       ?clear_sound@@YAXXZ        005412f0 f   sound.obj
 0001:001403d0       ?preloadmapsounds@@YAXXZ   005413d0 f   sound.obj
 0001:00140440       ?clearmapsounds@@YAXXZ     00541440 f   sound.obj
 0001:00140460       ?linecylinderintersect@@YA_NABUvec@@000MAAM@Z 00541460 f   geom.obj
 0001:00140860       ?adjoint@glmatrixf@@QAEXABU1@@Z 00541860 f   geom.obj
 0001:00140df0       ?invert@glmatrixf@@QAE_NABU1@M@Z 00541df0 f   geom.obj
 0001:00140f20       ?rayrectintersect@@YA_NABUvec@@000AAMAAH@Z 00541f20 f   geom.obj
 0001:00141120       ?openrawfile@@YAPAUstream@@PBD0@Z 00542120 f   stream.obj
 0001:001411f0       ?printf@stream@@UAAHPBDZZ  005421f0 f   stream.obj
 0001:00141290       ?getline@stream@@UAE_NPADH@Z 00542290 f   stream.obj
 0001:00141310       ?size@stream@@UAE_JXZ      00542310 f   stream.obj
 0001:00141430       ?listdir@@YA_NPBD_N0AAU?$vector@PAD@@@Z 00542430 f   stream.obj
 0001:001415a0       ?subhomedir@@YA_NPADHPBD@Z 005425a0 f   stream.obj
 0001:00141650       ?fixpackagedir@@YAIPAD@Z   00542650 f   stream.obj
 0001:00141680       ?decodeutf8@@YAHPAEH0HPAH@Z 00542680 f   stream.obj
 0001:00141890       ?sethomedir@@YAPBDPBD@Z    00542890 f   stream.obj
 0001:00141920       ?addpackagedir@@YAPBDPBD@Z 00542920 f   stream.obj
 0001:00141b00       ?loadfile@@YAPADPBDPAH_N@Z 00542b00 f   stream.obj
 0001:00141c00       ?listfiles@@YAHPBD0AAU?$vector@PAD@@@Z 00542c00 f   stream.obj
 0001:00141d90       ?rwops@stream@@QAEPAUSDL_RWops@@XZ 00542d90 f   stream.obj
 0001:00141dc0       ?fileexists@@YA_NPBD0@Z    00542dc0 f   stream.obj
 0001:00141df0       ?createdir@@YA_NPBD@Z      00542df0 f   stream.obj
 0001:00141e40       ?parentdir@@YAPBDPBD@Z     00542e40 f   stream.obj
 0001:00141e90       ?openutf8file@@YAPAUstream@@PBD0PAU1@@Z 00542e90 f   stream.obj
 0001:00141f40       ?path@@YAPADPBD_N@Z        00542f40 f   stream.obj
 0001:00141f70       ?encodeutf8@@YAHPAEH0HPAH@Z 00542f70 f   stream.obj
 0001:001420e0       ?findfile@@YAPBDPBD0@Z     005430e0 f   stream.obj
 0001:001422e0       ?openfile@@YAPAUstream@@PBD0@Z 005432e0 f   stream.obj
 0001:00142300       ?makerelpath@@YAPADPBD000@Z 00543300 f   stream.obj
 0001:00142470       ?opengzfile@@YAPAUstream@@PBD0PAU1@H@Z 00543470 f   stream.obj
 0001:00142520       ?path@@YAPADPAD@Z          00543520 f   stream.obj
 0001:00142750       ?seedMT@@YAXI@Z            00543750 f   tools.obj
 0001:00142790       ?guessnumcpus@@YAHXZ       00543790 f   tools.obj
 0001:001427b0       ?putint@@YAXAAU?$databuf@E@@H@Z 005437b0 f   tools.obj
 0001:001427c0       ?getint@@YAHAAU?$databuf@E@@@Z 005437c0 f   tools.obj
 0001:001428d0       ?filtertext@@YAXPADPBD_NH@Z 005438d0 f   tools.obj
 0001:00142920       ?getstring@@YAXPADAAU?$databuf@E@@H@Z 00543920 f   tools.obj
 0001:00142a70       ?randomMT@@YAIXZ           00543a70 f   tools.obj
 0001:00142ca0       ?run@?$_icmd_removezip@$0CDH@@@SAXPBD@Z 00543ca0 f   zip.obj
 0001:00142cb0       ?run@?$_icmd_addzip@$0CDG@@@SAXPBD00@Z 00543cb0 f   zip.obj
 0001:00142ce0       ?removezip@@YA_NPBD@Z      00543ce0 f   zip.obj
 0001:00142e00       ?addzip@@YA_NPBD00@Z       00543e00 f   zip.obj
 0001:00143390       ?findzip@@YAPAUziparchive@@PBD@Z 00544390 f   zip.obj
 0001:00143830       ?listzipfiles@@YAHPBD0AAU?$vector@PAD@@@Z 00544830 f   zip.obj
 0001:001439f0       ?openzipfile@@YAPAUstream@@PBD0@Z 005449f0 f   zip.obj
 0001:00143b60       ?updateplayer@rpgent@game@@QAEXXZ 00544b60 f   ent.obj
 0001:00143c40       ?update@rpgent@game@@QAEXM@Z 00544c40 f   ent.obj
 0001:00143f90       ?stareorroam@rpgent@game@@QAEXXZ 00544f90 f   ent.obj
 0001:00143fe0       ?goroam@rpgent@game@@QAEXXZ 00544fe0 f   ent.obj
 0001:001440e0       ?gotopos@rpgent@game@@QAEXAAUvec@@HHH@Z 005450e0 f   ent.obj
 0001:00144140       ?gotoyaw@rpgent@game@@QAEXMHHH@Z 00545140 f   ent.obj
 0001:00144180       ?transition@rpgent@game@@QAEXHHH@Z 00545180 f   ent.obj
 0001:001441b0       ?allowmove@rpgent@game@@QAE_NXZ 005451b0 f   ent.obj
 0001:001442d0       ?updateprojectile@rpgent@game@@QAEXXZ 005452d0 f   ent.obj
 0001:001445e0       ?tryattack@rpgent@game@@QAEXAAUvec@@AAUrpgobj@2@@Z 005455e0 f   ent.obj
 0001:00144a30       ?intersect@game@@YA_NPAUdynent@@ABUvec@@1AAM@Z 00545a30 f   ent.obj
 0001:00144aa0       ?tryattackobj@rpgent@game@@QAEXAAUrpgobj@2@0@Z 00545aa0 f   ent.obj
 0001:00144e10       ?run@?$_icmd_r_applydamage@$0KK@@game@@SAXPAH@Z 00545e10 f   objset.obj
 0001:00144e30       ?run@?$_icmd_r_use@$0KJ@@game@@SAXXZ 00545e30 f   objset.obj
 0001:00144e40       ?run@?$_icmd_r_give@$0KI@@game@@SAXPAD@Z 00545e40 f   objset.obj
 0001:00144ea0       ?run@?$_icmd_r_take@$0KH@@game@@SAXPAD00@Z 00545ea0 f   objset.obj
 0001:00144ec0       ?run@?$_icmd_r_action_use@$0KG@@game@@SAXPAD@Z 00545ec0 f   objset.obj
 0001:00144ee0       ?run@?$_icmd_r_action@$0KF@@game@@SAXPAD0@Z 00545ee0 f   objset.obj
 0001:00144f10       ?run@?$_icmd_r_quest@$0KE@@game@@SAXPAD0@Z 00545f10 f   objset.obj
 0001:00144f40       ?run@?$_icmd_r_say@$0KD@@game@@SAXPAD@Z 00545f40 f   objset.obj
 0001:00144f60       ?run@?$_icmd_r_swap@$0KC@@game@@SAXXZ 00545f60 f   objset.obj
 0001:00144f80       ?run@?$_icmd_r_pop@$0KB@@game@@SAXXZ 00545f80 f   objset.obj
 0001:00144f90       ?run@?$_icmd_r_contain@$0KA@@game@@SAXPAD@Z 00545f90 f   objset.obj
 0001:00144ff0       ?run@?$_icmd_r_spawn@$0JP@@game@@SAXPAD@Z 00545ff0 f   objset.obj
 0001:00145000       ?run@?$_icmd_r_model@$0JO@@game@@SAXPAD@Z 00546000 f   objset.obj
 0001:00145020       ?run@?$_icmd_r_eff_statc@$0JL@@game@@SAXXZ 00546020 f   objset.obj
 0001:00145070       ?run@?$_icmd_r_def_statc@$0JL@@game@@SAXPAH0@Z 00546070 f   objset.obj
 0001:00145090       ?run@?$_icmd_r_eff_statb@$0JL@@game@@SAXXZ 00546090 f   objset.obj
 0001:001450e0       ?run@?$_icmd_r_def_statb@$0JL@@game@@SAXPAH0@Z 005460e0 f   objset.obj
 0001:00145100       ?run@?$_icmd_r_eff_stata@$0JL@@game@@SAXXZ 00546100 f   objset.obj
 0001:00145150       ?run@?$_icmd_r_def_stata@$0JL@@game@@SAXPAH0@Z 00546150 f   objset.obj
 0001:00145170       ?run@?$_icmd_r_eff_hostility@$0JL@@game@@SAXXZ 00546170 f   objset.obj
 0001:001451c0       ?run@?$_icmd_r_def_hostility@$0JL@@game@@SAXPAH0@Z 005461c0 f   objset.obj
 0001:001451e0       ?run@?$_icmd_r_eff_stealth@$0JL@@game@@SAXXZ 005461e0 f   objset.obj
 0001:00145230       ?run@?$_icmd_r_def_stealth@$0JL@@game@@SAXPAH0@Z 00546230 f   objset.obj
 0001:00145250       ?run@?$_icmd_r_eff_feared@$0JL@@game@@SAXXZ 00546250 f   objset.obj
 0001:001452a0       ?run@?$_icmd_r_def_feared@$0JL@@game@@SAXPAH0@Z 005462a0 f   objset.obj
 0001:001452c0       ?run@?$_icmd_r_eff_tradeskill@$0JL@@game@@SAXXZ 005462c0 f   objset.obj
 0001:00145310       ?run@?$_icmd_r_def_tradeskill@$0JL@@game@@SAXPAH0@Z 00546310 f   objset.obj
 0001:00145330       ?run@?$_icmd_r_eff_jumpheight@$0JL@@game@@SAXXZ 00546330 f   objset.obj
 0001:00145380       ?run@?$_icmd_r_def_jumpheight@$0JL@@game@@SAXPAH0@Z 00546380 f   objset.obj
 0001:001453a0       ?run@?$_icmd_r_eff_movespeed@$0JL@@game@@SAXXZ 005463a0 f   objset.obj
 0001:001453f0       ?run@?$_icmd_r_def_movespeed@$0JL@@game@@SAXPAH0@Z 005463f0 f   objset.obj
 0001:00145410       ?run@?$_icmd_r_eff_attackspeed@$0JL@@game@@SAXXZ 00546410 f   objset.obj
 0001:00145460       ?run@?$_icmd_r_def_attackspeed@$0JL@@game@@SAXPAH0@Z 00546460 f   objset.obj
 0001:00145480       ?run@?$_icmd_r_eff_maxmana@$0JL@@game@@SAXXZ 00546480 f   objset.obj
 0001:001454d0       ?run@?$_icmd_r_def_maxmana@$0JL@@game@@SAXPAH0@Z 005464d0 f   objset.obj
 0001:001454f0       ?run@?$_icmd_r_eff_maxhp@$0JL@@game@@SAXXZ 005464f0 f   objset.obj
 0001:00145540       ?run@?$_icmd_r_def_maxhp@$0JL@@game@@SAXPAH0@Z 00546540 f   objset.obj
 0001:00145560       ?run@?$_icmd_r_eff_manaregen@$0JL@@game@@SAXXZ 00546560 f   objset.obj
 0001:001455b0       ?run@?$_icmd_r_def_manaregen@$0JL@@game@@SAXPAH0@Z 005465b0 f   objset.obj
 0001:001455d0       ?run@?$_icmd_r_eff_hpregen@$0JL@@game@@SAXXZ 005465d0 f   objset.obj
 0001:00145620       ?run@?$_icmd_r_def_hpregen@$0JL@@game@@SAXPAH0@Z 00546620 f   objset.obj
 0001:00145640       ?run@?$_icmd_r_eff_magic@$0JL@@game@@SAXXZ 00546640 f   objset.obj
 0001:00145690       ?run@?$_icmd_r_def_magic@$0JL@@game@@SAXPAH0@Z 00546690 f   objset.obj
 0001:001456b0       ?run@?$_icmd_r_eff_ranged@$0JL@@game@@SAXXZ 005466b0 f   objset.obj
 0001:00145700       ?run@?$_icmd_r_def_ranged@$0JL@@game@@SAXPAH0@Z 00546700 f   objset.obj
 0001:00145720       ?run@?$_icmd_r_eff_melee@$0JL@@game@@SAXXZ 00546720 f   objset.obj
 0001:00145770       ?run@?$_icmd_r_def_melee@$0JL@@game@@SAXPAH0@Z 00546770 f   objset.obj
 0001:00145790       ?run@?$_icmd_r_get_usesound@$0JH@@game@@SAXXZ 00546790 f   objset.obj
 0001:001457b0       ?run@?$_icmd_r_usesound@$0JH@@game@@SAXPAH@Z 005467b0 f   objset.obj
 0001:001457d0       ?run@?$_icmd_r_get_attrc@$0JH@@game@@SAXXZ 005467d0 f   objset.obj
 0001:001457f0       ?run@?$_icmd_r_attrc@$0JH@@game@@SAXPAH@Z 005467f0 f   objset.obj
 0001:00145810       ?run@?$_icmd_r_get_attrb@$0JH@@game@@SAXXZ 00546810 f   objset.obj
 0001:00145830       ?run@?$_icmd_r_attrb@$0JH@@game@@SAXPAH@Z 00546830 f   objset.obj
 0001:00145850       ?run@?$_icmd_r_get_attra@$0JH@@game@@SAXXZ 00546850 f   objset.obj
 0001:00145870       ?run@?$_icmd_r_attra@$0JH@@game@@SAXPAH@Z 00546870 f   objset.obj
 0001:00145890       ?run@?$_icmd_r_get_effectsize@$0JH@@game@@SAXXZ 00546890 f   objset.obj
 0001:001458b0       ?run@?$_icmd_r_effectsize@$0JH@@game@@SAXPAH@Z 005468b0 f   objset.obj
 0001:001458d0       ?run@?$_icmd_r_get_effectcolor@$0JH@@game@@SAXXZ 005468d0 f   objset.obj
 0001:001458f0       ?run@?$_icmd_r_effectcolor@$0JH@@game@@SAXPAH@Z 005468f0 f   objset.obj
 0001:00145910       ?run@?$_icmd_r_get_effectparticle@$0JH@@game@@SAXXZ 00546910 f   objset.obj
 0001:00145930       ?run@?$_icmd_r_effectparticle@$0JH@@game@@SAXPAH@Z 00546930 f   objset.obj
 0001:00145950       ?run@?$_icmd_r_get_manacost@$0JH@@game@@SAXXZ 00546950 f   objset.obj
 0001:00145970       ?run@?$_icmd_r_manacost@$0JH@@game@@SAXPAH@Z 00546970 f   objset.obj
 0001:00145990       ?run@?$_icmd_r_get_attackrate@$0JH@@game@@SAXXZ 00546990 f   objset.obj
 0001:001459b0       ?run@?$_icmd_r_attackrate@$0JH@@game@@SAXPAH@Z 005469b0 f   objset.obj
 0001:001459d0       ?run@?$_icmd_r_get_maxangle@$0JH@@game@@SAXXZ 005469d0 f   objset.obj
 0001:001459f0       ?run@?$_icmd_r_maxangle@$0JH@@game@@SAXPAH@Z 005469f0 f   objset.obj
 0001:00145a10       ?run@?$_icmd_r_get_maxrange@$0JH@@game@@SAXXZ 00546a10 f   objset.obj
 0001:00145a30       ?run@?$_icmd_r_maxrange@$0JH@@game@@SAXPAH@Z 00546a30 f   objset.obj
 0001:00145a50       ?run@?$_icmd_r_get_damage@$0JH@@game@@SAXXZ 00546a50 f   objset.obj
 0001:00145a70       ?run@?$_icmd_r_damage@$0JH@@game@@SAXPAH@Z 00546a70 f   objset.obj
 0001:00145a90       ?run@?$_icmd_r_get_usetype@$0JH@@game@@SAXXZ 00546a90 f   objset.obj
 0001:00145ab0       ?run@?$_icmd_r_usetype@$0JH@@game@@SAXPAH@Z 00546ab0 f   objset.obj
 0001:00145ad0       ?run@?$_icmd_r_get_useamount@$0JH@@game@@SAXXZ 00546ad0 f   objset.obj
 0001:00145af0       ?run@?$_icmd_r_useamount@$0JH@@game@@SAXPAH@Z 00546af0 f   objset.obj
 0001:00145b10       ?run@?$_icmd_r_get_worth@$0JH@@game@@SAXXZ 00546b10 f   objset.obj
 0001:00145b30       ?run@?$_icmd_r_worth@$0JH@@game@@SAXPAH@Z 00546b30 f   objset.obj
 0001:00145b50       ?run@?$_icmd_r_get_gold@$0JH@@game@@SAXXZ 00546b50 f   objset.obj
 0001:00145b70       ?run@?$_icmd_r_gold@$0JH@@game@@SAXPAH@Z 00546b70 f   objset.obj
 0001:00145b90       ?run@?$_icmd_r_get_mana@$0JH@@game@@SAXXZ 00546b90 f   objset.obj
 0001:00145bb0       ?run@?$_icmd_r_mana@$0JH@@game@@SAXPAH@Z 00546bb0 f   objset.obj
 0001:00145bd0       ?run@?$_icmd_r_get_hp@$0JH@@game@@SAXXZ 00546bd0 f   objset.obj
 0001:00145bf0       ?run@?$_icmd_r_hp@$0JH@@game@@SAXPAH@Z 00546bf0 f   objset.obj
 0001:00145c10       ?run@?$_icmd_r_get_ai@$0JH@@game@@SAXXZ 00546c10 f   objset.obj
 0001:00145c30       ?run@?$_icmd_r_ai@$0JH@@game@@SAXPAH@Z 00546c30 f   objset.obj
 0001:00145c50       ?run@?$_icmd_r_get_statc@$0JH@@game@@SAXXZ 00546c50 f   objset.obj
 0001:00145c70       ?run@?$_icmd_r_statc@$0JH@@game@@SAXPAH@Z 00546c70 f   objset.obj
 0001:00145c90       ?run@?$_icmd_r_get_statb@$0JH@@game@@SAXXZ 00546c90 f   objset.obj
 0001:00145cb0       ?run@?$_icmd_r_statb@$0JH@@game@@SAXPAH@Z 00546cb0 f   objset.obj
 0001:00145cd0       ?run@?$_icmd_r_get_stata@$0JH@@game@@SAXXZ 00546cd0 f   objset.obj
 0001:00145cf0       ?run@?$_icmd_r_stata@$0JH@@game@@SAXPAH@Z 00546cf0 f   objset.obj
 0001:00145d10       ?run@?$_icmd_r_get_hostility@$0JH@@game@@SAXXZ 00546d10 f   objset.obj
 0001:00145d30       ?run@?$_icmd_r_hostility@$0JH@@game@@SAXPAH@Z 00546d30 f   objset.obj
 0001:00145d50       ?run@?$_icmd_r_get_stealth@$0JH@@game@@SAXXZ 00546d50 f   objset.obj
 0001:00145d70       ?run@?$_icmd_r_stealth@$0JH@@game@@SAXPAH@Z 00546d70 f   objset.obj
 0001:00145d90       ?run@?$_icmd_r_get_feared@$0JH@@game@@SAXXZ 00546d90 f   objset.obj
 0001:00145db0       ?run@?$_icmd_r_feared@$0JH@@game@@SAXPAH@Z 00546db0 f   objset.obj
 0001:00145dd0       ?run@?$_icmd_r_get_tradeskill@$0JH@@game@@SAXXZ 00546dd0 f   objset.obj
 0001:00145df0       ?run@?$_icmd_r_tradeskill@$0JH@@game@@SAXPAH@Z 00546df0 f   objset.obj
 0001:00145e10       ?run@?$_icmd_r_get_jumpheight@$0JH@@game@@SAXXZ 00546e10 f   objset.obj
 0001:00145e30       ?run@?$_icmd_r_jumpheight@$0JH@@game@@SAXPAH@Z 00546e30 f   objset.obj
 0001:00145e50       ?run@?$_icmd_r_get_movespeed@$0JH@@game@@SAXXZ 00546e50 f   objset.obj
 0001:00145e70       ?run@?$_icmd_r_movespeed@$0JH@@game@@SAXPAH@Z 00546e70 f   objset.obj
 0001:00145e90       ?run@?$_icmd_r_get_attackspeed@$0JH@@game@@SAXXZ 00546e90 f   objset.obj
 0001:00145eb0       ?run@?$_icmd_r_attackspeed@$0JH@@game@@SAXPAH@Z 00546eb0 f   objset.obj
 0001:00145ed0       ?run@?$_icmd_r_get_maxmana@$0JH@@game@@SAXXZ 00546ed0 f   objset.obj
 0001:00145ef0       ?run@?$_icmd_r_maxmana@$0JH@@game@@SAXPAH@Z 00546ef0 f   objset.obj
 0001:00145f10       ?run@?$_icmd_r_get_maxhp@$0JH@@game@@SAXXZ 00546f10 f   objset.obj
 0001:00145f30       ?run@?$_icmd_r_maxhp@$0JH@@game@@SAXPAH@Z 00546f30 f   objset.obj
 0001:00145f50       ?run@?$_icmd_r_get_manaregen@$0JH@@game@@SAXXZ 00546f50 f   objset.obj
 0001:00145f70       ?run@?$_icmd_r_manaregen@$0JH@@game@@SAXPAH@Z 00546f70 f   objset.obj
 0001:00145f90       ?run@?$_icmd_r_get_hpregen@$0JH@@game@@SAXXZ 00546f90 f   objset.obj
 0001:00145fb0       ?run@?$_icmd_r_hpregen@$0JH@@game@@SAXPAH@Z 00546fb0 f   objset.obj
 0001:00145fd0       ?run@?$_icmd_r_get_magic@$0JH@@game@@SAXXZ 00546fd0 f   objset.obj
 0001:00145ff0       ?run@?$_icmd_r_magic@$0JH@@game@@SAXPAH@Z 00546ff0 f   objset.obj
 0001:00146010       ?run@?$_icmd_r_get_ranged@$0JH@@game@@SAXXZ 00547010 f   objset.obj
 0001:00146030       ?run@?$_icmd_r_ranged@$0JH@@game@@SAXPAH@Z 00547030 f   objset.obj
 0001:00146050       ?run@?$_icmd_r_get_melee@$0JH@@game@@SAXXZ 00547050 f   objset.obj
 0001:00146070       ?run@?$_icmd_r_melee@$0JH@@game@@SAXPAH@Z 00547070 f   objset.obj
 0001:00146090       ?g3d_npcmenus@game@@YAXXZ  00547090 f   objset.obj
 0001:00146220       ?renderobjects@game@@YAXXZ 00547220 f   objset.obj
 0001:00146440       ?stringpool@game@@YAPADPAD@Z 00547440 f   objset.obj
 0001:001464b0       ?listquests@game@@YAX_NAAUg3d_gui@@@Z 005474b0 f   objset.obj
 0001:00146520       ?addquest@game@@YAPAUrpgquest@1@PBD0@Z 00547520 f   objset.obj
 0001:001465b0       ?givetoplayer@game@@YAXPAD@Z 005475b0 f   objset.obj
 0001:00146610       ?takefromplayer@game@@YAXPAD00@Z 00547610 f   objset.obj
 0001:001466a0       ?taken@game@@YAXPAUrpgobj@1@0@Z 005476a0 f   objset.obj
 0001:00146750       ?removefromworld@game@@YAXPAUrpgobj@1@@Z 00547750 f   objset.obj
 0001:001467d0       ?popobj@game@@YAXXZ        005477d0 f   objset.obj
 0001:00146850       ?spawnfroment@game@@YAXAAUrpgentity@@@Z 00547850 f   objset.obj
 0001:00146870       ?placeinworld@game@@YAXAAUvec@@M@Z 00547870 f   objset.obj
 0001:00146940       ?spawn@game@@YAXPAD@Z      00547940 f   objset.obj
 0001:001469c0       ?updateobjects@game@@YAXXZ 005479c0 f   objset.obj
 0001:00146b60       ?clearworld@game@@YAXXZ    00547b60 f   objset.obj
 0001:00146c20       ?resetstack@game@@YAXXZ    00547c20 f   objset.obj
 0001:00146c80       ?removefromsystem@game@@YAXPAUrpgobj@1@@Z 00547c80 f   objset.obj
 0001:00146d40       ?pushobj@game@@YAXPAUrpgobj@1@@Z 00547d40 f   objset.obj
 0001:00146d70       ?quad@game@@YAXHHHH@Z      00547d70 f   rpg.obj
 0001:00146e10       ?run@?$_icmd_showplayergui@$0GE@@game@@SAXPAH@Z 00547e10 f   rpg.obj
 0001:00146e20       ?run@?$_icmd_map@$0DA@@game@@SAXPAD@Z 00547e20 f   rpg.obj
 0001:00146e30       ?parseoptions@game@@YAXAAU?$vector@PBD@@@Z 00547e30 f   rpg.obj
 0001:00146e40       ?initclient@game@@YAXXZ    00547e40 f   rpg.obj
 0001:00146ed0       ?restoreconfig@game@@YAPBDXZ 00547ed0 f   rpg.obj
 0001:00146ee0       ?loadconfigs@game@@YAXXZ   00547ee0 f   rpg.obj
 0001:00146ef0       ?changemap@game@@YAXPBD@Z  00547ef0 f   rpg.obj
 0001:00146f70       ?updateworld@game@@YAXXZ   00547f70 f   rpg.obj
 0001:00146fa0       ?clipconsole@game@@YAHHH@Z 00547fa0 f   rpg.obj
 0001:00146fb0       ?toserver@game@@YAXPAD@Z   00547fb0 f   rpg.obj
 0001:00146fc0       ?vartrigger@game@@YAXPAUident@@@Z 00547fc0 f   rpg.obj
 0001:00146fd0       ?savedconfig@game@@YAPBDXZ 00547fd0 f   rpg.obj
 0001:00146fe0       ?autoexec@game@@YAPBDXZ    00547fe0 f   rpg.obj
 0001:00146ff0       ?defaultconfig@game@@YAPBDXZ 00547ff0 f   rpg.obj
 0001:00147000       ?writeclientinfo@game@@YAXPAUstream@@@Z 00548000 f   rpg.obj
 0001:00147010       ?particletrack@game@@YAXPAUphysent@@AAUvec@@1@Z 00548010 f   rpg.obj
 0001:00147020       ?lighteffects@game@@YAXPAUdynent@@AAUvec@@1@Z 00548020 f   rpg.obj
 0001:00147030       ?allowmouselook@game@@YA_NXZ 00548030 f   rpg.obj
 0001:00147040       ?setupcamera@game@@YAXXZ   00548040 f   rpg.obj
 0001:00147050       ?detachcamera@game@@YA_NXZ 00548050 f   rpg.obj
 0001:00147060       ?collidecamera@game@@YA_NXZ 00548060 f   rpg.obj
 0001:00147070       ?rendergame@game@@YAX_N@Z  00548070 f   rpg.obj
 0001:001470c0       ?renderavatar@game@@YAXXZ  005480c0 f   rpg.obj
 0001:001470d0       ?needminimap@game@@YA_NXZ  005480d0 f   rpg.obj
 0001:001470e0       ?ispaused@game@@YA_NXZ     005480e0 f   rpg.obj
 0001:001470f0       ?defaultcrosshair@game@@YAPBDH@Z 005480f0 f   rpg.obj
 0001:00147100       ?selectcrosshair@game@@YAHAAM00@Z 00548100 f   rpg.obj
 0001:00147120       ?gameplayhud@game@@YAXHH@Z 00548120 f   rpg.obj
 0001:001472f0       ?abovegameplayhud@game@@YAMHH@Z 005482f0 f   rpg.obj
 0001:00147320       ?adddynlights@game@@YAXXZ  00548320 f   rpg.obj
 0001:00147330       ?dynlighttrack@game@@YAXPAUphysent@@AAUvec@@1@Z 00548330 f   rpg.obj
 0001:00147340       ?renderplayerpreview@game@@YAXHHH@Z 00548340 f   rpg.obj
 0001:00147350       ?g3d_gamemenus@game@@YAXXZ 00548350 f   rpg.obj
 0001:00147380       ?servercompatible@server@@YA_NPAD00HABU?$vector@H@@H@Z 00548380 f   rpg.obj
 0001:00147390       ?serverinfostartcolumn@game@@YA_NPAUg3d_gui@@H@Z 00548390 f   rpg.obj
 0001:001473a0       ?serverinfoentry@game@@YA_NPAUg3d_gui@@HPBDH11HABU?$vector@H@@H@Z 005483a0 f   rpg.obj
 0001:001473b0       ?serverinfoendcolumn@game@@YAXPAUg3d_gui@@H@Z 005483b0 f   rpg.obj
 0001:001473c0       ?savedservers@game@@YAPBDXZ 005483c0 f   rpg.obj
 0001:001473d0       ?newclientinfo@server@@YAPAXXZ 005483d0 f   rpg.obj
 0001:001473e0       ?deleteclientinfo@server@@YAXPAX@Z 005483e0 f   rpg.obj
 0001:001473f0       ?clientdisconnect@server@@YAXH@Z 005483f0 f   rpg.obj
 0001:00147400       ?sendservmsg@server@@YAXPBD@Z 00548400 f   rpg.obj
 0001:00147410       ?parsepacket@server@@YAXHHAAUpacketbuf@@@Z 00548410 f   rpg.obj
 0001:00147420       ?defaultmaster@server@@YAPBDXZ 00548420 f   rpg.obj
 0001:00147430       ?masterport@server@@YAHXZ  00548430 f   rpg.obj
 0001:00147440       ?processmasterinput@server@@YAXPBDH0@Z 00548440 f   rpg.obj
 0001:00147450       ?serverinforeply@server@@YAXAAU?$databuf@E@@0@Z 00548450 f   rpg.obj
 0001:00147460       ?serverupdate@server@@YAXXZ 00548460 f   rpg.obj
 0001:00147470       ?sendpackets@server@@YA_N_N@Z 00548470 f   rpg.obj
 0001:00147480       ?scaletime@server@@YAHH@Z  00548480 f   rpg.obj
 0001:00147490       ?ispaused@server@@YA_NXZ   00548490 f   rpg.obj
 0001:001474a0       ?clientconnect@server@@YAHHI@Z 005484a0 f   rpg.obj
 0001:001474b0       ?localdisconnect@server@@YAXH@Z 005484b0 f   rpg.obj
 0001:001474c0       ?localconnect@server@@YAXH@Z 005484c0 f   rpg.obj
 0001:001474d0       ?reserveclients@server@@YAHXZ 005484d0 f   rpg.obj
 0001:001474e0       ?serverinfoport@server@@YAHH@Z 005484e0 f   rpg.obj
 0001:001474f0       ?laninfoport@server@@YAHXZ 005484f0 f   rpg.obj
 0001:00147500       ?serverinit@server@@YAXXZ  00548500 f   rpg.obj
 0001:00147510       ?connectfail@game@@YAXXZ   00548510 f   rpg.obj
 0001:00147520       ?serverport@server@@YAHH@Z 00548520 f   rpg.obj
 0001:00147530       ?numchannels@server@@YAHXZ 00548530 f   rpg.obj
 0001:00147540       ?connectattempt@game@@YAXPBD0ABU_ENetAddress@@@Z 00548540 f   rpg.obj
 0001:00147550       ?gamedisconnect@game@@YAX_N@Z 00548550 f   rpg.obj
 0001:00147560       ?gameconnect@game@@YAX_N@Z 00548560 f   rpg.obj
 0001:00147570       ?gameident@game@@YAPBDXZ   00548570 f   rpg.obj
 0001:00147580       ?writegamedata@game@@YAXAAU?$vector@D@@@Z 00548580 f   rpg.obj
 0001:00147590       ?getmapinfo@game@@YAPBDXZ  00548590 f   rpg.obj
 0001:001475a0       ?readgamedata@game@@YAXAAU?$vector@D@@@Z 005485a0 f   rpg.obj
 0001:001475b0       ?preload@game@@YAXXZ       005485b0 f   rpg.obj
 0001:001475c0       ?startmap@game@@YAXPBD@Z   005485c0 f   rpg.obj
 0001:00147680       ?newmap@game@@YAXH@Z       00548680 f   rpg.obj
 0001:00147690       ?numdynents@game@@YAHXZ    00548690 f   rpg.obj
 0001:001476a0       ?iterdynents@game@@YAPAUdynent@@H@Z 005486a0 f   rpg.obj
 0001:001476b0       ?dynentcollide@game@@YAXPAUphysent@@0ABUvec@@@Z 005486b0 f   rpg.obj
 0001:001476c0       ?allowmove@game@@YA_NPAUphysent@@@Z 005486c0 f   rpg.obj
 0001:001476e0       ?physicstrigger@game@@YAXPAUphysent@@_NHHH@Z 005486e0 f   rpg.obj
 0001:00147750       ?suicide@game@@YAXPAUphysent@@@Z 00548750 f   rpg.obj
 0001:00147760       ?scaletime@game@@YAHH@Z    00548760 f   rpg.obj
 0001:00147770       ?canjump@game@@YA_NXZ      00548770 f   rpg.obj
 0001:00147780       ?doattack@game@@YAX_N@Z    00548780 f   rpg.obj
 0001:00147790       ?allowedittoggle@game@@YA_NXZ 00548790 f   rpg.obj
 0001:001477a0       ?resetgamestate@game@@YAXXZ 005487a0 f   rpg.obj
 0001:001477b0       ?edittoggled@game@@YAX_N@Z 005487b0 f   rpg.obj
 0001:001477c0       ?edittrigger@game@@YAXABUselinfo@@HHHH@Z 005487c0 f   rpg.obj
 0001:001477d0       ?getclientmap@game@@YAPBDXZ 005487d0 f   rpg.obj
 0001:001477e0       ?forceedit@game@@YAXPBD@Z  005487e0 f   rpg.obj
 0001:001477f0       ?run@?$_icmd_spawnname@$0FK@@entities@@SAXPAD@Z 005487f0 f   entities1.obj
 0001:00147840       ?startmap@entities@@YAXXZ  00548840 f   entities1.obj
 0001:00147980       ?animatemapmodel@entities@@YAXABUextentity@@AAH1@Z 00548980 f   entities1.obj
 0001:00147990       ?readent@entities@@YAXAAUentity@@PADH@Z 00548990 f   entities1.obj
 0001:001479b0       ?extraentinfosize@entities@@YAHXZ 005489b0 f   entities1.obj
 0001:001479c0       ?writeent@entities@@YAXAAUentity@@PAD@Z 005489c0 f   entities1.obj
 0001:001479e0       ?entname@entities@@YAPBDH@Z 005489e0 f   entities1.obj
 0001:00147a00       ?entnameinfo@entities@@YAPBDAAUentity@@@Z 00548a00 f   entities1.obj
 0001:00147a10       ?mayattach@entities@@YA_NAAUextentity@@@Z 00548a10 f   entities1.obj
 0001:00147a20       ?attachent@entities@@YA_NAAUextentity@@0@Z 00548a20 f   entities1.obj
 0001:00147a30       ?editent@entities@@YAXH_N@Z 00548a30 f   entities1.obj
 0001:00147a40       ?entmodel@entities@@YAPBDABUentity@@@Z 00548a40 f   entities1.obj
 0001:00147a50       ?entradius@entities@@YAXAAUextentity@@_N@Z 00548a50 f   entities1.obj
 0001:00147ab0       ?fixentity@entities@@YAXAAUextentity@@@Z 00548ab0 f   entities1.obj
 0001:00147ad0       ?deleteentity@entities@@YAXPAUextentity@@@Z 00548ad0 f   entities1.obj
 0001:00147ae0       ?printent@entities@@YA_NAAUextentity@@PAD@Z 00548ae0 f   entities1.obj
 0001:00147af0       ?clearents@entities@@YAXXZ 00548af0 f   entities1.obj
 0001:00147b30       ?dropheight@entities@@YAMAAUentity@@@Z 00548b30 f   entities1.obj
 0001:00147b50       ?newentity@entities@@YAPAUextentity@@XZ 00548b50 f   entities1.obj
 0001:00147bf0       ?getents@entities@@YAAAU?$vector@PAUextentity@@@@XZ 00548bf0 f   entities1.obj
 0001:00147c00       _fmod                      00548c00 f   LIBCMT:87fmod.obj
 0001:00147c0a       __CIfmod                   00548c0a f   LIBCMT:87fmod.obj
 0001:00147cf0       ?_CallCatchBlock2@@YAPAXPAUEHRegistrationNode@@PBU_s_FuncInfo@@PAXHK@Z 00548cf0 f   LIBCMT:_trnsctrl_.obj
 0001:00147d4e       ?_CallMemberFunction2@@YGXPAX00H@Z 00548d4e f   LIBCMT:_trnsctrl_.obj
 0001:00147d4e       ?_CallMemberFunction0@@YGXPAX0@Z 00548d4e f   LIBCMT:_trnsctrl_.obj
 0001:00147d4e       ?_CallMemberFunction1@@YGXPAX00@Z 00548d4e f   LIBCMT:_trnsctrl_.obj
 0001:00147d55       ?_CallSETranslator@@YAHPAUEHExceptionRecord@@PAUEHRegistrationNode@@PAX2PBU_s_FuncInfo@@H1@Z 00548d55 f   LIBCMT:_trnsctrl_.obj
 0001:00147e2a       ?_GetRangeOfTrysToCheck@@YAPBU_s_TryBlockMapEntry@@PBU_s_FuncInfo@@HHPAI1@Z 00548e2a f   LIBCMT:_trnsctrl_.obj
 0001:00147ea9       ?_JumpToContinuation@@YGXPAXPAUEHRegistrationNode@@@Z 00548ea9 f   LIBCMT:_trnsctrl_.obj
 0001:00147ed9       ?_UnwindNestedFrames@@YGXPAUEHRegistrationNode@@PAUEHExceptionRecord@@@Z 00548ed9 f   LIBCMT:_trnsctrl_.obj
 0001:00147f2c       __CreateFrameInfo          00548f2c f   LIBCMT:_trnsctrl_.obj
 0001:00147f56       __FindAndUnlinkFrame       00548f56 f   LIBCMT:_trnsctrl_.obj
 0001:00147fa6       __IsExceptionObjectToBeDestroyed 00548fa6 f   LIBCMT:_trnsctrl_.obj
 0001:00147fcf       ___CxxFrameHandler3        00548fcf f   LIBCMT:_trnsctrl_.obj
 0001:00148005       ___libm_sse2_acosf         00549005 f   LIBCMT:acosf_sse2.obj
 0001:001483e2       ___libm_sse2_asinf         005493e2 f   LIBCMT:asinf_sse2.obj
 0001:0014879f       ___libm_sse2_atan2         0054979f f   LIBCMT:atan2_sse2.obj
 0001:00148cb5       ___libm_sse2_atanf         00549cb5 f   LIBCMT:atanf_sse2.obj
 0001:00148e55       ___libm_sse2_cos           00549e55 f   LIBCMT:cos_sse2.obj
 0001:00148ff6       ___libm_sse2_cosf          00549ff6 f   LIBCMT:cosf_sse2.obj
 0001:00149143       ___libm_sse2_expf          0054a143 f   LIBCMT:expf_sse2.obj
 0001:0014929a       ___libm_sse2_log           0054a29a f   LIBCMT:log_sse2.obj
 0001:001494c0       ___libm_sse2_log10f        0054a4c0 f   LIBCMT:log10f_sse2.obj
 0001:00149639       ___libm_sse2_logf          0054a639 f   LIBCMT:logf_sse2.obj
 0001:001497b2       ___libm_sse2_powf          0054a7b2 f   LIBCMT:powf_sse2.obj
 0001:00149e65       ___libm_sse2_sin           0054ae65 f   LIBCMT:sin_sse2.obj
 0001:0014a013       ___libm_sse2_sinf          0054b013 f   LIBCMT:sinf_sse2.obj
 0001:0014a158       ___libm_sse2_tan           0054b158 f   LIBCMT:tan_sse2.obj
 0001:0014a3a3       ___libm_sse2_tanf          0054b3a3 f   LIBCMT:tanf_sse2.obj
 0001:0014a540       ___vdecl_expf4             0054b540 f   LIBCMT:svml_sexpf4_dispatch.obj
 0001:0014a560       __allshl                   0054b560 f   LIBCMT:llshl.obj
 0001:0014a580       __allshr                   0054b580 f   LIBCMT:llshr.obj
 0001:0014a5b8       __except_handler3          0054b5b8 f   LIBCMT:exsup3.obj
 0001:0014a6b6       __seh_longjmp_unwind@4     0054b6b6 f   LIBCMT:exsup3.obj
 0001:0014a6e0       __cintrindisp2             0054b6e0 f   LIBCMT:87cdisp.obj
 0001:0014a71e       __cintrindisp1             0054b71e f   LIBCMT:87cdisp.obj
 0001:0014a75b       __ctrandisp2               0054b75b f   LIBCMT:87cdisp.obj
 0001:0014a8ea       __ctrandisp1               0054b8ea f   LIBCMT:87cdisp.obj
 0001:0014a91d       __fload                    0054b91d f   LIBCMT:87cdisp.obj
 0001:0014a960       __trandisp1                0054b960 f   LIBCMT:87disp.obj
 0001:0014a9c7       __trandisp2                0054b9c7 f   LIBCMT:87disp.obj
 0001:0014aa53       __rttospopde               0054ba53     LIBCMT:87disp.obj
 0001:0014aa58       __rttospop                 0054ba58     LIBCMT:87disp.obj
 0001:0014aa5a       __rtnospop                 0054ba5a     LIBCMT:87disp.obj
 0001:0014aa5c       __rttosnpop                0054ba5c     LIBCMT:87disp.obj
 0001:0014aa5d       __rtnospopde               0054ba5d     LIBCMT:87disp.obj
 0001:0014aa64       __rtzeropop                0054ba64     LIBCMT:87disp.obj
 0001:0014aa66       __rtzeronpop               0054ba66     LIBCMT:87disp.obj
 0001:0014aa6b       __rtonepop                 0054ba6b     LIBCMT:87disp.obj
 0001:0014aa6d       __rtonenpop                0054ba6d     LIBCMT:87disp.obj
 0001:0014aa72       __tosnan1                  0054ba72     LIBCMT:87disp.obj
 0001:0014aa9d       __nosnan2                  0054ba9d     LIBCMT:87disp.obj
 0001:0014aa9f       __tosnan2                  0054ba9f     LIBCMT:87disp.obj
 0001:0014aac7       __nan2                     0054bac7     LIBCMT:87disp.obj
 0001:0014ab06       __rtindfpop                0054bb06     LIBCMT:87disp.obj
 0001:0014ab08       __rtindfnpop               0054bb08     LIBCMT:87disp.obj
 0001:0014ab19       __rttosnpopde              0054bb19     LIBCMT:87disp.obj
 0001:0014ab23       __rtchsifneg               0054bb23     LIBCMT:87disp.obj
 0001:0014ab30       __CallSettingFrame@12      0054bb30 f   LIBCMT:lowhelpr.obj
 0001:0014ab57       __NLG_Return               0054bb57     LIBCMT:lowhelpr.obj
 0001:0014ab7c       ___DestructExceptionObject 0054bb7c f   LIBCMT:frame.obj
 0001:0014ac07       ??0bad_exception@std@@QAE@ABV01@@Z 0054bc07 f i LIBCMT:frame.obj
 0001:0014ac22       ??1bad_exception@std@@UAE@XZ 0054bc22 f i LIBCMT:frame.obj
 0001:0014ac2d       ??_Ebad_exception@std@@UAEPAXI@Z 0054bc2d f i LIBCMT:frame.obj
 0001:0014ac2d       ??_Gbad_exception@std@@UAEPAXI@Z 0054bc2d f i LIBCMT:frame.obj
 0001:0014b463       ___AdjustPointer           0054c463 f   LIBCMT:frame.obj
 0001:0014b488       ___BuildCatchObject        0054c488 f   LIBCMT:frame.obj
 0001:0014b516       ___BuildCatchObjectHelper  0054c516 f   LIBCMT:frame.obj
 0001:0014b69b       ___FrameUnwindFilter       0054c69b f   LIBCMT:frame.obj
 0001:0014b6e9       ___FrameUnwindToState      0054c6e9 f   LIBCMT:frame.obj
 0001:0014b7c2       ___InternalCxxFrameHandler 0054c7c2 f   LIBCMT:frame.obj
 0001:0014b8a1       ___TypeMatch               0054c8a1 f   LIBCMT:frame.obj
 0001:0014b900       _cos                       0054c900 f   LIBCMT:cos.obj
 0001:0014b940       __CIcos                    0054c940 f   LIBCMT:cos.obj
 0001:0014b97b       __CIcos_default            0054c97b f   LIBCMT:cos.obj
 0001:0014b98f       __cos_default              0054c98f     LIBCMT:cos.obj
 0001:0014ba30       _sin                       0054ca30 f   LIBCMT:sin.obj
 0001:0014ba70       __CIsin                    0054ca70 f   LIBCMT:sin.obj
 0001:0014baab       __CIsin_default            0054caab f   LIBCMT:sin.obj
 0001:0014babf       __sin_default              0054cabf     LIBCMT:sin.obj
 0001:0014bb60       _tan                       0054cb60 f   LIBCMT:tan.obj
 0001:0014bba0       __CItan                    0054cba0 f   LIBCMT:tan.obj
 0001:0014bbdb       __CItan_default            0054cbdb f   LIBCMT:tan.obj
 0001:0014bbef       __tan_default              0054cbef     LIBCMT:tan.obj
 0001:0014bc90       ___sse2_expf4              0054cc90 f   LIBCMT:svml_sexpf4_sse2.obj
 0001:0014beb0       ___sse4_expf4              0054ceb0 f   LIBCMT:svml_sexpf4_sse4.obj
 0001:0014c170       _CallDestructExceptionObject 0054d170 f   LIBCMT:calldtor.obj
 0001:0014c270       __ValidateEH3RN            0054d270 f   LIBCMT:eh3valid.obj
 0001:0014c5d2       __87except                 0054d5d2 f   LIBCMT:87except.obj
 0001:0014c6db       ?_ValidateWrite@@YAHPAXI@Z 0054d6db f   LIBCMT:validate.obj
 0001:0014c6db       ?_ValidateExecute@@YAHP6GHXZ@Z 0054d6db f   LIBCMT:validate.obj
 0001:0014c6db       ?_ValidateRead@@YAHPBXI@Z  0054d6db f   LIBCMT:validate.obj
 0001:0014c6ea       ??0exception@std@@QAE@ABQBD@Z 0054d6ea f   LIBCMT:stdexcpt.obj
 0001:0014c70f       ??0exception@std@@QAE@ABV01@@Z 0054d70f f   LIBCMT:stdexcpt.obj
 0001:0014c732       ??1exception@std@@UAE@XZ   0054d732 f   LIBCMT:stdexcpt.obj
 0001:0014c73d       ??4exception@std@@QAEAAV01@ABV01@@Z 0054d73d f   LIBCMT:stdexcpt.obj
 0001:0014c770       ??_Eexception@std@@UAEPAXI@Z 0054d770 f i LIBCMT:stdexcpt.obj
 0001:0014c770       ??_Gexception@std@@UAEPAXI@Z 0054d770 f i LIBCMT:stdexcpt.obj
 0001:0014c795       ?_Copy_str@exception@std@@AAEXPBD@Z 0054d795 f   LIBCMT:stdexcpt.obj
 0001:0014c7d3       ?_Tidy@exception@std@@AAEXXZ 0054d7d3 f   LIBCMT:stdexcpt.obj
 0001:0014c7ef       ?what@exception@std@@UBEPBDXZ 0054d7ef f   LIBCMT:stdexcpt.obj
 0001:0014c7fc       __CxxThrowException@8      0054d7fc f   LIBCMT:throw.obj
 0001:0014c857       __EH_prolog3_catch         0054d857 f   LIBCMT:ehprolg3.obj
 0001:0014c890       __CIcos_pentium4           0054d890 f   LIBCMT:cos_pentium4.obj
 0001:0014c8a8       __cos_pentium4             0054d8a8     LIBCMT:cos_pentium4.obj
 0001:0014ca40       __twoToTOS                 0054da40 f   LIBCMT:common.obj
 0001:0014ca55       __load_CW                  0054da55 f   LIBCMT:common.obj
 0001:0014ca6c       __convertTOStoQNaN         0054da6c f   LIBCMT:common.obj
 0001:0014ca85       __fload_withFB             0054da85 f   LIBCMT:common.obj
 0001:0014cac8       __checkTOS_withFB          0054dac8 f   LIBCMT:common.obj
 0001:0014cade       __fast_exit                0054dade f   LIBCMT:common.obj
 0001:0014caeb       __math_exit                0054daeb f   LIBCMT:common.obj
 0001:0014cb15       __check_overflow_exit      0054db15 f   LIBCMT:common.obj
 0001:0014cb29       __check_range_exit         0054db29 f   LIBCMT:common.obj
 0001:0014cbd0       __startTwoArgErrorHandling 0054dbd0 f   LIBCMT:genexcep.obj
 0001:0014cbe7       __startOneArgErrorHandling 0054dbe7 f   LIBCMT:genexcep.obj
 0001:0014cc30       __CIsin_pentium4           0054dc30 f   LIBCMT:sin_pentium4.obj
 0001:0014cc48       __sin_pentium4             0054dc48     LIBCMT:sin_pentium4.obj
 0001:0014ce00       __CItan_pentium4           0054de00 f   LIBCMT:tan_pentium4.obj
 0001:0014ce18       __tan_pentium4             0054de18     LIBCMT:tan_pentium4.obj
 0001:001650a0       ??__Fmeshgroups@?1??sharemeshes@animmodel@@QAAPAUmeshgroup@1@PBDZZ@YAXXZ 005660a0 f i rendermodel.obj
 0001:001650d0       ??__Fskeletons@?4??shareskeleton@skelmeshgroup@skelmodel@@QAEXPAD@Z@YAXXZ 005660d0 f i rendermodel.obj
 0002:00000000       __imp__VirtualQuery@12     00567000     kernel32:KERNEL32.dll
 0002:00000004       __imp__SetEnvironmentVariableA@8 00567004     kernel32:KERNEL32.dll
 0002:00000008       __imp__SetEndOfFile@4      00567008     kernel32:KERNEL32.dll
 0002:0000000c       __imp__CreateFileW@28      0056700c     kernel32:KERNEL32.dll
 0002:00000010       __imp__GetStringTypeW@16   00567010     kernel32:KERNEL32.dll
 0002:00000014       __imp__WriteConsoleW@20    00567014     kernel32:KERNEL32.dll
 0002:00000018       __imp__FlushFileBuffers@4  00567018     kernel32:KERNEL32.dll
 0002:0000001c       __imp__LCMapStringW@24     0056701c     kernel32:KERNEL32.dll
 0002:00000020       __imp__CompareStringW@24   00567020     kernel32:KERNEL32.dll
 0002:00000024       __imp__GetTimeFormatW@24   00567024     kernel32:KERNEL32.dll
 0002:00000028       __imp__GetCurrentProcessId@0 00567028     kernel32:KERNEL32.dll
 0002:0000002c       __imp__QueryPerformanceCounter@4 0056702c     kernel32:KERNEL32.dll
 0002:00000030       __imp__GetModuleFileNameA@12 00567030     kernel32:KERNEL32.dll
 0002:00000034       __imp__SetFilePointer@16   00567034     kernel32:KERNEL32.dll
 0002:00000038       __imp__ReadConsoleW@20     00567038     kernel32:KERNEL32.dll
 0002:0000003c       __imp__SetFilePointerEx@20 0056703c     kernel32:KERNEL32.dll
 0002:00000040       __imp__GetFileType@4       00567040     kernel32:KERNEL32.dll
 0002:00000044       __imp__GetTimeZoneInformation@4 00567044     kernel32:KERNEL32.dll
 0002:00000048       __imp__LoadLibraryExW@12   00567048     kernel32:KERNEL32.dll
 0002:0000004c       __imp__DeleteCriticalSection@4 0056704c     kernel32:KERNEL32.dll
 0002:00000050       __imp__GetCurrentThreadId@0 00567050     kernel32:KERNEL32.dll
 0002:00000054       __imp__GetCPInfo@8         00567054     kernel32:KERNEL32.dll
 0002:00000058       __imp__GetOEMCP@0          00567058     kernel32:KERNEL32.dll
 0002:0000005c       __imp__GetACP@0            0056705c     kernel32:KERNEL32.dll
 0002:00000060       __imp__IsValidCodePage@4   00567060     kernel32:KERNEL32.dll
 0002:00000064       __imp__InterlockedIncrement@4 00567064     kernel32:KERNEL32.dll
 0002:00000068       __imp__GetConsoleMode@8    00567068     kernel32:KERNEL32.dll
 0002:0000006c       __imp__GetConsoleCP@0      0056706c     kernel32:KERNEL32.dll
 0002:00000070       __imp__RtlUnwind@16        00567070     kernel32:KERNEL32.dll
 0002:00000074       __imp__GetModuleHandleW@4  00567074     kernel32:KERNEL32.dll
 0002:00000078       __imp__GetStartupInfoW@4   00567078     kernel32:KERNEL32.dll
 0002:0000007c       __imp__TlsFree@4           0056707c     kernel32:KERNEL32.dll
 0002:00000080       __imp__TlsSetValue@8       00567080     kernel32:KERNEL32.dll
 0002:00000084       __imp__TlsGetValue@4       00567084     kernel32:KERNEL32.dll
 0002:00000088       __imp__TlsAlloc@0          00567088     kernel32:KERNEL32.dll
 0002:0000008c       __imp__TerminateProcess@8  0056708c     kernel32:KERNEL32.dll
 0002:00000090       __imp__InitializeCriticalSectionAndSpinCount@8 00567090     kernel32:KERNEL32.dll
 0002:00000094       __imp__SetLastError@4      00567094     kernel32:KERNEL32.dll
 0002:00000098       __imp__SetUnhandledExceptionFilter@4 00567098     kernel32:KERNEL32.dll
 0002:0000009c       __imp__UnhandledExceptionFilter@4 0056709c     kernel32:KERNEL32.dll
 0002:000000a0       __imp__MoveFileExW@12      005670a0     kernel32:KERNEL32.dll
 0002:000000a4       __imp__DeleteFileW@4       005670a4     kernel32:KERNEL32.dll
 0002:000000a8       __imp__LeaveCriticalSection@4 005670a8     kernel32:KERNEL32.dll
 0002:000000ac       __imp__EnterCriticalSection@4 005670ac     kernel32:KERNEL32.dll
 0002:000000b0       __imp__Sleep@4             005670b0     kernel32:KERNEL32.dll
 0002:000000b4       __imp__HeapSize@12         005670b4     kernel32:KERNEL32.dll
 0002:000000b8       __imp__GetModuleFileNameW@12 005670b8     kernel32:KERNEL32.dll
 0002:000000bc       __imp__WriteFile@20        005670bc     kernel32:KERNEL32.dll
 0002:000000c0       __imp__IsDebuggerPresent@0 005670c0     kernel32:KERNEL32.dll
 0002:000000c4       __imp__GetProcessHeap@0    005670c4     kernel32:KERNEL32.dll
 0002:000000c8       __imp__ReadFile@20         005670c8     kernel32:KERNEL32.dll
 0002:000000cc       __imp__WideCharToMultiByte@32 005670cc     kernel32:KERNEL32.dll
 0002:000000d0       __imp__GetSystemTimeAsFileTime@4 005670d0     kernel32:KERNEL32.dll
 0002:000000d4       __imp__GetProcAddress@8    005670d4     kernel32:KERNEL32.dll
 0002:000000d8       __imp__GetModuleHandleExW@12 005670d8     kernel32:KERNEL32.dll
 0002:000000dc       __imp__ExitProcess@4       005670dc     kernel32:KERNEL32.dll
 0002:000000e0       __imp__InterlockedDecrement@4 005670e0     kernel32:KERNEL32.dll
 0002:000000e4       __imp__MultiByteToWideChar@24 005670e4     kernel32:KERNEL32.dll
 0002:000000e8       __imp__AreFileApisANSI@0   005670e8     kernel32:KERNEL32.dll
 0002:000000ec       __imp__DecodePointer@4     005670ec     kernel32:KERNEL32.dll
 0002:000000f0       __imp__EncodePointer@4     005670f0     kernel32:KERNEL32.dll
 0002:000000f4       __imp__HeapAlloc@12        005670f4     kernel32:KERNEL32.dll
 0002:000000f8       __imp__IsProcessorFeaturePresent@4 005670f8     kernel32:KERNEL32.dll
 0002:000000fc       __imp__HeapFree@12         005670fc     kernel32:KERNEL32.dll
 0002:00000100       __imp__GetLastError@0      00567100     kernel32:KERNEL32.dll
 0002:00000104       __imp__GetSystemInfo@4     00567104     kernel32:KERNEL32.dll
 0002:00000108       __imp__FindClose@4         00567108     kernel32:KERNEL32.dll
 0002:0000010c       __imp__FindNextFileA@8     0056710c     kernel32:KERNEL32.dll
 0002:00000110       __imp__FindFirstFileA@8    00567110     kernel32:KERNEL32.dll
 0002:00000114       __imp__CreateDirectoryA@8  00567114     kernel32:KERNEL32.dll
 0002:00000118       __imp__GetFileAttributesA@4 00567118     kernel32:KERNEL32.dll
 0002:0000011c       __imp__CloseHandle@4       0056711c     kernel32:KERNEL32.dll
 0002:00000120       __imp__UnmapViewOfFile@4   00567120     kernel32:KERNEL32.dll
 0002:00000124       __imp__MapViewOfFile@20    00567124     kernel32:KERNEL32.dll
 0002:00000128       __imp__OpenFileMappingA@12 00567128     kernel32:KERNEL32.dll
 0002:0000012c       __imp__GetCurrentThread@0  0056712c     kernel32:KERNEL32.dll
 0002:00000130       __imp__GlobalUnlock@4      00567130     kernel32:KERNEL32.dll
 0002:00000134       __imp__GlobalLock@4        00567134     kernel32:KERNEL32.dll
 0002:00000138       __imp__GlobalSize@4        00567138     kernel32:KERNEL32.dll
 0002:0000013c       __imp__GetCurrentProcess@0 0056713c     kernel32:KERNEL32.dll
 0002:00000140       __imp__SetPriorityClass@8  00567140     kernel32:KERNEL32.dll
 0002:00000144       __imp__GetCommandLineA@0   00567144     kernel32:KERNEL32.dll
 0002:00000148       __imp__SetConsoleOutputCP@4 00567148     kernel32:KERNEL32.dll
 0002:0000014c       __imp__SetConsoleCP@4      0056714c     kernel32:KERNEL32.dll
 0002:00000150       __imp__SetConsoleScreenBufferSize@8 00567150     kernel32:KERNEL32.dll
 0002:00000154       __imp__GetConsoleScreenBufferInfo@8 00567154     kernel32:KERNEL32.dll
 0002:00000158       __imp__GetStdHandle@4      00567158     kernel32:KERNEL32.dll
 0002:0000015c       __imp__SetConsoleTitleA@4  0056715c     kernel32:KERNEL32.dll
 0002:00000160       __imp__GetConsoleWindow@0  00567160     kernel32:KERNEL32.dll
 0002:00000164       __imp__SetConsoleCtrlHandler@8 00567164     kernel32:KERNEL32.dll
 0002:00000168       __imp__AllocConsole@0      00567168     kernel32:KERNEL32.dll
 0002:0000016c       __imp__WriteConsoleA@20    0056716c     kernel32:KERNEL32.dll
 0002:00000170       __imp__FreeEnvironmentStringsW@4 00567170     kernel32:KERNEL32.dll
 0002:00000174       __imp__SetStdHandle@8      00567174     kernel32:KERNEL32.dll
 0002:00000178       __imp__OutputDebugStringW@4 00567178     kernel32:KERNEL32.dll
 0002:0000017c       __imp__LoadLibraryW@4      0056717c     kernel32:KERNEL32.dll
 0002:00000180       __imp__HeapReAlloc@16      00567180     kernel32:KERNEL32.dll
 0002:00000184       __imp__RaiseException@16   00567184     kernel32:KERNEL32.dll
 0002:00000188       __imp__GetDateFormatW@24   00567188     kernel32:KERNEL32.dll
 0002:0000018c       __imp__GetEnvironmentStringsW@0 0056718c     kernel32:KERNEL32.dll
 0002:00000190       \177KERNEL32_NULL_THUNK_DATA 00567190     kernel32:KERNEL32.dll
 0002:00000194       __imp__glTexCoord3f@12     00567194     opengl32:OPENGL32.dll
 0002:00000198       __imp__glFrontFace@4       00567198     opengl32:OPENGL32.dll
 0002:0000019c       __imp__glNormalPointer@12  0056719c     opengl32:OPENGL32.dll
 0002:000001a0       __imp__glLoadMatrixf@4     005671a0     opengl32:OPENGL32.dll
 0002:000001a4       __imp__glFrustum@48        005671a4     opengl32:OPENGL32.dll
 0002:000001a8       __imp__glMultMatrixf@4     005671a8     opengl32:OPENGL32.dll
 0002:000001ac       __imp__glPolygonOffset@8   005671ac     opengl32:OPENGL32.dll
 0002:000001b0       __imp__glIsEnabled@4       005671b0     opengl32:OPENGL32.dll
 0002:000001b4       __imp__glFogf@8            005671b4     opengl32:OPENGL32.dll
 0002:000001b8       __imp__glClear@4           005671b8     opengl32:OPENGL32.dll
 0002:000001bc       __imp__glColorMask@16      005671bc     opengl32:OPENGL32.dll
 0002:000001c0       __imp__glMaterialfv@12     005671c0     opengl32:OPENGL32.dll
 0002:000001c4       __imp__glLightfv@12        005671c4     opengl32:OPENGL32.dll
 0002:000001c8       __imp__glAlphaFunc@8       005671c8     opengl32:OPENGL32.dll
 0002:000001cc       __imp__glTexGeni@12        005671cc     opengl32:OPENGL32.dll
 0002:000001d0       __imp__glLightModelfv@8    005671d0     opengl32:OPENGL32.dll
 0002:000001d4       __imp__glColor4ubv@4       005671d4     opengl32:OPENGL32.dll
 0002:000001d8       __imp__glDepthRange@16     005671d8     opengl32:OPENGL32.dll
 0002:000001dc       __imp__glTexGenfv@12       005671dc     opengl32:OPENGL32.dll
 0002:000001e0       __imp__glColor4fv@4        005671e0     opengl32:OPENGL32.dll
 0002:000001e4       __imp__glTexEnvi@12        005671e4     opengl32:OPENGL32.dll
 0002:000001e8       __imp__glTexEnvfv@12       005671e8     opengl32:OPENGL32.dll
 0002:000001ec       __imp__glTexCoord4f@16     005671ec     opengl32:OPENGL32.dll
 0002:000001f0       __imp__glHint@8            005671f0     opengl32:OPENGL32.dll
 0002:000001f4       __imp__glTexImage1D@32     005671f4     opengl32:OPENGL32.dll
 0002:000001f8       __imp__glTexImage2D@36     005671f8     opengl32:OPENGL32.dll
 0002:000001fc       __imp__glReadPixels@28     005671fc     opengl32:OPENGL32.dll
 0002:00000200       __imp__glGetTexLevelParameteriv@16 00567200     opengl32:OPENGL32.dll
 0002:00000204       __imp__glFogi@8            00567204     opengl32:OPENGL32.dll
 0002:00000208       __imp__glShadeModel@4      00567208     opengl32:OPENGL32.dll
 0002:0000020c       __imp__glClearDepth@8      0056720c     opengl32:OPENGL32.dll
 0002:00000210       __imp__glClearColor@16     00567210     opengl32:OPENGL32.dll
 0002:00000214       __imp__glGetIntegerv@8     00567214     opengl32:OPENGL32.dll
 0002:00000218       __imp__glGetString@4       00567218     opengl32:OPENGL32.dll
 0002:0000021c       __imp__glColor3ubv@4       0056721c     opengl32:OPENGL32.dll
 0002:00000220       __imp__glPolygonMode@8     00567220     opengl32:OPENGL32.dll
 0002:00000224       __imp__glVertex3f@12       00567224     opengl32:OPENGL32.dll
 0002:00000228       __imp__glVertex2i@8        00567228     opengl32:OPENGL32.dll
 0002:0000022c       __imp__glCopyTexSubImage2D@32 0056722c     opengl32:OPENGL32.dll
 0002:00000230       __imp__glReadBuffer@4      00567230     opengl32:OPENGL32.dll
 0002:00000234       __imp__glDrawBuffer@4      00567234     opengl32:OPENGL32.dll
 0002:00000238       __imp__glFlush@0           00567238     opengl32:OPENGL32.dll
 0002:0000023c       __imp__glDrawArrays@12     0056723c     opengl32:OPENGL32.dll
 0002:00000240       __imp__glFogfv@8           00567240     opengl32:OPENGL32.dll
 0002:00000244       __imp__glGetFloatv@8       00567244     opengl32:OPENGL32.dll
 0002:00000248       __imp__glDeleteTextures@8  00567248     opengl32:OPENGL32.dll
 0002:0000024c       __imp__glGenTextures@8     0056724c     opengl32:OPENGL32.dll
 0002:00000250       __imp__glTexParameteri@12  00567250     opengl32:OPENGL32.dll
 0002:00000254       __imp__glTexParameterfv@12 00567254     opengl32:OPENGL32.dll
 0002:00000258       __imp__glBindTexture@8     00567258     opengl32:OPENGL32.dll
 0002:0000025c       __imp__glPixelStorei@8     0056725c     opengl32:OPENGL32.dll
 0002:00000260       __imp__glTexSubImage2D@36  00567260     opengl32:OPENGL32.dll
 0002:00000264       __imp__glBegin@4           00567264     opengl32:OPENGL32.dll
 0002:00000268       __imp__glVertex3fv@4       00567268     opengl32:OPENGL32.dll
 0002:0000026c       __imp__glEnd@0             0056726c     opengl32:OPENGL32.dll
 0002:00000270       __imp__glEnable@4          00567270     opengl32:OPENGL32.dll
 0002:00000274       __imp__glBlendFunc@8       00567274     opengl32:OPENGL32.dll
 0002:00000278       __imp__glDrawElements@16   00567278     opengl32:OPENGL32.dll
 0002:0000027c       __imp__glColor3ub@12       0056727c     opengl32:OPENGL32.dll
 0002:00000280       __imp__glDisable@4         00567280     opengl32:OPENGL32.dll
 0002:00000284       __imp__glPushMatrix@0      00567284     opengl32:OPENGL32.dll
 0002:00000288       __imp__glScalef@12         00567288     opengl32:OPENGL32.dll
 0002:0000028c       __imp__glColor4f@16        0056728c     opengl32:OPENGL32.dll
 0002:00000290       __imp__glTexCoord2fv@4     00567290     opengl32:OPENGL32.dll
 0002:00000294       __imp__glVertex2f@8        00567294     opengl32:OPENGL32.dll
 0002:00000298       __imp__glPopMatrix@0       00567298     opengl32:OPENGL32.dll
 0002:0000029c       __imp__glColor3f@12        0056729c     opengl32:OPENGL32.dll
 0002:000002a0       __imp__glLineWidth@4       005672a0     opengl32:OPENGL32.dll
 0002:000002a4       __imp__glDepthFunc@4       005672a4     opengl32:OPENGL32.dll
 0002:000002a8       __imp__glViewport@16       005672a8     opengl32:OPENGL32.dll
 0002:000002ac       __imp__glScissor@16        005672ac     opengl32:OPENGL32.dll
 0002:000002b0       __imp__glColor3fv@4        005672b0     opengl32:OPENGL32.dll
 0002:000002b4       __imp__glColor4ub@16       005672b4     opengl32:OPENGL32.dll
 0002:000002b8       __imp__glTexCoord2f@8      005672b8     opengl32:OPENGL32.dll
 0002:000002bc       __imp__glTranslatef@12     005672bc     opengl32:OPENGL32.dll
 0002:000002c0       __imp__glRotatef@16        005672c0     opengl32:OPENGL32.dll
 0002:000002c4       __imp__glDepthMask@4       005672c4     opengl32:OPENGL32.dll
 0002:000002c8       __imp__glMatrixMode@4      005672c8     opengl32:OPENGL32.dll
 0002:000002cc       __imp__glLoadIdentity@0    005672cc     opengl32:OPENGL32.dll
 0002:000002d0       __imp__glOrtho@48          005672d0     opengl32:OPENGL32.dll
 0002:000002d4       __imp__glEnableClientState@4 005672d4     opengl32:OPENGL32.dll
 0002:000002d8       __imp__glDisableClientState@4 005672d8     opengl32:OPENGL32.dll
 0002:000002dc       __imp__glVertexPointer@16  005672dc     opengl32:OPENGL32.dll
 0002:000002e0       __imp__glTexCoordPointer@16 005672e0     opengl32:OPENGL32.dll
 0002:000002e4       __imp__glColorPointer@16   005672e4     opengl32:OPENGL32.dll
 0002:000002e8       __imp__glCullFace@4        005672e8     opengl32:OPENGL32.dll
 0002:000002ec       \177OPENGL32_NULL_THUNK_DATA 005672ec     opengl32:OPENGL32.dll
 0002:000002f0       __imp__SDL_AllocRW         005672f0     SDL:SDL.dll
 0002:000002f4       __imp__SDL_RWFromFile      005672f4     SDL:SDL.dll
 0002:000002f8       __imp__SDL_UnlockAudio     005672f8     SDL:SDL.dll
 0002:000002fc       __imp__SDL_LockAudio       005672fc     SDL:SDL.dll
 0002:00000300       __imp__SDL_WM_SetCaption   00567300     SDL:SDL.dll
 0002:00000304       __imp__SDL_GetVideoInfo    00567304     SDL:SDL.dll
 0002:00000308       __imp__SDL_Linked_Version  00567308     SDL:SDL.dll
 0002:0000030c       __imp__SDL_Init            0056730c     SDL:SDL.dll
 0002:00000310       __imp__SDL_GL_SwapBuffers  00567310     SDL:SDL.dll
 0002:00000314       __imp__SDL_PeepEvents      00567314     SDL:SDL.dll
 0002:00000318       __imp__SDL_PumpEvents      00567318     SDL:SDL.dll
 0002:0000031c       __imp__SDL_PollEvent       0056731c     SDL:SDL.dll
 0002:00000320       __imp__SDL_SetVideoMode    00567320     SDL:SDL.dll
 0002:00000324       __imp__SDL_GL_SetAttribute 00567324     SDL:SDL.dll
 0002:00000328       __imp__SDL_VideoModeOK     00567328     SDL:SDL.dll
 0002:0000032c       __imp__SDL_ListModes       0056732c     SDL:SDL.dll
 0002:00000330       __imp__SDL_CondBroadcast   00567330     SDL:SDL.dll
 0002:00000334       __imp__SDL_CondWait        00567334     SDL:SDL.dll
 0002:00000338       __imp__SDL_CondSignal      00567338     SDL:SDL.dll
 0002:0000033c       __imp__SDL_mutexV          0056733c     SDL:SDL.dll
 0002:00000340       __imp__SDL_mutexP          00567340     SDL:SDL.dll
 0002:00000344       __imp__SDL_GetTicks        00567344     SDL:SDL.dll
 0002:00000348       __imp__SDL_GetError        00567348     SDL:SDL.dll
 0002:0000034c       __imp__SDL_SetGamma        0056734c     SDL:SDL.dll
 0002:00000350       __imp__SDL_EnableKeyRepeat 00567350     SDL:SDL.dll
 0002:00000354       __imp__SDL_DestroyCond     00567354     SDL:SDL.dll
 0002:00000358       __imp__SDL_WasInit         00567358     SDL:SDL.dll
 0002:0000035c       __imp__SDL_Quit            0056735c     SDL:SDL.dll
 0002:00000360       __imp__SDL_WM_GrabInput    00567360     SDL:SDL.dll
 0002:00000364       __imp__SDL_ShowCursor      00567364     SDL:SDL.dll
 0002:00000368       __imp__SDL_GetModState     00567368     SDL:SDL.dll
 0002:0000036c       __imp__SDL_SaveBMP_RW      0056736c     SDL:SDL.dll
 0002:00000370       __imp__SDL_FreeRW          00567370     SDL:SDL.dll
 0002:00000374       __imp__SDL_SetAlpha        00567374     SDL:SDL.dll
 0002:00000378       __imp__SDL_FreeSurface     00567378     SDL:SDL.dll
 0002:0000037c       __imp__SDL_UpperBlit       0056737c     SDL:SDL.dll
 0002:00000380       __imp__SDL_CreateRGBSurface 00567380     SDL:SDL.dll
 0002:00000384       __imp__SDL_CreateRGBSurfaceFrom 00567384     SDL:SDL.dll
 0002:00000388       __imp__SDL_GL_GetProcAddress 00567388     SDL:SDL.dll
 0002:0000038c       __imp__SDL_EnableUNICODE   0056738c     SDL:SDL.dll
 0002:00000390       __imp__SDL_KillThread      00567390     SDL:SDL.dll
 0002:00000394       __imp__SDL_ThreadID        00567394     SDL:SDL.dll
 0002:00000398       __imp__SDL_GetThreadID     00567398     SDL:SDL.dll
 0002:0000039c       __imp__SDL_SetModuleHandle 0056739c     SDL:SDL.dll
 0002:000003a0       __imp__SDL_Delay           005673a0     SDL:SDL.dll
 0002:000003a4       __imp__SDL_RemoveTimer     005673a4     SDL:SDL.dll
 0002:000003a8       __imp__SDL_AddTimer        005673a8     SDL:SDL.dll
 0002:000003ac       __imp__SDL_WaitThread      005673ac     SDL:SDL.dll
 0002:000003b0       __imp__SDL_CreateMutex     005673b0     SDL:SDL.dll
 0002:000003b4       __imp__SDL_DestroyMutex    005673b4     SDL:SDL.dll
 0002:000003b8       __imp__SDL_CreateThread    005673b8     SDL:SDL.dll
 0002:000003bc       __imp__SDL_CreateCond      005673bc     SDL:SDL.dll
 0002:000003c0       __imp__SDL_CondWaitTimeout 005673c0     SDL:SDL.dll
 0002:000003c4       \177SDL_NULL_THUNK_DATA    005673c4     SDL:SDL.dll
 0002:000003c8       __imp__IMG_Load_RW         005673c8     SDL_image:SDL_image.dll
 0002:000003cc       __imp__IMG_Load            005673cc     SDL_image:SDL_image.dll
 0002:000003d0       \177SDL_image_NULL_THUNK_DATA 005673d0     SDL_image:SDL_image.dll
 0002:000003d4       __imp__Mix_Volume          005673d4     SDL_mixer:SDL_mixer.dll
 0002:000003d8       __imp__Mix_SetPanning      005673d8     SDL_mixer:SDL_mixer.dll
 0002:000003dc       __imp__Mix_HaltChannel     005673dc     SDL_mixer:SDL_mixer.dll
 0002:000003e0       __imp__Mix_VolumeMusic     005673e0     SDL_mixer:SDL_mixer.dll
 0002:000003e4       __imp__Mix_HaltMusic       005673e4     SDL_mixer:SDL_mixer.dll
 0002:000003e8       __imp__Mix_FreeMusic       005673e8     SDL_mixer:SDL_mixer.dll
 0002:000003ec       __imp__Mix_OpenAudio       005673ec     SDL_mixer:SDL_mixer.dll
 0002:000003f0       __imp__Mix_AllocateChannels 005673f0     SDL_mixer:SDL_mixer.dll
 0002:000003f4       __imp__Mix_ChannelFinished 005673f4     SDL_mixer:SDL_mixer.dll
 0002:000003f8       __imp__Mix_LoadMUS_RW      005673f8     SDL_mixer:SDL_mixer.dll
 0002:000003fc       __imp__Mix_FadingChannel   005673fc     SDL_mixer:SDL_mixer.dll
 0002:00000400       __imp__Mix_CloseAudio      00567400     SDL_mixer:SDL_mixer.dll
 0002:00000404       __imp__Mix_PlayingMusic    00567404     SDL_mixer:SDL_mixer.dll
 0002:00000408       __imp__Mix_PausedMusic     00567408     SDL_mixer:SDL_mixer.dll
 0002:0000040c       __imp__Mix_ResumeMusic     0056740c     SDL_mixer:SDL_mixer.dll
 0002:00000410       __imp__Mix_LoadWAV_RW      00567410     SDL_mixer:SDL_mixer.dll
 0002:00000414       __imp__Mix_PlayChannelTimed 00567414     SDL_mixer:SDL_mixer.dll
 0002:00000418       __imp__Mix_Linked_Version  00567418     SDL_mixer:SDL_mixer.dll
 0002:0000041c       __imp__Mix_QuerySpec       0056741c     SDL_mixer:SDL_mixer.dll
 0002:00000420       __imp__Mix_FreeChunk       00567420     SDL_mixer:SDL_mixer.dll
 0002:00000424       __imp__Mix_PlayMusic       00567424     SDL_mixer:SDL_mixer.dll
 0002:00000428       __imp__Mix_LoadMUS         00567428     SDL_mixer:SDL_mixer.dll
 0002:0000042c       __imp__Mix_SetPostMix      0056742c     SDL_mixer:SDL_mixer.dll
 0002:00000430       \177SDL_mixer_NULL_THUNK_DATA 00567430     SDL_mixer:SDL_mixer.dll
 0002:00000434       __imp__SHGetFolderPathA@20 00567434     shell32:SHELL32.dll
 0002:00000438       __imp__Shell_NotifyIconA@8 00567438     shell32:SHELL32.dll
 0002:0000043c       \177SHELL32_NULL_THUNK_DATA 0056743c     shell32:SHELL32.dll
 0002:00000440       __imp__UnregisterClassA@8  00567440     user32:USER32.dll
 0002:00000444       __imp__MessageBoxA@16      00567444     user32:USER32.dll
 0002:00000448       __imp__CloseClipboard@0    00567448     user32:USER32.dll
 0002:0000044c       __imp__GetClipboardData@4  0056744c     user32:USER32.dll
 0002:00000450       __imp__OpenClipboard@4     00567450     user32:USER32.dll
 0002:00000454       __imp__IsClipboardFormatAvailable@4 00567454     user32:USER32.dll
 0002:00000458       __imp__DispatchMessageA@4  00567458     user32:USER32.dll
 0002:0000045c       __imp__TranslateMessage@4  0056745c     user32:USER32.dll
 0002:00000460       __imp__PeekMessageA@20     00567460     user32:USER32.dll
 0002:00000464       __imp__CreateWindowExA@48  00567464     user32:USER32.dll
 0002:00000468       __imp__SendMessageA@16     00567468     user32:USER32.dll
 0002:0000046c       __imp__RegisterClassA@4    0056746c     user32:USER32.dll
 0002:00000470       __imp__AppendMenuA@16      00567470     user32:USER32.dll
 0002:00000474       __imp__CreatePopupMenu@0   00567474     user32:USER32.dll
 0002:00000478       __imp__LoadIconA@8         00567478     user32:USER32.dll
 0002:0000047c       __imp__DefWindowProcA@16   0056747c     user32:USER32.dll
 0002:00000480       __imp__PostQuitMessage@4   00567480     user32:USER32.dll
 0002:00000484       __imp__ShowWindow@8        00567484     user32:USER32.dll
 0002:00000488       __imp__ModifyMenuA@20      00567488     user32:USER32.dll
 0002:0000048c       __imp__PostMessageA@16     0056748c     user32:USER32.dll
 0002:00000490       __imp__TrackPopupMenu@28   00567490     user32:USER32.dll
 0002:00000494       __imp__GetCursorPos@4      00567494     user32:USER32.dll
 0002:00000498       __imp__SetForegroundWindow@4 00567498     user32:USER32.dll
 0002:0000049c       __imp__DestroyMenu@4       0056749c     user32:USER32.dll
 0002:000004a0       \177USER32_NULL_THUNK_DATA 005674a0     user32:USER32.dll
 0002:000004a4       __imp__timeGetTime@0       005674a4     winmm:WINMM.dll
 0002:000004a8       __imp__timeEndPeriod@4     005674a8     winmm:WINMM.dll
 0002:000004ac       __imp__timeBeginPeriod@4   005674ac     winmm:WINMM.dll
 0002:000004b0       \177WINMM_NULL_THUNK_DATA  005674b0     winmm:WINMM.dll
 0002:000004b4       __imp__WSAGetLastError@0   005674b4     ws2_32:WS2_32.dll
 0002:000004b8       __imp__WSACleanup@0        005674b8     ws2_32:WS2_32.dll
 0002:000004bc       __imp__WSAStartup@8        005674bc     ws2_32:WS2_32.dll
 0002:000004c0       __imp__gethostbyname@4     005674c0     ws2_32:WS2_32.dll
 0002:000004c4       __imp__socket@12           005674c4     ws2_32:WS2_32.dll
 0002:000004c8       __imp__setsockopt@20       005674c8     ws2_32:WS2_32.dll
 0002:000004cc       __imp__select@20           005674cc     ws2_32:WS2_32.dll
 0002:000004d0       __imp__WSARecvFrom@36      005674d0     ws2_32:WS2_32.dll
 0002:000004d4       __imp__inet_addr@4         005674d4     ws2_32:WS2_32.dll
 0002:000004d8       __imp__connect@12          005674d8     ws2_32:WS2_32.dll
 0002:000004dc       __imp__closesocket@4       005674dc     ws2_32:WS2_32.dll
 0002:000004e0       __imp__bind@12             005674e0     ws2_32:WS2_32.dll
 0002:000004e4       __imp__ntohs@4             005674e4     ws2_32:WS2_32.dll
 0002:000004e8       __imp__ntohl@4             005674e8     ws2_32:WS2_32.dll
 0002:000004ec       __imp__htons@4             005674ec     ws2_32:WS2_32.dll
 0002:000004f0       __imp__htonl@4             005674f0     ws2_32:WS2_32.dll
 0002:000004f4       __imp____WSAFDIsSet@8      005674f4     ws2_32:WS2_32.dll
 0002:000004f8       __imp__WSASendTo@36        005674f8     ws2_32:WS2_32.dll
 0002:000004fc       __imp__inet_ntoa@4         005674fc     ws2_32:WS2_32.dll
 0002:00000500       __imp__ioctlsocket@12      00567500     ws2_32:WS2_32.dll
 0002:00000504       \177WS2_32_NULL_THUNK_DATA 00567504     ws2_32:WS2_32.dll
 0002:00000508       __imp__SymGetLineFromAddr@16 00567508     dbghelp:dbghelp.dll
 0002:0000050c       __imp__SymGetSymFromAddr@16 0056750c     dbghelp:dbghelp.dll
 0002:00000510       __imp__SymFunctionTableAccess@8 00567510     dbghelp:dbghelp.dll
 0002:00000514       __imp__SymGetModuleBase@8  00567514     dbghelp:dbghelp.dll
 0002:00000518       __imp__StackWalk@36        00567518     dbghelp:dbghelp.dll
 0002:0000051c       __imp__SymInitialize@12    0056751c     dbghelp:dbghelp.dll
 0002:00000520       \177dbghelp_NULL_THUNK_DATA 00567520     dbghelp:dbghelp.dll
 0002:00000524       __imp__zError              00567524     zdll:zlib1.dll
 0002:00000528       __imp__inflate             00567528     zdll:zlib1.dll
 0002:0000052c       __imp__inflateReset        0056752c     zdll:zlib1.dll
 0002:00000530       __imp__inflateEnd          00567530     zdll:zlib1.dll
 0002:00000534       __imp__deflateInit2_       00567534     zdll:zlib1.dll
 0002:00000538       __imp__inflateInit2_       00567538     zdll:zlib1.dll
 0002:0000053c       __imp__deflateEnd          0056753c     zdll:zlib1.dll
 0002:00000540       __imp__deflate             00567540     zdll:zlib1.dll
 0002:00000544       __imp__deflateInit_        00567544     zdll:zlib1.dll
 0002:00000548       __imp__crc32               00567548     zdll:zlib1.dll
 0002:0000054c       \177zlib1_NULL_THUNK_DATA  0056754c     zdll:zlib1.dll
 0002:00000550       ___xc_a                    00567550     LIBCMT:crt0init.obj
 0002:000018a0       ___xc_z                    005688a0     LIBCMT:crt0init.obj
 0002:000018a4       ___xi_a                    005688a4     LIBCMT:crt0init.obj
 0002:000018c0       ___xi_z                    005688c0     LIBCMT:crt0init.obj
 0002:000018c4       ___xp_a                    005688c4     LIBCMT:crt0init.obj
 0002:000018d4       ___xp_z                    005688d4     LIBCMT:crt0init.obj
 0002:000018d8       ___xt_a                    005688d8     LIBCMT:crt0init.obj
 0002:000018dc       ___xt_z                    005688dc     LIBCMT:crt0init.obj
 0002:00001918       ??_C@_0CD@FLEKKJFF@Error?5dispatching?5incoming?5packe@ 00568918     enet:protocol.obj
 0002:0000193c       ??_C@_0BP@CMCNMCMC@Error?5sending?5outgoing?5packets?$AA@ 0056893c     enet:protocol.obj
 0002:0000195c       ??_C@_0CB@HOPEGIPO@Error?5receiving?5incoming?5packets@ 0056895c     enet:protocol.obj
 0002:000019cc       ??_7type_info@@6B@         005689cc     LIBCMT:typinfo.obj
 0002:000019d0       ??_C@_1BI@BGOHAHKC@?$AAm?$AAs?$AAc?$AAo?$AAr?$AAe?$AAe?$AA?4?$AAd?$AAl?$AAl?$AA?$AA@ 005689d0     LIBCMT:crt0dat.obj
 0002:000019e8       ??_C@_0P@MIGLKIOC@CorExitProcess?$AA@ 005689e8     LIBCMT:crt0dat.obj
 0002:000019f8       ??_C@_1FE@LLNEDJMD@?$AAR?$AA6?$AA0?$AA0?$AA8?$AA?$AN?$AA?6?$AA?9?$AA?5?$AAn?$AAo?$AAt?$AA?5?$AAe?$AAn?$AAo?$AAu?$AAg?$AAh?$AA?5?$AAs?$AAp?$AAa?$AAc?$AAe?$AA?5?$AAf?$AAo?$AAr?$AA?5?$AAa?$AAr@ 005689f8     LIBCMT:crt0msg.obj
 0002:00001a50       ??_C@_1FI@HONFMGBI@?$AAR?$AA6?$AA0?$AA0?$AA9?$AA?$AN?$AA?6?$AA?9?$AA?5?$AAn?$AAo?$AAt?$AA?5?$AAe?$AAn?$AAo?$AAu?$AAg?$AAh?$AA?5?$AAs?$AAp?$AAa?$AAc?$AAe?$AA?5?$AAf?$AAo?$AAr?$AA?5?$AAe?$AAn@ 00568a50     LIBCMT:crt0msg.obj
 0002:00001aa8       ??_C@_1EG@BEHAGFJD@?$AAR?$AA6?$AA0?$AA1?$AA0?$AA?$AN?$AA?6?$AA?9?$AA?5?$AAa?$AAb?$AAo?$AAr?$AAt?$AA?$CI?$AA?$CJ?$AA?5?$AAh?$AAa?$AAs?$AA?5?$AAb?$AAe?$AAe?$AAn?$AA?5?$AAc?$AAa?$AAl?$AAl?$AAe?$AAd@ 00568aa8     LIBCMT:crt0msg.obj
 0002:00001af0       ??_C@_1FI@LOGNIKDM@?$AAR?$AA6?$AA0?$AA1?$AA6?$AA?$AN?$AA?6?$AA?9?$AA?5?$AAn?$AAo?$AAt?$AA?5?$AAe?$AAn?$AAo?$AAu?$AAg?$AAh?$AA?5?$AAs?$AAp?$AAa?$AAc?$AAe?$AA?5?$AAf?$AAo?$AAr?$AA?5?$AAt?$AAh@ 00568af0     LIBCMT:crt0msg.obj
 0002:00001b48       ??_C@_1FK@BEOGODMC@?$AAR?$AA6?$AA0?$AA1?$AA7?$AA?$AN?$AA?6?$AA?9?$AA?5?$AAu?$AAn?$AAe?$AAx?$AAp?$AAe?$AAc?$AAt?$AAe?$AAd?$AA?5?$AAm?$AAu?$AAl?$AAt?$AAi?$AAt?$AAh?$AAr?$AAe?$AAa?$AAd?$AA?5@ 00568b48     LIBCMT:crt0msg.obj
 0002:00001ba8       ??_C@_1EC@JIBHAOPH@?$AAR?$AA6?$AA0?$AA1?$AA8?$AA?$AN?$AA?6?$AA?9?$AA?5?$AAu?$AAn?$AAe?$AAx?$AAp?$AAe?$AAc?$AAt?$AAe?$AAd?$AA?5?$AAh?$AAe?$AAa?$AAp?$AA?5?$AAe?$AAr?$AAr?$AAo?$AAr?$AA?$AN?$AA?6@ 00568ba8     LIBCMT:crt0msg.obj
 0002:00001bf0       ??_C@_1FC@ECHBIFBC@?$AAR?$AA6?$AA0?$AA1?$AA9?$AA?$AN?$AA?6?$AA?9?$AA?5?$AAu?$AAn?$AAa?$AAb?$AAl?$AAe?$AA?5?$AAt?$AAo?$AA?5?$AAo?$AAp?$AAe?$AAn?$AA?5?$AAc?$AAo?$AAn?$AAs?$AAo?$AAl?$AAe?$AA?5@ 00568bf0     LIBCMT:crt0msg.obj
 0002:00001c48       ??_C@_1GK@FHCKBEFA@?$AAR?$AA6?$AA0?$AA2?$AA4?$AA?$AN?$AA?6?$AA?9?$AA?5?$AAn?$AAo?$AAt?$AA?5?$AAe?$AAn?$AAo?$AAu?$AAg?$AAh?$AA?5?$AAs?$AAp?$AAa?$AAc?$AAe?$AA?5?$AAf?$AAo?$AAr?$AA?5?$AA_?$AAo@ 00568c48     LIBCMT:crt0msg.obj
 0002:00001cb8       ??_C@_1EM@MAADIHMB@?$AAR?$AA6?$AA0?$AA2?$AA5?$AA?$AN?$AA?6?$AA?9?$AA?5?$AAp?$AAu?$AAr?$AAe?$AA?5?$AAv?$AAi?$AAr?$AAt?$AAu?$AAa?$AAl?$AA?5?$AAf?$AAu?$AAn?$AAc?$AAt?$AAi?$AAo?$AAn?$AA?5?$AAc@ 00568cb8     LIBCMT:crt0msg.obj
 0002:00001d08       ??_C@_1GK@MCAAGJMO@?$AAR?$AA6?$AA0?$AA2?$AA6?$AA?$AN?$AA?6?$AA?9?$AA?5?$AAn?$AAo?$AAt?$AA?5?$AAe?$AAn?$AAo?$AAu?$AAg?$AAh?$AA?5?$AAs?$AAp?$AAa?$AAc?$AAe?$AA?5?$AAf?$AAo?$AAr?$AA?5?$AAs?$AAt@ 00568d08     LIBCMT:crt0msg.obj
 0002:00001d78       ??_C@_1GK@MFGOKLAG@?$AAR?$AA6?$AA0?$AA2?$AA7?$AA?$AN?$AA?6?$AA?9?$AA?5?$AAn?$AAo?$AAt?$AA?5?$AAe?$AAn?$AAo?$AAu?$AAg?$AAh?$AA?5?$AAs?$AAp?$AAa?$AAc?$AAe?$AA?5?$AAf?$AAo?$AAr?$AA?5?$AAl?$AAo@ 00568d78     LIBCMT:crt0msg.obj
 0002:00001de8       ??_C@_1EK@HHFLMAOL@?$AAR?$AA6?$AA0?$AA2?$AA8?$AA?$AN?$AA?6?$AA?9?$AA?5?$AAu?$AAn?$AAa?$AAb?$AAl?$AAe?$AA?5?$AAt?$AAo?$AA?5?$AAi?$AAn?$AAi?$AAt?$AAi?$AAa?$AAl?$AAi?$AAz?$AAe?$AA?5?$AAh?$AAe@ 00568de8     LIBCMT:crt0msg.obj
 0002:00001e34       ??_C@_1DO@BMFCDCD@?$AAR?$AA6?$AA0?$AA3?$AA0?$AA?$AN?$AA?6?$AA?9?$AA?5?$AAC?$AAR?$AAT?$AA?5?$AAn?$AAo?$AAt?$AA?5?$AAi?$AAn?$AAi?$AAt?$AAi?$AAa?$AAl?$AAi?$AAz?$AAe?$AAd?$AA?$AN?$AA?6?$AA?$AA@ 00568e34     LIBCMT:crt0msg.obj
 0002:00001e78       ??_C@_1MG@ENCOOIDF@?$AAR?$AA6?$AA0?$AA3?$AA1?$AA?$AN?$AA?6?$AA?9?$AA?5?$AAA?$AAt?$AAt?$AAe?$AAm?$AAp?$AAt?$AA?5?$AAt?$AAo?$AA?5?$AAi?$AAn?$AAi?$AAt?$AAi?$AAa?$AAl?$AAi?$AAz?$AAe?$AA?5?$AAt@ 00568e78     LIBCMT:crt0msg.obj
 0002:00001f40       ??_C@_1GG@GOPILAJP@?$AAR?$AA6?$AA0?$AA3?$AA2?$AA?$AN?$AA?6?$AA?9?$AA?5?$AAn?$AAo?$AAt?$AA?5?$AAe?$AAn?$AAo?$AAu?$AAg?$AAh?$AA?5?$AAs?$AAp?$AAa?$AAc?$AAe?$AA?5?$AAf?$AAo?$AAr?$AA?5?$AAl?$AAo@ 00568f40     LIBCMT:crt0msg.obj
 0002:00001fa8       ??_C@_1BOO@KGEDBGAJ@?$AAR?$AA6?$AA0?$AA3?$AA3?$AA?$AN?$AA?6?$AA?9?$AA?5?$AAA?$AAt?$AAt?$AAe?$AAm?$AAp?$AAt?$AA?5?$AAt?$AAo?$AA?5?$AAu?$AAs?$AAe?$AA?5?$AAM?$AAS?$AAI?$AAL?$AA?5?$AAc?$AAo?$AAd@ 00568fa8     LIBCMT:crt0msg.obj
 0002:00002198       ??_C@_1GG@MKFPEKFO@?$AAR?$AA6?$AA0?$AA3?$AA4?$AA?$AN?$AA?6?$AA?9?$AA?5?$AAi?$AAn?$AAc?$AAo?$AAn?$AAs?$AAi?$AAs?$AAt?$AAe?$AAn?$AAt?$AA?5?$AAo?$AAn?$AAe?$AAx?$AAi?$AAt?$AA?5?$AAb?$AAe?$AAg@ 00569198     LIBCMT:crt0msg.obj
 0002:00002200       ??_C@_1BO@BFCDCGC@?$AAD?$AAO?$AAM?$AAA?$AAI?$AAN?$AA?5?$AAe?$AAr?$AAr?$AAo?$AAr?$AA?$AN?$AA?6?$AA?$AA@ 00569200     LIBCMT:crt0msg.obj
 0002:00002220       ??_C@_1BK@KMOMNAAI@?$AAS?$AAI?$AAN?$AAG?$AA?5?$AAe?$AAr?$AAr?$AAo?$AAr?$AA?$AN?$AA?6?$AA?$AA@ 00569220     LIBCMT:crt0msg.obj
 0002:0000223c       ??_C@_1BM@JBBEPPHI@?$AAT?$AAL?$AAO?$AAS?$AAS?$AA?5?$AAe?$AAr?$AAr?$AAo?$AAr?$AA?$AN?$AA?6?$AA?$AA@ 0056923c     LIBCMT:crt0msg.obj
 0002:00002258       ??_C@_15JNBOKNOG@?$AA?$AN?$AA?6?$AA?$AA@ 00569258     LIBCMT:crt0msg.obj
 0002:00002260       ??_C@_1BO@BKOMIGKJ@?$AAr?$AAu?$AAn?$AAt?$AAi?$AAm?$AAe?$AA?5?$AAe?$AAr?$AAr?$AAo?$AAr?$AA?5?$AA?$AA@ 00569260     LIBCMT:crt0msg.obj
 0002:00002338       ??_C@_1FK@PGACCAFB@?$AAR?$AA6?$AA0?$AA0?$AA2?$AA?$AN?$AA?6?$AA?9?$AA?5?$AAf?$AAl?$AAo?$AAa?$AAt?$AAi?$AAn?$AAg?$AA?5?$AAp?$AAo?$AAi?$AAn?$AAt?$AA?5?$AAs?$AAu?$AAp?$AAp?$AAo?$AAr?$AAt?$AA?5@ 00569338     LIBCMT:crt0msg.obj
 0002:00002394       ??_C@_1DE@JNGNBFGO@?$AAR?$AAu?$AAn?$AAt?$AAi?$AAm?$AAe?$AA?5?$AAE?$AAr?$AAr?$AAo?$AAr?$AA?$CB?$AA?6?$AA?6?$AAP?$AAr?$AAo?$AAg?$AAr?$AAa?$AAm?$AA?3?$AA?5?$AA?$AA@ 00569394     LIBCMT:crt0msg.obj
 0002:000023c8       ??_C@_1CO@EAEJAADC@?$AA?$DM?$AAp?$AAr?$AAo?$AAg?$AAr?$AAa?$AAm?$AA?5?$AAn?$AAa?$AAm?$AAe?$AA?5?$AAu?$AAn?$AAk?$AAn?$AAo?$AAw?$AAn?$AA?$DO?$AA?$AA@ 005693c8     LIBCMT:crt0msg.obj
 0002:000023f8       ??_C@_17LGKOMLJ@?$AA?4?$AA?4?$AA?4?$AA?$AA@ 005693f8     LIBCMT:crt0msg.obj
 0002:00002400       ??_C@_15IABLJNFO@?$AA?6?$AA?6?$AA?$AA@ 00569400     LIBCMT:crt0msg.obj
 0002:00002408       ??_C@_1EK@MBDPDCGA@?$AAM?$AAi?$AAc?$AAr?$AAo?$AAs?$AAo?$AAf?$AAt?$AA?5?$AAV?$AAi?$AAs?$AAu?$AAa?$AAl?$AA?5?$AAC?$AA?$CL?$AA?$CL?$AA?5?$AAR?$AAu?$AAn?$AAt?$AAi?$AAm?$AAe?$AA?5?$AAL?$AAi?$AAb@ 00569408     LIBCMT:crt0msg.obj
 0002:00002454       ??_C@_06OJHGLDPL@?$CInull?$CJ?$AA@ 00569454     LIBCMT:output.obj
 0002:0000245c       ??_C@_1O@CEDCILHN@?$AA?$CI?$AAn?$AAu?$AAl?$AAl?$AA?$CJ?$AA?$AA@ 0056945c     LIBCMT:output.obj
 0002:00002470       ___lookuptable             00569470     LIBCMT:output.obj
 0002:00002538       ??_C@_03MGHMBJCF@log?$AA@  00569538     LIBCMT:libm_error.obj
 0002:0000253c       ??_C@_05EOHGHCHD@exp10?$AA@ 0056953c     LIBCMT:libm_error.obj
 0002:00002544       ??_C@_04GFPJNGEK@ceil?$AA@ 00569544     LIBCMT:libm_error.obj
 0002:0000254c       ??_C@_1BK@MGMFAEKH@?$AAk?$AAe?$AAr?$AAn?$AAe?$AAl?$AA3?$AA2?$AA?4?$AAd?$AAl?$AAl?$AA?$AA@ 0056954c     LIBCMT:winapisupp.obj
 0002:00002568       ??_C@_08KNHFBNJ@FlsAlloc?$AA@ 00569568     LIBCMT:winapisupp.obj
 0002:00002574       ??_C@_07PEJMOBNF@FlsFree?$AA@ 00569574     LIBCMT:winapisupp.obj
 0002:0000257c       ??_C@_0M@GDNOONDI@FlsGetValue?$AA@ 0056957c     LIBCMT:winapisupp.obj
 0002:00002588       ??_C@_0M@JCPCPOEF@FlsSetValue?$AA@ 00569588     LIBCMT:winapisupp.obj
 0002:00002594       ??_C@_0BM@HCFOFFN@InitializeCriticalSectionEx?$AA@ 00569594     LIBCMT:winapisupp.obj
 0002:000025b0       ??_C@_0BD@KIEEOEEH@CreateSemaphoreExW?$AA@ 005695b0     LIBCMT:winapisupp.obj
 0002:000025c4       ??_C@_0BI@BKLFFAPO@SetThreadStackGuarantee?$AA@ 005695c4     LIBCMT:winapisupp.obj
 0002:000025dc       ??_C@_0BG@OGFAJCKC@CreateThreadpoolTimer?$AA@ 005695dc     LIBCMT:winapisupp.obj
 0002:000025f4       ??_C@_0BD@LPLEMMDI@SetThreadpoolTimer?$AA@ 005695f4     LIBCMT:winapisupp.obj
 0002:00002608       ??_C@_0CA@FMNJENH@WaitForThreadpoolTimerCallbacks?$AA@ 00569608     LIBCMT:winapisupp.obj
 0002:00002628       ??_C@_0BF@DCFCCNOC@CloseThreadpoolTimer?$AA@ 00569628     LIBCMT:winapisupp.obj
 0002:00002640       ??_C@_0BF@FLABGKKM@CreateThreadpoolWait?$AA@ 00569640     LIBCMT:winapisupp.obj
 0002:00002658       ??_C@_0BC@MGCOHNA@SetThreadpoolWait?$AA@ 00569658     LIBCMT:winapisupp.obj
 0002:0000266c       ??_C@_0BE@OCIOMIMP@CloseThreadpoolWait?$AA@ 0056966c     LIBCMT:winapisupp.obj
 0002:00002680       ??_C@_0BJ@LKGHFHBO@FlushProcessWriteBuffers?$AA@ 00569680     LIBCMT:winapisupp.obj
 0002:0000269c       ??_C@_0BP@KALKKPMO@FreeLibraryWhenCallbackReturns?$AA@ 0056969c     LIBCMT:winapisupp.obj
 0002:000026bc       ??_C@_0BK@DFNBACLA@GetCurrentProcessorNumber?$AA@ 005696bc     LIBCMT:winapisupp.obj
 0002:000026d8       ??_C@_0BP@KHGALBC@GetLogicalProcessorInformation?$AA@ 005696d8     LIBCMT:winapisupp.obj
 0002:000026f8       ??_C@_0BE@FKKLLFLM@CreateSymbolicLinkW?$AA@ 005696f8     LIBCMT:winapisupp.obj
 0002:0000270c       ??_C@_0BJ@OHNKDLIJ@SetDefaultDllDirectories?$AA@ 0056970c     LIBCMT:winapisupp.obj
 0002:00002728       ??_C@_0BE@LJANKFHF@EnumSystemLocalesEx?$AA@ 00569728     LIBCMT:winapisupp.obj
 0002:0000273c       ??_C@_0BA@IHGNDAEB@CompareStringEx?$AA@ 0056973c     LIBCMT:winapisupp.obj
 0002:0000274c       ??_C@_0BA@EPCJIIPD@GetDateFormatEx?$AA@ 0056974c     LIBCMT:winapisupp.obj
 0002:0000275c       ??_C@_0BA@ONOKGCMP@GetLocaleInfoEx?$AA@ 0056975c     LIBCMT:winapisupp.obj
 0002:0000276c       ??_C@_0BA@CIJJKCJJ@GetTimeFormatEx?$AA@ 0056976c     LIBCMT:winapisupp.obj
 0002:0000277c       ??_C@_0BJ@PBCCBIPI@GetUserDefaultLocaleName?$AA@ 0056977c     LIBCMT:winapisupp.obj
 0002:00002798       ??_C@_0BC@CELBKLLA@IsValidLocaleName?$AA@ 00569798     LIBCMT:winapisupp.obj
 0002:000027ac       ??_C@_0O@KKBNKAPF@LCMapStringEx?$AA@ 005697ac     LIBCMT:winapisupp.obj
 0002:000027bc       ??_C@_0BE@JOGNEJCI@GetCurrentPackageId?$AA@ 005697bc     LIBCMT:winapisupp.obj
 0002:00002800       ??_C@_1M@HPNHIDJI@?$AAj?$AAa?$AA?9?$AAJ?$AAP?$AA?$AA@ 00569800     LIBCMT:mbctype.obj
 0002:0000280c       ??_C@_1M@BIBDDEMK@?$AAz?$AAh?$AA?9?$AAC?$AAN?$AA?$AA@ 0056980c     LIBCMT:mbctype.obj
 0002:00002818       ??_C@_1M@JLOOOEGK@?$AAk?$AAo?$AA?9?$AAK?$AAR?$AA?$AA@ 00569818     LIBCMT:mbctype.obj
 0002:00002824       ??_C@_1M@CLNBBOPM@?$AAz?$AAh?$AA?9?$AAT?$AAW?$AA?$AA@ 00569824     LIBCMT:mbctype.obj
 0002:00002830       ??_C@_03KOEHGMDN@Sun?$AA@  00569830     LIBCMT:nlsdata.obj
 0002:00002834       ??_C@_03PDAGKDH@Mon?$AA@   00569834     LIBCMT:nlsdata.obj
 0002:00002838       ??_C@_03NAGEINEP@Tue?$AA@  00569838     LIBCMT:nlsdata.obj
 0002:0000283c       ??_C@_03MHOMLAJA@Wed?$AA@  0056983c     LIBCMT:nlsdata.obj
 0002:00002840       ??_C@_03IOFIKPDN@Thu?$AA@  00569840     LIBCMT:nlsdata.obj
 0002:00002844       ??_C@_03IDIOELNC@Fri?$AA@  00569844     LIBCMT:nlsdata.obj
 0002:00002848       ??_C@_03FEFJNEK@Sat?$AA@   00569848     LIBCMT:nlsdata.obj
 0002:0000284c       ??_C@_06OOPIFAJ@Sunday?$AA@ 0056984c     LIBCMT:nlsdata.obj
 0002:00002854       ??_C@_06JLEDEDGH@Monday?$AA@ 00569854     LIBCMT:nlsdata.obj
 0002:0000285c       ??_C@_07BAAGCFCM@Tuesday?$AA@ 0056985c     LIBCMT:nlsdata.obj
 0002:00002864       ??_C@_09DLIGFAKA@Wednesday?$AA@ 00569864     LIBCMT:nlsdata.obj
 0002:00002870       ??_C@_08HACCIKIA@Thursday?$AA@ 00569870     LIBCMT:nlsdata.obj
 0002:0000287c       ??_C@_06JECMNKMI@Friday?$AA@ 0056987c     LIBCMT:nlsdata.obj
 0002:00002884       ??_C@_08INBOOONO@Saturday?$AA@ 00569884     LIBCMT:nlsdata.obj
 0002:00002890       ??_C@_03JIHJHPIE@Jan?$AA@  00569890     LIBCMT:nlsdata.obj
 0002:00002894       ??_C@_03HJBDCHOM@Feb?$AA@  00569894     LIBCMT:nlsdata.obj
 0002:00002898       ??_C@_03ODNJBKGA@Mar?$AA@  00569898     LIBCMT:nlsdata.obj
 0002:0000289c       ??_C@_03LEOLGMJP@Apr?$AA@  0056989c     LIBCMT:nlsdata.obj
 0002:000028a0       ??_C@_03CNMDKL@May?$AA@    005698a0     LIBCMT:nlsdata.obj
 0002:000028a4       ??_C@_03IDFGHECI@Jun?$AA@  005698a4     LIBCMT:nlsdata.obj
 0002:000028a8       ??_C@_03LBGABGKK@Jul?$AA@  005698a8     LIBCMT:nlsdata.obj
 0002:000028ac       ??_C@_03IFJFEIGA@Aug?$AA@  005698ac     LIBCMT:nlsdata.obj
 0002:000028b0       ??_C@_03GGCAPAJC@Sep?$AA@  005698b0     LIBCMT:nlsdata.obj
 0002:000028b4       ??_C@_03BMAOKBAD@Oct?$AA@  005698b4     LIBCMT:nlsdata.obj
 0002:000028b8       ??_C@_03JPJOFNIA@Nov?$AA@  005698b8     LIBCMT:nlsdata.obj
 0002:000028bc       ??_C@_03MKABNOCG@Dec?$AA@  005698bc     LIBCMT:nlsdata.obj
 0002:000028c0       ??_C@_07CGJPFGJA@January?$AA@ 005698c0     LIBCMT:nlsdata.obj
 0002:000028c8       ??_C@_08GNJGEPFN@February?$AA@ 005698c8     LIBCMT:nlsdata.obj
 0002:000028d4       ??_C@_05HPCKOFNC@March?$AA@ 005698d4     LIBCMT:nlsdata.obj
 0002:000028dc       ??_C@_05DMJDNLEJ@April?$AA@ 005698dc     LIBCMT:nlsdata.obj
 0002:000028e4       ??_C@_04CNLMGBGM@June?$AA@ 005698e4     LIBCMT:nlsdata.obj
 0002:000028ec       ??_C@_04MIEPOIFP@July?$AA@ 005698ec     LIBCMT:nlsdata.obj
 0002:000028f4       ??_C@_06LBBHFDDG@August?$AA@ 005698f4     LIBCMT:nlsdata.obj
 0002:000028fc       ??_C@_09BHHEALKD@September?$AA@ 005698fc     LIBCMT:nlsdata.obj
 0002:00002908       ??_C@_07JJNFCEND@October?$AA@ 00569908     LIBCMT:nlsdata.obj
 0002:00002910       ??_C@_08HCHEGEOA@November?$AA@ 00569910     LIBCMT:nlsdata.obj
 0002:0000291c       ??_C@_08EDHMEBNP@December?$AA@ 0056991c     LIBCMT:nlsdata.obj
 0002:00002928       ??_C@_02DEDBPAFC@AM?$AA@   00569928     LIBCMT:nlsdata.obj
 0002:0000292c       ??_C@_02CJNFDJBF@PM?$AA@   0056992c     LIBCMT:nlsdata.obj
 0002:00002930       ??_C@_08BPBNCDIB@MM?1dd?1yy?$AA@ 00569930     LIBCMT:nlsdata.obj
 0002:0000293c       ??_C@_0BE@CKGJFCPC@dddd?0?5MMMM?5dd?0?5yyyy?$AA@ 0056993c     LIBCMT:nlsdata.obj
 0002:00002950       ??_C@_08JCCMCCIL@HH?3mm?3ss?$AA@ 00569950     LIBCMT:nlsdata.obj
 0002:0000295c       ??_C@_17MBGCMIPB@?$AAS?$AAu?$AAn?$AA?$AA@ 0056995c     LIBCMT:nlsdata.obj
 0002:00002964       ??_C@_17KBOMKBF@?$AAM?$AAo?$AAn?$AA?$AA@ 00569964     LIBCMT:nlsdata.obj
 0002:0000296c       ??_C@_17BMKGEGOJ@?$AAT?$AAu?$AAe?$AA?$AA@ 0056996c     LIBCMT:nlsdata.obj
 0002:00002974       ??_C@_17CJEDCEPE@?$AAW?$AAe?$AAd?$AA?$AA@ 00569974     LIBCMT:nlsdata.obj
 0002:0000297c       ??_C@_17PDPHAADD@?$AAT?$AAh?$AAu?$AA?$AA@ 0056997c     LIBCMT:nlsdata.obj
 0002:00002984       ??_C@_17HFOLPPLP@?$AAF?$AAr?$AAi?$AA?$AA@ 00569984     LIBCMT:nlsdata.obj
 0002:0000298c       ??_C@_17GGIBDPIH@?$AAS?$AAa?$AAt?$AA?$AA@ 0056998c     LIBCMT:nlsdata.obj
 0002:00002994       ??_C@_1O@IHNHDHPB@?$AAS?$AAu?$AAn?$AAd?$AAa?$AAy?$AA?$AA@ 00569994     LIBCMT:nlsdata.obj
 0002:000029a4       ??_C@_1O@MMNBFLIA@?$AAM?$AAo?$AAn?$AAd?$AAa?$AAy?$AA?$AA@ 005699a4     LIBCMT:nlsdata.obj
 0002:000029b4       ??_C@_1BA@ENFBFFEK@?$AAT?$AAu?$AAe?$AAs?$AAd?$AAa?$AAy?$AA?$AA@ 005699b4     LIBCMT:nlsdata.obj
 0002:000029c4       ??_C@_1BE@EBOGMDOH@?$AAW?$AAe?$AAd?$AAn?$AAe?$AAs?$AAd?$AAa?$AAy?$AA?$AA@ 005699c4     LIBCMT:nlsdata.obj
 0002:000029d8       ??_C@_1BC@HHMNLIHE@?$AAT?$AAh?$AAu?$AAr?$AAs?$AAd?$AAa?$AAy?$AA?$AA@ 005699d8     LIBCMT:nlsdata.obj
 0002:000029ec       ??_C@_1O@PDICJHAG@?$AAF?$AAr?$AAi?$AAd?$AAa?$AAy?$AA?$AA@ 005699ec     LIBCMT:nlsdata.obj
 0002:000029fc       ??_C@_1BC@ENMNNPAJ@?$AAS?$AAa?$AAt?$AAu?$AAr?$AAd?$AAa?$AAy?$AA?$AA@ 005699fc     LIBCMT:nlsdata.obj
 0002:00002a10       ??_C@_17DKNBKCHM@?$AAJ?$AAa?$AAn?$AA?$AA@ 00569a10     LIBCMT:nlsdata.obj
 0002:00002a18       ??_C@_17LMDJEKJN@?$AAF?$AAe?$AAb?$AA?$AA@ 00569a18     LIBCMT:nlsdata.obj
 0002:00002a20       ??_C@_17CKNLEDEC@?$AAM?$AAa?$AAr?$AA?$AA@ 00569a20     LIBCMT:nlsdata.obj
 0002:00002a28       ??_C@_17LFPOIHDD@?$AAA?$AAp?$AAr?$AA?$AA@ 00569a28     LIBCMT:nlsdata.obj
 0002:00002a30       ??_C@_17PNNKMEED@?$AAM?$AAa?$AAy?$AA?$AA@ 00569a30     LIBCMT:nlsdata.obj
 0002:00002a38       ??_C@_17KCJGOCPB@?$AAJ?$AAu?$AAn?$AA?$AA@ 00569a38     LIBCMT:nlsdata.obj
 0002:00002a40       ??_C@_17IJPCKHK@?$AAJ?$AAu?$AAl?$AA?$AA@ 00569a40     LIBCMT:nlsdata.obj
 0002:00002a48       ??_C@_17ICPELBCN@?$AAA?$AAu?$AAg?$AA?$AA@ 00569a48     LIBCMT:nlsdata.obj
 0002:00002a50       ??_C@_17HCHCOKMG@?$AAS?$AAe?$AAp?$AA?$AA@ 00569a50     LIBCMT:nlsdata.obj
 0002:00002a58       ??_C@_17FNLKOI@?$AAO?$AAc?$AAt?$AA?$AA@ 00569a58     LIBCMT:nlsdata.obj
 0002:00002a60       ??_C@_17BBDMLCIG@?$AAN?$AAo?$AAv?$AA?$AA@ 00569a60     LIBCMT:nlsdata.obj
 0002:00002a68       ??_C@_17EGKACKIF@?$AAD?$AAe?$AAc?$AA?$AA@ 00569a68     LIBCMT:nlsdata.obj
 0002:00002a70       ??_C@_1BA@EFMEIEBA@?$AAJ?$AAa?$AAn?$AAu?$AAa?$AAr?$AAy?$AA?$AA@ 00569a70     LIBCMT:nlsdata.obj
 0002:00002a80       ??_C@_1BC@JGDDFFAM@?$AAF?$AAe?$AAb?$AAr?$AAu?$AAa?$AAr?$AAy?$AA?$AA@ 00569a80     LIBCMT:nlsdata.obj
 0002:00002a94       ??_C@_1M@IKEENEDF@?$AAM?$AAa?$AAr?$AAc?$AAh?$AA?$AA@ 00569a94     LIBCMT:nlsdata.obj
 0002:00002aa0       ??_C@_1M@GJNLMHFD@?$AAA?$AAp?$AAr?$AAi?$AAl?$AA?$AA@ 00569aa0     LIBCMT:nlsdata.obj
 0002:00002aac       ??_C@_19EPFLPGAP@?$AAJ?$AAu?$AAn?$AAe?$AA?$AA@ 00569aac     LIBCMT:nlsdata.obj
 0002:00002ab8       ??_C@_19BIFMLPCD@?$AAJ?$AAu?$AAl?$AAy?$AA?$AA@ 00569ab8     LIBCMT:nlsdata.obj
 0002:00002ac4       ??_C@_1O@PAHLKOAC@?$AAA?$AAu?$AAg?$AAu?$AAs?$AAt?$AA?$AA@ 00569ac4     LIBCMT:nlsdata.obj
 0002:00002ad4       ??_C@_1BE@DKAAMBJL@?$AAS?$AAe?$AAp?$AAt?$AAe?$AAm?$AAb?$AAe?$AAr?$AA?$AA@ 00569ad4     LIBCMT:nlsdata.obj
 0002:00002ae8       ??_C@_1BA@EPANDLNG@?$AAO?$AAc?$AAt?$AAo?$AAb?$AAe?$AAr?$AA?$AA@ 00569ae8     LIBCMT:nlsdata.obj
 0002:00002af8       ??_C@_1BC@BGLIFPF@?$AAN?$AAo?$AAv?$AAe?$AAm?$AAb?$AAe?$AAr?$AA?$AA@ 00569af8     LIBCMT:nlsdata.obj
 0002:00002b0c       ??_C@_1BC@FEMKIFH@?$AAD?$AAe?$AAc?$AAe?$AAm?$AAb?$AAe?$AAr?$AA?$AA@ 00569b0c     LIBCMT:nlsdata.obj
 0002:00002b20       ??_C@_15ODEHAHHF@?$AAA?$AAM?$AA?$AA@ 00569b20     LIBCMT:nlsdata.obj
 0002:00002b28       ??_C@_15CLMNNGEL@?$AAP?$AAM?$AA?$AA@ 00569b28     LIBCMT:nlsdata.obj
 0002:00002b30       ??_C@_1BC@IEBCMHCM@?$AAM?$AAM?$AA?1?$AAd?$AAd?$AA?1?$AAy?$AAy?$AA?$AA@ 00569b30     LIBCMT:nlsdata.obj
 0002:00002b44       ??_C@_1CI@KNAKOEBC@?$AAd?$AAd?$AAd?$AAd?$AA?0?$AA?5?$AAM?$AAM?$AAM?$AAM?$AA?5?$AAd?$AAd?$AA?0?$AA?5?$AAy?$AAy?$AAy?$AAy?$AA?$AA@ 00569b44     LIBCMT:nlsdata.obj
 0002:00002b6c       ??_C@_1BC@GDGBMEMK@?$AAH?$AAH?$AA?3?$AAm?$AAm?$AA?3?$AAs?$AAs?$AA?$AA@ 00569b6c     LIBCMT:nlsdata.obj
 0002:00002b80       ??_C@_1M@BMHNFIME@?$AAe?$AAn?$AA?9?$AAU?$AAS?$AA?$AA@ 00569b80     LIBCMT:nlsdata.obj
 0002:00002c10       ___dnames                  00569c10     LIBCMT:timeset.obj
 0002:00002c28       ___mnames                  00569c28     LIBCMT:timeset.obj
 0002:00002c50       ??_C@_02CLFPBFFP@TZ?$AA@   00569c50     LIBCMT:tzset.obj
 0002:00002c54       ??_C@_1M@PBPMMENC@?$AAa?$AAm?$AA?1?$AAp?$AAm?$AA?$AA@ 00569c54     LIBCMT:wcsftime.obj
 0002:00002c60       ??_C@_17BLFJJHMM@?$AAa?$AA?1?$AAp?$AA?$AA@ 00569c60     LIBCMT:wcsftime.obj
 0002:00002c68       __FPinit                   00569c68     LIBCMT:fpinit.obj
 0002:00002c70       ___lookuptable_s           00569c70     LIBCMT:outputs.obj
 0002:00002cd0       __XcptActTab               00569cd0     LIBCMT:winxfltr.obj
 0002:00002d60       __XcptActTabCount          00569d60     LIBCMT:winxfltr.obj
 0002:00002d64       __XcptActTabSize           00569d64     LIBCMT:winxfltr.obj
 0002:00002d68       __First_FPE_Indx           00569d68     LIBCMT:winxfltr.obj
 0002:00002d6c       __Num_FPE                  00569d6c     LIBCMT:winxfltr.obj
 0002:00002d78       __sys_errlist              00569d78     LIBCMT:syserr.obj
 0002:00002e28       ??_C@_08INEPGKHH@No?5error?$AA@ 00569e28     LIBCMT:syserr.obj
 0002:00002e34       ??_C@_0BI@BJFCGOHL@Operation?5not?5permitted?$AA@ 00569e34     LIBCMT:syserr.obj
 0002:00002e4c       ??_C@_0BK@FMDHKPNF@No?5such?5file?5or?5directory?$AA@ 00569e4c     LIBCMT:syserr.obj
 0002:00002e68       ??_C@_0BA@FKIAIBGA@No?5such?5process?$AA@ 00569e68     LIBCMT:syserr.obj
 0002:00002e78       ??_C@_0BK@FJBOAFDK@Interrupted?5function?5call?$AA@ 00569e78     LIBCMT:syserr.obj
 0002:00002e94       ??_C@_0BD@KKNFOBBD@Input?1output?5error?$AA@ 00569e94     LIBCMT:syserr.obj
 0002:00002ea8       ??_C@_0BK@DPKMCKJ@No?5such?5device?5or?5address?$AA@ 00569ea8     LIBCMT:syserr.obj
 0002:00002ec4       ??_C@_0BC@MFFGCDFL@Arg?5list?5too?5long?$AA@ 00569ec4     LIBCMT:syserr.obj
 0002:00002ed8       ??_C@_0BC@HKPNECK@Exec?5format?5error?$AA@ 00569ed8     LIBCMT:syserr.obj
 0002:00002eec       ??_C@_0BE@NFGDDCEF@Bad?5file?5descriptor?$AA@ 00569eec     LIBCMT:syserr.obj
 0002:00002f00       ??_C@_0BD@LOHELEP@No?5child?5processes?$AA@ 00569f00     LIBCMT:syserr.obj
 0002:00002f14       ??_C@_0CB@EPFKGNAK@Resource?5temporarily?5unavailable@ 00569f14     LIBCMT:syserr.obj
 0002:00002f38       ??_C@_0BB@IMDKMPFB@Not?5enough?5space?$AA@ 00569f38     LIBCMT:syserr.obj
 0002:00002f4c       ??_C@_0BC@HFNFNKAI@Permission?5denied?$AA@ 00569f4c     LIBCMT:syserr.obj
 0002:00002f60       ??_C@_0M@LOEHLCJD@Bad?5address?$AA@ 00569f60     LIBCMT:syserr.obj
 0002:00002f6c       ??_C@_0O@NIPGCINC@Unknown?5error?$AA@ 00569f6c     LIBCMT:syserr.obj
 0002:00002f7c       ??_C@_0BA@BIBLIOEK@Resource?5device?$AA@ 00569f7c     LIBCMT:syserr.obj
 0002:00002f8c       ??_C@_0M@NAAJNNGH@File?5exists?$AA@ 00569f8c     LIBCMT:syserr.obj
 0002:00002f98       ??_C@_0O@OAMDNOCP@Improper?5link?$AA@ 00569f98     LIBCMT:syserr.obj
 0002:00002fa8       ??_C@_0P@NLEIANHE@No?5such?5device?$AA@ 00569fa8     LIBCMT:syserr.obj
 0002:00002fb8       ??_C@_0BA@CJBACOOL@Not?5a?5directory?$AA@ 00569fb8     LIBCMT:syserr.obj
 0002:00002fc8       ??_C@_0P@NDHGCGKE@Is?5a?5directory?$AA@ 00569fc8     LIBCMT:syserr.obj
 0002:00002fd8       ??_C@_0BB@HMGGCEBG@Invalid?5argument?$AA@ 00569fd8     LIBCMT:syserr.obj
 0002:00002fec       ??_C@_0BO@IIFBODJE@Too?5many?5open?5files?5in?5system?$AA@ 00569fec     LIBCMT:syserr.obj
 0002:0000300c       ??_C@_0BE@INBJMKGG@Too?5many?5open?5files?$AA@ 0056a00c     LIBCMT:syserr.obj
 0002:00003020       ??_C@_0CE@ONOKNLPF@Inappropriate?5I?1O?5control?5operat@ 0056a020     LIBCMT:syserr.obj
 0002:00003044       ??_C@_0P@LFMMIPAE@File?5too?5large?$AA@ 0056a044     LIBCMT:syserr.obj
 0002:00003054       ??_C@_0BI@FEALHKLD@No?5space?5left?5on?5device?$AA@ 0056a054     LIBCMT:syserr.obj
 0002:0000306c       ??_C@_0N@FEHLOILP@Invalid?5seek?$AA@ 0056a06c     LIBCMT:syserr.obj
 0002:0000307c       ??_C@_0BG@DDBFNKBH@Read?9only?5file?5system?$AA@ 0056a07c     LIBCMT:syserr.obj
 0002:00003094       ??_C@_0P@PKCJJLLM@Too?5many?5links?$AA@ 0056a094     LIBCMT:syserr.obj
 0002:000030a4       ??_C@_0M@LHEPIIOM@Broken?5pipe?$AA@ 0056a0a4     LIBCMT:syserr.obj
 0002:000030b0       ??_C@_0N@MMJPGLJK@Domain?5error?$AA@ 0056a0b0     LIBCMT:syserr.obj
 0002:000030c0       ??_C@_0BB@FCBJFCAJ@Result?5too?5large?$AA@ 0056a0c0     LIBCMT:syserr.obj
 0002:000030d4       ??_C@_0BK@JAEBMJJM@Resource?5deadlock?5avoided?$AA@ 0056a0d4     LIBCMT:syserr.obj
 0002:000030f0       ??_C@_0BC@BEDIHIDK@Filename?5too?5long?$AA@ 0056a0f0     LIBCMT:syserr.obj
 0002:00003104       ??_C@_0BD@CLHBCGPB@No?5locks?5available?$AA@ 0056a104     LIBCMT:syserr.obj
 0002:00003118       ??_C@_0BJ@IHEHINLI@Function?5not?5implemented?$AA@ 0056a118     LIBCMT:syserr.obj
 0002:00003134       ??_C@_0BE@ICMCHPHH@Directory?5not?5empty?$AA@ 0056a134     LIBCMT:syserr.obj
 0002:00003148       ??_C@_0BG@KLEAJEFJ@Illegal?5byte?5sequence?$AA@ 0056a148     LIBCMT:syserr.obj
 0002:00003160       ??_C@_1BG@GOEBHBDC@?$AAU?$AAS?$AAE?$AAR?$AA3?$AA2?$AA?4?$AAD?$AAL?$AAL?$AA?$AA@ 0056a160     LIBCMT:crtmboxw.obj
 0002:00003178       ??_C@_0M@DLDCCGNP@MessageBoxW?$AA@ 0056a178     LIBCMT:crtmboxw.obj
 0002:00003184       ??_C@_0BA@HNOPNCHB@GetActiveWindow?$AA@ 0056a184     LIBCMT:crtmboxw.obj
 0002:00003194       ??_C@_0BD@HHGDFDBJ@GetLastActivePopup?$AA@ 0056a194     LIBCMT:crtmboxw.obj
 0002:000031a8       ??_C@_0BK@DEKFELLI@GetUserObjectInformationW?$AA@ 0056a1a8     LIBCMT:crtmboxw.obj
 0002:000031c4       ??_C@_0BI@DFKBFLJE@GetProcessWindowStation?$AA@ 0056a1c4     LIBCMT:crtmboxw.obj
 0002:000031dc       ??_C@_04COOMCNPB@sinh?$AA@ 0056a1dc     LIBCMT:fpexcept.obj
 0002:000031e4       ??_C@_04HPJJNFIM@cosh?$AA@ 0056a1e4     LIBCMT:fpexcept.obj
 0002:000031ec       ??_C@_04FJHINJAO@tanh?$AA@ 0056a1ec     LIBCMT:fpexcept.obj
 0002:000031f4       ??_C@_05KNGEOGJB@atan2?$AA@ 0056a1f4     LIBCMT:fpexcept.obj
 0002:000031fc       ??_C@_04ODHECPBC@fabs?$AA@ 0056a1fc     LIBCMT:fpexcept.obj
 0002:00003204       ??_C@_05CEJMAHNP@ldexp?$AA@ 0056a204     LIBCMT:fpexcept.obj
 0002:0000320c       ??_C@_05KBKMEMPO@_cabs?$AA@ 0056a20c     LIBCMT:fpexcept.obj
 0002:00003214       ??_C@_06MEIMCGCF@_hypot?$AA@ 0056a214     LIBCMT:fpexcept.obj
 0002:0000321c       ??_C@_04KEPJIHGP@fmod?$AA@ 0056a21c     LIBCMT:fpexcept.obj
 0002:00003224       ??_C@_05GKKHEGJL@frexp?$AA@ 0056a224     LIBCMT:fpexcept.obj
 0002:0000322c       ??_C@_03MJLDFKDL@_y0?$AA@  0056a22c     LIBCMT:fpexcept.obj
 0002:00003230       ??_C@_03NAKIGLHK@_y1?$AA@  0056a230     LIBCMT:fpexcept.obj
 0002:00003234       ??_C@_03ONILCKOB@_yn?$AA@  0056a234     LIBCMT:fpexcept.obj
 0002:00003238       ??_C@_05JGDBENOH@_logb?$AA@ 0056a238     LIBCMT:fpexcept.obj
 0002:00003240       ??_C@_0L@KDOEJCKC@_nextafter?$AA@ 0056a240     LIBCMT:fpexcept.obj
 0002:00003250       _LcidToLocaleNameTable     0056a250     LIBCMT:winapinls.obj
 0002:00003970       _LocaleNameToIndexTable    0056a970     LIBCMT:winapinls.obj
 0002:00004090       ??_C@_15EMKDOKLE@?$AAa?$AAr?$AA?$AA@ 0056b090     LIBCMT:winapinls.obj
 0002:00004098       ??_C@_15KNPADPLH@?$AAb?$AAg?$AA?$AA@ 0056b098     LIBCMT:winapinls.obj
 0002:000040a0       ??_C@_15EDMHLDMO@?$AAc?$AAa?$AA?$AA@ 0056b0a0     LIBCMT:winapinls.obj
 0002:000040a8       ??_C@_1O@BPEAJADD@?$AAz?$AAh?$AA?9?$AAC?$AAH?$AAS?$AA?$AA@ 0056b0a8     LIBCMT:winapinls.obj
 0002:000040b8       ??_C@_15LJNHCMNK@?$AAc?$AAs?$AA?$AA@ 0056b0b8     LIBCMT:winapinls.obj
 0002:000040c0       ??_C@_15FOMCIDHG@?$AAd?$AAa?$AA?$AA@ 0056b0c0     LIBCMT:winapinls.obj
 0002:000040c8       ??_C@_15NBKABECB@?$AAd?$AAe?$AA?$AA@ 0056b0c8     LIBCMT:winapinls.obj
 0002:000040d0       ??_C@_15GHPEIIAO@?$AAe?$AAl?$AA?$AA@ 0056b0d0     LIBCMT:winapinls.obj
 0002:000040d8       ??_C@_15MNPNEAIF@?$AAe?$AAn?$AA?$AA@ 0056b0d8     LIBCMT:winapinls.obj
 0002:000040e0       ??_C@_15GPIOMPMH@?$AAe?$AAs?$AA?$AA@ 0056b0e0     LIBCMT:winapinls.obj
 0002:000040e8       ??_C@_15NGLOAKJC@?$AAf?$AAi?$AA?$AA@ 0056b0e8     LIBCMT:winapinls.obj
 0002:000040f0       ??_C@_15FBKGNKAM@?$AAf?$AAr?$AA?$AA@ 0056b0f0     LIBCMT:winapinls.obj
 0002:000040f8       ??_C@_15KGGCNEFK@?$AAh?$AAe?$AA?$AA@ 0056b0f8     LIBCMT:winapinls.obj
 0002:00004100       ??_C@_15PGHLIDMF@?$AAh?$AAu?$AA?$AA@ 0056b100     LIBCMT:winapinls.obj
 0002:00004108       ??_C@_15BIEMAPLM@?$AAi?$AAs?$AA?$AA@ 0056b108     LIBCMT:winapinls.obj
 0002:00004110       ??_C@_15IFJLDHAF@?$AAi?$AAt?$AA?$AA@ 0056b110     LIBCMT:winapinls.obj
 0002:00004118       ??_C@_15GEMIOCAG@?$AAj?$AAa?$AA?$AA@ 0056b118     LIBCMT:winapinls.obj
 0002:00004120       ??_C@_15EPELEGJA@?$AAk?$AAo?$AA?$AA@ 0056b120     LIBCMT:winapinls.obj
 0002:00004128       ??_C@_15NDDHIMN@?$AAn?$AAl?$AA?$AA@ 0056b128     LIBCMT:winapinls.obj
 0002:00004130       ??_C@_15BPIGNHCD@?$AAn?$AAo?$AA?$AA@ 0056b130     LIBCMT:winapinls.obj
 0002:00004138       ??_C@_15DEOPBLCG@?$AAp?$AAl?$AA?$AA@ 0056b138     LIBCMT:winapinls.obj
 0002:00004140       ??_C@_15KBECGEFG@?$AAp?$AAt?$AA?$AA@ 0056b140     LIBCMT:winapinls.obj
 0002:00004148       ??_C@_15GLJCBFMD@?$AAr?$AAo?$AA?$AA@ 0056b148     LIBCMT:winapinls.obj
 0002:00004150       ??_C@_15FEDGKCDI@?$AAr?$AAu?$AA?$AA@ 0056b150     LIBCMT:winapinls.obj
 0002:00004158       ??_C@_15GLKMLLHM@?$AAh?$AAr?$AA?$AA@ 0056b158     LIBCMT:winapinls.obj
 0002:00004160       ??_C@_15CPKMFBDB@?$AAs?$AAk?$AA?$AA@ 0056b160     LIBCMT:winapinls.obj
 0002:00004168       ??_C@_15BAAIOGMK@?$AAs?$AAq?$AA?$AA@ 0056b168     LIBCMT:winapinls.obj
 0002:00004170       ??_C@_15INNPNOHD@?$AAs?$AAv?$AA?$AA@ 0056b170     LIBCMT:winapinls.obj
 0002:00004178       ??_C@_15CABMMOGH@?$AAt?$AAh?$AA?$AA@ 0056b178     LIBCMT:winapinls.obj
 0002:00004180       ??_C@_15BPLIHJJM@?$AAt?$AAr?$AA?$AA@ 0056b180     LIBCMT:winapinls.obj
 0002:00004188       ??_C@_15NEOEKKDJ@?$AAu?$AAr?$AA?$AA@ 0056b188     LIBCMT:winapinls.obj
 0002:00004190       ??_C@_15NFICGAJK@?$AAi?$AAd?$AA?$AA@ 0056b190     LIBCMT:winapinls.obj
 0002:00004198       ??_C@_15PJPFLCCM@?$AAu?$AAk?$AA?$AA@ 0056b198     LIBCMT:winapinls.obj
 0002:000041a0       ??_C@_15HPJPHDM@?$AAb?$AAe?$AA?$AA@ 0056b1a0     LIBCMT:winapinls.obj
 0002:000041a8       ??_C@_15LCHLGJII@?$AAs?$AAl?$AA?$AA@ 0056b1a8     LIBCMT:winapinls.obj
 0002:000041b0       ??_C@_15PCFJPHHO@?$AAe?$AAt?$AA?$AA@ 0056b1b0     LIBCMT:winapinls.obj
 0002:000041b8       ??_C@_15HPFPGODN@?$AAl?$AAv?$AA?$AA@ 0056b1b8     LIBCMT:winapinls.obj
 0002:000041c0       ??_C@_15NFFGKGLG@?$AAl?$AAt?$AA?$AA@ 0056b1c0     LIBCMT:winapinls.obj
 0002:000041c8       ??_C@_15BDAKCCHN@?$AAf?$AAa?$AA?$AA@ 0056b1c8     LIBCMT:winapinls.obj
 0002:000041d0       ??_C@_15NFGIAIAJ@?$AAv?$AAi?$AA?$AA@ 0056b1d0     LIBCMT:winapinls.obj
 0002:000041d8       ??_C@_15LMKNDMHN@?$AAh?$AAy?$AA?$AA@ 0056b1d8     LIBCMT:winapinls.obj
 0002:000041e0       ??_C@_15IJBHMCFL@?$AAa?$AAz?$AA?$AA@ 0056b1e0     LIBCMT:winapinls.obj
 0002:000041e8       ??_C@_15EKOFJABL@?$AAe?$AAu?$AA?$AA@ 0056b1e8     LIBCMT:winapinls.obj
 0002:000041f0       ??_C@_15BGHADCNK@?$AAm?$AAk?$AA?$AA@ 0056b1f0     LIBCMT:winapinls.obj
 0002:000041f8       ??_C@_15JDNICKHM@?$AAa?$AAf?$AA?$AA@ 0056b1f8     LIBCMT:winapinls.obj
 0002:00004200       ??_C@_15KPJEDBKD@?$AAk?$AAa?$AA?$AA@ 0056b200     LIBCMT:winapinls.obj
 0002:00004208       ??_C@_15PDNFFFEO@?$AAf?$AAo?$AA?$AA@ 0056b208     LIBCMT:winapinls.obj
 0002:00004210       ??_C@_15OMLEGLOC@?$AAh?$AAi?$AA?$AA@ 0056b210     LIBCMT:winapinls.obj
 0002:00004218       ??_C@_15IDNNENKK@?$AAm?$AAs?$AA?$AA@ 0056b218     LIBCMT:winapinls.obj
 0002:00004220       ??_C@_15MACJNBMH@?$AAk?$AAk?$AA?$AA@ 0056b220     LIBCMT:winapinls.obj
 0002:00004228       ??_C@_15DKDJEOND@?$AAk?$AAy?$AA?$AA@ 0056b228     LIBCMT:winapinls.obj
 0002:00004230       ??_C@_15DFGDLJBG@?$AAs?$AAw?$AA?$AA@ 0056b230     LIBCMT:winapinls.obj
 0002:00004238       ??_C@_15BBFAICNG@?$AAu?$AAz?$AA?$AA@ 0056b238     LIBCMT:winapinls.obj
 0002:00004240       ??_C@_15DKNDCGEA@?$AAt?$AAt?$AA?$AA@ 0056b240     LIBCMT:winapinls.obj
 0002:00004248       ??_C@_15MGIFMDPL@?$AAp?$AAa?$AA?$AA@ 0056b248     LIBCMT:winapinls.obj
 0002:00004250       ??_C@_15HCNDBBA@?$AAg?$AAu?$AA?$AA@ 0056b250     LIBCMT:winapinls.obj
 0002:00004258       ??_C@_15FNBEIBON@?$AAt?$AAa?$AA?$AA@ 0056b258     LIBCMT:winapinls.obj
 0002:00004260       ??_C@_15NCHGBGLK@?$AAt?$AAe?$AA?$AA@ 0056b260     LIBCMT:winapinls.obj
 0002:00004268       ??_C@_15PHPHCBPF@?$AAk?$AAn?$AA?$AA@ 0056b268     LIBCMT:winapinls.obj
 0002:00004270       ??_C@_15DLGBCKMP@?$AAm?$AAr?$AA?$AA@ 0056b270     LIBCMT:winapinls.obj
 0002:00004278       ??_C@_15EABBLBFF@?$AAs?$AAa?$AA?$AA@ 0056b278     LIBCMT:winapinls.obj
 0002:00004280       ??_C@_15CBKOMCOI@?$AAm?$AAn?$AA?$AA@ 0056b280     LIBCMT:winapinls.obj
 0002:00004288       ??_C@_15CKDMCJAF@?$AAg?$AAl?$AA?$AA@ 0056b288     LIBCMT:winapinls.obj
 0002:00004290       ??_C@_17CNJFBPG@?$AAk?$AAo?$AAk?$AA?$AA@ 0056b290     LIBCMT:winapinls.obj
 0002:00004298       ??_C@_17FFBJICPL@?$AAs?$AAy?$AAr?$AA?$AA@ 0056b298     LIBCMT:winapinls.obj
 0002:000042a0       ??_C@_17KPNDCPAF@?$AAd?$AAi?$AAv?$AA?$AA@ 0056b2a0     LIBCMT:winapinls.obj
 0002:000042a8       ??_C@_11LOCGONAA@?$AA?$AA@ 0056b2a8     LIBCMT:winapinls.obj
 0002:000042ac       ??_C@_1M@OKAHONE@?$AAa?$AAr?$AA?9?$AAS?$AAA?$AA?$AA@ 0056b2ac     LIBCMT:winapinls.obj
 0002:000042b8       ??_C@_1M@FFFIGIGK@?$AAb?$AAg?$AA?9?$AAB?$AAG?$AA?$AA@ 0056b2b8     LIBCMT:winapinls.obj
 0002:000042c4       ??_C@_1M@BJNKEDC@?$AAc?$AAa?$AA?9?$AAE?$AAS?$AA?$AA@ 0056b2c4     LIBCMT:winapinls.obj
 0002:000042d0       ??_C@_1M@IJJHFJHA@?$AAc?$AAs?$AA?9?$AAC?$AAZ?$AA?$AA@ 0056b2d0     LIBCMT:winapinls.obj
 0002:000042dc       ??_C@_1M@CLPEOBGI@?$AAd?$AAa?$AA?9?$AAD?$AAK?$AA?$AA@ 0056b2dc     LIBCMT:winapinls.obj
 0002:000042e8       ??_C@_1M@MCMADGCB@?$AAd?$AAe?$AA?9?$AAD?$AAE?$AA?$AA@ 0056b2e8     LIBCMT:winapinls.obj
 0002:000042f4       ??_C@_1M@OOCKEMAM@?$AAe?$AAl?$AA?9?$AAG?$AAR?$AA?$AA@ 0056b2f4     LIBCMT:winapinls.obj
 0002:00004300       ??_C@_1M@DDNJFGID@?$AAf?$AAi?$AA?9?$AAF?$AAI?$AA?$AA@ 0056b300     LIBCMT:winapinls.obj
 0002:0000430c       ??_C@_1M@GLIPPMAC@?$AAf?$AAr?$AA?9?$AAF?$AAR?$AA?$AA@ 0056b30c     LIBCMT:winapinls.obj
 0002:00004318       ??_C@_1M@GFMCHPE@?$AAh?$AAe?$AA?9?$AAI?$AAL?$AA?$AA@ 0056b318     LIBCMT:winapinls.obj
 0002:00004324       ??_C@_1M@MHLPGNKM@?$AAh?$AAu?$AA?9?$AAH?$AAU?$AA?$AA@ 0056b324     LIBCMT:winapinls.obj
 0002:00004330       ??_C@_1M@LPDDNNPN@?$AAi?$AAs?$AA?9?$AAI?$AAS?$AA?$AA@ 0056b330     LIBCMT:winapinls.obj
 0002:0000433c       ??_C@_1M@MADIPODN@?$AAi?$AAt?$AA?9?$AAI?$AAT?$AA?$AA@ 0056b33c     LIBCMT:winapinls.obj
 0002:00004348       ??_C@_1M@IHBJJGG@?$AAn?$AAl?$AA?9?$AAN?$AAL?$AA?$AA@ 0056b348     LIBCMT:winapinls.obj
 0002:00004354       ??_C@_1M@EANAGDL@?$AAn?$AAb?$AA?9?$AAN?$AAO?$AA?$AA@ 0056b354     LIBCMT:winapinls.obj
 0002:00004360       ??_C@_1M@NEIEMEGP@?$AAp?$AAl?$AA?9?$AAP?$AAL?$AA?$AA@ 0056b360     LIBCMT:winapinls.obj
 0002:0000436c       ??_C@_1M@BOCFIGEP@?$AAp?$AAt?$AA?9?$AAB?$AAR?$AA?$AA@ 0056b36c     LIBCMT:winapinls.obj
 0002:00004378       ??_C@_1M@IMPFOPBG@?$AAr?$AAo?$AA?9?$AAR?$AAO?$AA?$AA@ 0056b378     LIBCMT:winapinls.obj
 0002:00004384       ??_C@_1M@IDNNEJMM@?$AAr?$AAu?$AA?9?$AAR?$AAU?$AA?$AA@ 0056b384     LIBCMT:winapinls.obj
 0002:00004390       ??_C@_1M@LILEEOGM@?$AAh?$AAr?$AA?9?$AAH?$AAR?$AA?$AA@ 0056b390     LIBCMT:winapinls.obj
 0002:0000439c       ??_C@_1M@FKIFEHPB@?$AAs?$AAk?$AA?9?$AAS?$AAK?$AA?$AA@ 0056b39c     LIBCMT:winapinls.obj
 0002:000043a8       ??_C@_1M@LJMAMNPJ@?$AAs?$AAq?$AA?9?$AAA?$AAL?$AA?$AA@ 0056b3a8     LIBCMT:winapinls.obj
 0002:000043b4       ??_C@_1M@GIAKDKJK@?$AAs?$AAv?$AA?9?$AAS?$AAE?$AA?$AA@ 0056b3b4     LIBCMT:winapinls.obj
 0002:000043c0       ??_C@_1M@MKJKIKCL@?$AAt?$AAh?$AA?9?$AAT?$AAH?$AA?$AA@ 0056b3c0     LIBCMT:winapinls.obj
 0002:000043cc       ??_C@_1M@MFLCCMPB@?$AAt?$AAr?$AA?9?$AAT?$AAR?$AA?$AA@ 0056b3cc     LIBCMT:winapinls.obj
 0002:000043d8       ??_C@_1M@OIJHDKJN@?$AAu?$AAr?$AA?9?$AAP?$AAK?$AA?$AA@ 0056b3d8     LIBCMT:winapinls.obj
 0002:000043e4       ??_C@_1M@LHIPCIEK@?$AAi?$AAd?$AA?9?$AAI?$AAD?$AA?$AA@ 0056b3e4     LIBCMT:winapinls.obj
 0002:000043f0       ??_C@_1M@MFMOBGI@?$AAu?$AAk?$AA?9?$AAU?$AAA?$AA?$AA@ 0056b3f0     LIBCMT:winapinls.obj
 0002:000043fc       ??_C@_1M@OBGLJIPL@?$AAb?$AAe?$AA?9?$AAB?$AAY?$AA?$AA@ 0056b3fc     LIBCMT:winapinls.obj
 0002:00004408       ??_C@_1M@BCFAJEAD@?$AAs?$AAl?$AA?9?$AAS?$AAI?$AA?$AA@ 0056b408     LIBCMT:winapinls.obj
 0002:00004414       ??_C@_1M@FKFFEDDN@?$AAe?$AAt?$AA?9?$AAE?$AAE?$AA?$AA@ 0056b414     LIBCMT:winapinls.obj
 0002:00004420       ??_C@_1M@KGKKAACI@?$AAl?$AAv?$AA?9?$AAL?$AAV?$AA?$AA@ 0056b420     LIBCMT:winapinls.obj
 0002:0000442c       ??_C@_1M@IFGBIJO@?$AAl?$AAt?$AA?9?$AAL?$AAT?$AA?$AA@ 0056b42c     LIBCMT:winapinls.obj
 0002:00004438       ??_C@_1M@FGEAHEDM@?$AAf?$AAa?$AA?9?$AAI?$AAR?$AA?$AA@ 0056b438     LIBCMT:winapinls.obj
 0002:00004444       ??_C@_1M@KBMAIBFN@?$AAv?$AAi?$AA?9?$AAV?$AAN?$AA?$AA@ 0056b444     LIBCMT:winapinls.obj
 0002:00004450       ??_C@_1M@GPCBKDJK@?$AAh?$AAy?$AA?9?$AAA?$AAM?$AA?$AA@ 0056b450     LIBCMT:winapinls.obj
 0002:0000445c       ??_C@_1BG@BECMDDJB@?$AAa?$AAz?$AA?9?$AAA?$AAZ?$AA?9?$AAL?$AAa?$AAt?$AAn?$AA?$AA@ 0056b45c     LIBCMT:winapinls.obj
 0002:00004474       ??_C@_1M@MAOFCAEA@?$AAe?$AAu?$AA?9?$AAE?$AAS?$AA?$AA@ 0056b474     LIBCMT:winapinls.obj
 0002:00004480       ??_C@_1M@IGHABKPI@?$AAm?$AAk?$AA?9?$AAM?$AAK?$AA?$AA@ 0056b480     LIBCMT:winapinls.obj
 0002:0000448c       ??_C@_1M@IAIGNEJG@?$AAt?$AAn?$AA?9?$AAZ?$AAA?$AA?$AA@ 0056b48c     LIBCMT:winapinls.obj
 0002:00004498       ??_C@_1M@IIJCOJFA@?$AAx?$AAh?$AA?9?$AAZ?$AAA?$AA?$AA@ 0056b498     LIBCMT:winapinls.obj
 0002:000044a4       ??_C@_1M@LGPJHNJH@?$AAz?$AAu?$AA?9?$AAZ?$AAA?$AA?$AA@ 0056b4a4     LIBCMT:winapinls.obj
 0002:000044b0       ??_C@_1M@HOKAOIO@?$AAa?$AAf?$AA?9?$AAZ?$AAA?$AA?$AA@ 0056b4b0     LIBCMT:winapinls.obj
 0002:000044bc       ??_C@_1M@DPCLHLIE@?$AAk?$AAa?$AA?9?$AAG?$AAE?$AA?$AA@ 0056b4bc     LIBCMT:winapinls.obj
 0002:000044c8       ??_C@_1M@BLKMHJBI@?$AAf?$AAo?$AA?9?$AAF?$AAO?$AA?$AA@ 0056b4c8     LIBCMT:winapinls.obj
 0002:000044d4       ??_C@_1M@LGGJAPPB@?$AAh?$AAi?$AA?9?$AAI?$AAN?$AA?$AA@ 0056b4d4     LIBCMT:winapinls.obj
 0002:000044e0       ??_C@_1M@FIKPIHFE@?$AAm?$AAt?$AA?9?$AAM?$AAT?$AA?$AA@ 0056b4e0     LIBCMT:winapinls.obj
 0002:000044ec       ??_C@_1M@HEGGPBFA@?$AAs?$AAe?$AA?9?$AAN?$AAO?$AA?$AA@ 0056b4ec     LIBCMT:winapinls.obj
 0002:000044f8       ??_C@_1M@EIBJEEPA@?$AAm?$AAs?$AA?9?$AAM?$AAY?$AA?$AA@ 0056b4f8     LIBCMT:winapinls.obj
 0002:00004504       ??_C@_1M@FHLBGMPP@?$AAk?$AAk?$AA?9?$AAK?$AAZ?$AA?$AA@ 0056b504     LIBCMT:winapinls.obj
 0002:00004510       ??_C@_1M@NGJJLCGI@?$AAk?$AAy?$AA?9?$AAK?$AAG?$AA?$AA@ 0056b510     LIBCMT:winapinls.obj
 0002:0000451c       ??_C@_1M@GIENNBFC@?$AAs?$AAw?$AA?9?$AAK?$AAE?$AA?$AA@ 0056b51c     LIBCMT:winapinls.obj
 0002:00004528       ??_C@_1BG@NDGMJIMJ@?$AAu?$AAz?$AA?9?$AAU?$AAZ?$AA?9?$AAL?$AAa?$AAt?$AAn?$AA?$AA@ 0056b528     LIBCMT:winapinls.obj
 0002:00004540       ??_C@_1M@IDCCIHBC@?$AAt?$AAt?$AA?9?$AAR?$AAU?$AA?$AA@ 0056b540     LIBCMT:winapinls.obj
 0002:0000454c       ??_C@_1M@LOICPMOJ@?$AAb?$AAn?$AA?9?$AAI?$AAN?$AA?$AA@ 0056b54c     LIBCMT:winapinls.obj
 0002:00004558       ??_C@_1M@KPKKNEAH@?$AAp?$AAa?$AA?9?$AAI?$AAN?$AA?$AA@ 0056b558     LIBCMT:winapinls.obj
 0002:00004564       ??_C@_1M@PJGPPBOG@?$AAg?$AAu?$AA?9?$AAI?$AAN?$AA?$AA@ 0056b564     LIBCMT:winapinls.obj
 0002:00004570       ??_C@_1M@KMKMOPHI@?$AAt?$AAa?$AA?9?$AAI?$AAN?$AA?$AA@ 0056b570     LIBCMT:winapinls.obj
 0002:0000457c       ??_C@_1M@KFEHEPAC@?$AAt?$AAe?$AA?9?$AAI?$AAN?$AA?$AA@ 0056b57c     LIBCMT:winapinls.obj
 0002:00004588       ??_C@_1M@CDCLMGHI@?$AAk?$AAn?$AA?9?$AAI?$AAN?$AA?$AA@ 0056b588     LIBCMT:winapinls.obj
 0002:00004594       ??_C@_1M@MIODLDKF@?$AAm?$AAl?$AA?9?$AAI?$AAN?$AA?$AA@ 0056b594     LIBCMT:winapinls.obj
 0002:000045a0       ??_C@_1M@PBIEACPO@?$AAm?$AAr?$AA?9?$AAI?$AAN?$AA?$AA@ 0056b5a0     LIBCMT:winapinls.obj
 0002:000045ac       ??_C@_1M@NIDEAGPH@?$AAs?$AAa?$AA?9?$AAI?$AAN?$AA?$AA@ 0056b5ac     LIBCMT:winapinls.obj
 0002:000045b8       ??_C@_1M@FHIHCBIO@?$AAm?$AAn?$AA?9?$AAM?$AAN?$AA?$AA@ 0056b5b8     LIBCMT:winapinls.obj
 0002:000045c4       ??_C@_1M@JAIJPENP@?$AAc?$AAy?$AA?9?$AAG?$AAB?$AA?$AA@ 0056b5c4     LIBCMT:winapinls.obj
 0002:000045d0       ??_C@_1M@PHGFBEPN@?$AAg?$AAl?$AA?9?$AAE?$AAS?$AA?$AA@ 0056b5d0     LIBCMT:winapinls.obj
 0002:000045dc       ??_C@_1O@KPIPDNCP@?$AAk?$AAo?$AAk?$AA?9?$AAI?$AAN?$AA?$AA@ 0056b5dc     LIBCMT:winapinls.obj
 0002:000045ec       ??_C@_1O@KNHJLDJA@?$AAs?$AAy?$AAr?$AA?9?$AAS?$AAY?$AA?$AA@ 0056b5ec     LIBCMT:winapinls.obj
 0002:000045fc       ??_C@_1O@MKEKBLAH@?$AAd?$AAi?$AAv?$AA?9?$AAM?$AAV?$AA?$AA@ 0056b5fc     LIBCMT:winapinls.obj
 0002:0000460c       ??_C@_1O@OHDCKDDF@?$AAq?$AAu?$AAz?$AA?9?$AAB?$AAO?$AA?$AA@ 0056b60c     LIBCMT:winapinls.obj
 0002:0000461c       ??_C@_1M@LEPJNLFD@?$AAn?$AAs?$AA?9?$AAZ?$AAA?$AA?$AA@ 0056b61c     LIBCMT:winapinls.obj
 0002:00004628       ??_C@_1M@OMLEIIJB@?$AAm?$AAi?$AA?9?$AAN?$AAZ?$AA?$AA@ 0056b628     LIBCMT:winapinls.obj
 0002:00004634       ??_C@_1M@PMPEAILG@?$AAa?$AAr?$AA?9?$AAI?$AAQ?$AA?$AA@ 0056b634     LIBCMT:winapinls.obj
 0002:00004640       ??_C@_1M@CNKPNOEE@?$AAd?$AAe?$AA?9?$AAC?$AAH?$AA?$AA@ 0056b640     LIBCMT:winapinls.obj
 0002:0000464c       ??_C@_1M@LKMGMLKO@?$AAe?$AAn?$AA?9?$AAG?$AAB?$AA?$AA@ 0056b64c     LIBCMT:winapinls.obj
 0002:00004658       ??_C@_1M@PGKJFFGL@?$AAe?$AAs?$AA?9?$AAM?$AAX?$AA?$AA@ 0056b658     LIBCMT:winapinls.obj
 0002:00004664       ??_C@_1M@DNNANBDC@?$AAf?$AAr?$AA?9?$AAB?$AAE?$AA?$AA@ 0056b664     LIBCMT:winapinls.obj
 0002:00004670       ??_C@_1M@HLGMDFHM@?$AAi?$AAt?$AA?9?$AAC?$AAH?$AA?$AA@ 0056b670     LIBCMT:winapinls.obj
 0002:0000467c       ??_C@_1M@CLLBGJH@?$AAn?$AAl?$AA?9?$AAB?$AAE?$AA?$AA@ 0056b67c     LIBCMT:winapinls.obj
 0002:00004688       ??_C@_1M@BODBOGLF@?$AAn?$AAn?$AA?9?$AAN?$AAO?$AA?$AA@ 0056b688     LIBCMT:winapinls.obj
 0002:00004694       ??_C@_1M@HFFAHKAD@?$AAp?$AAt?$AA?9?$AAP?$AAT?$AA?$AA@ 0056b694     LIBCMT:winapinls.obj
 0002:000046a0       ??_C@_1BG@LNOAKHIE@?$AAs?$AAr?$AA?9?$AAS?$AAP?$AA?9?$AAL?$AAa?$AAt?$AAn?$AA?$AA@ 0056b6a0     LIBCMT:winapinls.obj
 0002:000046b8       ??_C@_1M@HBMHBGAK@?$AAs?$AAv?$AA?9?$AAF?$AAI?$AA?$AA@ 0056b6b8     LIBCMT:winapinls.obj
 0002:000046c4       ??_C@_1BG@DGCJGJBE@?$AAa?$AAz?$AA?9?$AAA?$AAZ?$AA?9?$AAC?$AAy?$AAr?$AAl?$AA?$AA@ 0056b6c4     LIBCMT:winapinls.obj
 0002:000046dc       ??_C@_1M@KEJDAAHB@?$AAs?$AAe?$AA?9?$AAS?$AAE?$AA?$AA@ 0056b6dc     LIBCMT:winapinls.obj
 0002:000046e8       ??_C@_1M@HEIBJJAD@?$AAm?$AAs?$AA?9?$AAB?$AAN?$AA?$AA@ 0056b6e8     LIBCMT:winapinls.obj
 0002:000046f4       ??_C@_1BG@PBGJMCEM@?$AAu?$AAz?$AA?9?$AAU?$AAZ?$AA?9?$AAC?$AAy?$AAr?$AAl?$AA?$AA@ 0056b6f4     LIBCMT:winapinls.obj
 0002:0000470c       ??_C@_1O@LAOBCMDF@?$AAq?$AAu?$AAz?$AA?9?$AAE?$AAC?$AA?$AA@ 0056b70c     LIBCMT:winapinls.obj
 0002:0000471c       ??_C@_1M@POEEMAIO@?$AAa?$AAr?$AA?9?$AAE?$AAG?$AA?$AA@ 0056b71c     LIBCMT:winapinls.obj
 0002:00004728       ??_C@_1M@EFAKDEDL@?$AAz?$AAh?$AA?9?$AAH?$AAK?$AA?$AA@ 0056b728     LIBCMT:winapinls.obj
 0002:00004734       ??_C@_1M@HKKIJHGI@?$AAd?$AAe?$AA?9?$AAA?$AAT?$AA?$AA@ 0056b734     LIBCMT:winapinls.obj
 0002:00004740       ??_C@_1M@KBFBEHJF@?$AAe?$AAn?$AA?9?$AAA?$AAU?$AA?$AA@ 0056b740     LIBCMT:winapinls.obj
 0002:0000474c       ??_C@_1M@MNPLFAAH@?$AAe?$AAs?$AA?9?$AAE?$AAS?$AA?$AA@ 0056b74c     LIBCMT:winapinls.obj
 0002:00004758       ??_C@_1M@HJOOJFMA@?$AAf?$AAr?$AA?9?$AAC?$AAA?$AA?$AA@ 0056b758     LIBCMT:winapinls.obj
 0002:00004764       ??_C@_1BG@JPOFPNAB@?$AAs?$AAr?$AA?9?$AAS?$AAP?$AA?9?$AAC?$AAy?$AAr?$AAl?$AA?$AA@ 0056b764     LIBCMT:winapinls.obj
 0002:0000477c       ??_C@_1M@LNFOCMOB@?$AAs?$AAe?$AA?9?$AAF?$AAI?$AA?$AA@ 0056b77c     LIBCMT:winapinls.obj
 0002:00004788       ??_C@_1O@MGJBOAMB@?$AAq?$AAu?$AAz?$AA?9?$AAP?$AAE?$AA?$AA@ 0056b788     LIBCMT:winapinls.obj
 0002:00004798       ??_C@_1M@GJINLBOK@?$AAa?$AAr?$AA?9?$AAL?$AAY?$AA?$AA@ 0056b798     LIBCMT:winapinls.obj
 0002:000047a4       ??_C@_1M@GGMNHJNL@?$AAz?$AAh?$AA?9?$AAS?$AAG?$AA?$AA@ 0056b7a4     LIBCMT:winapinls.obj
 0002:000047b0       ??_C@_1M@HOIKODND@?$AAd?$AAe?$AA?9?$AAL?$AAU?$AA?$AA@ 0056b7b0     LIBCMT:winapinls.obj
 0002:000047bc       ??_C@_1M@DDOCCGFG@?$AAe?$AAn?$AA?9?$AAC?$AAA?$AA?$AA@ 0056b7bc     LIBCMT:winapinls.obj
 0002:000047c8       ??_C@_1M@BNOEMJLF@?$AAe?$AAs?$AA?9?$AAG?$AAT?$AA?$AA@ 0056b7c8     LIBCMT:winapinls.obj
 0002:000047d4       ??_C@_1M@EOGNKEK@?$AAf?$AAr?$AA?9?$AAC?$AAH?$AA?$AA@ 0056b7d4     LIBCMT:winapinls.obj
 0002:000047e0       ??_C@_1M@FLIDJFHL@?$AAh?$AAr?$AA?9?$AAB?$AAA?$AA?$AA@ 0056b7e0     LIBCMT:winapinls.obj
 0002:000047ec       ??_C@_1O@FMCELNAJ@?$AAs?$AAm?$AAj?$AA?9?$AAN?$AAO?$AA?$AA@ 0056b7ec     LIBCMT:winapinls.obj
 0002:000047fc       ??_C@_1M@JHGLJMGJ@?$AAa?$AAr?$AA?9?$AAD?$AAZ?$AA?$AA@ 0056b7fc     LIBCMT:winapinls.obj
 0002:00004808       ??_C@_1M@JKKFDCNP@?$AAz?$AAh?$AA?9?$AAM?$AAO?$AA?$AA@ 0056b808     LIBCMT:winapinls.obj
 0002:00004814       ??_C@_1M@GEEFALPE@?$AAd?$AAe?$AA?9?$AAL?$AAI?$AA?$AA@ 0056b814     LIBCMT:winapinls.obj
 0002:00004820       ??_C@_1M@IGEOFBG@?$AAe?$AAn?$AA?9?$AAN?$AAZ?$AA?$AA@ 0056b820     LIBCMT:winapinls.obj
 0002:0000482c       ??_C@_1M@KDBONEHP@?$AAe?$AAs?$AA?9?$AAC?$AAR?$AA?$AA@ 0056b82c     LIBCMT:winapinls.obj
 0002:00004838       ??_C@_1M@FHMDOHNN@?$AAf?$AAr?$AA?9?$AAL?$AAU?$AA?$AA@ 0056b838     LIBCMT:winapinls.obj
 0002:00004844       ??_C@_1BG@NFKKMAFG@?$AAb?$AAs?$AA?9?$AAB?$AAA?$AA?9?$AAL?$AAa?$AAt?$AAn?$AA?$AA@ 0056b844     LIBCMT:winapinls.obj
 0002:0000485c       ??_C@_1O@IMNBEMCI@?$AAs?$AAm?$AAj?$AA?9?$AAS?$AAE?$AA?$AA@ 0056b85c     LIBCMT:winapinls.obj
 0002:0000486c       ??_C@_1M@DHHMBNDP@?$AAa?$AAr?$AA?9?$AAM?$AAA?$AA?$AA@ 0056b86c     LIBCMT:winapinls.obj
 0002:00004878       ??_C@_1M@BNBLJCGH@?$AAe?$AAn?$AA?9?$AAI?$AAE?$AA?$AA@ 0056b878     LIBCMT:winapinls.obj
 0002:00004884       ??_C@_1M@GEPAFMDL@?$AAe?$AAs?$AA?9?$AAP?$AAA?$AA?$AA@ 0056b884     LIBCMT:winapinls.obj
 0002:00004890       ??_C@_1M@OJONDMDL@?$AAf?$AAr?$AA?9?$AAM?$AAC?$AA?$AA@ 0056b890     LIBCMT:winapinls.obj
 0002:0000489c       ??_C@_1BG@OBCNFJB@?$AAs?$AAr?$AA?9?$AAB?$AAA?$AA?9?$AAL?$AAa?$AAt?$AAn?$AA?$AA@ 0056b89c     LIBCMT:winapinls.obj
 0002:000048b4       ??_C@_1O@KEMEEGPO@?$AAs?$AAm?$AAa?$AA?9?$AAN?$AAO?$AA?$AA@ 0056b8b4     LIBCMT:winapinls.obj
 0002:000048c4       ??_C@_1M@ELMGFODK@?$AAa?$AAr?$AA?9?$AAT?$AAN?$AA?$AA@ 0056b8c4     LIBCMT:winapinls.obj
 0002:000048d0       ??_C@_1M@BHDLHFAF@?$AAe?$AAn?$AA?9?$AAZ?$AAA?$AA?$AA@ 0056b8d0     LIBCMT:winapinls.obj
 0002:000048dc       ??_C@_1M@BMGIGLIF@?$AAe?$AAs?$AA?9?$AAD?$AAO?$AA?$AA@ 0056b8dc     LIBCMT:winapinls.obj
 0002:000048e8       ??_C@_1BG@CMBHIPBE@?$AAs?$AAr?$AA?9?$AAB?$AAA?$AA?9?$AAC?$AAy?$AAr?$AAl?$AA?$AA@ 0056b8e8     LIBCMT:winapinls.obj
 0002:00004900       ??_C@_1O@HEDBLHNP@?$AAs?$AAm?$AAa?$AA?9?$AAS?$AAE?$AA?$AA@ 0056b900     LIBCMT:winapinls.obj
 0002:00004910       ??_C@_1M@DAGCADIM@?$AAa?$AAr?$AA?9?$AAO?$AAM?$AA?$AA@ 0056b910     LIBCMT:winapinls.obj
 0002:0000491c       ??_C@_1M@FODLMICG@?$AAe?$AAn?$AA?9?$AAJ?$AAM?$AA?$AA@ 0056b91c     LIBCMT:winapinls.obj
 0002:00004928       ??_C@_1M@DNMLCIHB@?$AAe?$AAs?$AA?9?$AAV?$AAE?$AA?$AA@ 0056b928     LIBCMT:winapinls.obj
 0002:00004934       ??_C@_1O@EOKHMKJK@?$AAs?$AAm?$AAs?$AA?9?$AAF?$AAI?$AA?$AA@ 0056b934     LIBCMT:winapinls.obj
 0002:00004944       ??_C@_1M@CAFJMKOF@?$AAa?$AAr?$AA?9?$AAY?$AAE?$AA?$AA@ 0056b944     LIBCMT:winapinls.obj
 0002:00004950       ??_C@_1M@CBFHIJLI@?$AAe?$AAn?$AA?9?$AAC?$AAB?$AA?$AA@ 0056b950     LIBCMT:winapinls.obj
 0002:0000495c       ??_C@_1M@BGNFLDN@?$AAe?$AAs?$AA?9?$AAC?$AAO?$AA?$AA@ 0056b95c     LIBCMT:winapinls.obj
 0002:00004968       ??_C@_1O@JMPHMAMC@?$AAs?$AAm?$AAn?$AA?9?$AAF?$AAI?$AA?$AA@ 0056b968     LIBCMT:winapinls.obj
 0002:00004978       ??_C@_1M@JLANABKE@?$AAa?$AAr?$AA?9?$AAS?$AAY?$AA?$AA@ 0056b978     LIBCMT:winapinls.obj
 0002:00004984       ??_C@_1M@HPKGCFGN@?$AAe?$AAn?$AA?9?$AAB?$AAZ?$AA?$AA@ 0056b984     LIBCMT:winapinls.obj
 0002:00004990       ??_C@_1M@OLJCMLGM@?$AAe?$AAs?$AA?9?$AAP?$AAE?$AA?$AA@ 0056b990     LIBCMT:winapinls.obj
 0002:0000499c       ??_C@_1M@MKKGFKLE@?$AAa?$AAr?$AA?9?$AAJ?$AAO?$AA?$AA@ 0056b99c     LIBCMT:winapinls.obj
 0002:000049a8       ??_C@_1M@EKPGLDNI@?$AAe?$AAn?$AA?9?$AAT?$AAT?$AA?$AA@ 0056b9a8     LIBCMT:winapinls.obj
 0002:000049b4       ??_C@_1M@OONGHFHE@?$AAe?$AAs?$AA?9?$AAA?$AAR?$AA?$AA@ 0056b9b4     LIBCMT:winapinls.obj
 0002:000049c0       ??_C@_1M@OOJFGBHE@?$AAa?$AAr?$AA?9?$AAL?$AAB?$AA?$AA@ 0056b9c0     LIBCMT:winapinls.obj
 0002:000049cc       ??_C@_1M@GCEJHNEG@?$AAe?$AAn?$AA?9?$AAZ?$AAW?$AA?$AA@ 0056b9cc     LIBCMT:winapinls.obj
 0002:000049d8       ??_C@_1M@JNOCAHJI@?$AAe?$AAs?$AA?9?$AAE?$AAC?$AA?$AA@ 0056b9d8     LIBCMT:winapinls.obj
 0002:000049e4       ??_C@_1M@JEFHPGGB@?$AAa?$AAr?$AA?9?$AAK?$AAW?$AA?$AA@ 0056b9e4     LIBCMT:winapinls.obj
 0002:000049f0       ??_C@_1M@MLKIBJOJ@?$AAe?$AAn?$AA?9?$AAP?$AAH?$AA?$AA@ 0056b9f0     LIBCMT:winapinls.obj
 0002:000049fc       ??_C@_1M@BDNIPEND@?$AAe?$AAs?$AA?9?$AAC?$AAL?$AA?$AA@ 0056b9fc     LIBCMT:winapinls.obj
 0002:00004a08       ??_C@_1M@MPNMEKBD@?$AAa?$AAr?$AA?9?$AAA?$AAE?$AA?$AA@ 0056ba08     LIBCMT:winapinls.obj
 0002:00004a14       ??_C@_1M@KBJALCPI@?$AAe?$AAs?$AA?9?$AAU?$AAY?$AA?$AA@ 0056ba14     LIBCMT:winapinls.obj
 0002:00004a20       ??_C@_1M@LLCCOAGA@?$AAa?$AAr?$AA?9?$AAB?$AAH?$AA?$AA@ 0056ba20     LIBCMT:winapinls.obj
 0002:00004a2c       ??_C@_1M@PBFNCDEL@?$AAe?$AAs?$AA?9?$AAP?$AAY?$AA?$AA@ 0056ba2c     LIBCMT:winapinls.obj
 0002:00004a38       ??_C@_1M@EDGINPNP@?$AAa?$AAr?$AA?9?$AAQ?$AAA?$AA?$AA@ 0056ba38     LIBCMT:winapinls.obj
 0002:00004a44       ??_C@_1M@MKDBIIJI@?$AAe?$AAs?$AA?9?$AAB?$AAO?$AA?$AA@ 0056ba44     LIBCMT:winapinls.obj
 0002:00004a50       ??_C@_1M@CPKKEBLD@?$AAe?$AAs?$AA?9?$AAS?$AAV?$AA?$AA@ 0056ba50     LIBCMT:winapinls.obj
 0002:00004a5c       ??_C@_1M@NDBGMMJL@?$AAe?$AAs?$AA?9?$AAH?$AAN?$AA?$AA@ 0056ba5c     LIBCMT:winapinls.obj
 0002:00004a68       ??_C@_1M@JIJIBHDP@?$AAe?$AAs?$AA?9?$AAN?$AAI?$AA?$AA@ 0056ba68     LIBCMT:winapinls.obj
 0002:00004a74       ??_C@_1M@CGFMKEEK@?$AAe?$AAs?$AA?9?$AAP?$AAR?$AA?$AA@ 0056ba74     LIBCMT:winapinls.obj
 0002:00004a80       ??_C@_1O@ICJHKIIK@?$AAz?$AAh?$AA?9?$AAC?$AAH?$AAT?$AA?$AA@ 0056ba80     LIBCMT:winapinls.obj
 0002:00004a90       ??_C@_15CLNEJCE@?$AAs?$AAr?$AA?$AA@ 0056ba90     LIBCMT:winapinls.obj
 0002:00004a98       ??_C@_1M@KAHEKEIG@?$AAa?$AAf?$AA?9?$AAz?$AAa?$AA?$AA@ 0056ba98     LIBCMT:winapinls.obj
 0002:00004aa4       ??_C@_1M@GIECOABL@?$AAa?$AAr?$AA?9?$AAa?$AAe?$AA?$AA@ 0056baa4     LIBCMT:winapinls.obj
 0002:00004ab0       ??_C@_1M@BMLMEKGI@?$AAa?$AAr?$AA?9?$AAb?$AAh?$AA?$AA@ 0056bab0     LIBCMT:winapinls.obj
 0002:00004abc       ??_C@_1M@DAPFDGGB@?$AAa?$AAr?$AA?9?$AAd?$AAz?$AA?$AA@ 0056babc     LIBCMT:winapinls.obj
 0002:00004ac8       ??_C@_1M@FJNKGKIG@?$AAa?$AAr?$AA?9?$AAe?$AAg?$AA?$AA@ 0056bac8     LIBCMT:winapinls.obj
 0002:00004ad4       ??_C@_1M@FLGKKCLO@?$AAa?$AAr?$AA?9?$AAi?$AAq?$AA?$AA@ 0056bad4     LIBCMT:winapinls.obj
 0002:00004ae0       ??_C@_1M@GNDIPALM@?$AAa?$AAr?$AA?9?$AAj?$AAo?$AA?$AA@ 0056bae0     LIBCMT:winapinls.obj
 0002:00004aec       ??_C@_1M@DDMJFMGJ@?$AAa?$AAr?$AA?9?$AAk?$AAw?$AA?$AA@ 0056baec     LIBCMT:winapinls.obj
 0002:00004af8       ??_C@_1M@EJALMLHM@?$AAa?$AAr?$AA?9?$AAl?$AAb?$AA?$AA@ 0056baf8     LIBCMT:winapinls.obj
 0002:00004b04       ??_C@_1M@MOBDBLOC@?$AAa?$AAr?$AA?9?$AAl?$AAy?$AA?$AA@ 0056bb04     LIBCMT:winapinls.obj
 0002:00004b10       ??_C@_1M@JAOCLHDH@?$AAa?$AAr?$AA?9?$AAm?$AAa?$AA?$AA@ 0056bb10     LIBCMT:winapinls.obj
 0002:00004b1c       ??_C@_1M@JHPMKJIE@?$AAa?$AAr?$AA?9?$AAo?$AAm?$AA?$AA@ 0056bb1c     LIBCMT:winapinls.obj
 0002:00004b28       ??_C@_1M@OEPGHFNH@?$AAa?$AAr?$AA?9?$AAq?$AAa?$AA?$AA@ 0056bb28     LIBCMT:winapinls.obj
 0002:00004b34       ??_C@_1M@KJDONENM@?$AAa?$AAr?$AA?9?$AAs?$AAa?$AA?$AA@ 0056bb34     LIBCMT:winapinls.obj
 0002:00004b40       ??_C@_1M@DMJDKLKM@?$AAa?$AAr?$AA?9?$AAs?$AAy?$AA?$AA@ 0056bb40     LIBCMT:winapinls.obj
 0002:00004b4c       ??_C@_1M@OMFIPEDC@?$AAa?$AAr?$AA?9?$AAt?$AAn?$AA?$AA@ 0056bb4c     LIBCMT:winapinls.obj
 0002:00004b58       ??_C@_1M@IHMHGAON@?$AAa?$AAr?$AA?9?$AAy?$AAe?$AA?$AA@ 0056bb58     LIBCMT:winapinls.obj
 0002:00004b64       ??_C@_1BG@KDCPGJGB@?$AAa?$AAz?$AA?9?$AAa?$AAz?$AA?9?$AAc?$AAy?$AAr?$AAl?$AA?$AA@ 0056bb64     LIBCMT:winapinls.obj
 0002:00004b7c       ??_C@_1BG@IBCKDDOE@?$AAa?$AAz?$AA?9?$AAa?$AAz?$AA?9?$AAl?$AAa?$AAt?$AAn?$AA?$AA@ 0056bb7c     LIBCMT:winapinls.obj
 0002:00004b94       ??_C@_1M@EGPFDCPD@?$AAb?$AAe?$AA?9?$AAb?$AAy?$AA?$AA@ 0056bb94     LIBCMT:winapinls.obj
 0002:00004ba0       ??_C@_1M@PCMGMCGC@?$AAb?$AAg?$AA?9?$AAb?$AAg?$AA?$AA@ 0056bba0     LIBCMT:winapinls.obj
 0002:00004bac       ??_C@_1M@BJBMFGOB@?$AAb?$AAn?$AA?9?$AAi?$AAn?$AA?$AA@ 0056bbac     LIBCMT:winapinls.obj
 0002:00004bb8       ??_C@_1BG@EAKMMACD@?$AAb?$AAs?$AA?9?$AAb?$AAa?$AA?9?$AAl?$AAa?$AAt?$AAn?$AA?$AA@ 0056bbb8     LIBCMT:winapinls.obj
 0002:00004bd0       ??_C@_1M@KGADAODK@?$AAc?$AAa?$AA?9?$AAe?$AAs?$AA?$AA@ 0056bbd0     LIBCMT:winapinls.obj
 0002:00004bdc       ??_C@_1M@COAJPDHI@?$AAc?$AAs?$AA?9?$AAc?$AAz?$AA?$AA@ 0056bbdc     LIBCMT:winapinls.obj
 0002:00004be8       ??_C@_1M@DHBHFONH@?$AAc?$AAy?$AA?9?$AAg?$AAb?$AA?$AA@ 0056bbe8     LIBCMT:winapinls.obj
 0002:00004bf4       ??_C@_1M@IMGKELGA@?$AAd?$AAa?$AA?9?$AAd?$AAk?$AA?$AA@ 0056bbf4     LIBCMT:winapinls.obj
 0002:00004c00       ??_C@_1M@NNDGDNGA@?$AAd?$AAe?$AA?9?$AAa?$AAt?$AA?$AA@ 0056bc00     LIBCMT:winapinls.obj
 0002:00004c0c       ??_C@_1M@IKDBHEEM@?$AAd?$AAe?$AA?9?$AAc?$AAh?$AA?$AA@ 0056bc0c     LIBCMT:winapinls.obj
 0002:00004c18       ??_C@_1M@GFFOJMCJ@?$AAd?$AAe?$AA?9?$AAd?$AAe?$AA?$AA@ 0056bc18     LIBCMT:winapinls.obj
 0002:00004c24       ??_C@_1M@MDNLKBPM@?$AAd?$AAe?$AA?9?$AAl?$AAi?$AA?$AA@ 0056bc24     LIBCMT:winapinls.obj
 0002:00004c30       ??_C@_1M@NJBEEJNL@?$AAd?$AAe?$AA?9?$AAl?$AAu?$AA?$AA@ 0056bc30     LIBCMT:winapinls.obj
 0002:00004c3c       ??_C@_1O@GNNELBAP@?$AAd?$AAi?$AAv?$AA?9?$AAm?$AAv?$AA?$AA@ 0056bc3c     LIBCMT:winapinls.obj
 0002:00004c4c       ??_C@_1M@EJLEOGAE@?$AAe?$AAl?$AA?9?$AAg?$AAr?$AA?$AA@ 0056bc4c     LIBCMT:winapinls.obj
 0002:00004c58       ??_C@_1M@GMPONJN@?$AAe?$AAn?$AA?9?$AAa?$AAu?$AA?$AA@ 0056bc58     LIBCMT:winapinls.obj
 0002:00004c64       ??_C@_1M@NIDIIPGF@?$AAe?$AAn?$AA?9?$AAb?$AAz?$AA?$AA@ 0056bc64     LIBCMT:winapinls.obj
 0002:00004c70       ??_C@_1M@JEHMIMFO@?$AAe?$AAn?$AA?9?$AAc?$AAa?$AA?$AA@ 0056bc70     LIBCMT:winapinls.obj
 0002:00004c7c       ??_C@_1M@IGMJCDLA@?$AAe?$AAn?$AA?9?$AAc?$AAb?$AA?$AA@ 0056bc7c     LIBCMT:winapinls.obj
 0002:00004c88       ??_C@_1M@BNFIGBKG@?$AAe?$AAn?$AA?9?$AAg?$AAb?$AA?$AA@ 0056bc88     LIBCMT:winapinls.obj
 0002:00004c94       ??_C@_1M@LKIFDIGP@?$AAe?$AAn?$AA?9?$AAi?$AAe?$AA?$AA@ 0056bc94     LIBCMT:winapinls.obj
 0002:00004ca0       ??_C@_1M@PJKFGCCO@?$AAe?$AAn?$AA?9?$AAj?$AAm?$AA?$AA@ 0056bca0     LIBCMT:winapinls.obj
 0002:00004cac       ??_C@_1M@KPPKEPBO@?$AAe?$AAn?$AA?9?$AAn?$AAz?$AA?$AA@ 0056bcac     LIBCMT:winapinls.obj
 0002:00004cb8       ??_C@_1M@GMDGLDOB@?$AAe?$AAn?$AA?9?$AAp?$AAh?$AA?$AA@ 0056bcb8     LIBCMT:winapinls.obj
 0002:00004cc4       ??_C@_1M@ONGIBJNA@?$AAe?$AAn?$AA?9?$AAt?$AAt?$AA?$AA@ 0056bcc4     LIBCMT:winapinls.obj
 0002:00004cd0       ??_C@_1M@LLODPCMM@?$AAe?$AAn?$AA?9?$AAu?$AAs?$AA?$AA@ 0056bcd0     LIBCMT:winapinls.obj
 0002:00004cdc       ??_C@_1M@LAKFNPAN@?$AAe?$AAn?$AA?9?$AAz?$AAa?$AA?$AA@ 0056bcdc     LIBCMT:winapinls.obj
 0002:00004ce8       ??_C@_1M@MFNHNHEO@?$AAe?$AAn?$AA?9?$AAz?$AAw?$AA?$AA@ 0056bce8     LIBCMT:winapinls.obj
 0002:00004cf4       ??_C@_1M@EJEINPHM@?$AAe?$AAs?$AA?9?$AAa?$AAr?$AA?$AA@ 0056bcf4     LIBCMT:winapinls.obj
 0002:00004d00       ??_C@_1M@GNKPCCJA@?$AAe?$AAs?$AA?9?$AAb?$AAo?$AA?$AA@ 0056bd00     LIBCMT:winapinls.obj
 0002:00004d0c       ??_C@_1M@LEEGFONL@?$AAe?$AAs?$AA?9?$AAc?$AAl?$AA?$AA@ 0056bd0c     LIBCMT:winapinls.obj
 0002:00004d18       ??_C@_1M@KGPDPBDF@?$AAe?$AAs?$AA?9?$AAc?$AAo?$AA?$AA@ 0056bd18     LIBCMT:winapinls.obj
 0002:00004d24       ??_C@_1M@EIAHOHH@?$AAe?$AAs?$AA?9?$AAc?$AAr?$AA?$AA@ 0056bd24     LIBCMT:winapinls.obj
 0002:00004d30       ??_C@_1M@LLPGMBIN@?$AAe?$AAs?$AA?9?$AAd?$AAo?$AA?$AA@ 0056bd30     LIBCMT:winapinls.obj
 0002:00004d3c       ??_C@_1M@DKHMKNJA@?$AAe?$AAs?$AA?9?$AAe?$AAc?$AA?$AA@ 0056bd3c     LIBCMT:winapinls.obj
 0002:00004d48       ??_C@_1M@GKGFPKAP@?$AAe?$AAs?$AA?9?$AAe?$AAs?$AA?$AA@ 0056bd48     LIBCMT:winapinls.obj
 0002:00004d54       ??_C@_1M@LKHKGDLN@?$AAe?$AAs?$AA?9?$AAg?$AAt?$AA?$AA@ 0056bd54     LIBCMT:winapinls.obj
 0002:00004d60       ??_C@_1M@HEIIGGJD@?$AAe?$AAs?$AA?9?$AAh?$AAn?$AA?$AA@ 0056bd60     LIBCMT:winapinls.obj
 0002:00004d6c       ??_C@_1M@FBDHPPGD@?$AAe?$AAs?$AA?9?$AAm?$AAx?$AA?$AA@ 0056bd6c     LIBCMT:winapinls.obj
 0002:00004d78       ??_C@_1M@DPAGLNDH@?$AAe?$AAs?$AA?9?$AAn?$AAi?$AA?$AA@ 0056bd78     LIBCMT:winapinls.obj
 0002:00004d84       ??_C@_1M@MDGOPGDD@?$AAe?$AAs?$AA?9?$AAp?$AAa?$AA?$AA@ 0056bd84     LIBCMT:winapinls.obj
 0002:00004d90       ??_C@_1M@EMAMGBGE@?$AAe?$AAs?$AA?9?$AAp?$AAe?$AA?$AA@ 0056bd90     LIBCMT:winapinls.obj
 0002:00004d9c       ??_C@_1M@IBMCAOEC@?$AAe?$AAs?$AA?9?$AAp?$AAr?$AA?$AA@ 0056bd9c     LIBCMT:winapinls.obj
 0002:00004da8       ??_C@_1M@FGMDIJED@?$AAe?$AAs?$AA?9?$AAp?$AAy?$AA?$AA@ 0056bda8     LIBCMT:winapinls.obj
 0002:00004db4       ??_C@_1M@IIDEOLLL@?$AAe?$AAs?$AA?9?$AAs?$AAv?$AA?$AA@ 0056bdb4     LIBCMT:winapinls.obj
 0002:00004dc0       ??_C@_1M@GAOBIPA@?$AAe?$AAs?$AA?9?$AAu?$AAy?$AA?$AA@ 0056bdc0     LIBCMT:winapinls.obj
 0002:00004dcc       ??_C@_1M@JKFFICHJ@?$AAe?$AAs?$AA?9?$AAv?$AAe?$AA?$AA@ 0056bdcc     LIBCMT:winapinls.obj
 0002:00004dd8       ??_C@_1M@PNMLOJDF@?$AAe?$AAt?$AA?9?$AAe?$AAe?$AA?$AA@ 0056bdd8     LIBCMT:winapinls.obj
 0002:00004de4       ??_C@_1M@GHHLIKEI@?$AAe?$AAu?$AA?9?$AAe?$AAs?$AA?$AA@ 0056bde4     LIBCMT:winapinls.obj
 0002:00004df0       ??_C@_1M@PBNONODE@?$AAf?$AAa?$AA?9?$AAi?$AAr?$AA?$AA@ 0056bdf0     LIBCMT:winapinls.obj
 0002:00004dfc       ??_C@_1M@JEEHPMIL@?$AAf?$AAi?$AA?9?$AAf?$AAi?$AA?$AA@ 0056bdfc     LIBCMT:winapinls.obj
 0002:00004e08       ??_C@_1M@LMDCNDBA@?$AAf?$AAo?$AA?9?$AAf?$AAo?$AA?$AA@ 0056be08     LIBCMT:winapinls.obj
 0002:00004e14       ??_C@_1M@JKEOHLDK@?$AAf?$AAr?$AA?9?$AAb?$AAe?$AA?$AA@ 0056be14     LIBCMT:winapinls.obj
 0002:00004e20       ??_C@_1M@NOHADPMI@?$AAf?$AAr?$AA?9?$AAc?$AAa?$AA?$AA@ 0056be20     LIBCMT:winapinls.obj
 0002:00004e2c       ??_C@_1M@KDHIHAEC@?$AAf?$AAr?$AA?9?$AAc?$AAh?$AA?$AA@ 0056be2c     LIBCMT:winapinls.obj
 0002:00004e38       ??_C@_1M@MMBBFGAK@?$AAf?$AAr?$AA?9?$AAf?$AAr?$AA?$AA@ 0056be38     LIBCMT:winapinls.obj
 0002:00004e44       ??_C@_1M@PAFNENNF@?$AAf?$AAr?$AA?9?$AAl?$AAu?$AA?$AA@ 0056be44     LIBCMT:winapinls.obj
 0002:00004e50       ??_C@_1M@EOHDJGDD@?$AAf?$AAr?$AA?9?$AAm?$AAc?$AA?$AA@ 0056be50     LIBCMT:winapinls.obj
 0002:00004e5c       ??_C@_1M@FAPLLOPF@?$AAg?$AAl?$AA?9?$AAe?$AAs?$AA?$AA@ 0056be5c     LIBCMT:winapinls.obj
 0002:00004e68       ??_C@_1M@FOPBFLOO@?$AAg?$AAu?$AA?9?$AAi?$AAn?$AA?$AA@ 0056be68     LIBCMT:winapinls.obj
 0002:00004e74       ??_C@_1M@KBMCINPM@?$AAh?$AAe?$AA?9?$AAi?$AAl?$AA?$AA@ 0056be74     LIBCMT:winapinls.obj
 0002:00004e80       ??_C@_1M@BBPHKFPJ@?$AAh?$AAi?$AA?9?$AAi?$AAn?$AA?$AA@ 0056be80     LIBCMT:winapinls.obj
 0002:00004e8c       ??_C@_1M@PMBNDPHD@?$AAh?$AAr?$AA?9?$AAb?$AAa?$AA?$AA@ 0056be8c     LIBCMT:winapinls.obj
 0002:00004e98       ??_C@_1M@BPCKOEGE@?$AAh?$AAr?$AA?9?$AAh?$AAr?$AA?$AA@ 0056be98     LIBCMT:winapinls.obj
 0002:00004ea4       ??_C@_1M@GACBMHKE@?$AAh?$AAu?$AA?9?$AAh?$AAu?$AA?$AA@ 0056bea4     LIBCMT:winapinls.obj
 0002:00004eb0       ??_C@_1M@MILPAJJC@?$AAh?$AAy?$AA?9?$AAa?$AAm?$AA?$AA@ 0056beb0     LIBCMT:winapinls.obj
 0002:00004ebc       ??_C@_1M@BABBICEC@?$AAi?$AAd?$AA?9?$AAi?$AAd?$AA?$AA@ 0056bebc     LIBCMT:winapinls.obj
 0002:00004ec8       ??_C@_1M@BIKNHHPF@?$AAi?$AAs?$AA?9?$AAi?$AAs?$AA?$AA@ 0056bec8     LIBCMT:winapinls.obj
 0002:00004ed4       ??_C@_1M@NMPCJPHE@?$AAi?$AAt?$AA?9?$AAc?$AAh?$AA?$AA@ 0056bed4     LIBCMT:winapinls.obj
 0002:00004ee0       ??_C@_1M@GHKGFEDF@?$AAi?$AAt?$AA?9?$AAi?$AAt?$AA?$AA@ 0056bee0     LIBCMT:winapinls.obj
 0002:00004eec       ??_C@_1M@NIEJCJJA@?$AAj?$AAa?$AA?9?$AAj?$AAp?$AA?$AA@ 0056beec     LIBCMT:winapinls.obj
 0002:00004ef8       ??_C@_1M@JILFNBIM@?$AAk?$AAa?$AA?9?$AAg?$AAe?$AA?$AA@ 0056bef8     LIBCMT:winapinls.obj
 0002:00004f04       ??_C@_1M@PACPMGPH@?$AAk?$AAk?$AA?9?$AAk?$AAz?$AA?$AA@ 0056bf04     LIBCMT:winapinls.obj
 0002:00004f10       ??_C@_1M@IELFGMHA@?$AAk?$AAn?$AA?9?$AAi?$AAn?$AA?$AA@ 0056bf10     LIBCMT:winapinls.obj
 0002:00004f1c       ??_C@_1O@IBBJHCH@?$AAk?$AAo?$AAk?$AA?9?$AAi?$AAn?$AA?$AA@ 0056bf1c     LIBCMT:winapinls.obj
 0002:00004f2c       ??_C@_1M@DMHAEOGC@?$AAk?$AAo?$AA?9?$AAk?$AAr?$AA?$AA@ 0056bf2c     LIBCMT:winapinls.obj
 0002:00004f38       ??_C@_1M@HBAHBIGA@?$AAk?$AAy?$AA?9?$AAk?$AAg?$AA?$AA@ 0056bf38     LIBCMT:winapinls.obj
 0002:00004f44       ??_C@_1M@KPMILCJG@?$AAl?$AAt?$AA?9?$AAl?$AAt?$AA?$AA@ 0056bf44     LIBCMT:winapinls.obj
 0002:00004f50       ??_C@_1M@BDEKKCA@?$AAl?$AAv?$AA?9?$AAl?$AAv?$AA?$AA@ 0056bf50     LIBCMT:winapinls.obj
 0002:00004f5c       ??_C@_1M@ELCKCCJJ@?$AAm?$AAi?$AA?9?$AAn?$AAz?$AA?$AA@ 0056bf5c     LIBCMT:winapinls.obj
 0002:00004f68       ??_C@_1M@CBOOLAPA@?$AAm?$AAk?$AA?9?$AAm?$AAk?$AA?$AA@ 0056bf68     LIBCMT:winapinls.obj
 0002:00004f74       ??_C@_1M@GPHNBJKN@?$AAm?$AAl?$AA?9?$AAi?$AAn?$AA?$AA@ 0056bf74     LIBCMT:winapinls.obj
 0002:00004f80       ??_C@_1M@PABJILIG@?$AAm?$AAn?$AA?9?$AAm?$AAn?$AA?$AA@ 0056bf80     LIBCMT:winapinls.obj
 0002:00004f8c       ??_C@_1M@FGBKKIPG@?$AAm?$AAr?$AA?9?$AAi?$AAn?$AA?$AA@ 0056bf8c     LIBCMT:winapinls.obj
 0002:00004f98       ??_C@_1M@NDBPDDAL@?$AAm?$AAs?$AA?9?$AAb?$AAn?$AA?$AA@ 0056bf98     LIBCMT:winapinls.obj
 0002:00004fa4       ??_C@_1M@OPIHOOPI@?$AAm?$AAs?$AA?9?$AAm?$AAy?$AA?$AA@ 0056bfa4     LIBCMT:winapinls.obj
 0002:00004fb0       ??_C@_1M@PPDBCNFM@?$AAm?$AAt?$AA?9?$AAm?$AAt?$AA?$AA@ 0056bfb0     LIBCMT:winapinls.obj
 0002:00004fbc       ??_C@_1M@KDJDKMDD@?$AAn?$AAb?$AA?9?$AAn?$AAo?$AA?$AA@ 0056bfbc     LIBCMT:winapinls.obj
 0002:00004fc8       ??_C@_1M@KFCFLMJP@?$AAn?$AAl?$AA?9?$AAb?$AAe?$AA?$AA@ 0056bfc8     LIBCMT:winapinls.obj
 0002:00004fd4       ??_C@_1M@KPOPDDGO@?$AAn?$AAl?$AA?9?$AAn?$AAl?$AA?$AA@ 0056bfd4     LIBCMT:winapinls.obj
 0002:00004fe0       ??_C@_1M@LJKPEMLN@?$AAn?$AAn?$AA?9?$AAn?$AAo?$AA?$AA@ 0056bfe0     LIBCMT:winapinls.obj
 0002:00004fec       ??_C@_1M@BDGHHBFL@?$AAn?$AAs?$AA?9?$AAz?$AAa?$AA?$AA@ 0056bfec     LIBCMT:winapinls.obj
 0002:00004ff8       ??_C@_1M@IDEHOAP@?$AAp?$AAa?$AA?9?$AAi?$AAn?$AA?$AA@ 0056bff8     LIBCMT:winapinls.obj
 0002:00005004       ??_C@_1M@HDBKGOGH@?$AAp?$AAl?$AA?9?$AAp?$AAl?$AA?$AA@ 0056c004     LIBCMT:winapinls.obj
 0002:00005010       ??_C@_1M@LJLLCMEH@?$AAp?$AAt?$AA?9?$AAb?$AAr?$AA?$AA@ 0056c010     LIBCMT:winapinls.obj
 0002:0000501c       ??_C@_1M@NCMONAAL@?$AAp?$AAt?$AA?9?$AAp?$AAt?$AA?$AA@ 0056c01c     LIBCMT:winapinls.obj
 0002:00005028       ??_C@_1O@EAKMAJDN@?$AAq?$AAu?$AAz?$AA?9?$AAb?$AAo?$AA?$AA@ 0056c028     LIBCMT:winapinls.obj
 0002:00005038       ??_C@_1O@BHHPIGDN@?$AAq?$AAu?$AAz?$AA?9?$AAe?$AAc?$AA?$AA@ 0056c038     LIBCMT:winapinls.obj
 0002:00005048       ??_C@_1O@GBAPEKMJ@?$AAq?$AAu?$AAz?$AA?9?$AAp?$AAe?$AA?$AA@ 0056c048     LIBCMT:winapinls.obj
 0002:00005058       ??_C@_1M@CLGLEFBO@?$AAr?$AAo?$AA?9?$AAr?$AAo?$AA?$AA@ 0056c058     LIBCMT:winapinls.obj
 0002:00005064       ??_C@_1M@CEEDODME@?$AAr?$AAu?$AA?9?$AAr?$AAu?$AA?$AA@ 0056c064     LIBCMT:winapinls.obj
 0002:00005070       ??_C@_1M@HPKKKMPP@?$AAs?$AAa?$AA?9?$AAi?$AAn?$AA?$AA@ 0056c070     LIBCMT:winapinls.obj
 0002:0000507c       ??_C@_1M@BKMAIGOJ@?$AAs?$AAe?$AA?9?$AAf?$AAi?$AA?$AA@ 0056c07c     LIBCMT:winapinls.obj
 0002:00005088       ??_C@_1M@NDPIFLFI@?$AAs?$AAe?$AA?9?$AAn?$AAo?$AA?$AA@ 0056c088     LIBCMT:winapinls.obj
 0002:00005094       ??_C@_1M@DANKKHJ@?$AAs?$AAe?$AA?9?$AAs?$AAe?$AA?$AA@ 0056c094     LIBCMT:winapinls.obj
 0002:000050a0       ??_C@_1M@PNBLONPJ@?$AAs?$AAk?$AA?9?$AAs?$AAk?$AA?$AA@ 0056c0a0     LIBCMT:winapinls.obj
 0002:000050ac       ??_C@_1M@LFMODOAL@?$AAs?$AAl?$AA?9?$AAs?$AAi?$AA?$AA@ 0056c0ac     LIBCMT:winapinls.obj
 0002:000050b8       ??_C@_1O@DFKOMPG@?$AAs?$AAm?$AAa?$AA?9?$AAn?$AAo?$AA?$AA@ 0056c0b8     LIBCMT:winapinls.obj
 0002:000050c8       ??_C@_1O@NDKPBNNH@?$AAs?$AAm?$AAa?$AA?9?$AAs?$AAe?$AA?$AA@ 0056c0c8     LIBCMT:winapinls.obj
 0002:000050d8       ??_C@_1O@PLLKBHAB@?$AAs?$AAm?$AAj?$AA?9?$AAn?$AAo?$AA?$AA@ 0056c0d8     LIBCMT:winapinls.obj
 0002:000050e8       ??_C@_1O@CLEPOGCA@?$AAs?$AAm?$AAj?$AA?9?$AAs?$AAe?$AA?$AA@ 0056c0e8     LIBCMT:winapinls.obj
 0002:000050f8       ??_C@_1O@DLGJGKMK@?$AAs?$AAm?$AAn?$AA?9?$AAf?$AAi?$AA?$AA@ 0056c0f8     LIBCMT:winapinls.obj
 0002:00005108       ??_C@_1O@OJDJGAJC@?$AAs?$AAm?$AAs?$AA?9?$AAf?$AAi?$AA?$AA@ 0056c108     LIBCMT:winapinls.obj
 0002:00005118       ??_C@_1M@BOFOGHPB@?$AAs?$AAq?$AA?9?$AAa?$AAl?$AA?$AA@ 0056c118     LIBCMT:winapinls.obj
 0002:00005124       ??_C@_1BG@LJBBIPGB@?$AAs?$AAr?$AA?9?$AAb?$AAa?$AA?9?$AAc?$AAy?$AAr?$AAl?$AA?$AA@ 0056c124     LIBCMT:winapinls.obj
 0002:0000513c       ??_C@_1BG@JLBENFOE@?$AAs?$AAr?$AA?9?$AAb?$AAa?$AA?9?$AAl?$AAa?$AAt?$AAn?$AA?$AA@ 0056c13c     LIBCMT:winapinls.obj
 0002:00005154       ??_C@_1BG@KODPNHE@?$AAs?$AAr?$AA?9?$AAs?$AAp?$AA?9?$AAc?$AAy?$AAr?$AAl?$AA?$AA@ 0056c154     LIBCMT:winapinls.obj
 0002:0000516c       ??_C@_1BG@CIOGKHPB@?$AAs?$AAr?$AA?9?$AAs?$AAp?$AA?9?$AAl?$AAa?$AAt?$AAn?$AA?$AA@ 0056c16c     LIBCMT:winapinls.obj
 0002:00005184       ??_C@_1M@NGFJLMAC@?$AAs?$AAv?$AA?9?$AAf?$AAi?$AA?$AA@ 0056c184     LIBCMT:winapinls.obj
 0002:00005190       ??_C@_1M@MPJEJAJC@?$AAs?$AAv?$AA?9?$AAs?$AAe?$AA?$AA@ 0056c190     LIBCMT:winapinls.obj
 0002:0000519c       ??_C@_1M@MPNDHLFK@?$AAs?$AAw?$AA?9?$AAk?$AAe?$AA?$AA@ 0056c19c     LIBCMT:winapinls.obj
 0002:000051a8       ??_C@_1O@KOHBJJI@?$AAs?$AAy?$AAr?$AA?9?$AAs?$AAy?$AA?$AA@ 0056c1a8     LIBCMT:winapinls.obj
 0002:000051b8       ??_C@_1M@LDCEFHA@?$AAt?$AAa?$AA?9?$AAi?$AAn?$AA?$AA@ 0056c1b8     LIBCMT:winapinls.obj
 0002:000051c4       ??_C@_1M@CNJOFAK@?$AAt?$AAe?$AA?9?$AAi?$AAn?$AA?$AA@ 0056c1c4     LIBCMT:winapinls.obj
 0002:000051d0       ??_C@_1M@GNAECACD@?$AAt?$AAh?$AA?9?$AAt?$AAh?$AA?$AA@ 0056c1d0     LIBCMT:winapinls.obj
 0002:000051dc       ??_C@_1M@CHBIHOJO@?$AAt?$AAn?$AA?9?$AAz?$AAa?$AA?$AA@ 0056c1dc     LIBCMT:winapinls.obj
 0002:000051e8       ??_C@_1M@GCCMIGPJ@?$AAt?$AAr?$AA?9?$AAt?$AAr?$AA?$AA@ 0056c1e8     LIBCMT:winapinls.obj
 0002:000051f4       ??_C@_1M@CELMCNBK@?$AAt?$AAt?$AA?9?$AAr?$AAu?$AA?$AA@ 0056c1f4     LIBCMT:winapinls.obj
 0002:00005200       ??_C@_1M@KLMCELGA@?$AAu?$AAk?$AA?9?$AAu?$AAa?$AA?$AA@ 0056c200     LIBCMT:winapinls.obj
 0002:0000520c       ??_C@_1M@EPAJJAJF@?$AAu?$AAr?$AA?9?$AAp?$AAk?$AA?$AA@ 0056c20c     LIBCMT:winapinls.obj
 0002:00005218       ??_C@_1BG@GEGPMCDJ@?$AAu?$AAz?$AA?9?$AAu?$AAz?$AA?9?$AAc?$AAy?$AAr?$AAl?$AA?$AA@ 0056c218     LIBCMT:winapinls.obj
 0002:00005230       ??_C@_1BG@EGGKJILM@?$AAu?$AAz?$AA?9?$AAu?$AAz?$AA?9?$AAl?$AAa?$AAt?$AAn?$AA?$AA@ 0056c230     LIBCMT:winapinls.obj
 0002:00005248       ??_C@_1M@GFOCLFF@?$AAv?$AAi?$AA?9?$AAv?$AAn?$AA?$AA@ 0056c248     LIBCMT:winapinls.obj
 0002:00005254       ??_C@_1M@CPAMEDFI@?$AAx?$AAh?$AA?9?$AAz?$AAa?$AA?$AA@ 0056c254     LIBCMT:winapinls.obj
 0002:00005260       ??_C@_1O@EBKIFIGN@?$AAz?$AAh?$AA?9?$AAc?$AAh?$AAs?$AA?$AA@ 0056c260     LIBCMT:winapinls.obj
 0002:00005270       ??_C@_1O@NMHPGANE@?$AAz?$AAh?$AA?9?$AAc?$AAh?$AAt?$AA?$AA@ 0056c270     LIBCMT:winapinls.obj
 0002:00005280       ??_C@_1M@LPINJOMC@?$AAz?$AAh?$AA?9?$AAc?$AAn?$AA?$AA@ 0056c280     LIBCMT:winapinls.obj
 0002:0000528c       ??_C@_1M@OCJEJODD@?$AAz?$AAh?$AA?9?$AAh?$AAk?$AA?$AA@ 0056c28c     LIBCMT:winapinls.obj
 0002:00005298       ??_C@_1M@DNDLJINH@?$AAz?$AAh?$AA?9?$AAm?$AAo?$AA?$AA@ 0056c298     LIBCMT:winapinls.obj
 0002:000052a4       ??_C@_1M@MBFDNDND@?$AAz?$AAh?$AA?9?$AAs?$AAg?$AA?$AA@ 0056c2a4     LIBCMT:winapinls.obj
 0002:000052b0       ??_C@_1M@IMEPLEPE@?$AAz?$AAh?$AA?9?$AAt?$AAw?$AA?$AA@ 0056c2b0     LIBCMT:winapinls.obj
 0002:000052bc       ??_C@_1M@BBGHNHJP@?$AAz?$AAu?$AA?9?$AAz?$AAa?$AA?$AA@ 0056c2bc     LIBCMT:winapinls.obj
 0002:00005450       ??_C@_08EHJDFFNH@__based?$CI?$AA@ 0056c450     LIBCMT:undname.obj
 0002:0000545c       ??_C@_07KOLFKCDI@__cdecl?$AA@ 0056c45c     LIBCMT:undname.obj
 0002:00005464       ??_C@_08GHMPAG@__pascal?$AA@ 0056c464     LIBCMT:undname.obj
 0002:00005470       ??_C@_09IFJBGAPI@__stdcall?$AA@ 0056c470     LIBCMT:undname.obj
 0002:0000547c       ??_C@_0L@NPHFGOKO@__thiscall?$AA@ 0056c47c     LIBCMT:undname.obj
 0002:00005488       ??_C@_0L@JMKHOMEK@__fastcall?$AA@ 0056c488     LIBCMT:undname.obj
 0002:00005494       ??_C@_09HIJEGCPM@__clrcall?$AA@ 0056c494     LIBCMT:undname.obj
 0002:000054a0       ??_C@_06GHPCKEAG@__eabi?$AA@ 0056c4a0     LIBCMT:undname.obj
 0002:000054a8       ??_C@_07JOMMBBKO@__ptr64?$AA@ 0056c4a8     LIBCMT:undname.obj
 0002:000054b0       ??_C@_0L@PILCLIHE@__restrict?$AA@ 0056c4b0     LIBCMT:undname.obj
 0002:000054bc       ??_C@_0M@GFIIJFMG@__unaligned?$AA@ 0056c4bc     LIBCMT:undname.obj
 0002:000054c8       ??_C@_09DHDLOLLB@restrict?$CI?$AA@ 0056c4c8     LIBCMT:undname.obj
 0002:000054d4       ??_C@_04NIHEBCM@?5new?$AA@ 0056c4d4     LIBCMT:undname.obj
 0002:000054dc       ??_C@_07FPCDHGMM@?5delete?$AA@ 0056c4dc     LIBCMT:undname.obj
 0002:000054e4       ??_C@_02EGOFBIJA@?$DN?$DN?$AA@ 0056c4e4     LIBCMT:undname.obj
 0002:000054e8       ??_C@_02GPECMEKF@?$FL?$FN?$AA@ 0056c4e8     LIBCMT:undname.obj
 0002:000054ec       ??_C@_08LHJFAFGD@operator?$AA@ 0056c4ec     LIBCMT:undname.obj
 0002:000054f8       ??_C@_02HBOOOICD@?9?$DO?$AA@ 0056c4f8     LIBCMT:undname.obj
 0002:000054fc       ??_C@_02ECNGHCIF@?$CL?$CL?$AA@ 0056c4fc     LIBCMT:undname.obj
 0002:00005500       ??_C@_02BAABKJLB@?9?9?$AA@ 0056c500     LIBCMT:undname.obj
 0002:00005504       ??_C@_03MNHNFDLC@?9?$DO?$CK?$AA@ 0056c504     LIBCMT:undname.obj
 0002:00005508       ??_C@_01FGNFDNOH@?$CF?$AA@ 0056c508     LIBCMT:undname.obj
 0002:0000550c       ??_C@_02HCKGKOFO@?$CI?$CJ?$AA@ 0056c50c     LIBCMT:undname.obj
 0002:00005510       ??_C@_02FPIMKNGF@?$CK?$DN?$AA@ 0056c510     LIBCMT:undname.obj
 0002:00005514       ??_C@_02FOEOMHFC@?$CL?$DN?$AA@ 0056c514     LIBCMT:undname.obj
 0002:00005518       ??_C@_02FKMDLLOA@?9?$DN?$AA@ 0056c518     LIBCMT:undname.obj
 0002:0000551c       ??_C@_02FJEHGPIO@?1?$DN?$AA@ 0056c51c     LIBCMT:undname.obj
 0002:00005520       ??_C@_02FENAOKFI@?$CF?$DN?$AA@ 0056c520     LIBCMT:undname.obj
 0002:00005524       ??_C@_03IKFCCPFF@?$DO?$DO?$DN?$AA@ 0056c524     LIBCMT:undname.obj
 0002:00005528       ??_C@_03CDNPDDLA@?$DM?$DM?$DN?$AA@ 0056c528     LIBCMT:undname.obj
 0002:0000552c       ??_C@_02FGJGFEAB@?$CG?$DN?$AA@ 0056c52c     LIBCMT:undname.obj
 0002:00005530       ??_C@_02DHLNPPGH@?$HM?$DN?$AA@ 0056c530     LIBCMT:undname.obj
 0002:00005534       ??_C@_02MHEGNOJ@?$FO?$DN?$AA@ 0056c534     LIBCMT:undname.obj
 0002:00005538       ??_C@_09IFPLHPGF@?$GAvftable?8?$AA@ 0056c538     LIBCMT:undname.obj
 0002:00005544       ??_C@_09BLBHBJP@?$GAvbtable?8?$AA@ 0056c544     LIBCMT:undname.obj
 0002:00005550       ??_C@_07FEEIOKP@?$GAvcall?8?$AA@ 0056c550     LIBCMT:undname.obj
 0002:00005558       ??_C@_08LLFFHHDJ@?$GAtypeof?8?$AA@ 0056c558     LIBCMT:undname.obj
 0002:00005564       ??_C@_0BF@KDPPACIK@?$GAlocal?5static?5guard?8?$AA@ 0056c564     LIBCMT:undname.obj
 0002:0000557c       ??_C@_08OBABFOLI@?$GAstring?8?$AA@ 0056c57c     LIBCMT:undname.obj
 0002:00005588       ??_C@_0BD@JDLKDPAB@?$GAvbase?5destructor?8?$AA@ 0056c588     LIBCMT:undname.obj
 0002:0000559c       ??_C@_0BN@DEGPLNFK@?$GAvector?5deleting?5destructor?8?$AA@ 0056c59c     LIBCMT:undname.obj
 0002:000055bc       ??_C@_0BO@OBMKPJIG@?$GAdefault?5constructor?5closure?8?$AA@ 0056c5bc     LIBCMT:undname.obj
 0002:000055dc       ??_C@_0BN@IMDCHIKM@?$GAscalar?5deleting?5destructor?8?$AA@ 0056c5dc     LIBCMT:undname.obj
 0002:000055fc       ??_C@_0BO@PFGOCPJJ@?$GAvector?5constructor?5iterator?8?$AA@ 0056c5fc     LIBCMT:undname.obj
 0002:0000561c       ??_C@_0BN@LFPFMEDL@?$GAvector?5destructor?5iterator?8?$AA@ 0056c61c     LIBCMT:undname.obj
 0002:0000563c       ??_C@_0CE@IKBNEHA@?$GAvector?5vbase?5constructor?5iterat@ 0056c63c     LIBCMT:undname.obj
 0002:00005660       ??_C@_0BL@NILFHHPC@?$GAvirtual?5displacement?5map?8?$AA@ 0056c660     LIBCMT:undname.obj
 0002:0000567c       ??_C@_0CB@JONCMFFK@?$GAeh?5vector?5constructor?5iterator?8@ 0056c67c     LIBCMT:undname.obj
 0002:000056a0       ??_C@_0CA@GCEOPDGL@?$GAeh?5vector?5destructor?5iterator?8?$AA@ 0056c6a0     LIBCMT:undname.obj
 0002:000056c0       ??_C@_0CH@OOJPLCPH@?$GAeh?5vector?5vbase?5constructor?5ite@ 0056c6c0     LIBCMT:undname.obj
 0002:000056e8       ??_C@_0BL@LLKPOHJI@?$GAcopy?5constructor?5closure?8?$AA@ 0056c6e8     LIBCMT:undname.obj
 0002:00005704       ??_C@_0BA@KBCDOMBN@?$GAudt?5returning?8?$AA@ 0056c704     LIBCMT:undname.obj
 0002:00005714       ??_C@_03KLGMFNMG@?$GAEH?$AA@ 0056c714     LIBCMT:undname.obj
 0002:00005718       ??_C@_05KHLCHHI@?$GARTTI?$AA@ 0056c718     LIBCMT:undname.obj
 0002:00005720       ??_C@_0BA@KKLDJDLB@?$GAlocal?5vftable?8?$AA@ 0056c720     LIBCMT:undname.obj
 0002:00005730       ??_C@_0CE@IIHCMGGL@?$GAlocal?5vftable?5constructor?5closu@ 0056c730     LIBCMT:undname.obj
 0002:00005754       ??_C@_06FHBGPFGH@?5new?$FL?$FN?$AA@ 0056c754     LIBCMT:undname.obj
 0002:0000575c       ??_C@_09LBNFPBCA@?5delete?$FL?$FN?$AA@ 0056c75c     LIBCMT:undname.obj
 0002:00005768       ??_C@_0P@HJKNJFNN@?$GAomni?5callsig?8?$AA@ 0056c768     LIBCMT:undname.obj
 0002:00005778       ??_C@_0BL@CNOONJFP@?$GAplacement?5delete?5closure?8?$AA@ 0056c778     LIBCMT:undname.obj
 0002:00005794       ??_C@_0BN@CKNJLHMB@?$GAplacement?5delete?$FL?$FN?5closure?8?$AA@ 0056c794     LIBCMT:undname.obj
 0002:000057b4       ??_C@_0CG@CFDHKGGD@?$GAmanaged?5vector?5constructor?5iter@ 0056c7b4     LIBCMT:undname.obj
 0002:000057dc       ??_C@_0CF@IMGKMJNO@?$GAmanaged?5vector?5destructor?5itera@ 0056c7dc     LIBCMT:undname.obj
 0002:00005804       ??_C@_0CG@HLDDJMAG@?$GAeh?5vector?5copy?5constructor?5iter@ 0056c804     LIBCMT:undname.obj
 0002:0000582c       ??_C@_0CM@FCBBDIGB@?$GAeh?5vector?5vbase?5copy?5constructo@ 0056c82c     LIBCMT:undname.obj
 0002:00005858       ??_C@_0BL@CLIPGLGB@?$GAdynamic?5initializer?5for?5?8?$AA@ 0056c858     LIBCMT:undname.obj
 0002:00005874       ??_C@_0CB@PDBIFEP@?$GAdynamic?5atexit?5destructor?5for?5?8@ 0056c874     LIBCMT:undname.obj
 0002:00005898       ??_C@_0CD@CGAJBKEJ@?$GAvector?5copy?5constructor?5iterato@ 0056c898     LIBCMT:undname.obj
 0002:000058bc       ??_C@_0CJ@GJELGAMM@?$GAvector?5vbase?5copy?5constructor?5i@ 0056c8bc     LIBCMT:undname.obj
 0002:000058e8       ??_C@_0CL@FGIJHLCE@?$GAmanaged?5vector?5copy?5constructor@ 0056c8e8     LIBCMT:undname.obj
 0002:00005914       ??_C@_0BM@PMGGMLDN@?$GAlocal?5static?5thread?5guard?8?$AA@ 0056c914     LIBCMT:undname.obj
 0002:00005930       ??_C@_0BC@DAFEJGAK@?5Type?5Descriptor?8?$AA@ 0056c930     LIBCMT:undname.obj
 0002:00005944       ??_C@_0BM@LDKODKLH@?5Base?5Class?5Descriptor?5at?5?$CI?$AA@ 0056c944     LIBCMT:undname.obj
 0002:00005960       ??_C@_0BD@LGICGFMM@?5Base?5Class?5Array?8?$AA@ 0056c960     LIBCMT:undname.obj
 0002:00005974       ??_C@_0BN@MECKDCOJ@?5Class?5Hierarchy?5Descriptor?8?$AA@ 0056c974     LIBCMT:undname.obj
 0002:00005994       ??_C@_0BK@CFCOFLF@?5Complete?5Object?5Locator?8?$AA@ 0056c994     LIBCMT:undname.obj
 0002:000059b0       ___newctype                0056c9b0     LIBCMT:ctype.obj
 0002:00005cb0       __wctype                   0056ccb0     LIBCMT:ctype.obj
 0002:00005eb8       ___newclmap                0056ceb8     LIBCMT:ctype.obj
 0002:00006038       ___newcumap                0056d038     LIBCMT:ctype.obj
 0002:000061b8       ___rg_language_count       0056d1b8     LIBCMT:getqloc.obj
 0002:000061bc       ___rg_country_count        0056d1bc     LIBCMT:getqloc.obj
 0002:000061c0       ??_C@_05KLBDPFGC@e?$CL000?$AA@ 0056d1c0     LIBCMT:cvt.obj
 0002:000061c8       ??_C@_0M@HHGEPIBF@CreateFile2?$AA@ 0056d1c8     LIBCMT:wopen.obj
 0002:000061d4       ??_C@_1BA@BALFACEM@?$AAC?$AAO?$AAN?$AAO?$AAU?$AAT?$AA$?$AA?$AA@ 0056d1d4     LIBCMT:initcon.obj
 0002:000061e4       ??_C@_06PGGFOGJG@1?$CDSNAN?$AA@ 0056d1e4     LIBCMT:x10fout.obj
 0002:000061ec       ??_C@_05PHHOCPM@1?$CDIND?$AA@ 0056d1ec     LIBCMT:x10fout.obj
 0002:000061f4       ??_C@_05DNEBIAHO@1?$CDINF?$AA@ 0056d1f4     LIBCMT:x10fout.obj
 0002:000061fc       ??_C@_06IMKFLFPG@1?$CDQNAN?$AA@ 0056d1fc     LIBCMT:x10fout.obj
 0002:00006204       ??_C@_0P@DKHCFOLI@blendpaintmode?$AA@ 0056d204     blend.obj
 0002:00006214       ??_C@_0CE@GKLGOCGP@could?5not?5load?5blend?5brush?5image@ 0056d214     blend.obj
 0002:00006238       ??_C@_0DB@KCKFCGKP@blend?5brush?5image?5size?5exceeded?5@ 0056d238     blend.obj
 0002:0000626c       ??_C@_0BC@NEGFKPJL@clearblendbrushes?$AA@ 0056d26c     blend.obj
 0002:00006280       ??_C@_01LKDEMHDF@s?$AA@    0056d280     blend.obj
 0002:00006284       ??_C@_0O@ILOCGBKL@delblendbrush?$AA@ 0056d284     blend.obj
 0002:00006294       ??_C@_02FCBLNKNB@ss?$AA@   0056d294     blend.obj
 0002:00006298       ??_C@_0O@NENLKALN@addblendbrush?$AA@ 0056d298     blend.obj
 0002:000062a8       ??_C@_01KBJDNOO@i?$AA@     0056d2a8     blend.obj
 0002:000062ac       ??_C@_0P@EGPHPKMN@nextblendbrush?$AA@ 0056d2ac     blend.obj
 0002:000062bc       ??_C@_0O@ICIJGMAF@setblendbrush?$AA@ 0056d2bc     blend.obj
 0002:000062cc       ??_C@_0BC@EHPCBGLN@getblendbrushname?$AA@ 0056d2cc     blend.obj
 0002:000062e0       ??_C@_0O@LPABFDFD@curblendbrush?$AA@ 0056d2e0     blend.obj
 0002:000062f0       ??_C@_0CL@EOPOHJKA@operation?5only?5allowed?5in?5blend?5@ 0056d2f0     blend.obj
 0002:0000631c       ??_C@_0BI@FIONHOHB@no?5blend?5brush?5selected?$AA@ 0056d31c     blend.obj
 0002:00006334       ??_C@_0BB@GICOMJLE@rotateblendbrush?$AA@ 0056d334     blend.obj
 0002:00006348       ??_C@_0BD@BIBPFMLF@paintblendmapdelay?$AA@ 0056d348     blend.obj
 0002:0000635c       ??_C@_0BG@ICMPADBN@paintblendmapinterval?$AA@ 0056d35c     blend.obj
 0002:00006374       ??_C@_01CKDDGHAB@D?$AA@    0056d374     blend.obj
 0002:00006378       ??_C@_0O@ICMAMPOP@paintblendmap?$AA@ 0056d378     blend.obj
 0002:00006388       ??_C@_0BB@HFGDPOFD@clearblendmapsel?$AA@ 0056d388     blend.obj
 0002:0000639c       ??_C@_0BC@HOEDPBNE@invertblendmapsel?$AA@ 0056d39c     blend.obj
 0002:000063b0       ??_C@_0P@HFFPDFKA@invertblendmap?$AA@ 0056d3b0     blend.obj
 0002:000063c0       ??_C@_0N@NDCHHINC@showblendmap?$AA@ 0056d3c0     blend.obj
 0002:000063d0       ??_C@_0BB@PIKIAINA@optimizeblendmap?$AA@ 0056d3d0     blend.obj
 0002:000063e4       ??_C@_0O@EENDHPCG@clearblendmap?$AA@ 0056d3e4     blend.obj
 0002:000063f4       ??_C@_02PDIHAGKM@ii?$AA@   0056d3f4     blend.obj
 0002:000063f8       ??_C@_0N@BPLOJAKM@moveblendmap?$AA@ 0056d3f8     blend.obj
 0002:00006408       ??_C@_0CN@IPHPKECI@blendmap?5movement?5must?5be?5in?5mul@ 0056d408     blend.obj
 0002:00006435       ??_C@_00CNPNBAHC@?$AA@     0056d435     blend.obj
 0002:00006438       ??_C@_0BA@HBMBINDF@importcuberemip?$AA@ 0056d438     cubeloader.obj
 0002:00006448       ??_C@_0BH@JHFKBAFM@creating?5cubes?4?4?4?5?$CFd?$CF?$CF?$AA@ 0056d448     cubeloader.obj
 0002:00006460       ??_C@_07KMMCDPHI@cube?1?$CFs?$AA@ 0056d460     cubeloader.obj
 0002:00006468       ??_C@_0BA@OFNGFJLA@packages?1?$CFs?4cgz?$AA@ 0056d468     cubeloader.obj
 0002:00006478       ??_C@_02JDPG@rb?$AA@       0056d478     cubeloader.obj
 0002:0000647c       ??_C@_0BL@MOCCFNFE@could?5not?5read?5cube?5map?5?$CFs?$AA@ 0056d47c     cubeloader.obj
 0002:00006498       ??_C@_04CEENDHAF@CUBE?$AA@ 0056d498     cubeloader.obj
 0002:000064a0       ??_C@_04BHBGMNAP@ACMP?$AA@ 0056d4a0     cubeloader.obj
 0002:000064a8       ??_C@_0BP@DELPDANB@map?5?$CFs?5has?5malformatted?5header?$AA@ 0056d4a8     cubeloader.obj
 0002:000064c8       ??_C@_0N@HKPFLAFL@importing?5?$CFs?$AA@ 0056d4c8     cubeloader.obj
 0002:000064d8       ??_C@_07JEMIPMLL@?$CFd?5?$EA?5?$CFd?$AA@ 0056d4d8     cubeloader.obj
 0002:000064e0       ??_C@_0CJ@PMPDIMLN@while?5reading?5map?3?5type?5out?5of?5r@ 0056d4e0     cubeloader.obj
 0002:0000650c       ??_C@_0BF@FPGPPMPD@packages?1cube?1?$CFs?4cfg?$AA@ 0056d50c     cubeloader.obj
 0002:00006524       ??_C@_0BK@FMCKCEIA@packages?1cube?1package?4cfg?$AA@ 0056d524     cubeloader.obj
 0002:00006540       ??_C@_0CA@MMGGPEH@read?5cube?5map?5?$CFs?5?$CI?$CF?41f?5seconds?$CJ?$AA@ 0056d540     cubeloader.obj
 0002:00006560       ??_C@_0L@FIHOELOG@importcube?$AA@ 0056d560     cubeloader.obj
 0002:0000656c       ??_C@_0P@HLFCKHKL@lightprecision?$AA@ 0056d56c     lightmap.obj
 0002:0000657c       ??_C@_0L@IEPABEDF@lighterror?$AA@ 0056d57c     lightmap.obj
 0002:00006588       ??_C@_09JAEKHCCH@bumperror?$AA@ 0056d588     lightmap.obj
 0002:00006594       ??_C@_08PJALPBCH@lightlod?$AA@ 0056d594     lightmap.obj
 0002:000065a0       ??_C@_07LIABELBC@ambient?$AA@ 0056d5a0     lightmap.obj
 0002:000065a8       ??_C@_08GENLAOJJ@skylight?$AA@ 0056d5a8     lightmap.obj
 0002:000065b4       ??_C@_08KPJDIPMA@sunlight?$AA@ 0056d5b4     lightmap.obj
 0002:000065c0       ??_C@_0O@DBMKHAL@sunlightscale?$AA@ 0056d5c0     lightmap.obj
 0002:000065d0       ??_C@_0M@HLOOHBKF@sunlightyaw?$AA@ 0056d5d0     lightmap.obj
 0002:000065dc       ??_C@_0O@BGANFDNJ@sunlightpitch?$AA@ 0056d5dc     lightmap.obj
 0002:000065ec       ??_C@_0BA@IBFLMHPP@skytexturelight?$AA@ 0056d5ec     lightmap.obj
 0002:000065fc       ??_C@_09HJPHDPLC@lmshadows?$AA@ 0056d5fc     lightmap.obj
 0002:00006608       ??_C@_04JJKAEGIB@lmaa?$AA@ 0056d608     lightmap.obj
 0002:00006610       ??_C@_0M@GMKBPKOI@lerptjoints?$AA@ 0056d610     lightmap.obj
 0002:0000661c       ??_C@_0BH@ODOBLJFP@?$CFd?$CF?$CF?5using?5?$CFd?5textures?$AA@ 0056d61c     lightmap.obj
 0002:00006634       ??_C@_0O@BIFMPIKC@lightcompress?$AA@ 0056d634     lightmap.obj
 0002:00006644       ??_C@_07KJBFLEOB@blurlms?$AA@ 0056d644     lightmap.obj
 0002:0000664c       ??_C@_0N@LDJILJDN@blurskylight?$AA@ 0056d64c     lightmap.obj
 0002:0000665c       ??_C@_0O@NMNBENPE@edgetolerance?$AA@ 0056d65c     lightmap.obj
 0002:0000666c       ??_C@_0P@IEPOFCMK@adaptivesample?$AA@ 0056d66c     lightmap.obj
 0002:0000667c       ??_C@_0P@GIDFMGKC@lightcachesize?$AA@ 0056d67c     lightmap.obj
 0002:0000668c       ??_C@_0N@IIIEMJBH@lightthreads?$AA@ 0056d68c     lightmap.obj
 0002:0000669c       ??_C@_0CL@DPKNEPMB@valid?5range?5for?5calclight?5qualit@ 0056d69c     lightmap.obj
 0002:000066c8       ??_C@_0CG@NAICJAFF@computing?5lightmaps?4?4?4?5?$CIesc?5to?5a@ 0056d6c8     lightmap.obj
 0002:000066f0       ??_C@_0BB@BNPILHCM@lighting?5done?4?4?4?$AA@ 0056d6f0     lightmap.obj
 0002:00006704       ??_C@_0BC@JJACDAHL@calclight?5aborted?$AA@ 0056d704     lightmap.obj
 0002:00006718       ??_C@_0EA@PDNDMFEG@generated?5?$CFd?5lightmaps?5using?5?$CFd?$CF@ 0056d718     lightmap.obj
 0002:00006758       ??_C@_09BANFGNFM@calclight?$AA@ 0056d758     lightmap.obj
 0002:00006764       ??_C@_0N@DDIKEBIE@patchnormals?$AA@ 0056d764     lightmap.obj
 0002:00006774       ??_C@_0CM@HBPODCAL@valid?5range?5for?5patchlight?5quali@ 0056d774     lightmap.obj
 0002:000067a0       ??_C@_0CF@PAJDEPLO@patching?5lightmaps?4?4?4?5?$CIesc?5to?5ab@ 0056d7a0     lightmap.obj
 0002:000067c8       ??_C@_0BF@MBCHIICN@computing?5normals?4?4?4?$AA@ 0056d7c8     lightmap.obj
 0002:000067e0       ??_C@_0BD@OKOKEINJ@patchlight?5aborted?$AA@ 0056d7e0     lightmap.obj
 0002:000067f4       ??_C@_0DO@BIPOHHDP@patched?5?$CFd?5lightmaps?5using?5?$CFd?$CF?$CF?5@ 0056d7f4     lightmap.obj
 0002:00006834       ??_C@_0L@FPHPHHGA@patchlight?$AA@ 0056d834     lightmap.obj
 0002:00006840       ??_C@_0BG@IOKONHDI@clearing?5lightmaps?4?4?4?$AA@ 0056d840     lightmap.obj
 0002:00006858       ??_C@_0P@KACGDJJH@clearlightmaps?$AA@ 0056d858     lightmap.obj
 0002:00006868       ??_C@_0L@GEONJGBK@fullbright?$AA@ 0056d868     lightmap.obj
 0002:00006874       ??_C@_0BA@PFDEDJDH@fullbrightlevel?$AA@ 0056d874     lightmap.obj
 0002:00006884       ??_C@_0L@CFOHJAIM@convertlms?$AA@ 0056d884     lightmap.obj
 0002:00006890       ??_C@_0BB@OKADECAN@roundlightmaptex?$AA@ 0056d890     lightmap.obj
 0002:000068a4       ??_C@_0P@GHNEOPKL@batchlightmaps?$AA@ 0056d8a4     lightmap.obj
 0002:000068b4       ??_C@_0BD@JMLGBJKB@lightmap_?$CFs_?$CFd?4png?$AA@ 0056d8b4     lightmap.obj
 0002:000068c8       ??_C@_07IHJLHON@dumplms?$AA@ 0056d8c8     lightmap.obj
 0002:000068e0       ?fvmasks@@3QBEB            0056d8e0     octa.obj
 0002:00006920       ?fv@@3QAY03$$CBEA          0056d920     octa.obj
 0002:00006938       ?faceedgesidx@@3QAY03$$CBEA 0056d938     octa.obj
 0002:000069d0       ?GRAVITY@@3MB              0056d9d0     physics.obj
 0002:000069d4       ?JUMPVEL@@3MB              0056d9d4     physics.obj
 0002:00006a4c       ?skiny@gui@@2QBHB          0056da4c     3dgui.obj
 0002:00006a78       ?patches@gui@@2QBUpatch@1@B 0056da78     3dgui.obj
 0002:00006b90       ?skinx@gui@@2QBHB          0056db90     3dgui.obj
 0002:00007a08       ?uni2cubechars@@3QBEB      0056ea08     stream.obj
 0002:00007d78       ?uni2cubeoffsets@@3QBHB    0056ed78     stream.obj
 0002:00007d98       ?cubectype@@3QBEB          0056ed98     stream.obj
 0002:00007e98       ?cube2unichars@@3QBHB      0056ee98     stream.obj
 0002:00008318       ??_C@_09NJFLIGJF@lerpangle?$AA@ 0056f318     normal.obj
 0002:00008324       ??_C@_0L@GEMHMDHJ@lerpsubdiv?$AA@ 0056f324     normal.obj
 0002:00008330       ??_C@_0P@PCAKHDDF@lerpsubdivsize?$AA@ 0056f330     normal.obj
 0002:00008340       ??_C@_0BJ@MAFBKHJN@?$DN?5?$CFp?5?$DN?5?$CI?$CFd?0?5?$CFd?0?5?$CFd?$CJ?5?$EA?5?$CFd?$AA@ 0056f340     octa.obj
 0002:0000835c       ??_C@_08KIPBOANC@?5x?5?5?$CF?48x?$AA@ 0056f35c     octa.obj
 0002:00008368       ??_C@_08GEFLOAEM@?5y?5?5?$CF?48x?$AA@ 0056f368     octa.obj
 0002:00008374       ??_C@_08OKNEOHKP@?5z?5?5?$CF?48x?$AA@ 0056f374     octa.obj
 0002:00008380       ??_C@_09GBFNOHCC@printcube?$AA@ 0056f380     octa.obj
 0002:0000838c       ??_C@_06FDJLJGCD@mipvis?$AA@ 0056f38c     octa.obj
 0002:00008394       ??_C@_0N@OGILLOA@remipping?4?4?4?$AA@ 0056f394     octa.obj
 0002:000083a4       ??_C@_05PIHAKMCM@remip?$AA@ 0056f3a4     octa.obj
 0002:000083ac       ??_C@_08GIAHNCC@maxmerge?$AA@ 0056f3ac     octa.obj
 0002:000083b8       ??_C@_07DKBAAKPA@minface?$AA@ 0056f3b8     octa.obj
 0002:000083c0       ??_C@_0BB@DLDKLLJO@merging?5faces?4?4?4?$AA@ 0056f3c0     octa.obj
 0002:000083d4       ??_C@_0CA@IDNDHILF@invalidating?5merged?5surfaces?4?4?4?$AA@ 0056f3d4     octa.obj
 0002:000084d8       ??_C@_08MLPFNNDJ@dragging?$AA@ 0056f4d8     octaedit.obj
 0002:000084e4       ??_C@_06CJBJAGIH@moving?$AA@ 0056f4e4     octaedit.obj
 0002:000084ec       ??_C@_09PEPLNHHC@gridpower?$AA@ 0056f4ec     octaedit.obj
 0002:000084f8       ??_C@_0P@MMCAOJOE@passthroughsel?$AA@ 0056f4f8     octaedit.obj
 0002:00008508       ??_C@_07HAFNFNOB@editing?$AA@ 0056f508     octaedit.obj
 0002:00008510       ??_C@_0O@CMDPCADK@selectcorners?$AA@ 0056f510     octaedit.obj
 0002:00008520       ??_C@_08HKIDODCD@hmapedit?$AA@ 0056f520     octaedit.obj
 0002:0000852c       ??_C@_0CE@FFBGEABP@operation?5only?5allowed?5in?5edit?5m@ 0056f52c     octaedit.obj
 0002:00008550       ??_C@_0BG@KMLAPNDI@selection?5not?5in?5view?$AA@ 0056f550     octaedit.obj
 0002:00008568       ??_C@_0L@IAAMPIAA@edittoggle?$AA@ 0056f568     octaedit.obj
 0002:00008574       ??_C@_09GGDDKLMH@entcancel?$AA@ 0056f574     octaedit.obj
 0002:00008580       ??_C@_0L@FGIDMBCN@cubecancel?$AA@ 0056f580     octaedit.obj
 0002:0000858c       ??_C@_09OIKHHPFL@cancelsel?$AA@ 0056f58c     octaedit.obj
 0002:00008598       ??_C@_08PFHMHGMO@reorient?$AA@ 0056f598     octaedit.obj
 0002:000085a4       ??_C@_09ONDGDNFE@selextend?$AA@ 0056f5a4     octaedit.obj
 0002:000085b0       ??_C@_07MGGFOIDK@havesel?$AA@ 0056f5b0     octaedit.obj
 0002:000085b8       ??_C@_0L@IELONJHO@gridlookup?$AA@ 0056f5b8     octaedit.obj
 0002:000085c4       ??_C@_0BA@IFEGHEHN@passthroughcube?$AA@ 0056f5c4     octaedit.obj
 0002:000085d4       ??_C@_08MECIEJGG@undomegs?$AA@ 0056f5d4     octaedit.obj
 0002:000085e0       ??_C@_0L@GJOHGMDK@clearundos?$AA@ 0056f5e0     octaedit.obj
 0002:000085ec       ??_C@_08IMBMPHKA@nompedit?$AA@ 0056f5ec     octaedit.obj
 0002:000085f8       ??_C@_0BD@KNNPPEDE@nothing?5more?5to?5?$CFs?$AA@ 0056f5f8     octaedit.obj
 0002:0000860c       ??_C@_04HOKNPDPJ@undo?$AA@ 0056f60c     octaedit.obj
 0002:00008614       ??_C@_04BLIMKIOI@redo?$AA@ 0056f614     octaedit.obj
 0002:0000861c       ??_C@_0BB@IDFOEKJB@deleted?5brush?5?$CFs?$AA@ 0056f61c     octaedit.obj
 0002:00008630       ??_C@_08KNDIMJEB@delbrush?$AA@ 0056f630     octaedit.obj
 0002:0000863c       ??_C@_02CFKBDFGI@?1?2?$AA@ 0056f63c     octaedit.obj
 0002:00008640       ??_C@_0BA@GBBCKOOL@packages?1?$CFs?4obr?$AA@ 0056f640     octaedit.obj
 0002:00008650       ??_C@_0BG@DNBHGDPI@packages?1brush?1?$CFs?4obr?$AA@ 0056f650     octaedit.obj
 0002:00008668       ??_C@_02GMLFBBN@wb?$AA@    0056f668     octaedit.obj
 0002:0000866c       ??_C@_0BM@EHIJBOFJ@could?5not?5write?5brush?5to?5?$CFs?$AA@ 0056f66c     octaedit.obj
 0002:00008688       ??_C@_0BI@BAHKLDEB@could?5not?5pack?5brush?5?$CFs?$AA@ 0056f688     octaedit.obj
 0002:000086a0       ??_C@_0BE@IPBIMFPJ@wrote?5brush?5file?5?$CFs?$AA@ 0056f6a0     octaedit.obj
 0002:000086b4       ??_C@_09JIPOLNFG@savebrush?$AA@ 0056f6b4     octaedit.obj
 0002:000086c0       ??_C@_0BI@EOGOHHCD@could?5not?5read?5brush?5?$CFs?$AA@ 0056f6c0     octaedit.obj
 0002:000086d8       ??_C@_0CB@CADFPIMC@brush?5?$CFs?5has?5malformatted?5header@ 0056f6d8     octaedit.obj
 0002:000086fc       ??_C@_0CC@OJJFBGAP@brush?5?$CFs?5uses?5unsupported?5versio@ 0056f6fc     octaedit.obj
 0002:00008720       ??_C@_0BK@PPFBNKBJ@could?5not?5unpack?5brush?5?$CFs?$AA@ 0056f720     octaedit.obj
 0002:0000873c       ??_C@_0L@NJJAKGA@pastebrush?$AA@ 0056f73c     octaedit.obj
 0002:00008748       ??_C@_04COAGEIMF@copy?$AA@ 0056f748     octaedit.obj
 0002:00008750       ??_C@_0M@NPDMNCLK@pastehilite?$AA@ 0056f750     octaedit.obj
 0002:0000875c       ??_C@_05NDLFFNHM@paste?$AA@ 0056f75c     octaedit.obj
 0002:00008764       ??_C@_06NBMKNICM@brushx?$AA@ 0056f764     octaedit.obj
 0002:0000876c       ??_C@_06MINBOJGN@brushy?$AA@ 0056f76c     octaedit.obj
 0002:00008774       ??_C@_0L@IGILIFOO@clearbrush?$AA@ 0056f774     octaedit.obj
 0002:00008780       ??_C@_03GLKMLICL@iii?$AA@  0056f780     octaedit.obj
 0002:00008784       ??_C@_09KMOJGCHA@brushvert?$AA@ 0056f784     octaedit.obj
 0002:00008790       ??_C@_0L@EMANIEPP@hmapcancel?$AA@ 0056f790     octaedit.obj
 0002:0000879c       ??_C@_0L@GJHPLCHA@hmapselect?$AA@ 0056f79c     octaedit.obj
 0002:000087a8       ??_C@_0BF@EACIFAFI@bypassheightmapcheck?$AA@ 0056f7a8     octaedit.obj
 0002:000087c0       ??_C@_0BB@PDFCDJPB@invalidcubeguard?$AA@ 0056f7c0     octaedit.obj
 0002:000087d4       ??_C@_0O@DGDHBMKK@selectionsurf?$AA@ 0056f7d4     octaedit.obj
 0002:000087e4       ??_C@_07FCPHCPHL@pushsel?$AA@ 0056f7e4     octaedit.obj
 0002:000087ec       ??_C@_08BCMNDPAK@editface?$AA@ 0056f7ec     octaedit.obj
 0002:000087f8       ??_C@_07LJGOPPCL@delcube?$AA@ 0056f7f8     octaedit.obj
 0002:00008800       ??_C@_09EONBAKCL@usevdelta?$AA@ 0056f800     octaedit.obj
 0002:0000880c       ??_C@_08IANOCEHK@allfaces?$AA@ 0056f80c     octaedit.obj
 0002:00008818       ??_C@_06HBHCKCDA@vdelta?$AA@ 0056f818     octaedit.obj
 0002:00008820       ??_C@_07LGANENAL@vrotate?$AA@ 0056f820     octaedit.obj
 0002:00008828       ??_C@_07DJAGFAGM@voffset?$AA@ 0056f828     octaedit.obj
 0002:00008830       ??_C@_02HPEDFNFO@ff?$AA@   0056f830     octaedit.obj
 0002:00008834       ??_C@_07MLNAENNG@vscroll?$AA@ 0056f834     octaedit.obj
 0002:0000883c       ??_C@_01INIBCBCB@f?$AA@    0056f83c     octaedit.obj
 0002:00008840       ??_C@_06GENCIKKC@vscale?$AA@ 0056f840     octaedit.obj
 0002:00008848       ??_C@_06HDGNKJOF@vlayer?$AA@ 0056f848     octaedit.obj
 0002:00008850       ??_C@_06CDFMODMB@valpha?$AA@ 0056f850     octaedit.obj
 0002:00008858       ??_C@_03LPALPDIP@fff?$AA@  0056f858     octaedit.obj
 0002:0000885c       ??_C@_06FHFLIHCK@vcolor?$AA@ 0056f85c     octaedit.obj
 0002:00008864       ??_C@_06IGNGCLCM@vreset?$AA@ 0056f864     octaedit.obj
 0002:0000886c       ??_C@_05LEEJHALC@sffff?$AA@ 0056f86c     octaedit.obj
 0002:00008874       ??_C@_0N@HIAPGBLA@vshaderparam?$AA@ 0056f874     octaedit.obj
 0002:00008884       ??_C@_07BDCBDDNM@edittex?$AA@ 0056f884     octaedit.obj
 0002:0000888c       ??_C@_06DFEOEHPC@gettex?$AA@ 0056f88c     octaedit.obj
 0002:00008894       ??_C@_09DOKEGHFK@getcurtex?$AA@ 0056f894     octaedit.obj
 0002:000088a0       ??_C@_09IFHMNAOM@getseltex?$AA@ 0056f8a0     octaedit.obj
 0002:000088ac       ??_C@_09IGBLKBNL@getreptex?$AA@ 0056f8ac     octaedit.obj
 0002:000088b8       ??_C@_0L@JMOOHNBK@gettexname?$AA@ 0056f8b8     octaedit.obj
 0002:000088c4       ??_C@_0CG@JDIDDNFG@can?5only?5replace?5after?5a?5texture@ 0056f8c4     octaedit.obj
 0002:000088ec       ??_C@_07CLEHDIEJ@replace?$AA@ 0056f8ec     octaedit.obj
 0002:000088f4       ??_C@_0L@HOLCPMLO@replacesel?$AA@ 0056f8f4     octaedit.obj
 0002:00008900       ??_C@_04DGGGELON@flip?$AA@ 0056f900     octaedit.obj
 0002:00008908       ??_C@_06CEHMNFAL@rotate?$AA@ 0056f908     octaedit.obj
 0002:00008910       ??_C@_05LBJMNBOG@empty?$AA@ 0056f910     octaedit.obj
 0002:00008918       ??_C@_08GDBKHIPC@notempty?$AA@ 0056f918     octaedit.obj
 0002:00008924       ??_C@_05OPIONHBI@solid?$AA@ 0056f924     octaedit.obj
 0002:0000892c       ??_C@_08DNAIHOAM@notsolid?$AA@ 0056f92c     octaedit.obj
 0002:00008938       ??_C@_0BG@HGOHELP@unknown?5material?5?$CC?$CFs?$CC?$AA@ 0056f938     octaedit.obj
 0002:00008950       ??_C@_07JFIMMMBJ@editmat?$AA@ 0056f950     octaedit.obj
 0002:00008958       ??_C@_0M@GNHKGPJA@texguiwidth?$AA@ 0056f958     octaedit.obj
 0002:00008964       ??_C@_0N@OHFJEFEF@texguiheight?$AA@ 0056f964     octaedit.obj
 0002:00008974       ??_C@_0L@PPEKPADA@texguitime?$AA@ 0056f974     octaedit.obj
 0002:00008980       ??_C@_08LHKGDOJC@texgui2d?$AA@ 0056f980     octaedit.obj
 0002:0000898c       ??_C@_08FLHNKADJ@Textures?$AA@ 0056f98c     octaedit.obj
 0002:00008998       ??_C@_0L@NNIPJMKJ@showtexgui?$AA@ 0056f998     octaedit.obj
 0002:000089a4       ??_C@_07COPKBG@rgbonly?$AA@ 0056f9a4     octaedit.obj
 0002:000089b0       ??_7texturegui@@6B@        0056f9b0     octaedit.obj
 0002:000089bc       ??_7g3d_callback@@6B@      0056f9bc     octaedit.obj
 0002:000089c4       ??_C@_08MAMAAIBM@printvbo?$AA@ 0056f9c4     octarender.obj
 0002:000089d0       ??_C@_07KMNJAIDA@vbosize?$AA@ 0056f9d0     octarender.obj
 0002:000089d8       ??_C@_0CC@CJMJGMBH@vbo?5?$CFd?3?5type?5?$CFd?0?5size?5?$CFd?0?5?$CFd?5use@ 0056f9d8     octarender.obj
 0002:000089fc       ??_C@_05JOBLOEL@grass?$AA@ 0056f9fc     octarender.obj
 0002:00008a04       ??_C@_0M@PPBPIAHA@filltjoints?$AA@ 0056fa04     octarender.obj
 0002:00008a10       ??_C@_0BD@DDFMAHIA@fixing?5t?9joints?4?4?4?$AA@ 0056fa10     octarender.obj
 0002:00008a24       ??_C@_09CPHCOBCC@vafacemax?$AA@ 0056fa24     octarender.obj
 0002:00008a30       ??_C@_09DNPJAFEN@vafacemin?$AA@ 0056fa30     octarender.obj
 0002:00008a3c       ??_C@_0L@MADEAIKP@vacubesize?$AA@ 0056fa3c     octarender.obj
 0002:00008a48       ??_C@_0BK@IIPIFLME@recalculating?5geometry?4?4?4?$AA@ 0056fa48     octarender.obj
 0002:00008a64       ??_C@_0BK@GNNBPDFJ@clearing?5vertex?5arrays?4?4?4?$AA@ 0056fa64     octarender.obj
 0002:00008a80       ??_C@_06BDEIOILB@recalc?$AA@ 0056fa80     octarender.obj
 0002:00008aa0       ??_C@_0L@IAAJNJIP@dynentsize?$AA@ 0056faa0     physics.obj
 0002:00008aac       ??_C@_05KNFBNCOH@float?$AA@ 0056faac     physics.obj
 0002:00008ab4       ??_C@_04CELAAMIG@fall?$AA@ 0056fab4     physics.obj
 0002:00008abc       ??_C@_05IODDPPOI@slide?$AA@ 0056fabc     physics.obj
 0002:00008ac4       ??_C@_05LAHHKLJI@slope?$AA@ 0056fac4     physics.obj
 0002:00008acc       ??_C@_05PBJFFIGL@floor?$AA@ 0056facc     physics.obj
 0002:00008ad4       ??_C@_07NMPJEAII@step?5up?$AA@ 0056fad4     physics.obj
 0002:00008adc       ??_C@_09HKLMEOCN@step?5down?$AA@ 0056fadc     physics.obj
 0002:00008ae8       ??_C@_06DPMIMFNG@bounce?$AA@ 0056fae8     physics.obj
 0002:00008af0       ??_C@_0EP@FPPBJMBJ@PHYS?$CIpl?$CJ?3?5?$CFs?0?5air?5?$CFd?0?5floor?3?5?$CI?$CFf@ 0056faf0     physics.obj
 0002:00008b40       ??_C@_0FA@KGAIIKF@PHYS?$CIcam?$CJ?3?5?$CFs?0?5air?5?$CFd?0?5floor?3?5?$CI?$CF@ 0056fb40     physics.obj
 0002:00008b90       ??_C@_08DFDFCNI@phystest?$AA@ 0056fb90     physics.obj
 0002:00008b9c       ??_C@_07HDFBBPBE@maxroll?$AA@ 0056fb9c     physics.obj
 0002:00008ba4       ??_C@_0L@BGIDLBFG@straferoll?$AA@ 0056fba4     physics.obj
 0002:00008bb0       ??_C@_08GFNMAHFA@faderoll?$AA@ 0056fbb0     physics.obj
 0002:00008bbc       ??_C@_0L@FHGPNDAH@floatspeed?$AA@ 0056fbbc     physics.obj
 0002:00008bc8       ??_C@_0L@ICIFFIHD@physinterp?$AA@ 0056fbc8     physics.obj
 0002:00008bd4       ??_C@_06JMLBDJHL@attack?$AA@ 0056fbd4     physics.obj
 0002:00008bdc       ??_C@_0DB@PPNKBMFI@can?8t?5find?5entity?5spawn?5spot?$CB?5?$CI?$CF@ 0056fbdc     physics.obj
 0002:00008c10       ??_C@_04NJIOBGCF@jump?$AA@ 0056fc10     physics.obj
 0002:00008c18       ??_C@_05DHJDAOHK@right?$AA@ 0056fc18     physics.obj
 0002:00008c20       ??_C@_04GOOOJOPP@left?$AA@ 0056fc20     physics.obj
 0002:00008c28       ??_C@_07CJMBKHEI@forward?$AA@ 0056fc28     physics.obj
 0002:00008c30       ??_C@_08DBMDPFJD@backward?$AA@ 0056fc30     physics.obj
 0002:00008c3c       ??_C@_0O@GOMBIGFP@maxpvsblocker?$AA@ 0056fc3c     pvs.obj
 0002:00008c4c       ??_C@_0M@MDAJDJME@pvsleafsize?$AA@ 0056fc4c     pvs.obj
 0002:00008c58       ??_C@_0L@BHAOAGJP@pvsthreads?$AA@ 0056fc58     pvs.obj
 0002:00008c64       ??_C@_0CH@FAJPFCNG@?$CFd?$CF?$CF?5?9?5?$CFd?5of?5?$CFd?5view?5cells?5?$CI?$CFd?5u@ 0056fc64     pvs.obj
 0002:00008c8c       ??_C@_0CF@LNDJIBDD@locked?5view?5cell?5at?5?$CF?41f?0?5?$CF?41f?0?5@ 0056fc8c     pvs.obj
 0002:00008cb4       ??_C@_07DPLEAMIN@lockpvs?$AA@ 0056fcb4     pvs.obj
 0002:00008cbc       ??_C@_03OBOKLOKI@pvs?$AA@  0056fcbc     pvs.obj
 0002:00008cc0       ??_C@_08GNCIKCFN@waterpvs?$AA@ 0056fcc0     pvs.obj
 0002:00008ccc       ??_C@_08FNDJHBJN@clearpvs?$AA@ 0056fccc     pvs.obj
 0002:00008cd8       ??_C@_0DP@LCFLEMC@generated?5test?5view?5cell?5of?5size@ 0056fcd8     pvs.obj
 0002:00008d18       ??_C@_07NFPMHLJF@testpvs?$AA@ 0056fd18     pvs.obj
 0002:00008d20       ??_C@_0BJ@MANDPFBI@map?5is?5too?5large?5for?5PVS?$AA@ 0056fd20     pvs.obj
 0002:00008d3c       ??_C@_0BO@IPAPMGLG@generating?5PVS?5?$CIesc?5to?5abort?$CJ?$AA@ 0056fd3c     pvs.obj
 0002:00008d5c       ??_C@_0BD@KEEBJBLG@finding?5view?5cells?$AA@ 0056fd5c     pvs.obj
 0002:00008d70       ??_C@_0BB@BNDBHBCK@creating?5threads?$AA@ 0056fd70     pvs.obj
 0002:00008d84       ??_C@_0P@HBCCEHFN@genpvs?5aborted?$AA@ 0056fd84     pvs.obj
 0002:00008d98       ??_C@_0FC@PFNMEHGM@generated?5?$CFd?5unique?5view?5cells?5t@ 0056fd98     pvs.obj
 0002:00008dec       ??_C@_06GNOIJLGE@genpvs?$AA@ 0056fdec     pvs.obj
 0002:00008df4       ??_C@_0DJ@BMJNKCHA@?$CFd?5unique?5view?5cells?5totaling?5?$CF?4@ 0056fdf4     pvs.obj
 0002:00008e30       ??_C@_08LHODJJK@pvsstats?$AA@ 0056fe30     pvs.obj
 0002:00008e3c       ??_C@_0L@HEEMIGIK@mapversion?$AA@ 0056fe3c     world.obj
 0002:00008e48       ??_C@_08MNAKLCJO@mapscale?$AA@ 0056fe48     world.obj
 0002:00008e54       ??_C@_07EOGAIPJO@mapsize?$AA@ 0056fe54     world.obj
 0002:00008e5c       ??_C@_0BI@DJPFJNDC@Untitled?5Map?5by?5Unknown?$AA@ 0056fe5c     world.obj
 0002:00008e74       ??_C@_08PNHIDNCK@maptitle?$AA@ 0056fe74     world.obj
 0002:00008e80       ??_C@_0M@MJOBAMJH@octaentsize?$AA@ 0056fe80     world.obj
 0002:00008e8c       ??_C@_0N@CEOKPFKE@entselradius?$AA@ 0056fe8c     world.obj
 0002:00008e9c       ??_C@_02LMMGGCAJ@?3?5?$AA@ 0056fe9c     world.obj
 0002:00008ea0       ??_C@_0L@DNBKKPAE@entediting?$AA@ 0056fea0     world.obj
 0002:00008eac       ??_C@_0N@NGHHLMAK@attachradius?$AA@ 0056feac     world.obj
 0002:00008ebc       ??_C@_0L@FAFMCKKN@entselsnap?$AA@ 0056febc     world.obj
 0002:00008ec8       ??_C@_0BA@GAOFJCDA@entmovingshadow?$AA@ 0056fec8     world.obj
 0002:00008ed8       ??_C@_0O@COPLFDID@showentradius?$AA@ 0056fed8     world.obj
 0002:00008ee8       ??_C@_0L@KKHFHLHM@entitysurf?$AA@ 0056fee8     world.obj
 0002:00008ef4       ??_C@_09NMIKLLOH@entmoving?$AA@ 0056fef4     world.obj
 0002:00008f00       ??_C@_0BA@LJIFFCEL@entautoviewdist?$AA@ 0056ff00     world.obj
 0002:00008f10       ??_C@_0M@JJCILCOM@entautoview?$AA@ 0056ff10     world.obj
 0002:00008f1c       ??_C@_07EGFHLFCJ@entflip?$AA@ 0056ff1c     world.obj
 0002:00008f24       ??_C@_09NBOPGIGL@entrotate?$AA@ 0056ff24     world.obj
 0002:00008f30       ??_C@_07BHEMHBOB@entpush?$AA@ 0056ff30     world.obj
 0002:00008f38       ??_C@_0BJ@IDBMAGIP@unknown?5entity?5type?5?$CC?$CFs?$CC?$AA@ 0056ff38     world.obj
 0002:00008f54       ??_C@_07IINMLKFH@entdrop?$AA@ 0056ff54     world.obj
 0002:00008f5c       ??_C@_09KIAEKOLE@attachent?$AA@ 0056ff5c     world.obj
 0002:00008f68       ??_C@_0BC@NHAFOOKN@too?5many?5entities?$AA@ 0056ff68     world.obj
 0002:00008f7c       ??_C@_06LBNNDJFB@siiiii?$AA@ 0056ff7c     world.obj
 0002:00008f84       ??_C@_06KPDDOIOG@newent?$AA@ 0056ff84     world.obj
 0002:00008f8c       ??_C@_06BMHDBBDL@delent?$AA@ 0056ff8c     world.obj
 0002:00008f94       ??_C@_07LABJEPHM@dropent?$AA@ 0056ff94     world.obj
 0002:00008f9c       ??_C@_07FODHLGAB@entcopy?$AA@ 0056ff9c     world.obj
 0002:00008fa4       ??_C@_08EPMMGKCL@entpaste?$AA@ 0056ffa4     world.obj
 0002:00008fb0       ??_C@_0BC@EEEKBGBA@?$CFs?5?$CFd?5?$CFd?5?$CFd?5?$CFd?5?$CFd?$AA@ 0056ffb0     world.obj
 0002:00008fc4       ??_C@_0L@ILCCBKNP@enthavesel?$AA@ 0056ffc4     world.obj
 0002:00008fd0       ??_C@_01KGKMHCOC@e?$AA@    0056ffd0     world.obj
 0002:00008fd4       ??_C@_09EDEBJNEI@entselect?$AA@ 0056ffd4     world.obj
 0002:00008fe0       ??_C@_07BKNPHONE@entloop?$AA@ 0056ffe0     world.obj
 0002:00008fe8       ??_C@_05LJBKOLPA@insel?$AA@ 0056ffe8     world.obj
 0002:00008ff0       ??_C@_06CGAPBBGF@entget?$AA@ 0056fff0     world.obj
 0002:00008ff8       ??_C@_08MGADGENE@entindex?$AA@ 0056fff8     world.obj
 0002:00009004       ??_C@_06PJHENBKN@entset?$AA@ 00570004     world.obj
 0002:0000900c       ??_C@_0L@FJPBDINI@nearestent?$AA@ 0057000c     world.obj
 0002:00009018       ??_C@_02DIPDJCGP@sN?$AA@   00570018     world.obj
 0002:0000901c       ??_C@_07BPPCKIIN@enttype?$AA@ 0057001c     world.obj
 0002:00009024       ??_C@_03LBGJAKEO@iiN?$AA@  00570024     world.obj
 0002:00009028       ??_C@_07EHBCEEOI@entattr?$AA@ 00570028     world.obj
 0002:00009030       ??_C@_0CB@MNEFMKAM@newmap?5only?5allowed?5in?5edit?5mode@ 00570030     world.obj
 0002:00009054       ??_C@_0BO@JFIDHGKH@data?1default_map_settings?4cfg?$AA@ 00570054     world.obj
 0002:00009074       ??_C@_0CF@HMNMOLON@mapenlarge?5only?5allowed?5in?5edit?5@ 00570074     world.obj
 0002:0000909c       ??_C@_0BG@BGNDFEGH@shrunk?5map?5to?5size?5?$CFd?$AA@ 0057009c     world.obj
 0002:000090b4       ??_C@_06FLHECDA@newmap?$AA@ 005700b4     world.obj
 0002:000090bc       ??_C@_0L@MNHMBLFM@mapenlarge?$AA@ 005700bc     world.obj
 0002:000090c8       ??_C@_09GFJBMKDM@shrinkmap?$AA@ 005700c8     world.obj
 0002:000090d4       ??_C@_07KMNEBLH@mapname?$AA@ 005700d4     world.obj
 0002:000090dc       ??_C@_04LMCBDCAL@?4ogz?$AA@ 005700dc     worldio.obj
 0002:000090e4       ??_C@_04BHIIPFEC@base?$AA@ 005700e4     worldio.obj
 0002:000090ec       ??_C@_07DLHDFGAF@base?1?$CFs?$AA@ 005700ec     worldio.obj
 0002:000090f4       ??_C@_0BA@KPAAOGAI@packages?1?$CFs?4ogz?$AA@ 005700f4     worldio.obj
 0002:00009104       ??_C@_0DH@FOANNPDH@map?5?$CFs?5requires?5a?5newer?5version?5@ 00570104     worldio.obj
 0002:0000913c       ??_C@_03JABFMKFJ@fps?$AA@  0057013c     worldio.obj
 0002:00009140       ??_C@_0FB@IIOHCFCG@WARNING?3?5loading?5map?5from?5?$CFs?5gam@ 00570140     worldio.obj
 0002:00009194       ??_C@_07EHFJMLKG@savebak?$AA@ 00570194     worldio.obj
 0002:0000919c       ??_C@_0BA@HMFKMAL@packages?1?$CFs?4BAK?$AA@ 0057019c     worldio.obj
 0002:000091ac       ??_C@_0BD@JOHJEEGO@packages?1?$CFs_?$CFd?4BAK?$AA@ 005701ac     worldio.obj
 0002:000091c0       ??_C@_0BD@DAEHBEEN@packages?1?$CFs?1?$CFs?4cfg?$AA@ 005701c0     worldio.obj
 0002:000091d4       ??_C@_0BA@HONLMPND@packages?1?$CFs?4jpg?$AA@ 005701d4     worldio.obj
 0002:000091e4       ??_C@_08GDFANMDE@untitled?$AA@ 005701e4     worldio.obj
 0002:000091f0       ??_C@_0L@JPFAEGAJ@mapcfgname?$AA@ 005701f0     worldio.obj
 0002:000091fc       ??_C@_0BB@NIEEEFMB@saving?5octree?4?4?4?$AA@ 005701fc     worldio.obj
 0002:00009210       ??_C@_07GBMLPPPL@dbgvars?$AA@ 00570210     worldio.obj
 0002:00009218       ??_C@_0BK@MMNKLJGP@could?5not?5write?5map?5to?5?$CFs?$AA@ 00570218     worldio.obj
 0002:00009234       ??_C@_0O@CMLJIOPC@saving?5map?4?4?4?$AA@ 00570234     worldio.obj
 0002:00009244       ??_C@_0BB@KPHOBAIL@wrote?5var?5?$CFs?3?5?$CFd?$AA@ 00570244     worldio.obj
 0002:00009258       ??_C@_0BC@BOOOJGJN@wrote?5fvar?5?$CFs?3?5?$CFf?$AA@ 00570258     worldio.obj
 0002:0000926c       ??_C@_0BC@LNOAOKGF@wrote?5svar?5?$CFs?3?5?$CFs?$AA@ 0057026c     worldio.obj
 0002:00009280       ??_C@_0O@LFOANLBN@wrote?5?$CFd?5vars?$AA@ 00570280     worldio.obj
 0002:00009290       ??_C@_0BE@GJJEGFAD@saving?5lightmaps?4?4?4?$AA@ 00570290     worldio.obj
 0002:000092a4       ??_C@_0O@HDMDDLAP@saving?5pvs?4?4?4?$AA@ 005702a4     worldio.obj
 0002:000092b4       ??_C@_0BD@OECEMAOD@saving?5blendmap?4?4?4?$AA@ 005702b4     worldio.obj
 0002:000092c8       ??_C@_0BC@GPFGLKNK@wrote?5map?5file?5?$CFs?$AA@ 005702c8     worldio.obj
 0002:000092dc       ??_C@_0BG@IENFPLMB@could?5not?5read?5map?5?$CFs?$AA@ 005702dc     worldio.obj
 0002:000092f4       ??_C@_0L@IPBIFIDN@loading?4?4?4?$AA@ 005702f4     worldio.obj
 0002:00009300       ??_C@_0M@HBMJEING@watercolour?$AA@ 00570300     worldio.obj
 0002:0000930c       ??_C@_0BA@GKGPPIOF@waterfallcolour?$AA@ 0057030c     worldio.obj
 0002:0000931c       ??_C@_0L@FMCDBIPJ@lavacolour?$AA@ 0057031c     worldio.obj
 0002:00009328       ??_C@_0BC@DCHMDFAI@clearing?5world?4?4?4?$AA@ 00570328     worldio.obj
 0002:0000933c       ??_C@_0BA@IEMFJHFJ@loading?5vars?4?4?4?$AA@ 0057033c     worldio.obj
 0002:0000934c       ??_C@_0BA@JGIEOOMJ@read?5var?5?$CFs?3?5?$CFd?$AA@ 0057034c     worldio.obj
 0002:0000935c       ??_C@_0BB@IGAFEMNP@read?5fvar?5?$CFs?3?5?$CFf?$AA@ 0057035c     worldio.obj
 0002:00009370       ??_C@_0BB@CFALDACH@read?5svar?5?$CFs?3?5?$CFs?$AA@ 00570370     worldio.obj
 0002:00009384       ??_C@_0N@DONJBGAL@read?5?$CFd?5vars?$AA@ 00570384     worldio.obj
 0002:00009394       ??_C@_0BE@CJBBIHIP@loading?5entities?4?4?4?$AA@ 00570394     worldio.obj
 0002:000093a8       ??_C@_0EB@OABDHGPF@warning?3?5ent?5outside?5of?5world?3?5e@ 005703a8     worldio.obj
 0002:000093ec       ??_C@_0DG@HBAGAPFA@warning?3?5mapmodel?5ent?5?$CIindex?5?$CFd?$CJ@ 005703ec     worldio.obj
 0002:00009424       ??_C@_0BN@DDINLBGK@warning?3?5map?5has?5?$CFd?5entities?$AA@ 00570424     worldio.obj
 0002:00009444       ??_C@_0BB@BDCJLDLJ@loading?5slots?4?4?4?$AA@ 00570444     worldio.obj
 0002:00009458       ??_C@_0BC@ODCPBFJJ@loading?5octree?4?4?4?$AA@ 00570458     worldio.obj
 0002:0000946c       ??_C@_0P@PBJEKMIN@garbage?5in?5map?$AA@ 0057046c     worldio.obj
 0002:0000947c       ??_C@_0O@CMLICMCJ@validating?4?4?4?$AA@ 0057047c     worldio.obj
 0002:0000948c       ??_C@_0BF@GLOAPPLE@loading?5lightmaps?4?4?4?$AA@ 0057048c     worldio.obj
 0002:000094a4       ??_C@_0BL@HCIKLEFF@read?5map?5?$CFs?5?$CI?$CF?41f?5seconds?$CJ?$AA@ 005704a4     worldio.obj
 0002:000094c0       ??_C@_02DKCKIIND@?$CFs?$AA@ 005704c0     worldio.obj
 0002:000094c4       ??_C@_07LGAMBAGK@savemap?$AA@ 005704c4     worldio.obj
 0002:000094cc       ??_C@_0P@CFANOFNA@savecurrentmap?$AA@ 005704cc     worldio.obj
 0002:000094dc       ??_C@_06LLFFKDIG@?$CFs?4obj?$AA@ 005704dc     worldio.obj
 0002:000094e4       ??_C@_01NOFIACDB@w?$AA@    005704e4     worldio.obj
 0002:000094e8       ??_C@_0BN@FNKFNDOC@?$CD?5obj?5file?5of?5Cube?52?5level?6?6?$AA@ 005704e8     worldio.obj
 0002:00009508       ??_C@_06FPKNBDEJ@?$CFs?4mtl?$AA@ 00570508     worldio.obj
 0002:00009510       ??_C@_0M@FOFCMCHJ@mtllib?5?$CFs?6?6?$AA@ 00570510     worldio.obj
 0002:0000951c       ??_C@_07CNIPEAIC@v?5?$CF?43f?5?$AA@ 0057051c     worldio.obj
 0002:00009524       ??_C@_05BPDBIHNG@v?5?$CFd?5?$AA@ 00570524     worldio.obj
 0002:0000952c       ??_C@_05FMONJPMD@?$CF?43f?5?$AA@ 0057052c     worldio.obj
 0002:00009534       ??_C@_03JDANDILB@?$CFd?5?$AA@ 00570534     worldio.obj
 0002:00009538       ??_C@_05DDIGFDOL@?$CF?43f?6?$AA@ 00570538     worldio.obj
 0002:00009540       ??_C@_03PMGGPEJJ@?$CFd?6?$AA@ 00570540     worldio.obj
 0002:00009544       ??_C@_01EEMJAFIK@?6?$AA@   00570544     worldio.obj
 0002:00009548       ??_C@_0O@DGLNHHKK@vt?5?$CF?46f?5?$CF?46f?6?$AA@ 00570548     worldio.obj
 0002:00009558       ??_C@_09BEFLJFDL@g?5slot?$CFd?6?$AA@ 00570558     worldio.obj
 0002:00009564       ??_C@_0BA@DLBOBIPD@usemtl?5slot?$CFd?6?6?$AA@ 00570564     worldio.obj
 0002:00009574       ??_C@_06FBLLMJNF@?5?$CFd?1?$CFd?$AA@ 00570574     worldio.obj
 0002:0000957c       ??_C@_0BN@HOOKAPAP@?$CD?5mtl?5file?5of?5Cube?52?5level?6?6?$AA@ 0057057c     worldio.obj
 0002:0000959c       ??_C@_0P@EAFAIPME@newmtl?5slot?$CFd?6?$AA@ 0057059c     worldio.obj
 0002:000095ac       ??_C@_08GFNEJDPJ@packages?$AA@ 005705ac     worldio.obj
 0002:000095b8       ??_C@_0L@GCKEPKJJ@map_Kd?5?$CFs?6?$AA@ 005705b8     worldio.obj
 0002:000095c4       ??_C@_08LAKBGEK@writeobj?$AA@ 005705c4     worldio.obj
 0002:000095e0       ??_C@_0CH@HDLCKFDP@operation?5not?5available?5in?5multi@ 005705e0     client.obj
 0002:00009608       ??_C@_04HCCHHEEF@rate?$AA@ 00570608     client.obj
 0002:00009610       ??_C@_0BC@HEEPLBOG@throttle_interval?$AA@ 00570610     client.obj
 0002:00009624       ??_C@_0P@GOIDANDD@throttle_accel?$AA@ 00570624     client.obj
 0002:00009634       ??_C@_0P@LBAOGJCA@throttle_decel?$AA@ 00570634     client.obj
 0002:00009644       ??_C@_02BMCGDAIG@bb?$AA@   00570644     client.obj
 0002:00009648       ??_C@_0M@NMIICMBL@isconnected?$AA@ 00570648     client.obj
 0002:00009654       ??_C@_0M@HMAMCNCD@connectedip?$AA@ 00570654     client.obj
 0002:00009660       ??_C@_0O@ICNKOFOO@connectedport?$AA@ 00570660     client.obj
 0002:00009670       ??_C@_0M@MLOKCMI@connectname?$AA@ 00570670     client.obj
 0002:0000967c       ??_C@_0M@HHBCDLEF@connectport?$AA@ 0057067c     client.obj
 0002:00009688       ??_C@_0BM@JCJFMNM@aborting?5connection?5attempt?$AA@ 00570688     client.obj
 0002:000096a4       ??_C@_0BP@GKFBIINM@attempting?5to?5connect?5to?5?$CFs?3?$CFd?$AA@ 005706a4     client.obj
 0002:000096c4       ??_C@_0BO@NMCAKEIN@?$AM3could?5not?5resolve?5server?5?$CFs?$AA@ 005706c4     client.obj
 0002:000096e4       ??_C@_0BP@DBNKPJGO@attempting?5to?5connect?5over?5LAN?$AA@ 005706e4     client.obj
 0002:00009704       ??_C@_0BO@FMIGNLBM@?$AM3could?5not?5connect?5to?5server?$AA@ 00570704     client.obj
 0002:00009724       ??_C@_0BH@PDLLCBCC@no?5previous?5connection?$AA@ 00570724     client.obj
 0002:0000973c       ??_C@_0N@GGGDBMDO@disconnected?$AA@ 0057073c     client.obj
 0002:0000974c       ??_C@_0BM@KHAAGKOC@attempting?5to?5disconnect?4?4?4?$AA@ 0057074c     client.obj
 0002:00009768       ??_C@_0O@GLMIBBEG@not?5connected?$AA@ 00570768     client.obj
 0002:00009778       ??_C@_03OECFPFAL@sis?$AA@  00570778     client.obj
 0002:0000977c       ??_C@_07KAIBNCHO@connect?$AA@ 0057077c     client.obj
 0002:00009784       ??_C@_02EDKKPMHH@is?$AA@   00570784     client.obj
 0002:00009788       ??_C@_0L@FOGOINHM@lanconnect?$AA@ 00570788     client.obj
 0002:00009794       ??_C@_09MCGBPECP@reconnect?$AA@ 00570794     client.obj
 0002:000097a0       ??_C@_01OJONOECF@b?$AA@    005707a0     client.obj
 0002:000097a4       ??_C@_0L@KKPFIJOL@disconnect?$AA@ 005707a4     client.obj
 0002:000097b0       ??_C@_0N@EJBMDGIO@localconnect?$AA@ 005707b0     client.obj
 0002:000097c0       ??_C@_0BA@KLJNCDMD@localdisconnect?$AA@ 005707c0     client.obj
 0002:000097d0       ??_C@_0O@JBDOGIMF@end?5of?5packet?$AA@ 005707d0     server.obj
 0002:000097e0       ??_C@_0BI@MOGGJBFG@server?5is?5in?5local?5mode?$AA@ 005707e0     server.obj
 0002:000097f8       ??_C@_0O@DDBOENOP@kicked?1banned?$AA@ 005707f8     server.obj
 0002:00009808       ??_C@_0O@CHKFLBKJ@message?5error?$AA@ 00570808     server.obj
 0002:00009818       ??_C@_0N@KLGGLKFD@ip?5is?5banned?$AA@ 00570818     server.obj
 0002:00009828       ??_C@_0BK@CIAFDEPO@server?5is?5in?5private?5mode?$AA@ 00570828     server.obj
 0002:00009844       ??_C@_0M@GNAEPDCL@server?5FULL?$AA@ 00570844     server.obj
 0002:00009850       ??_C@_0BF@BGNPCDGL@connection?5timed?5out?$AA@ 00570850     server.obj
 0002:00009868       ??_C@_08CLAAFLMB@overflow?$AA@ 00570868     server.obj
 0002:00009874       ??_C@_0BB@EEJBAKNE@invalid?5password?$AA@ 00570874     server.obj
 0002:00009888       ??_C@_0CF@KNOLEFJL@client?5?$CI?$CFs?$CJ?5disconnected?5because@ 00570888     server.obj
 0002:000098b0       ??_C@_0BJ@KKAFHJB@client?5?$CI?$CFs?$CJ?5disconnected?$AA@ 005708b0     server.obj
 0002:000098cc       ??_C@_0N@LIIFAPFN@updatemaster?$AA@ 005708cc     server.obj
 0002:000098dc       ??_C@_0L@LCFAMLEL@mastername?$AA@ 005708dc     server.obj
 0002:000098e8       ??_C@_0L@MJPMFCMG@masterport?$AA@ 005708e8     server.obj
 0002:000098f4       ??_C@_07HHDHJGJJ@failreg?$AA@ 005708f4     server.obj
 0002:000098fc       ??_C@_0CG@HCBAKCCK@master?5server?5registration?5faile@ 005708fc     server.obj
 0002:00009924       ??_C@_07PDDGKFLM@succreg?$AA@ 00570924     server.obj
 0002:0000992c       ??_C@_0CF@GLNKPO@master?5server?5registration?5succe@ 0057092c     server.obj
 0002:00009954       ??_C@_0L@JKCONGEA@maxclients?$AA@ 00570954     server.obj
 0002:00009960       ??_C@_0N@BMFEHACO@serveruprate?$AA@ 00570960     server.obj
 0002:00009970       ??_C@_08BGICIMDD@serverip?$AA@ 00570970     server.obj
 0002:0000997c       ??_C@_0L@GJMJAOEP@serverport?$AA@ 0057097c     server.obj
 0002:00009988       ??_C@_0M@EKFGIGOH@regserv?5?$CFd?6?$AA@ 00570988     server.obj
 0002:00009994       ??_C@_0DH@MGMOGNNH@status?3?5?$CFd?5remote?5clients?0?5?$CF?41f?5@ 00570994     server.obj
 0002:000099cc       ??_C@_07CIFAGBMG@unknown?$AA@ 005709cc     server.obj
 0002:000099d4       ??_C@_0BG@JKBEKOJB@client?5connected?5?$CI?$CFs?$CJ?$AA@ 005709d4     server.obj
 0002:000099ec       ??_C@_0BJ@GPGBNPEE@disconnected?5client?5?$CI?$CFs?$CJ?$AA@ 005709ec     server.obj
 0002:00009a08       ??_C@_05IDKHKMLA@local?$AA@ 00570a08     server.obj
 0002:00009a10       ??_C@_0N@JLKOECML@Hide?5Console?$AA@ 00570a10     server.obj
 0002:00009a20       ??_C@_0N@FDLPMBEM@Show?5Console?$AA@ 00570a20     server.obj
 0002:00009a30       ??_C@_0CE@IDJHLKLH@failed?5getting?5application?5insta@ 00570a30     server.obj
 0002:00009a54       ??_C@_0BE@KGOJPMBF@failed?5loading?5icon?$AA@ 00570a54     server.obj
 0002:00009a68       ??_C@_0BL@CLLFFBHJ@failed?5creating?5popup?5menu?$AA@ 00570a68     server.obj
 0002:00009a84       ??_C@_0N@EOACLHMJ@Open?5Console?$AA@ 00570a84     server.obj
 0002:00009a94       ??_C@_04LBABLPF@Exit?$AA@  00570a94     server.obj
 0002:00009a9c       ??_C@_0CA@JFMJBEEE@failed?5registering?5window?5class?$AA@ 00570a9c     server.obj
 0002:00009abc       ??_C@_0BH@FAPGBOMK@failed?5creating?5window?$AA@ 00570abc     server.obj
 0002:00009ad4       ??_C@_0BN@DJLCKMMG@failed?5adding?5to?5system?5tray?$AA@ 00570ad4     server.obj
 0002:00009af4       ??_C@_0DB@CMNGHKAG@dedicated?5server?5started?0?5waitin@ 00570af4     server.obj
 0002:00009b28       ??_C@_0CA@JDMEILNB@WARNING?3?5server?5ip?5not?5resolved?$AA@ 00570b28     server.obj
 0002:00009b48       ??_C@_0BN@JBKHAIPE@could?5not?5create?5server?5host?$AA@ 00570b48     server.obj
 0002:00009b68       ??_C@_0CE@OEAOIBIG@could?5not?5create?5server?5info?5soc@ 00570b68     server.obj
 0002:00009b8c       ??_C@_0DB@KOAJBNHP@WARNING?3?5could?5not?5create?5LAN?5se@ 00570b8c     server.obj
 0002:00009bc0       ??_C@_0BL@PKKIKBDH@Cube?52?3?5Sauerbraten?5server?$AA@ 00570bc0     server.obj
 0002:00009bdc       ??_C@_0BA@KDOHKEDP@server?9init?4cfg?$AA@ 00570bdc     server.obj
 0002:00009bec       ??_C@_0BG@HADKKDCA@listen?5server?5started?$AA@ 00570bec     server.obj
 0002:00009c04       ??_C@_0CB@KNJNHDHB@listen?5server?5is?5already?5running@ 00570c04     server.obj
 0002:00009c28       ??_C@_0BP@BFDIOKG@?5and?5listed?5with?5master?5server?$AA@ 00570c28     server.obj
 0002:00009c48       ??_C@_0CH@LIGKGCFD@listen?5server?5started?5for?5?$CFd?5cli@ 00570c48     server.obj
 0002:00009c70       ??_C@_0BC@BHCJIDBA@startlistenserver?$AA@ 00570c70     server.obj
 0002:00009c84       ??_C@_0BN@FDPFGMFL@listen?5server?5is?5not?5running?$AA@ 00570c84     server.obj
 0002:00009ca4       ??_C@_0BG@LPJCAGGH@listen?5server?5stopped?$AA@ 00570ca4     server.obj
 0002:00009cbc       ??_C@_0BB@IHBPAJFB@stoplistenserver?$AA@ 00570cbc     server.obj
 0002:00009cd0       ??_C@_0BP@GPILIJPG@resolving?5?$CFs?4?4?4?5?$CIesc?5to?5abort?$CJ?$AA@ 00570cd0     serverbrowser.obj
 0002:00009cf0       ??_C@_0CD@MKLNNOMI@connecting?5to?5?$CFs?4?4?4?5?$CIesc?5to?5abor@ 00570cf0     serverbrowser.obj
 0002:00009d14       ??_C@_09JEPAOCCD@searchlan?$AA@ 00570d14     serverbrowser.obj
 0002:00009d20       ??_C@_0N@KANIKAHK@servpingrate?$AA@ 00570d20     serverbrowser.obj
 0002:00009d30       ??_C@_0O@KEEFACIB@servpingdecay?$AA@ 00570d30     serverbrowser.obj
 0002:00009d40       ??_C@_0N@CJHGHGFN@maxservpings?$AA@ 00570d40     serverbrowser.obj
 0002:00009d50       ??_C@_0M@NPJHBCLI@sortservers?$AA@ 00570d50     serverbrowser.obj
 0002:00009d5c       ??_C@_0BA@DAELNEIG@autosortservers?$AA@ 00570d5c     serverbrowser.obj
 0002:00009d6c       ??_C@_0BC@OFAJGJI@autoupdateservers?$AA@ 00570d6c     serverbrowser.obj
 0002:00009d80       ??_C@_0BA@BAAFLNKM@connectselected?$AA@ 00570d80     serverbrowser.obj
 0002:00009d90       ??_C@_0CN@DHOIFNKG@retrieving?5servers?5from?5?$CFs?4?4?4?5?$CIe@ 00570d90     serverbrowser.obj
 0002:00009dc0       ??_C@_05HFLEKDDF@list?6?$AA@ 00570dc0     serverbrowser.obj
 0002:00009dc8       ??_C@_0BL@EGCJNHEC@master?5server?5not?5replying?$AA@ 00570dc8     serverbrowser.obj
 0002:00009de4       ??_C@_09GMJEIMCB@addserver?$AA@ 00570de4     serverbrowser.obj
 0002:00009df0       ??_C@_0L@HBANMPCP@keepserver?$AA@ 00570df0     serverbrowser.obj
 0002:00009dfc       ??_C@_0N@DLKPENKN@clearservers?$AA@ 00570dfc     serverbrowser.obj
 0002:00009e0c       ??_C@_0BB@MIFKGAAB@updatefrommaster?$AA@ 00570e0c     serverbrowser.obj
 0002:00009e20       ??_C@_0M@CHHILCPK@initservers?$AA@ 00570e20     serverbrowser.obj
 0002:00009e2c       ??_C@_04HDOCAJNK@?$CFs?$CFs?$AA@ 00570e2c     3dgui.obj
 0002:00009e34       ??_C@_01KDCPPGHE@r?$AA@    00570e34     3dgui.obj
 0002:00009e38       ??_C@_08GEIOEOPC@textlist?$AA@ 00570e38     3dgui.obj
 0002:00009e44       ??_C@_02KEGNLNML@?0?5?$AA@ 00570e44     3dgui.obj
 0002:00009e48       ??_C@_08JDCABD@textshow?$AA@ 00570e48     3dgui.obj
 0002:00009e54       ??_C@_02OCDGCAAK@si?$AA@   00570e54     3dgui.obj
 0002:00009e58       ??_C@_09CIMFNMCF@textfocus?$AA@ 00570e58     3dgui.obj
 0002:00009e64       ??_C@_08GMBLFJKP@textprev?$AA@ 00570e64     3dgui.obj
 0002:00009e70       ??_C@_08DGDFKOHL@textmode?$AA@ 00570e70     3dgui.obj
 0002:00009e7c       ??_C@_08BGJIIHLF@textsave?$AA@ 00570e7c     3dgui.obj
 0002:00009e88       ??_C@_08BEIFHEGB@textload?$AA@ 00570e88     3dgui.obj
 0002:00009e94       ??_C@_03PFJENDKN@sss?$AA@  00570e94     3dgui.obj
 0002:00009e98       ??_C@_08CAAINPJN@textinit?$AA@ 00570e98     3dgui.obj
 0002:00009ea4       ??_C@_08HEFNEGOL@textcopy?$AA@ 00570ea4     3dgui.obj
 0002:00009eb0       ??_C@_0N@HPPJKNOE@?$CDpastebuffer?$AA@ 00570eb0     3dgui.obj
 0002:00009ec0       ??_C@_09PDJALLN@textpaste?$AA@ 00570ec0     3dgui.obj
 0002:00009ecc       ??_C@_08FAMCCLAE@textmark?$AA@ 00570ecc     3dgui.obj
 0002:00009ed8       ??_C@_0O@HOILJEOE@textselectall?$AA@ 00570ed8     3dgui.obj
 0002:00009ee8       ??_C@_09BIPHFCHH@textclear?$AA@ 00570ee8     3dgui.obj
 0002:00009ef4       ??_C@_0BA@KFJPHIDP@textcurrentline?$AA@ 00570ef4     3dgui.obj
 0002:00009f04       ??_C@_08JMBDEHCN@textexec?$AA@ 00570f04     3dgui.obj
 0002:00009f10       ??_C@_0L@NOHENLJA@guiautotab?$AA@ 00570f10     3dgui.obj
 0002:00009f1c       ??_C@_0M@BMOCMIOO@guiclicktab?$AA@ 00570f1c     3dgui.obj
 0002:00009f28       ??_C@_09KNCCHAJA@guifadein?$AA@ 00570f28     3dgui.obj
 0002:00009f34       ??_C@_0BE@OCDHCKMA@data?1guioverlay?4png?$AA@ 00570f34     3dgui.obj
 0002:00009f48       ??_C@_0BD@OCEHMHDI@data?1guislider?4png?$AA@ 00570f48     3dgui.obj
 0002:00009f5c       ??_C@_04GNPKBLNA@?4jpg?$AA@ 00570f5c     3dgui.obj
 0002:00009f64       ??_C@_0BE@FFOAAHDP@packages?1icons?1?$CFs?$CFs?$AA@ 00570f64     3dgui.obj
 0002:00009f78       ??_C@_0BB@EDCBHHBL@data?1guiskin?4png?$AA@ 00570f78     3dgui.obj
 0002:00009f8c       ??_C@_0M@GACLHFED@guipushdist?$AA@ 00570f8c     3dgui.obj
 0002:00009f98       ??_C@_01CLKCMJKC@?5?$AA@   00570f98     3dgui.obj
 0002:00009f9c       ??_C@_07CFIJHJBL@guisens?$AA@ 00570f9c     3dgui.obj
 0002:00009fa4       ??_C@_09EFNNMAAB@guifollow?$AA@ 00570fa4     3dgui.obj
 0002:00009fb0       ??_C@_05KKOCJNF@gui2d?$AA@ 00570fb0     3dgui.obj
 0002:00009fbc       ??_7gui@@6B@               00570fbc     3dgui.obj
 0002:0000a02c       ??_7g3d_gui@@6B@           0057102c     3dgui.obj
 0002:0000a098       ?tc@?1??rect_@gui@@QAEXMMMMH_N@Z@4QAY01$$CBMA 00571098     3dgui.obj
 0002:0000a0b8       ??_C@_05HLMHLIGP@blobs?$AA@ 005710b8     blob.obj
 0002:0000a0c0       ??_C@_0O@KKKALFLC@blobintensity?$AA@ 005710c0     blob.obj
 0002:0000a0d0       ??_C@_0L@JJCLAMCA@blobheight?$AA@ 005710d0     blob.obj
 0002:0000a0dc       ??_C@_0M@ODADEJKM@blobfadelow?$AA@ 005710dc     blob.obj
 0002:0000a0e8       ??_C@_0N@LOGKFHEJ@blobfadehigh?$AA@ 005710e8     blob.obj
 0002:0000a0f8       ??_C@_0L@PGFNFHOO@blobmargin?$AA@ 005710f8     blob.obj
 0002:0000a104       ??_C@_07EBOGAFFH@dbgblob?$AA@ 00571104     blob.obj
 0002:0000a10c       ??_C@_0N@HHHENNCM@blobstattris?$AA@ 0057110c     blob.obj
 0002:0000a11c       ??_C@_0M@NJCLJIDG@blobdyntris?$AA@ 0057111c     blob.obj
 0002:0000a128       ??_C@_0CC@PMNAHPJK@?$DMgrey?$DOpackages?1particles?1blob?4pn@ 00571128     blob.obj
 0002:0000a14c       ??_C@_0N@CFJCLMH@maxdecaltris?$AA@ 0057114c     decal.obj
 0002:0000a15c       ??_C@_09BMKCDGNF@decalfade?$AA@ 0057115c     decal.obj
 0002:0000a168       ??_C@_06MHMMBMIA@dbgdec?$AA@ 00571168     decal.obj
 0002:0000a170       ??_C@_0BA@FFBIIFKG@overbrightdecal?$AA@ 00571170     decal.obj
 0002:0000a180       ??_C@_0L@KEFAEFO@T?5?0?5C?5?$EA?5Ca?$AA@ 00571180     decal.obj
 0002:0000a18c       ??_C@_0O@OAFPADAN@saturatedecal?$AA@ 0057118c     decal.obj
 0002:0000a19c       ??_C@_09GBGKBBIM@C?5?$CK?5T?5x?52?$AA@ 0057119c     decal.obj
 0002:0000a1a8       ??_C@_0CH@LANFJANA@tris?5?$DN?5?$CFd?0?5verts?5?$DN?5?$CFd?0?5total?5tri@ 005711a8     decal.obj
 0002:0000a1d0       ??_C@_0CE@JOENDLCK@?$DMgrey?$DOpackages?1particles?1scorch?4@ 005711d0     decal.obj
 0002:0000a1f4       ??_C@_0CD@MNLKHFAG@?$DMgrey?$DOpackages?1particles?1blood?4p@ 005711f4     decal.obj
 0002:0000a218       ??_C@_0CL@CPOEJEHB@?$DMgrey?$DO?$DMdecal?$DOpackages?1particles?1@ 00571218     decal.obj
 0002:0000a244       ??_C@_06FNIEFDBE@decals?$AA@ 00571244     decal.obj
 0002:0000a24c       ??_C@_0BB@CEPPFAON@maxdecaldistance?$AA@ 0057124c     decal.obj
 0002:0000a260       ??_C@_0M@FLMOCJAF@ffdynlights?$AA@ 00571260     dynlight.obj
 0002:0000a26c       ??_C@_0N@OOKIBFIK@maxdynlights?$AA@ 0057126c     dynlight.obj
 0002:0000a27c       ??_C@_0N@HLCHDLOH@dynlightdist?$AA@ 0057127c     dynlight.obj
 0002:0000a28c       ??_C@_0O@EFFIENC@dynlight?$CFdpos?$AA@ 0057128c     dynlight.obj
 0002:0000a29c       ??_C@_0BA@IKGBEEGE@dynlight?$CFdcolor?$AA@ 0057129c     dynlight.obj
 0002:0000a2ac       ??_C@_0BB@KILPAGDI@dynlight?$CFdoffset?$AA@ 005712ac     dynlight.obj
 0002:0000a2c0       ??_C@_09BDCGFFAM@glaresize?$AA@ 005712c0     glare.obj
 0002:0000a2cc       ??_C@_05MLGLEIEI@glare?$AA@ 005712cc     glare.obj
 0002:0000a2d4       ??_C@_09GJCBHJJG@blurglare?$AA@ 005712d4     glare.obj
 0002:0000a2e0       ??_C@_0P@EGENGGOD@blurglaresigma?$AA@ 005712e0     glare.obj
 0002:0000a2f0       ??_C@_0L@BONJDGDE@debugglare?$AA@ 005712f0     glare.obj
 0002:0000a2fc       ??_C@_0L@NDFGAGCM@glarescale?$AA@ 005712fc     glare.obj
 0002:0000a30c       ??_7glaretexture@@6B@      0057130c     glare.obj
 0002:0000a358       ?depthfmts@?1??depthformats@rendertarget@@UBEPBIXZ@4QBIB 00571358     glare.obj
 0002:0000a36c       ?rgbfmts@?4??colorformats@shadowmaptexture@@UBEPBIXZ@4QBIB 0057136c     shadowmap.obj
