 sauerbraten

 Timestamp is 510ab880 (Thu Jan 31 19:31:28 2013)

 Preferred load address is 00400000

 Start         Length     Name                   Class
 0001:00000000 0019fa40H .text                   CODE
 0001:0019fa40 00003e9dH .text$x                 CODE
 0001:001a38e0 00016100H .text$yc                CODE
 0001:001b99e0 00002062H .text$yd                CODE
 0002:00000000 00000568H .idata$5                DATA
 0002:00000568 00000004H .CRT$XCA                DATA
 0002:0000056c 00001538H .CRT$XCU                DATA
 0002:00001aa4 00000004H .CRT$XCZ                DATA
 0002:00001aa8 00000004H .CRT$XIA                DATA
 0002:00001aac 00000014H .CRT$XIC                DATA
 0002:00001ac0 00000004H .CRT$XIY                DATA
 0002:00001ac4 00000004H .CRT$XIZ                DATA
 0002:00001ac8 00000004H .CRT$XPA                DATA
 0002:00001acc 00000008H .CRT$XPX                DATA
 0002:00001ad4 00000004H .CRT$XPXA               DATA
 0002:00001ad8 00000004H .CRT$XPZ                DATA
 0002:00001adc 00000004H .CRT$XTA                DATA
 0002:00001ae0 00000004H .CRT$XTZ                DATA
 0002:00001af0 00022438H .rdata                  DATA
 0002:00023f28 00000074H .rdata$debug            DATA
 0002:00023f9c 0000190cH .rdata$r                DATA
 0002:000258b0 00000784H .rdata$sxdata           DATA
 0002:00026034 00000004H .rtc$IAA                DATA
 0002:00026038 00000004H .rtc$IZZ                DATA
 0002:0002603c 00000004H .rtc$TAA                DATA
 0002:00026040 00000004H .rtc$TZZ                DATA
 0002:00026048 00006644H .xdata$x                DATA
 0002:0002c68c 000000dcH .idata$2                DATA
 0002:0002c768 00000014H .idata$3                DATA
 0002:0002c77c 00000568H .idata$4                DATA
 0002:0002cce4 000015beH .idata$6                DATA
 0002:0002e2a2 00000000H .edata                  DATA
 0003:00000000 00006200H .data                   DATA
 0003:00006200 000be500H .bss                    DATA
 0004:00000000 000005f0H _RDATA                  DATA
 0005:00000000 000000e8H .rsrc$01                DATA
 0005:000000f0 00002868H .rsrc$02                DATA

  Address         Publics by Value              Rva+Base       Lib:Object

 0000:00000000       __except_list              00000000     <absolute>
 0000:000001e1       ___safe_se_handler_count   000001e1     <absolute>
 0000:00000000       ___ImageBase               00400000     <linker-defined>
 0001:00000000       ??_GBlendMapBranch@@QAEPAXI@Z 00401000 f i blend.obj
 0001:00000040       ?shrink@BlendMapRoot@@QAEXH@Z 00401040 f i blend.obj
 0001:000000c0       ??0BlendBrush@@QAE@PBDHH@Z 004010c0 f i blend.obj
 0001:00000140       ?gentex@BlendBrush@@QAEXXZ 00401140 f i blend.obj
 0001:00000300       ?reorient@BlendBrush@@QAEX_N00@Z 00401300 f i blend.obj
 0001:00000400       ?growbuf@?$vector@PAUBlendBrush@@@@QAEXH@Z 00401400 f i blend.obj
 0001:00000490       ??1ImageData@@QAE@XZ       00401490 f i blend.obj
 0001:00000490       ?cleanup@ImageData@@QAEXXZ 00401490 f i blend.obj
 0001:000004d0       ??0ImageData@@QAE@XZ       004014d0 f i blend.obj
 0001:000004f0       ??_V@YAXPAX@Z              004014f0 f i blend.obj
 0001:00000500       ??_U@YAPAXI@Z              00401500 f i blend.obj
 0001:00000520       ?newstring@@YAPADPBDI@Z    00401520 f i blend.obj
 0001:00000560       ?newstring@@YAPADPBD@Z     00401560 f i blend.obj
 0001:000005b0       _floorf                    004015b0 f i blend.obj
 0001:00000610       ??3@YAXPAX@Z               00401610 f i blend.obj
 0001:00000630       ?create_ent@cubeloader@@QAEXAAUc_persistent_entity@1@@Z 00401630 f i cubeloader.obj
 0001:00000870       ?preprocess_cubes@cubeloader@@QAEXXZ 00401870 f i cubeloader.obj
 0001:00000990       ?getfloorceil@cubeloader@@QAEHAAUc_sqr@1@AAH1@Z 00401990 f i cubeloader.obj
 0001:00000aa0       ?boundingbox@cubeloader@@QAEXXZ 00401aa0 f i cubeloader.obj
 0001:00000c70       ?hf@cubeloader@@QAEXHHHHHH@Z 00401c70 f i cubeloader.obj
 0001:00000d50       ?create_cubes@cubeloader@@QAEXXZ 00401d50 f i cubeloader.obj
 0001:000011b0       ?load_cube_world@cubeloader@@QAEXPAD@Z 004021b0 f i cubeloader.obj
 0001:00001950       ?growbuf@?$vector@PAD@@QAEXH@Z 00402950 f i server.obj
 0001:00001950       ?growbuf@?$vector@PAUmesh@animmodel@@@@QAEXH@Z 00402950 f i rendermodel.obj
 0001:00001950       ?growbuf@?$vector@PAUmaterialsurface@@@@QAEXH@Z 00402950 f i pvs.obj
 0001:00001950       ?growbuf@?$vector@PBD@@QAEXH@Z 00402950 f i serverbrowser.obj
 0001:00001950       ?growbuf@?$vector@PAUplatforment@@@@QAEXH@Z 00402950 f i physics.obj
 0001:00001950       ?growbuf@?$vector@I@@QAEXH@Z 00402950 f i command.obj
 0001:00001950       ?growbuf@?$vector@PAUphysent@@@@QAEXH@Z 00402950 f i physics.obj
 0001:00001950       ?growbuf@?$vector@PAUShader@@@@QAEXH@Z 00402950 f i shader.obj
 0001:00001950       ?growbuf@?$vector@PAUplink@@@@QAEXH@Z 00402950 f i octa.obj
 0001:00001950       ?growbuf@?$vector@PAUvtxarray@@@@QAEXH@Z 00402950 f i octarender.obj
 0001:00001950       ?growbuf@?$vector@PAUextentity@@@@QAEXH@Z 00402950 f i cubeloader.obj
 0001:00001950       ?growbuf@?$vector@PAUident@@@@QAEXH@Z 00402950 f i command.obj
 0001:00001950       ?growbuf@?$vector@PAUoctaentities@@@@QAEXH@Z 00402950 f i octarender.obj
 0001:00001950       ?growbuf@?$vector@PAUskelmeshgroup@skelmodel@@@@QAEXH@Z 00402950 f i rendermodel.obj
 0001:00001950       ?growbuf@?$vector@PAUpart@animmodel@@@@QAEXH@Z 00402950 f i rendermodel.obj
 0001:00001950       ?growbuf@?$vector@PAUgameevent@server@@@@QAEXH@Z 00402950 f i server1.obj
 0001:00001950       ?growbuf@?$vector@PBUextentity@@@@QAEXH@Z 00402950 f i lightmap.obj
 0001:00001950       ?growbuf@?$vector@H@@QAEXH@Z 00402950 f i lightmap.obj
 0001:00001950       ?growbuf@?$vector@PAUclientinfo@server@@@@QAEXH@Z 00402950 f i server1.obj
 0001:00001950       ?growbuf@?$vector@PAUTexture@@@@QAEXH@Z 00402950 f i rendertext.obj
 0001:00001950       ?growbuf@?$vector@PAUfpsent@@@@QAEXH@Z 00402950 f i ai.obj
 0001:00001950       ?growbuf@?$vector@PAUkeym@@@@QAEXH@Z 00402950 f i console.obj
 0001:000019d0       ??Rstringformatter@@QAAXPBDZZ 004029d0 f i cubeloader.obj
 0001:00001a00       ??0lightcacheentry@@QAE@XZ 00402a00 f i lightmap.obj
 0001:00001a50       ??1lightcacheentry@@QAE@XZ 00402a50 f i lightmap.obj
 0001:00001aa0       ?add@?$vector@PBD@@QAEAAPBDABQBD@Z 00402aa0 f i serverbrowser.obj
 0001:00001aa0       ?add@?$vector@PAUmesh@animmodel@@@@QAEAAPAUmesh@animmodel@@ABQAU23@@Z 00402aa0 f i rendermodel.obj
 0001:00001aa0       ?add@?$vector@H@@QAEAAHABH@Z 00402aa0 f i lightmap.obj
 0001:00001aa0       ?add@?$vector@PAUvtxarray@@@@QAEAAPAUvtxarray@@ABQAU2@@Z 00402aa0 f i octarender.obj
 0001:00001aa0       ?add@?$vector@PAUoctaentities@@@@QAEAAPAUoctaentities@@ABQAU2@@Z 00402aa0 f i octarender.obj
 0001:00001aa0       ?add@?$vector@PAUfpsent@@@@QAEAAPAUfpsent@@ABQAU2@@Z 00402aa0 f i ai.obj
 0001:00001aa0       ?add@?$vector@I@@QAEAAIABI@Z 00402aa0 f i command.obj
 0001:00001ae0       ?add@?$vector@ULightMap@@@@QAEAAULightMap@@XZ 00402ae0 f i lightmap.obj
 0001:00001bd0       ?shrink@?$vector@ULightMap@@@@QAEXH@Z 00402bd0 f i lightmap.obj
 0001:00001c50       ?add@?$vector@ULightMapTexture@@@@QAEAAULightMapTexture@@XZ 00402c50 f i lightmap.obj
 0001:00001cf0       ??1?$vector@PAUphysent@@@@QAE@XZ 00402cf0 f i physics.obj
 0001:00001cf0       ??1?$vector@PAUmesh@animmodel@@@@QAE@XZ 00402cf0 f i rendermodel.obj
 0001:00001cf0       ??1?$vector@PBUextentity@@@@QAE@XZ 00402cf0 f i lightmap.obj
 0001:00001cf0       ??1?$vector@PAUoctaentities@@@@QAE@XZ 00402cf0 f i octarender.obj
 0001:00001cf0       ??1?$vector@PAUvtxarray@@@@QAE@XZ 00402cf0 f i octarender.obj
 0001:00001cf0       ??1?$vector@E@@QAE@XZ      00402cf0 f i octaedit.obj
 0001:00001cf0       ??1?$vector@PAUTexture@@@@QAE@XZ 00402cf0 f i rendertext.obj
 0001:00001cf0       ??1?$vector@I@@QAE@XZ      00402cf0 f i command.obj
 0001:00001cf0       ??1?$vector@G@@QAE@XZ      00402cf0 f i octaedit.obj
 0001:00001cf0       ??1?$vector@PAUkeym@@@@QAE@XZ 00402cf0 f i console.obj
 0001:00001cf0       ??1?$vector@H@@QAE@XZ      00402cf0 f i lightmap.obj
 0001:00001cf0       ??1?$vector@PAD@@QAE@XZ    00402cf0 f i server.obj
 0001:00001cf0       ??1?$vector@PAUident@@@@QAE@XZ 00402cf0 f i command.obj
 0001:00001cf0       ??1?$vector@PAUextentity@@@@QAE@XZ 00402cf0 f i entities.obj
 0001:00001cf0       ??1?$vector@PAUpart@animmodel@@@@QAE@XZ 00402cf0 f i rendermodel.obj
 0001:00001cf0       ??1?$vector@PAUskelmeshgroup@skelmodel@@@@QAE@XZ 00402cf0 f i rendermodel.obj
 0001:00001cf0       ??1?$vector@PAUfpsent@@@@QAE@XZ 00402cf0 f i ai.obj
 0001:00001cf0       ??1?$vector@PAUplink@@@@QAE@XZ 00402cf0 f i octa.obj
 0001:00001cf0       ??1?$vector@D@@QAE@XZ      00402cf0 f i worldio.obj
 0001:00001cf0       ??1?$vector@PAUmaterialsurface@@@@QAE@XZ 00402cf0 f i pvs.obj
 0001:00001cf0       ??1?$vector@PAUclientinfo@server@@@@QAE@XZ 00402cf0 f i server1.obj
 0001:00001cf0       ??1?$vector@PAUgameevent@server@@@@QAE@XZ 00402cf0 f i server1.obj
 0001:00001cf0       ??1?$vector@PAUShader@@@@QAE@XZ 00402cf0 f i shader.obj
 0001:00001d10       ??0?$vector@Umergedface@@@@QAE@XZ 00402d10 f i octarender.obj
 0001:00001d10       ??0?$vector@Ufacebounds@@@@QAE@XZ 00402d10 f i octarender.obj
 0001:00001d10       ??0?$vector@G@@QAE@XZ      00402d10 f i octaedit.obj
 0001:00001d10       ??0?$vector@Uvec@@@@QAE@XZ 00402d10 f i worldio.obj
 0001:00001d10       ??0?$vector@E@@QAE@XZ      00402d10 f i octaedit.obj
 0001:00001d10       ??0?$vector@PAUShader@@@@QAE@XZ 00402d10 f i shader.obj
 0001:00001d10       ??0?$vector@Uanimspec@animmodel@@@@QAE@XZ 00402d10 f i rendermodel.obj
 0001:00001d10       ??0?$vector@Ulightmaptask@@@@QAE@XZ 00402d10 f i lightmap.obj
 0001:00001d10       ??0?$vector@Utri@BIH@@@@QAE@XZ 00402d10 f i rendermodel.obj
 0001:00001d10       ??0?$vector@PAUclientinfo@server@@@@QAE@XZ 00402d10 f i server1.obj
 0001:00001d10       ??0?$vector@PAUvtxarray@@@@QAE@XZ 00402d10 f i octarender.obj
 0001:00001d10       ??0?$vector@D@@QAE@XZ      00402d10 f i worldio.obj
 0001:00001d30       ??1?$vector@Uaistate@ai@@@@QAE@XZ 00402d30 f i ai.obj
 0001:00001d30       ??1?$vector@Uvert@vertmodel@@@@QAE@XZ 00402d30 f i rendermodel.obj
 0001:00001d30       ??1?$vector@Umergedface@@@@QAE@XZ 00402d30 f i octarender.obj
 0001:00001d30       ??1?$vector@Uteamscore@@@@QAE@XZ 00402d30 f i fps.obj
 0001:00001d30       ??1?$vector@Uholdspawn@ctfclientmode@game@@@@QAE@XZ 00402d30 f i client1.obj
 0001:00001d30       ??1?$vector@Uavisegmentinfo@@@@QAE@XZ 00402d30 f i movie.obj
 0001:00001d30       ??1?$vector@Ublendcombo@skelmodel@@@@QAE@XZ 00402d30 f i rendermodel.obj
 0001:00001d30       ??1?$vector@Ubase@collectservmode@server@@@@QAE@XZ 00402d30 f i server1.obj
 0001:00001d30       ??1?$vector@Uhitinfo@server@@@@QAE@XZ 00402d30 f i server1.obj
 0001:00001d30       ??1?$vector@Uanimspec@animmodel@@@@QAE@XZ 00402d30 f i rendermodel.obj
 0001:00001d30       ??1?$vector@Utri@vertmodel@@@@QAE@XZ 00402d30 f i rendermodel.obj
 0001:00001d30       ??1?$vector@UBIHNode@@@@QAE@XZ 00402d30 f i bih.obj
 0001:00001d30       ??1?$vector@Ufacebounds@@@@QAE@XZ 00402d30 f i octarender.obj
 0001:00001d30       ??1?$vector@Uwpcachenode@ai@@@@QAE@XZ 00402d30 f i waypoint.obj
 0001:00001d30       ??1?$vector@Upitchtarget@skelmodel@@@@QAE@XZ 00402d30 f i rendermodel.obj
 0001:00001d30       ??1?$vector@Uskin@animmodel@@@@QAE@XZ 00402d30 f i rendermodel.obj
 0001:00001d30       ??1?$vector@Udualquat@@@@QAE@XZ 00402d30 f i rendermodel.obj
 0001:00001d30       ??1?$vector@Uvec2@@@@QAE@XZ 00402d30 f i worldio.obj
 0001:00001d30       ??1?$vector@Umaterialsurface@@@@QAE@XZ 00402d30 f i octarender.obj
 0001:00001d30       ??1?$vector@Uvvert@vertmodel@@@@QAE@XZ 00402d30 f i rendermodel.obj
 0001:00001d30       ??1?$vector@Uscore@captureclientmode@game@@@@QAE@XZ 00402d30 f i client1.obj
 0001:00001d30       ??1?$vector@Uvert@skelmodel@@@@QAE@XZ 00402d30 f i rendermodel.obj
 0001:00001d30       ??1?$vector@Uvvertn@skelmodel@@@@QAE@XZ 00402d30 f i rendermodel.obj
 0001:00001d30       ??1?$vector@Uvvertw@skelmodel@@@@QAE@XZ 00402d30 f i rendermodel.obj
 0001:00001d30       ??1?$vector@Utoken@collectclientmode@game@@@@QAE@XZ 00402d30 f i client1.obj
 0001:00001d30       ??1?$vector@Uvec@@@@QAE@XZ 00402d30 f i worldio.obj
 0001:00001d30       ??1?$vector@Uscore@captureservmode@server@@@@QAE@XZ 00402d30 f i server1.obj
 0001:00001d30       ??1?$vector@Uvvert@skelmodel@@@@QAE@XZ 00402d30 f i rendermodel.obj
 0001:00001d30       ??1?$vector@Usortitem@@@@QAE@XZ 00402d30 f i command.obj
 0001:00001d30       ??1?$vector@Utri@ragdollskel@@@@QAE@XZ 00402d30 f i rendermodel.obj
 0001:00001d30       ??1?$vector@Uaviindexentry@@@@QAE@XZ 00402d30 f i movie.obj
 0001:00001d30       ??1?$vector@ULocalShaderParamState@@@@QAE@XZ 00402d30 f i shader.obj
 0001:00001d30       ??1?$vector@Usmdbone@@@@QAE@XZ 00402d30 f i rendermodel.obj
 0001:00001d30       ??1?$vector@Uflag@ctfclientmode@game@@@@QAE@XZ 00402d30 f i client1.obj
 0001:00001d30       ??1?$vector@Uvvertbump@vertmodel@@@@QAE@XZ 00402d30 f i rendermodel.obj
 0001:00001d30       ??1?$vector@Ubase@collectclientmode@game@@@@QAE@XZ 00402d30 f i client1.obj
 0001:00001d30       ??1?$vector@Uvvertff@vertmodel@@@@QAE@XZ 00402d30 f i rendermodel.obj
 0001:00001d30       ??1?$vector@Ueditline@@@@QAE@XZ 00402d30 f i 3dgui.obj
 0001:00001d30       ??1?$vector@Umd5joint@@@@QAE@XZ 00402d30 f i rendermodel.obj
 0001:00001d30       ??1?$vector@Uvert@ragdollskel@@@@QAE@XZ 00402d30 f i rendermodel.obj
 0001:00001d30       ??1?$vector@UAttribLoc@@@@QAE@XZ 00402d30 f i shader.obj
 0001:00001d30       ??1?$vector@Uvvertbump@skelmodel@@@@QAE@XZ 00402d30 f i rendermodel.obj
 0001:00001d30       ??1?$vector@Utoken@collectservmode@server@@@@QAE@XZ 00402d30 f i server1.obj
 0001:00001d30       ??1?$vector@Urotfriction@ragdollskel@@@@QAE@XZ 00402d30 f i rendermodel.obj
 0001:00001d30       ??1?$vector@Ubaseinfo@captureclientmode@game@@@@QAE@XZ 00402d30 f i client1.obj
 0001:00001d30       ??1?$vector@Uantipode@skelmodel@@@@QAE@XZ 00402d30 f i rendermodel.obj
 0001:00001d30       ??1?$vector@Uvertex@@@@QAE@XZ 00402d30 f i octarender.obj
 0001:00001d30       ??1?$vector@Uufval@unionfind@@@@QAE@XZ 00402d30 f i material.obj
 0001:00001d30       ??1?$vector@Ucrcinfo@server@@@@QAE@XZ 00402d30 f i server1.obj
 0001:00001d30       ??1?$vector@Utri@BIH@@@@QAE@XZ 00402d30 f i rendermodel.obj
 0001:00001d30       ??1?$vector@UShaderParam@@@@QAE@XZ 00402d30 f i octaedit.obj
 0001:00001d30       ??1?$vector@Uwaterinfo@@@@QAE@XZ 00402d30 f i material.obj
 0001:00001d30       ??1?$vector@Uivec@@@@QAE@XZ 00402d30 f i worldio.obj
 0001:00001d30       ??1?$vector@Utcvert@vertmodel@@@@QAE@XZ 00402d30 f i rendermodel.obj
 0001:00001d30       ??1?$vector@Ureljoint@ragdollskel@@@@QAE@XZ 00402d30 f i rendermodel.obj
 0001:00001d30       ??1?$vector@Uskelcacheentry@skelmodel@@@@QAE@XZ 00402d30 f i rendermodel.obj
 0001:00001d30       ??1?$vector@Ulightmaptask@@@@QAE@XZ 00402d30 f i lightmap.obj
 0001:00001d30       ??1?$vector@Udistlimit@ragdollskel@@@@QAE@XZ 00402d30 f i rendermodel.obj
 0001:00001d30       ??1?$vector@Ulinkedpart@animmodel@@@@QAE@XZ 00402d30 f i rendermodel.obj
 0001:00001d30       ??1?$vector@Uvotecount@server@@@@QAE@XZ 00402d30 f i server1.obj
 0001:00001d30       ??1?$vector@Uvvertbumpw@skelmodel@@@@QAE@XZ 00402d30 f i rendermodel.obj
 0001:00001d30       ??1?$vector@Ubatchedmodel@@@@QAE@XZ 00402d30 f i rendermodel.obj
 0001:00001d30       ??1?$vector@Ugrasstri@@@@QAE@XZ 00402d30 f i octarender.obj
 0001:00001d30       ??1?$vector@Uobstacle@avoidset@ai@@@@QAE@XZ 00402d30 f i ai.obj
 0001:00001d30       ??1?$vector@Ubaseinfo@captureservmode@server@@@@QAE@XZ 00402d30 f i server1.obj
 0001:00001d30       ??1?$vector@UTex@Slot@@@@QAE@XZ 00402d30 f i texture.obj
 0001:00001d30       ??1?$vector@Urotlimit@ragdollskel@@@@QAE@XZ 00402d30 f i rendermodel.obj
 0001:00001d30       ??1?$vector@Upitchcorrect@skelmodel@@@@QAE@XZ 00402d30 f i rendermodel.obj
 0001:00001d30       ??1?$vector@Umd5hierarchy@@@@QAE@XZ 00402d30 f i rendermodel.obj
 0001:00001d30       ??1?$vector@Uflag@ctfservmode@server@@@@QAE@XZ 00402d30 f i server1.obj
 0001:00001d30       ??1?$vector@UUniformLoc@@@@QAE@XZ 00402d30 f i shader.obj
 0001:00001d30       ??1?$vector@Utri@skelmodel@@@@QAE@XZ 00402d30 f i rendermodel.obj
 0001:00001d30       ??1?$vector@Utransparentmodel@@@@QAE@XZ 00402d30 f i rendermodel.obj
 0001:00001d30       ??1?$vector@Usortkey@@@@QAE@XZ 00402d30 f i octarender.obj
 0001:00001d30       ??1?$vector@Ucharinfo@font@@@@QAE@XZ 00402d30 f i rendertext.obj
 0001:00001d30       ??1?$vector@Uholdspawn@ctfservmode@server@@@@QAE@XZ 00402d30 f i server1.obj
 0001:00001d30       ??1?$vector@Ujoint@ragdollskel@@@@QAE@XZ 00402d30 f i rendermodel.obj
 0001:00001d30       ??1?$vector@Upoly@@@@QAE@XZ 00402d30 f i octa.obj
 0001:00001d30       ??1?$vector@Upitchdep@skelmodel@@@@QAE@XZ 00402d30 f i rendermodel.obj
 0001:00001d50       ??0?$hashset@Ulayoutinfo@@@@QAE@H@Z 00402d50 f i lightmap.obj
 0001:00001de0       ??1?$hashset@Ulayoutinfo@@@@QAE@XZ 00402de0 f i lightmap.obj
 0001:00001e30       ?clear@?$hashset@Ulayoutinfo@@@@QAEXXZ 00402e30 f i lightmap.obj
 0001:00001ea0       ?growbuf@?$vector@ULightMap@@@@QAEXH@Z 00402ea0 f i lightmap.obj
 0001:00001f30       ?growbuf@?$vector@ULightMapTexture@@@@QAEXH@Z 00402f30 f i lightmap.obj
 0001:00001fc0       ?growbuf@?$vector@PAUlightmapworker@@@@QAEXH@Z 00402fc0 f i lightmap.obj
 0001:00002050       ?growbuf@?$vector@Uvert@skelmodel@@@@QAEXH@Z 00403050 f i rendermodel.obj
 0001:00002050       ?growbuf@?$vector@Upitchdep@skelmodel@@@@QAEXH@Z 00403050 f i rendermodel.obj
 0001:00002050       ?growbuf@?$vector@Uholdspawn@ctfclientmode@game@@@@QAEXH@Z 00403050 f i client1.obj
 0001:00002050       ?growbuf@?$vector@Ulightmaptask@@@@QAEXH@Z 00403050 f i lightmap.obj
 0001:00002050       ?growbuf@?$vector@Uvvertw@skelmodel@@@@QAEXH@Z 00403050 f i rendermodel.obj
 0001:000020d0       ?growbuf@?$vector@Ulightmapext@@@@QAEXH@Z 004030d0 f i lightmap.obj
 0001:00002160       ??$access@Ulightmapinfo@@@?$hashset@Ulayoutinfo@@@@QAEPAUlayoutinfo@@ABUlightmapinfo@@@Z 00403160 f i lightmap.obj
 0001:000021e0       ??$?AUlightmapinfo@@@?$hashset@Ulayoutinfo@@@@QAEAAUlayoutinfo@@ABUlightmapinfo@@@Z 004031e0 f i lightmap.obj
 0001:00002260       ?insert@?$hashset@Ulayoutinfo@@@@QAEPAUchain@1@I@Z 00403260 f i lightmap.obj
 0001:000022f0       ?setup@servmode@server@@UAEXXZ 004032f0 f i server1.obj
 0001:000022f0       ?newmap@servmode@server@@UAEXXZ 004032f0 f i server1.obj
 0001:000022f0       ?preloadmeshes@model@@UAEXXZ 004032f0 f i rendermodel.obj
 0001:000022f0       ?cleanup@model@@UAEXXZ     004032f0 f i rendermodel.obj
 0001:000022f0       ?endrender@model@@UAEXXZ   004032f0 f i rendermodel.obj
 0001:000022f0       ?cleanup@meshgroup@animmodel@@UAEXXZ 004032f0 f i rendermodel.obj
 0001:000022f0       ?intermission@servmode@server@@UAEXXZ 004032f0 f i server1.obj
 0001:000022f0       ?setup@clientmode@game@@UAEXXZ 004032f0 f i client1.obj
 0001:000022f0       ?pushlist@g3d_gui@@UAEXXZ  004032f0 f i 3dgui.obj
 0001:000022f0       ?update@servmode@server@@UAEXXZ 004032f0 f i server1.obj
 0001:000022f0       ?doclear@rendertarget@@UAEXXZ 004032f0 f i glare.obj
 0001:000022f0       ?rendergame@clientmode@game@@UAEXXZ 004032f0 f i client1.obj
 0001:000022f0       ?cleanup@servmode@server@@UAEXXZ 004032f0 f i server1.obj
 0001:000022f0       ?startrender@model@@UAEXXZ 004032f0 f i rendermodel.obj
 0001:000022f0       ?gameover@clientmode@game@@UAEXXZ 004032f0 f i client1.obj
 0001:000022f0       ?preload@clientmode@game@@UAEXXZ 004032f0 f i client1.obj
 0001:000022f0       ?cleanup@partrenderer@@UAEXXZ 004032f0 f i renderparticles.obj
 0001:000022f0       ?update@partrenderer@@UAEXXZ 004032f0 f i renderparticles.obj
 0001:000022f0       ?preloadshaders@model@@UAEXXZ 004032f0 f i rendermodel.obj
 0001:000022f0       ??3@YAXPAX0@Z              004032f0 f i lightmap.obj
 0001:000022f0       ?poplist@g3d_gui@@UAEXXZ   004032f0 f i 3dgui.obj
 0001:000022f0       ?endrender@textrenderer@@UAEXXZ 004032f0 f i renderparticles.obj
 0001:000022f0       ?startrender@textrenderer@@UAEXXZ 004032f0 f i renderparticles.obj
 0001:00002300       ?calcsize@ImageData@@QBEHXZ 00403300 f i lightmap.obj
 0001:000023a0       ??0ImageData@@QAE@HHHPAE@Z 004033a0 f i lightmap.obj
 0001:00002420       ?boundbox@model@@QAEXHAAUvec@@0@Z 00403420 f i lightmap.obj
 0001:000024c0       ?above@model@@QAEMH@Z      004034c0 f i lightmap.obj
 0001:00002540       ??0plane@@QAE@XZ           00403540 f i lightmap.obj
 0001:00002540       ??0entity@@QAE@XZ          00403540 f i lightmap.obj
 0001:00002540       ??0clipplanes@@QAE@XZ      00403540 f i octa.obj
 0001:00002550       _ceilf                     00403550 f i lightmap.obj
 0001:00002580       ?iszero@vec@@QBE_NXZ       00403580 f i lightmap.obj
 0001:000025c0       ??0PackNode@@QAE@GGGG@Z    004035c0 f i lightmap.obj
 0001:00002610       ??1PackNode@@QAE@XZ        00403610 f i lightmap.obj
 0001:00002620       ?clear@PackNode@@QAEXXZ    00403620 f i lightmap.obj
 0001:00002670       _sqrtf                     00403670 f i lightmap.obj
 0001:00002680       _fabsf                     00403680 f i lightmap.obj
 0001:000026a0       _cosf                      004036a0 f i lightmap.obj
 0001:000026b0       _sinf                      004036b0 f i lightmap.obj
 0001:000026c0       ??0vec@@QAE@MM@Z           004036c0 f i lightmap.obj
 0001:00002730       ??0?$hashset@Unormalgroup@@@@QAE@H@Z 00403730 f i normal.obj
 0001:000027c0       ??1?$hashset@Unormalgroup@@@@QAE@XZ 004037c0 f i normal.obj
 0001:00002810       ?clear@?$hashset@Unormalgroup@@@@QAEXXZ 00403810 f i normal.obj
 0001:00002880       ?growbuf@?$vector@Unormal@@@@QAEXH@Z 00403880 f i normal.obj
 0001:00002900       ?growbuf@?$vector@Utnormal@@@@QAEXH@Z 00403900 f i normal.obj
 0001:00002990       ??$access@Uvec@@U1@@?$hashset@Unormalgroup@@@@QAEAAUnormalgroup@@ABUvec@@0@Z 00403990 f i normal.obj
 0001:00002a70       ??$access@Uvec@@@?$hashset@Unormalgroup@@@@QAEPAUnormalgroup@@ABUvec@@@Z 00403a70 f i normal.obj
 0001:00002b00       ?insert@?$hashset@Unormalgroup@@@@QAEPAUchain@1@I@Z 00403b00 f i normal.obj
 0001:00002bf0       ??9vec@@QBE_NABU0@@Z       00403bf0 f i normal.obj
 0001:00002c30       ?cross@vec@@QAEAAU1@ABU1@00@Z 00403c30 f i normal.obj
 0001:00002cf0       ??8vec@@QBE_NABU0@@Z       00403cf0 f i normal.obj
 0001:00002d30       ??9facevec@@QBE_NABU0@@Z   00403d30 f i octa.obj
 0001:00002d50       ??0?$hashset@Uplink@@@@QAE@H@Z 00403d50 f i octa.obj
 0001:00002dc0       ??1?$hashset@Uplink@@@@QAE@XZ 00403dc0 f i octa.obj
 0001:00002dc0       ??1?$hashset@U?$hashtableentry@Uivec@@H@@@@QAE@XZ 00403dc0 f i rendermodel.obj
 0001:00002dc0       ??1?$hashset@U?$hashtableentry@Uvec@@H@@@@QAE@XZ 00403dc0 f i worldio.obj
 0001:00002e10       ??A?$hashtable@Ucfkey@@Ucfpolys@@@@QAEAAUcfpolys@@ABUcfkey@@@Z 00403e10 f i octa.obj
 0001:00002ec0       ??1?$hashset@U?$hashtableentry@Ucfkey@@Ucfpolys@@@@@@QAE@XZ 00403ec0 f i octa.obj
 0001:00002ef0       ?clear@?$hashset@U?$hashtableentry@Ucfkey@@Ucfpolys@@@@@@QAEXXZ 00403ef0 f i octa.obj
 0001:00002fa0       ?growbuf@?$vector@Upoly@@@@QAEXH@Z 00403fa0 f i octa.obj
 0001:00002fa0       ?growbuf@?$vector@Ujoint@ragdollskel@@@@QAEXH@Z 00403fa0 f i rendermodel.obj
 0001:00003020       ??0?$hashset@U?$hashtableentry@Ucfkey@@Ucfpolys@@@@@@QAE@H@Z 00404020 f i octa.obj
 0001:000030b0       ?deletechunks@?$hashset@U?$hashtableentry@Ucfkey@@Ucfpolys@@@@@@QAEXXZ 004040b0 f i octa.obj
 0001:00003120       ??1chain@?$hashset@U?$hashtableentry@Ucfkey@@Ucfpolys@@@@@@QAE@XZ 00404120 f i octa.obj
 0001:00003190       ??1?$hashtableentry@Ucfkey@@Ucfpolys@@@@QAE@XZ 00404190 f i octa.obj
 0001:000031f0       ??1wpcache@ai@@QAE@XZ      004041f0 f i waypoint.obj
 0001:000031f0       ??1unionfind@@QAE@XZ       004041f0 f i material.obj
 0001:000031f0       ??1cfpolys@@QAE@XZ         004041f0 f i octa.obj
 0001:00003240       ?insert@?$hashset@U?$hashtableentry@Ucfkey@@Ucfpolys@@@@@@QAEPAUchain@1@I@Z 00404240 f i octa.obj
 0001:00003300       ??0chain@?$hashset@U?$hashtableentry@Ucfkey@@Ucfpolys@@@@@@QAE@XZ 00404300 f i octa.obj
 0001:00003360       ??$access@Upedge@@U1@@?$hashset@Uplink@@@@QAEAAUplink@@ABUpedge@@0@Z 00404360 f i octa.obj
 0001:00003400       ?insert@?$hashset@Uplink@@@@QAEPAUchain@1@I@Z 00404400 f i octa.obj
 0001:000034d0       ??1octabrush@@QAE@XZ       004044d0 f i octaedit.obj
 0001:00003500       ?gui@texturegui@@UAEXAAUg3d_gui@@_N@Z 00404500 f i octaedit.obj
 0001:00003760       ?showtextures@texturegui@@QAEX_N@Z 00404760 f i octaedit.obj
 0001:000038a0       ?show@texturegui@@QAEXXZ   004048a0 f i octaedit.obj
 0001:00003970       ??_Gscoreboardgui@game@@UAEPAXI@Z 00404970 f i scoreboard.obj
 0001:00003970       ??_Emenu@@UAEPAXI@Z        00404970 f i * CIL library *:* CIL module *
 0001:00003970       ??_Gmenu@@UAEPAXI@Z        00404970 f i menus.obj
 0001:00003970       ??_Escoreboardgui@game@@UAEPAXI@Z 00404970 f i * CIL library *:* CIL module *
 0001:00003970       ??_Gtexturegui@@UAEPAXI@Z  00404970 f i octaedit.obj
 0001:00003970       ??_Etexturegui@@UAEPAXI@Z  00404970 f i * CIL library *:* CIL module *
 0001:000039c0       ?add@?$vector@UShaderParam@@@@QAEAAUShaderParam@@ABU2@@Z 004049c0 f i octaedit.obj
 0001:00003a20       ?add@?$vector@G@@QAEAAGABG@Z 00404a20 f i octaedit.obj
 0001:00003a60       ?remove@?$vector@G@@QAEGH@Z 00404a60 f i octaedit.obj
 0001:00003ab0       ?insert@?$vector@G@@QAEAAGHABG@Z 00404ab0 f i octaedit.obj
 0001:00003b20       ?add@?$vector@PAUeditinfo@@@@QAEAAPAUeditinfo@@ABQAU2@@Z 00404b20 f i octaedit.obj
 0001:00003b70       ?removeobj@?$vector@PAUeditinfo@@@@QAEXABQAUeditinfo@@@Z 00404b70 f i octaedit.obj
 0001:00003bc0       ??0?$hashset@Uoctabrush@@@@QAE@H@Z 00404bc0 f i octaedit.obj
 0001:00003c50       ?growbuf@?$vector@Uvvertn@skelmodel@@@@QAEXH@Z 00404c50 f i rendermodel.obj
 0001:00003c50       ?growbuf@?$vector@Utoken@collectservmode@server@@@@QAEXH@Z 00404c50 f i server1.obj
 0001:00003c50       ?growbuf@?$vector@Udualquat@@@@QAEXH@Z 00404c50 f i rendermodel.obj
 0001:00003c50       ?growbuf@?$vector@Ublendcombo@skelmodel@@@@QAEXH@Z 00404c50 f i rendermodel.obj
 0001:00003c50       ?growbuf@?$vector@UShaderParam@@@@QAEXH@Z 00404c50 f i octaedit.obj
 0001:00003c50       ?growbuf@?$vector@Upitchcorrect@skelmodel@@@@QAEXH@Z 00404c50 f i rendermodel.obj
 0001:00003c50       ?growbuf@?$vector@Uvvert@vertmodel@@@@QAEXH@Z 00404c50 f i rendermodel.obj
 0001:00003c50       ?growbuf@?$vector@Uvertex@@@@QAEXH@Z 00404c50 f i octarender.obj
 0001:00003cd0       ?growbuf@?$vector@G@@QAEXH@Z 00404cd0 f i octaedit.obj
 0001:00003d50       ?growbuf@?$vector@PAUeditinfo@@@@QAEXH@Z 00404d50 f i octaedit.obj
 0001:00003de0       ?deletechunks@?$hashset@Uoctabrush@@@@QAEXXZ 00404de0 f i octaedit.obj
 0001:00003e50       ?growbuf@?$vector@Uvslotmap@@@@QAEXH@Z 00404e50 f i octaedit.obj
 0001:00003ee0       ??1chain@?$hashset@Uoctabrush@@@@QAE@XZ 00404ee0 f i octaedit.obj
 0001:00003f40       ??$remove@PAD@?$hashset@Uoctabrush@@@@QAE_NABQAD@Z 00404f40 f i octaedit.obj
 0001:00004060       ??$access@PAD@?$hashset@Uoctabrush@@@@QAEPAUoctabrush@@ABQAD@Z 00405060 f i octaedit.obj
 0001:000040f0       ??$?APAD@?$hashset@Uoctabrush@@@@QAEAAUoctabrush@@ABQAD@Z 004050f0 f i octaedit.obj
 0001:00004180       ??$find@H@?$vector@H@@QAEHABH@Z 00405180 f i octaedit.obj
 0001:000041b0       ?get@?$databuf@E@@QAEHPAEH@Z 004051b0 f i octaedit.obj
 0001:000041f0       ?insert@?$hashset@Uoctabrush@@@@QAEPAUchain@1@I@Z 004051f0 f i octaedit.obj
 0001:000042d0       ??0chain@?$hashset@Uoctabrush@@@@QAE@XZ 004052d0 f i octaedit.obj
 0001:00004310       ?growbuf@?$vector@E@@QAEXH@Z 00405310 f i octaedit.obj
 0001:00004310       ?growbuf@?$vector@D@@QAEXH@Z 00405310 f i worldio.obj
 0001:00004390       ?get@?$databuf@E@@QAEABEXZ 00405390 f i octaedit.obj
 0001:000043b0       ?add@?$vector@D@@QAEAADABD@Z 004053b0 f i serverbrowser.obj
 0001:000043b0       ?add@?$vector@E@@QAEAAEABE@Z 004053b0 f i octaedit.obj
 0001:000043e0       ??_Gg3d_callback@@UAEPAXI@Z 004053e0 f i octaedit.obj
 0001:000043e0       ??_Eg3d_callback@@UAEPAXI@Z 004053e0 f i * CIL library *:* CIL module *
 0001:00004400       ??1g3d_callback@@UAE@XZ    00405400 f i octaedit.obj
 0001:00004410       ??1VSlot@@QAE@XZ           00405410 f i octaedit.obj
 0001:00004460       ?reset@VSlot@@QAEXXZ       00405460 f i octaedit.obj
 0001:00004570       ??0VSlot@@QAE@PAUSlot@@H@Z 00405570 f i octaedit.obj
 0001:00004620       ?resetinterp@physent@@QAEXXZ 00405620 f i octaedit.obj
 0001:00004660       ??8selinfo@@QBE_NABU0@@Z   00405660 f i octaedit.obj
 0001:000046b0       ?set@Shader@@QAEXXZ        004056b0 f i octaedit.obj
 0001:000046e0       ?rayintersect@plane@@QAE_NABUvec@@0AAM@Z 004056e0 f i octaedit.obj
 0001:00004770       ??0selinfo@@QAE@XZ         00405770 f i octaedit.obj
 0001:000047d0       ??0verthash@@QAE@XZ        004057d0 f i octarender.obj
 0001:00004880       ?addvert@verthash@@QAEHABUvertex@@@Z 00405880 f i octarender.obj
 0001:00004a50       ?clear@vacollect@@QAEXXZ   00405a50 f i octarender.obj
 0001:00004b30       ?remapunlit@vacollect@@QAEXAAU?$vector@Usortkey@@@@@Z 00405b30 f i octarender.obj
 0001:00005190       ?optimize@vacollect@@QAEXXZ 00406190 f i octarender.obj
 0001:00005420       ?texsort@vacollect@@SA_NABUsortkey@@0@Z 00406420 f i octarender.obj
 0001:000054e0       ?genverts@vacollect@@QAEXPAX@Z 004064e0 f i octarender.obj
 0001:000055f0       ?setupdata@vacollect@@QAEXPAUvtxarray@@@Z 004065f0 f i octarender.obj
 0001:00005e00       ??0vacollect@@QAE@XZ       00406e00 f i octarender.obj
 0001:00005f60       ??1vacollect@@QAE@XZ       00406f60 f i octarender.obj
 0001:000060d0       ??1verthash@@QAE@XZ        004070d0 f i octarender.obj
 0001:00006150       ??1?$hashtable@Usortkey@@Usortval@@@@QAE@XZ 00407150 f i octarender.obj
 0001:000061b0       ??0vtxarray@@QAE@XZ        004071b0 f i octarender.obj
 0001:00006240       ??1vtxarray@@QAE@XZ        00407240 f i octarender.obj
 0001:000062e0       ?removeobj@?$vector@PAUskelmeshgroup@skelmodel@@@@QAEXABQAUskelmeshgroup@skelmodel@@@Z 004072e0 f i rendermodel.obj
 0001:000062e0       ?removeobj@?$vector@PAUvtxarray@@@@QAEXABQAUvtxarray@@@Z 004072e0 f i octarender.obj
 0001:000062e0       ?removeobj@?$vector@PAUmesh@animmodel@@@@QAEXABQAUmesh@animmodel@@@Z 004072e0 f i rendermodel.obj
 0001:000062e0       ?removeobj@?$vector@H@@QAEXABH@Z 004072e0 f i world.obj
 0001:000062e0       ?removeobj@?$vector@PAUoctaentities@@@@QAEXABQAUoctaentities@@@Z 004072e0 f i world.obj
 0001:000062e0       ?removeobj@?$vector@PAUclientinfo@server@@@@QAEXABQAUclientinfo@server@@@Z 004072e0 f i server1.obj
 0001:00006330       ??1?$hashset@U?$hashtableentry@IUvboinfo@@@@@@QAE@XZ 00407330 f i octarender.obj
 0001:00006380       ?access@?$hashtable@Usortkey@@Usortval@@@@QAEPAUsortval@@ABUsortkey@@@Z 00407380 f i octarender.obj
 0001:000063f0       ??A?$hashtable@Usortkey@@Usortval@@@@QAEAAUsortval@@ABUsortkey@@@Z 004073f0 f i octarender.obj
 0001:00006480       ??1?$hashset@U?$hashtableentry@Usortkey@@Usortval@@@@@@QAE@XZ 00407480 f i octarender.obj
 0001:000064b0       ?clear@?$hashset@U?$hashtableentry@Usortkey@@Usortval@@@@@@QAEXXZ 004074b0 f i octarender.obj
 0001:00006560       ?removeobj@?$vector@Usortkey@@@@QAEXABUsortkey@@@Z 00407560 f i octarender.obj
 0001:00006640       ?access@?$hashtable@Uedgegroup@@H@@QAEPAHABUedgegroup@@@Z 00407640 f i octarender.obj
 0001:000066c0       ??A?$hashtable@Uedgegroup@@H@@QAEAAHABUedgegroup@@@Z 004076c0 f i octarender.obj
 0001:00006760       ??1?$hashset@U?$hashtableentry@Uedgegroup@@H@@@@QAE@XZ 00407760 f i octarender.obj
 0001:000067b0       ?add@?$vector@Umergedface@@@@QAEAAUmergedface@@ABU2@@Z 004077b0 f i octarender.obj
 0001:00006810       ?move@?$vector@Umergedface@@@@QAEXAAU1@@Z 00407810 f i octarender.obj
 0001:00006890       ?growbuf@?$vector@Ugrasstri@@@@QAEXH@Z 00407890 f i octarender.obj
 0001:00006910       ?growbuf@?$vector@Utjoint@@@@QAEXH@Z 00407910 f i octarender.obj
 0001:000069a0       ??0?$hashset@U?$hashtableentry@IUvboinfo@@@@@@QAE@H@Z 004079a0 f i octarender.obj
 0001:00006a30       ??0?$hashset@U?$hashtableentry@Usortkey@@Usortval@@@@@@QAE@H@Z 00407a30 f i octarender.obj
 0001:00006a30       ??0?$hashset@Uteaminfo@@@@QAE@H@Z 00407a30 f i scoreboard.obj
 0001:00006a30       ??0?$hashset@U?$hashtableentry@Uivec@@H@@@@QAE@H@Z 00407a30 f i rendermodel.obj
 0001:00006ab0       ?deletechunks@?$hashset@U?$hashtableentry@Usortkey@@Usortval@@@@@@QAEXXZ 00407ab0 f i octarender.obj
 0001:00006b20       ?growbuf@?$vector@Usortkey@@@@QAEXH@Z 00407b20 f i octarender.obj
 0001:00006ba0       ?growbuf@?$vector@Uteamscore@@@@QAEXH@Z 00407ba0 f i fps.obj
 0001:00006ba0       ?growbuf@?$vector@Ureljoint@ragdollskel@@@@QAEXH@Z 00407ba0 f i rendermodel.obj
 0001:00006ba0       ?growbuf@?$vector@Uufval@unionfind@@@@QAEXH@Z 00407ba0 f i material.obj
 0001:00006ba0       ?growbuf@?$vector@Usoundslot@@@@QAEXH@Z 00407ba0 f i sound.obj
 0001:00006ba0       ?growbuf@?$vector@Ufacebounds@@@@QAEXH@Z 00407ba0 f i octarender.obj
 0001:00006ba0       ?growbuf@?$vector@Uantipode@skelmodel@@@@QAEXH@Z 00407ba0 f i rendermodel.obj
 0001:00006ba0       ?growbuf@?$vector@Utcvert@vertmodel@@@@QAEXH@Z 00407ba0 f i rendermodel.obj
 0001:00006ba0       ?growbuf@?$vector@Ucrcinfo@server@@@@QAEXH@Z 00407ba0 f i server1.obj
 0001:00006ba0       ?growbuf@?$vector@UBIHNode@@@@QAEXH@Z 00407ba0 f i bih.obj
 0001:00006ba0       ?growbuf@?$vector@Uvec2@@@@QAEXH@Z 00407ba0 f i worldio.obj
 0001:00006ba0       ?growbuf@?$vector@UAttribLoc@@@@QAEXH@Z 00407ba0 f i shader.obj
 0001:00006c20       ?growbuf@?$vector@Ucubeedge@@@@QAEXH@Z 00407c20 f i octarender.obj
 0001:00006ca0       ??0?$hashset@U?$hashtableentry@Uedgegroup@@H@@@@QAE@H@Z 00407ca0 f i octarender.obj
 0001:00006d30       ?growbuf@?$vector@Uvvert@skelmodel@@@@QAEXH@Z 00407d30 f i rendermodel.obj
 0001:00006d30       ?growbuf@?$vector@Umergedface@@@@QAEXH@Z 00407d30 f i octarender.obj
 0001:00006d30       ?growbuf@?$vector@Uvert@ragdollskel@@@@QAEXH@Z 00407d30 f i rendermodel.obj
 0001:00006d30       ?growbuf@?$vector@Uinterest@ai@@@@QAEXH@Z 00407d30 f i ai.obj
 0001:00006d30       ?growbuf@?$vector@Uzipfile@@@@QAEXH@Z 00407d30 f i zip.obj
 0001:00006d30       ?growbuf@?$vector@Uvvertff@vertmodel@@@@QAEXH@Z 00407d30 f i rendermodel.obj
 0001:00006db0       ??1chain@?$hashset@U?$hashtableentry@Usortkey@@Usortval@@@@@@QAE@XZ 00407db0 f i octarender.obj
 0001:00006e10       ??1?$hashtableentry@Usortkey@@Usortval@@@@QAE@XZ 00407e10 f i octarender.obj
 0001:00006e60       ??1sortval@@QAE@XZ         00407e60 f i octarender.obj
 0001:00006eb0       ?insert@?$hashset@U?$hashtableentry@IUvboinfo@@@@@@QAEPAUchain@1@I@Z 00407eb0 f i octarender.obj
 0001:00006f70       ?insert@?$hashset@U?$hashtableentry@Usortkey@@Usortval@@@@@@QAEPAUchain@1@I@Z 00407f70 f i octarender.obj
 0001:00007030       ?insert@?$hashset@U?$hashtableentry@Uedgegroup@@H@@@@QAEPAUchain@1@I@Z 00408030 f i octarender.obj
 0001:000070f0       ??0chain@?$hashset@U?$hashtableentry@Usortkey@@Usortval@@@@@@QAE@XZ 004080f0 f i octarender.obj
 0001:00007160       ??$remove@I@?$hashset@U?$hashtableentry@IUvboinfo@@@@@@QAE_NABI@Z 00408160 f i octarender.obj
 0001:000071f0       _asinf                     004081f0 f i octarender.obj
 0001:00007200       _atan2f                    00408200 f i octarender.obj
 0001:00007220       ?lerp@bvec@@QAEXABU1@0M@Z  00408220 f i octarender.obj
 0001:000072b0       ?supportpoint@EntAABB@mpr@@QBE?AUvec@@ABU3@@Z 004082b0 f i physics.obj
 0001:00007350       ?contactface@EntOBB@mpr@@QBE?AUvec@@ABU3@0@Z 00408350 f i physics.obj
 0001:000077d0       ?supportpoint@EntOBB@mpr@@QBE?AUvec@@ABU3@@Z 004087d0 f i physics.obj
 0001:00007a80       ??0ModelOBB@mpr@@QAE@ABUvec@@00M@Z 00408a80 f i physics.obj
 0001:00007a80       ??0ModelEllipse@mpr@@QAE@ABUvec@@00M@Z 00408a80 f i physics.obj
 0001:00007c20       ?contactface@ModelOBB@mpr@@QBE?AUvec@@ABU3@0@Z 00408c20 f i physics.obj
 0001:000080a0       ?supportpoint@ModelOBB@mpr@@QBE?AUvec@@ABU3@@Z 004090a0 f i physics.obj
 0001:00008340       ?contactface@ModelEllipse@mpr@@QBE?AUvec@@ABU3@0@Z 00409340 f i physics.obj
 0001:000087d0       ?supportpoint@ModelEllipse@mpr@@QBE?AUvec@@ABU3@@Z 004097d0 f i physics.obj
 0001:00008af0       ??0dynentcacheentry@@QAE@XZ 00409af0 f i physics.obj
 0001:00008b40       ??1dynentcacheentry@@QAE@XZ 00409b40 f i physics.obj
 0001:00008b90       ?growbuf@?$vector@Uplatforment@@@@QAEXH@Z 00409b90 f i physics.obj
 0001:00008c20       ?growbuf@?$vector@Uplatformcollision@@@@QAEXH@Z 00409c20 f i physics.obj
 0001:00008cb0       ??$collide@UEntOBB@mpr@@UEntCylinder@2@@mpr@@YA_NABUEntOBB@0@ABUEntCylinder@0@PAUvec@@22@Z 00409cb0 f i physics.obj
 0001:0000a820       ??$collide@UEntOBB@mpr@@U12@@mpr@@YA_NABUEntOBB@0@0PAUvec@@11@Z 0040b820 f i physics.obj
 0001:0000bfb0       ??$collide@UEntOBB@mpr@@UModelEllipse@2@@mpr@@YA_NABUEntOBB@0@ABUModelEllipse@0@PAUvec@@22@Z 0040cfb0 f i physics.obj
 0001:0000d730       ??$collide@UEntOBB@mpr@@UModelOBB@2@@mpr@@YA_NABUEntOBB@0@ABUModelOBB@0@PAUvec@@22@Z 0040e730 f i physics.obj
 0001:0000eeb0       ??$collide@USolidCube@mpr@@UEntOBB@2@@mpr@@YA_NABUSolidCube@0@ABUEntOBB@0@@Z 0040feb0 f i physics.obj
 0001:0000f9e0       ??$collide@UCubePlanes@mpr@@UEntOBB@2@@mpr@@YA_NABUCubePlanes@0@ABUEntOBB@0@@Z 004109e0 f i physics.obj
 0001:000108c0       ??$collide@USolidCube@mpr@@UEntCapsule@2@@mpr@@YA_NABUSolidCube@0@ABUEntCapsule@0@@Z 004118c0 f i physics.obj
 0001:00011630       ??$collide@UCubePlanes@mpr@@UEntCapsule@2@@mpr@@YA_NABUCubePlanes@0@ABUEntCapsule@0@@Z 00412630 f i physics.obj
 0001:00012790       _powf                      00413790 f i physics.obj
 0001:000127a0       ?reset@physent@@QAEXXZ     004137a0 f i physics.obj
 0001:00012820       ??0physent@@QAE@XZ         00413820 f i physics.obj
 0001:000128c0       ?projectxy@vec@@QAEAAU1@ABU1@M@Z 004138c0 f i physics.obj
 0001:000129d0       ?collisionbox@model@@QAEXHAAUvec@@0@Z 004139d0 f i physics.obj
 0001:00012ac0       ??0shaftbb@@QAE@ABUivec@@HABUbvec@@@Z 00413ac0 f i pvs.obj
 0001:00012b80       ?calcshaft@shaft@@QAEXABUshaftbb@@0@Z 00413b80 f i pvs.obj
 0001:00012e70       ?outside@shaft@@QBE_NABUshaftbb@@@Z 00413e70 f i pvs.obj
 0001:00012f20       ?inside@shaft@@QBE_NABUshaftbb@@@Z 00413f20 f i pvs.obj
 0001:00012fd0       ??0<unnamed-type-waterplanes>@@QAE@XZ 00413fd0 f i pvs.obj
 0001:00013020       ??1<unnamed-type-waterplanes>@@QAE@XZ 00414020 f i pvs.obj
 0001:00013070       ??0pvsworker@@QAE@XZ       00414070 f i pvs.obj
 0001:00013120       ??1pvsworker@@QAE@XZ       00414120 f i pvs.obj
 0001:00013190       ?hasvoxel@pvsworker@@QAEHABUivec@@HHHHPAH@Z 00414190 f i pvs.obj
 0001:00013470       ?hidepvs@pvsworker@@QAEXAAUpvsnode@@@Z 00414470 f i pvs.obj
 0001:000134c0       ?shaftcullpvs@pvsworker@@QAEXAAUshaft@@AAUpvsnode@@ABUivec@@H@Z 004144c0 f i pvs.obj
 0001:00013610       ?cullpvs@pvsworker@@QAEXAAUpvsnode@@ABUivec@@H@Z 00414610 f i pvs.obj
 0001:00014810       ?compresspvs@pvsworker@@QAE_NAAUpvsnode@@HH@Z 00415810 f i pvs.obj
 0001:00014940       ?serializepvs@pvsworker@@QAE_NAAUpvsnode@@H@Z 00415940 f i pvs.obj
 0001:00014b60       ?materialoccluded@pvsworker@@QAE_NAAUpvsnode@@ABUivec@@H11@Z 00415b60 f i pvs.obj
 0001:00014c40       ?materialoccluded@pvsworker@@QAE_NAAU?$vector@PAUmaterialsurface@@@@@Z 00415c40 f i pvs.obj
 0001:00014d50       ?calcpvs@pvsworker@@QAEXABUivec@@H@Z 00415d50 f i pvs.obj
 0001:00014ee0       ?genviewcell@pvsworker@@QAEHABUivec@@H@Z 00415ee0 f i pvs.obj
 0001:00015060       ?run@pvsworker@@SAHPAX@Z   00416060 f i pvs.obj
 0001:00015270       ??0viewcellnode@@QAE@XZ    00416270 f i pvs.obj
 0001:000152b0       ??1viewcellnode@@QAE@XZ    004162b0 f i pvs.obj
 0001:00015300       ?access@?$hashtable@Upvsdata@@H@@QAEPAHABUpvsdata@@@Z 00416300 f i pvs.obj
 0001:000153b0       ??A?$hashtable@Upvsdata@@H@@QAEAAHABUpvsdata@@@Z 004163b0 f i pvs.obj
 0001:00015470       ??1?$hashset@U?$hashtableentry@Upvsdata@@H@@@@QAE@XZ 00416470 f i pvs.obj
 0001:000154c0       ?clear@?$hashset@U?$hashtableentry@Upvsdata@@H@@@@QAEXXZ 004164c0 f i pvs.obj
 0001:00015530       ?add@?$vector@PAUpvsworker@@@@QAEAAPAUpvsworker@@ABQAU2@@Z 00416530 f i pvs.obj
 0001:00015580       ?deletecontents@?$vector@PAUpvsworker@@@@QAEXXZ 00416580 f i pvs.obj
 0001:00015620       ?growbuf@?$vector@Upvsnode@@@@QAEXH@Z 00416620 f i pvs.obj
 0001:000156b0       ??0?$hashset@U?$hashtableentry@Upvsdata@@H@@@@QAE@H@Z 004166b0 f i pvs.obj
 0001:00015740       ?growbuf@?$vector@Upvsdata@@@@QAEXH@Z 00416740 f i pvs.obj
 0001:000157d0       ?growbuf@?$vector@Uviewcellrequest@@@@QAEXH@Z 004167d0 f i pvs.obj
 0001:00015860       ?growbuf@?$vector@PAUpvsworker@@@@QAEXH@Z 00416860 f i pvs.obj
 0001:000158f0       ?insert@?$hashset@U?$hashtableentry@Upvsdata@@H@@@@QAEPAUchain@1@I@Z 004168f0 f i pvs.obj
 0001:000159b0       ??$getlil@H@stream@@QAEHXZ 004169b0 f i pvs.obj
 0001:000159d0       ??$getlil@G@stream@@QAEGXZ 004169d0 f i pvs.obj
 0001:000159f0       ??_Goctaentities@@QAEPAXI@Z 004169f0 f i world.obj
 0001:00015a70       ?add@?$vector@Uentity@@@@QAEAAUentity@@ABU2@@Z 00416a70 f i world.obj
 0001:00015ae0       ?growbuf@?$vector@Ubase@collectservmode@server@@@@QAEXH@Z 00416ae0 f i server1.obj
 0001:00015ae0       ?growbuf@?$vector@Uvert@vertmodel@@@@QAEXH@Z 00416ae0 f i rendermodel.obj
 0001:00015ae0       ?growbuf@?$vector@Uwaterinfo@@@@QAEXH@Z 00416ae0 f i material.obj
 0001:00015ae0       ?growbuf@?$vector@Uaistate@ai@@@@QAEXH@Z 00416ae0 f i ai.obj
 0001:00015ae0       ?growbuf@?$vector@Uentity@@@@QAEXH@Z 00416ae0 f i world.obj
 0001:00015ae0       ?growbuf@?$vector@Uskeladjustment@@@@QAEXH@Z 00416ae0 f i rendermodel.obj
 0001:00015b60       _fmodf                     00416b60 f i world.obj
 0001:00015ba0       ?rotate@vec@@QAEAAU1@MABU1@@Z 00416ba0 f i world.obj
 0001:00015d20       ?concatstring@@YAPADPADPBDI@Z 00416d20 f i world.obj
 0001:00015d60       ??0octaentities@@QAE@ABUivec@@H@Z 00416d60 f i world.obj
 0001:00015e20       ??1?$hashtable@Uivec@@H@@QAE@XZ 00416e20 f i rendermodel.obj
 0001:00015e20       ??1?$hashtable@Uvec@@H@@QAE@XZ 00416e20 f i worldio.obj
 0001:00015e60       ??1?$hashtable@Uvec2@@H@@QAE@XZ 00416e60 f i worldio.obj
 0001:00015ea0       ??1?$hashtable@HU?$vector@Uivec@@@@@@QAE@XZ 00416ea0 f i worldio.obj
 0001:00015f00       ?add@?$vector@Uentity@@@@QAEAAUentity@@XZ 00416f00 f i worldio.obj
 0001:00015f60       ??1?$hashset@U?$hashtableentry@Uvec2@@H@@@@QAE@XZ 00416f60 f i worldio.obj
 0001:00015f60       ??1?$hashset@Uteaminfo@@@@QAE@XZ 00416f60 f i scoreboard.obj
 0001:00015fb0       ??1?$hashset@U?$hashtableentry@HU?$vector@Uivec@@@@@@@@QAE@XZ 00416fb0 f i worldio.obj
 0001:00015fe0       ?growbuf@?$vector@PAUVSlot@@@@QAEXH@Z 00416fe0 f i worldio.obj
 0001:00016070       ?growbuf@?$vector@Uskelanimspec@skelmodel@@@@QAEXH@Z 00417070 f i rendermodel.obj
 0001:00016070       ?growbuf@?$vector@Uvotecount@server@@@@QAEXH@Z 00417070 f i server1.obj
 0001:00016070       ?growbuf@?$vector@Utransparentmodel@@@@QAEXH@Z 00417070 f i rendermodel.obj
 0001:00016070       ?growbuf@?$vector@Uivec@@@@QAEXH@Z 00417070 f i worldio.obj
 0001:00016070       ?growbuf@?$vector@Utri@ragdollskel@@@@QAEXH@Z 00417070 f i rendermodel.obj
 0001:00016070       ?growbuf@?$vector@Uobstacle@avoidset@ai@@@@QAEXH@Z 00417070 f i ai.obj
 0001:00016070       ?growbuf@?$vector@Uholdspawn@ctfservmode@server@@@@QAEXH@Z 00417070 f i server1.obj
 0001:00016070       ?growbuf@?$vector@Ueditline@@@@QAEXH@Z 00417070 f i 3dgui.obj
 0001:00016070       ?growbuf@?$vector@Usoundconfig@@@@QAEXH@Z 00417070 f i sound.obj
 0001:00016070       ?growbuf@?$vector@Usortitem@@@@QAEXH@Z 00417070 f i command.obj
 0001:00016070       ?growbuf@?$vector@Uvec@@@@QAEXH@Z 00417070 f i worldio.obj
 0001:000160f0       ??0?$hashset@U?$hashtableentry@Uvec2@@H@@@@QAE@H@Z 004170f0 f i worldio.obj
 0001:00016170       ??0?$hashset@U?$hashtableentry@HU?$vector@Uivec@@@@@@@@QAE@H@Z 00417170 f i worldio.obj
 0001:000161f0       ?deletechunks@?$hashset@U?$hashtableentry@HU?$vector@Uivec@@@@@@@@QAEXXZ 004171f0 f i worldio.obj
 0001:00016260       ??1chain@?$hashset@U?$hashtableentry@HU?$vector@Uivec@@@@@@@@QAE@XZ 00417260 f i worldio.obj
 0001:000162c0       ??1?$hashtableentry@HU?$vector@Uivec@@@@@@QAE@XZ 004172c0 f i worldio.obj
 0001:00016310       ?insert@?$hashset@U?$hashtableentry@Uvec@@H@@@@QAEPAUchain@1@I@Z 00417310 f i worldio.obj
 0001:00016310       ?insert@?$hashset@U?$hashtableentry@Uivec@@H@@@@QAEPAUchain@1@I@Z 00417310 f i rendermodel.obj
 0001:000163c0       ?insert@?$hashset@U?$hashtableentry@Uvec2@@H@@@@QAEPAUchain@1@I@Z 004173c0 f i worldio.obj
 0001:00016470       ?insert@?$hashset@U?$hashtableentry@HU?$vector@Uivec@@@@@@@@QAEPAUchain@1@I@Z 00417470 f i worldio.obj
 0001:00016530       ??0chain@?$hashset@U?$hashtableentry@HU?$vector@Uivec@@@@@@@@QAE@XZ 00417530 f i worldio.obj
 0001:00016580       ??$getlil@M@stream@@QAEMXZ 00417580 f i worldio.obj
 0001:000165a0       ??1packetbuf@@QAE@XZ       004175a0 f i client.obj
 0001:000165e0       ?put@?$vector@D@@QAEXPBDH@Z 004175e0 f i server.obj
 0001:00016620       ?growbuf@?$vector@PAUclient@@@@QAEXH@Z 00417620 f i server.obj
 0001:000166b0       ?subbuf@?$databuf@E@@QAE?AU1@H@Z 004176b0 f i server.obj
 0001:000166f0       ?subbuf@packetbuf@@QAE?AU?$databuf@E@@H@Z 004176f0 f i server.obj
 0001:00016770       ?finalize@packetbuf@@QAEPAU_ENetPacket@@XZ 00417770 f i server.obj
 0001:000167a0       ?put@packetbuf@@QAEXPBEH@Z 004177a0 f i server.obj
 0001:00016820       ??0packetbuf@@QAE@HH@Z     00417820 f i server.obj
 0001:00016870       ??0serverinfo@@QAE@XZ      00417870 f i serverbrowser.obj
 0001:00016950       ?addping@serverinfo@@QAEXHH@Z 00417950 f i serverbrowser.obj
 0001:000169f0       ?compare@serverinfo@@SA_NPAU1@0@Z 004179f0 f i serverbrowser.obj
 0001:00016ad0       ??_Gserverinfo@@QAEPAXI@Z  00417ad0 f i serverbrowser.obj
 0001:00016b60       ?remove@?$vector@Uresolverresult@@@@QAE?AUresolverresult@@H@Z 00417b60 f i serverbrowser.obj
 0001:00016be0       ?deletecontents@?$vector@PAUserverinfo@@@@QAEXXZ 00417be0 f i serverbrowser.obj
 0001:00016c90       ?growbuf@?$vector@Uresolverthread@@@@QAEXH@Z 00417c90 f i serverbrowser.obj
 0001:00016d20       ?growbuf@?$vector@Uresolverresult@@@@QAEXH@Z 00417d20 f i serverbrowser.obj
 0001:00016db0       ?growbuf@?$vector@PAUserverinfo@@@@QAEXH@Z 00417db0 f i serverbrowser.obj
 0001:00016e40       ??0editline@@QAE@PBD@Z     00417e40 f i 3dgui.obj
 0001:00016ea0       ?grow@editline@@QAA_NHPBDZZ 00417ea0 f i 3dgui.obj
 0001:00016f20       ?set@editline@@QAEXPBDH@Z  00417f20 f i 3dgui.obj
 0001:00016fa0       ?prepend@editline@@QAEXPBD@Z 00417fa0 f i 3dgui.obj
 0001:00017010       ?append@editline@@QAEXPBD@Z 00418010 f i 3dgui.obj
 0001:00017070       ?read@editline@@QAE_NPAUstream@@H@Z 00418070 f i 3dgui.obj
 0001:000171d0       ?del@editline@@QAEXHH@Z    004181d0 f i 3dgui.obj
 0001:00017220       ?insert@editline@@QAEXPADHH@Z 00418220 f i 3dgui.obj
 0001:000172a0       ?combinelines@editline@@QAEXAAU?$vector@Ueditline@@@@@Z 004182a0 f i 3dgui.obj
 0001:00017360       ??0editor@@QAE@PBDH0@Z     00418360 f i 3dgui.obj
 0001:000174a0       ??1editor@@QAE@XZ          004184a0 f i 3dgui.obj
 0001:00017540       ?clear@editor@@QAEXPBD@Z   00418540 f i 3dgui.obj
 0001:00017680       ?setfile@editor@@QAEXPBD@Z 00418680 f i 3dgui.obj
 0001:000176f0       ?load@editor@@QAEXXZ       004186f0 f i 3dgui.obj
 0001:00017830       ?save@editor@@QAEXXZ       00418830 f i 3dgui.obj
 0001:00017890       ?region@editor@@QAE_NAAH000@Z 00418890 f i 3dgui.obj
 0001:00017980       ?currentline@editor@@QAEAAUeditline@@XZ 00418980 f i 3dgui.obj
 0001:000179e0       ?copyselectionto@editor@@QAEXPAU1@@Z 004189e0 f i 3dgui.obj
 0001:00017bd0       ?tostring@editor@@QAEPADXZ 00418bd0 f i 3dgui.obj
 0001:00017cf0       ?selectiontostring@editor@@QAEPADXZ 00418cf0 f i 3dgui.obj
 0001:00017ea0       ?removelines@editor@@QAEXHH@Z 00418ea0 f i 3dgui.obj
 0001:00017f40       ?del@editor@@QAE_NXZ       00418f40 f i 3dgui.obj
 0001:00018100       ?insert@editor@@QAEXD@Z    00419100 f i 3dgui.obj
 0001:000181f0       ?insert@editor@@QAEXPBD@Z  004191f0 f i 3dgui.obj
 0001:000183d0       ?insertallfrom@editor@@QAEXPAU1@@Z 004193d0 f i 3dgui.obj
 0001:000184f0       ?key@editor@@QAEXHH@Z      004194f0 f i 3dgui.obj
 0001:00018820       ?hit@editor@@QAEXHH_N@Z    00419820 f i 3dgui.obj
 0001:00018900       ?limitscrolly@editor@@QAEHXZ 00419900 f i 3dgui.obj
 0001:00018990       ?draw@editor@@QAEXHHH_N@Z  00419990 f i 3dgui.obj
 0001:00019180       ?allowautotab@gui@@UAEX_N@Z 0041a180 f i 3dgui.obj
 0001:00019190       ?autotab@gui@@QAEXXZ       0041a190 f i 3dgui.obj
 0001:00019200       ?shouldtab@gui@@UAE_NXZ    0041a200 f i 3dgui.obj
 0001:000192b0       ?tab@gui@@UAEXPBDH@Z       0041a2b0 f i 3dgui.obj
 0001:00019550       ?pushlist@gui@@UAEXXZ      0041a550 f i 3dgui.obj
 0001:000196c0       ?poplist@gui@@UAEXXZ       0041a6c0 f i 3dgui.obj
 0001:000197d0       ?text@gui@@UAEHPBDH0@Z     0041a7d0 f i 3dgui.obj
 0001:00019800       ?button@gui@@UAEHPBDH0@Z   0041a800 f i 3dgui.obj
 0001:00019830       ?title@gui@@UAEHPBDH0@Z    0041a830 f i 3dgui.obj
 0001:00019860       ?separator@gui@@UAEXXZ     0041a860 f i 3dgui.obj
 0001:00019890       ?progress@gui@@UAEXM@Z     0041a890 f i 3dgui.obj
 0001:000198d0       ?strut@gui@@UAEXM@Z        0041a8d0 f i 3dgui.obj
 0001:00019940       ?space@gui@@UAEXM@Z        0041a940 f i 3dgui.obj
 0001:000199b0       ?spring@gui@@UAEXH@Z       0041a9b0 f i 3dgui.obj
 0001:00019a80       ?column@gui@@UAEXH@Z       0041aa80 f i 3dgui.obj
 0001:00019ab0       ?layout@gui@@QAEHHH@Z      0041aab0 f i 3dgui.obj
 0001:00019b70       ?mergehits@gui@@UAEX_N@Z   0041ab70 f i 3dgui.obj
 0001:00019b80       ?ishit@gui@@QAE_NHHHH@Z    0041ab80 f i 3dgui.obj
 0001:00019c80       ?image@gui@@UAEHPAUTexture@@M_N@Z 0041ac80 f i 3dgui.obj
 0001:00019d30       ?texture@gui@@UAEHAAUVSlot@@M_N@Z 0041ad30 f i 3dgui.obj
 0001:00019de0       ?playerpreview@gui@@UAEHHHHM_N@Z 0041ade0 f i 3dgui.obj
 0001:0001a3c0       ?modelpreview@gui@@UAEHPBDHM_N@Z 0041b3c0 f i 3dgui.obj
 0001:0001ab80       ?slider@gui@@UAEXAAHHHHPBD@Z 0041bb80 f i 3dgui.obj
 0001:0001ae40       ?field@gui@@UAEPADPBDHHH0H@Z 0041be40 f i 3dgui.obj
 0001:0001ae70       ?keyfield@gui@@UAEPADPBDHHH0H@Z 0041be70 f i 3dgui.obj
 0001:0001aea0       ?field_@gui@@QAEPADPBDHHH0HH@Z 0041bea0 f i 3dgui.obj
 0001:0001b400       ?text_@gui@@QAEXPBDHHH_N1@Z 0041c400 f i 3dgui.obj
 0001:0001b480       ?background@gui@@UAEXHHH@Z 0041c480 f i 3dgui.obj
 0001:0001b6b0       ?icon_@gui@@QAEXPAUTexture@@_NHHH1@Z 0041c6b0 f i 3dgui.obj
 0001:0001bac0       ?previewslot@gui@@QAEXAAUVSlot@@_NHHH1@Z 0041cac0 f i 3dgui.obj
 0001:0001c680       ?line_@gui@@QAEXHM@Z       0041d680 f i 3dgui.obj
 0001:0001cbb0       ?textbox@gui@@UAEXPBDHHH@Z 0041dbb0 f i 3dgui.obj
 0001:0001cc70       ?button_@gui@@QAEHPBDH0_N1@Z 0041dc70 f i 3dgui.obj
 0001:0001ce90       ?drawskin@gui@@SAXHHHHHHHABUvec@@M@Z 0041de90 f i 3dgui.obj
 0001:0001d3a0       ?adjustscale@gui@@QAEXXZ   0041e3a0 f i 3dgui.obj
 0001:0001d500       ?start@gui@@UAEXHMPAH_N@Z  0041e500 f i 3dgui.obj
 0001:0001d980       ?adjusthorizontalcolumn@gui@@QAEXHH@Z 0041e980 f i 3dgui.obj
 0001:0001d9f0       ?adjustverticalcolumn@gui@@QAEXHH@Z 0041e9f0 f i 3dgui.obj
 0001:0001da60       ?adjustcolumns@gui@@QAEXXZ 0041ea60 f i 3dgui.obj
 0001:0001db10       ?end@gui@@UAEXXZ           0041eb10 f i 3dgui.obj
 0001:0001df50       ?add@?$vector@Ueditline@@@@QAEAAUeditline@@XZ 0041ef50 f i 3dgui.obj
 0001:0001df50       ?add@?$vector@Uskelanimspec@skelmodel@@@@QAEAAUskelanimspec@skelmodel@@XZ 0041ef50 f i rendermodel.obj
 0001:0001dfd0       ?insert@?$vector@Ueditline@@@@QAEAAUeditline@@HABU2@@Z 0041efd0 f i 3dgui.obj
 0001:0001e080       ?insert@?$vector@PAUeditor@@@@QAEAAPAUeditor@@HABQAU2@@Z 0041f080 f i 3dgui.obj
 0001:0001e0f0       ??_Ggui@@UAEPAXI@Z         0041f0f0 f i 3dgui.obj
 0001:0001e0f0       ??_Egui@@UAEPAXI@Z         0041f0f0 f i * CIL library *:* CIL module *
 0001:0001e140       ??1gui@@UAE@XZ             0041f140 f i 3dgui.obj
 0001:0001e180       ?growbuf@?$vector@PAUeditor@@@@QAEXH@Z 0041f180 f i 3dgui.obj
 0001:0001e210       ?growbuf@?$vector@Ulist@gui@@@@QAEXH@Z 0041f210 f i 3dgui.obj
 0001:0001e2a0       ?growbuf@?$vector@Ugui@@@@QAEXH@Z 0041f2a0 f i 3dgui.obj
 0001:0001e320       ??4gui@@QAEAAU0@ABU0@@Z    0041f320 f i 3dgui.obj
 0001:0001e390       ??0gui@@QAE@ABU0@@Z        0041f390 f i 3dgui.obj
 0001:0001e440       ??_Eg3d_gui@@UAEPAXI@Z     0041f440 f i * CIL library *:* CIL module *
 0001:0001e440       ??_Gg3d_gui@@UAEPAXI@Z     0041f440 f i 3dgui.obj
 0001:0001e460       ?texrect@rendertarget@@UBE_NXZ 0041f460 f i glare.obj
 0001:0001e460       ?hidefrags@servmode@server@@UAE_NXZ 0041f460 f i server1.obj
 0001:0001e460       ?shouldtab@g3d_gui@@UAE_NXZ 0041f460 f i 3dgui.obj
 0001:0001e460       ?hidefrags@clientmode@game@@UAE_NXZ 0041f460 f i client1.obj
 0001:0001e460       ?swaptexs@rendertarget@@UBE_NXZ 0041f460 f i glare.obj
 0001:0001e460       ?skeletal@model@@UBE_NXZ   0041f460 f i rendermodel.obj
 0001:0001e460       ?flipdebug@shadowmaptexture@@UBE_NXZ 0041f460 f i shadowmap.obj
 0001:0001e460       ?screenview@rendertarget@@UBE_NXZ 0041f460 f i glare.obj
 0001:0001e460       ?keepable@gameevent@server@@UBE_NXZ 0041f460 f i server1.obj
 0001:0001e460       ?shadowcompare@rendertarget@@UBE_NXZ 0041f460 f i glare.obj
 0001:0001e460       ?usesvertexarray@partrenderer@@UAE_NXZ 0041f460 f i renderparticles.obj
 0001:0001e460       ?envmapped@model@@UAE_NXZ  0041f460 f i rendermodel.obj
 0001:0001e470       ?playerpreview@g3d_gui@@UAEHHHHM_N@Z 0041f470 f i 3dgui.obj
 0001:0001e480       ?modelpreview@g3d_gui@@UAEHPBDHM_N@Z 0041f480 f i 3dgui.obj
 0001:0001e490       ??1g3d_gui@@UAE@XZ         0041f490 f i 3dgui.obj
 0001:0001e4a0       ?traverse@BIH@@QAE_NABUvec@@00MAAMHPAUBIHNode@@MM@Z 0041f4a0 f i bih.obj
 0001:0001e820       ?traverse@BIH@@QAE_NABUvec@@0MAAMH@Z 0041f820 f i bih.obj
 0001:0001e9b0       ?init@blobrenderer@@QAEXH@Z 0041f9b0 f i blob.obj
 0001:0001ebc0       ?freeblob@blobrenderer@@QAE_NXZ 0041fbc0 f i blob.obj
 0001:0001ec30       ?newblob@blobrenderer@@QAEAAUblobinfo@@ABUvec@@M@Z 0041fc30 f i blob.obj
 0001:0001ecb0       ?addvert@blobrenderer@@QAEHABUvec@@@Z 0041fcb0 f i blob.obj
 0001:0001edc0       ?addtris@blobrenderer@@QAEXPBUvec@@H@Z 0041fdc0 f i blob.obj
 0001:0001f1e0       ?gentris@blobrenderer@@QAEXAAUcube@@HABUivec@@HPAUmaterialsurface@@H@Z 004201e0 f i blob.obj
 0001:0001fe50       ?findmaterials@blobrenderer@@QAEXPAUvtxarray@@@Z 00420e50 f i blob.obj
 0001:00020000       ?findescaped@blobrenderer@@QAEXPAUcube@@ABUivec@@HH@Z 00421000 f i blob.obj
 0001:000200f0       ?gentris@blobrenderer@@QAEXPAUcube@@ABUivec@@HH@Z 004210f0 f i blob.obj
 0001:00020320       ?addblob@blobrenderer@@QAEPAUblobinfo@@ABUvec@@MM@Z 00421320 f i blob.obj
 0001:00020500       ?setuprenderstate@blobrenderer@@SAXXZ 00421500 f i blob.obj
 0001:00020590       ?cleanuprenderstate@blobrenderer@@SAXXZ 00421590 f i blob.obj
 0001:000205f0       ?fadeblob@blobrenderer@@QAEXPAUblobinfo@@M@Z 004215f0 f i blob.obj
 0001:00020750       ?renderblob@blobrenderer@@QAEXABUvec@@MM@Z 00421750 f i blob.obj
 0001:000209b0       ??$clip@$0A@@blobrenderer@@SAHPBUvec@@HMMPAU1@@Z 004219b0 f i blob.obj
 0001:00020e40       ??$clip@$00@blobrenderer@@SAHPBUvec@@HMMPAU1@@Z 00421e40 f i blob.obj
 0001:000212c0       ??$clip@$01@blobrenderer@@SAHPBUvec@@HMMPAU1@@Z 004222c0 f i blob.obj
 0001:00021750       ??$split@$01@blobrenderer@@SAHPBUvec@@HMMPAU1@@Z 00422750 f i blob.obj
 0001:00021be0       ?freedecal@decalrenderer@@QAEHXZ 00422be0 f i decal.obj
 0001:00021c40       ?fadedecal@decalrenderer@@QAEXAAUdecalinfo@@E@Z 00422c40 f i decal.obj
 0001:00021d50       ?clearfadeddecals@decalrenderer@@QAEXXZ 00422d50 f i decal.obj
 0001:00021e30       ?fadeindecals@decalrenderer@@QAEXXZ 00422e30 f i decal.obj
 0001:00021fe0       ?fadeoutdecals@decalrenderer@@QAEXXZ 00422fe0 f i decal.obj
 0001:000221a0       ?render@decalrenderer@@QAEXXZ 004231a0 f i decal.obj
 0001:00022430       ?adddecal@decalrenderer@@QAEXABUvec@@0MABUbvec@@H@Z 00423430 f i decal.obj
 0001:00022940       ?clip@decalrenderer@@SAHPBUvec@@HABU2@MMPAU2@@Z 00423940 f i decal.obj
 0001:00022e10       ?gentris@decalrenderer@@QAEXAAUcube@@HABUivec@@HPAUmaterialsurface@@H@Z 00423e10 f i decal.obj
 0001:00024980       ?findmaterials@decalrenderer@@QAEXPAUvtxarray@@@Z 00425980 f i decal.obj
 0001:00024b60       ?findescaped@decalrenderer@@QAEXPAUcube@@ABUivec@@HH@Z 00425b60 f i decal.obj
 0001:00024c50       ?gentris@decalrenderer@@QAEXPAUcube@@ABUivec@@HH@Z 00425c50 f i decal.obj
 0001:00024e80       ?calccolor@dynlight@@QAEXXZ 00425e80 f i dynlight.obj
 0001:00024fb0       ?remove@?$vector@Udynlight@@@@QAEXHH@Z 00425fb0 f i dynlight.obj
 0001:00025010       ?remove@?$vector@Udynlight@@@@QAE?AUdynlight@@H@Z 00426010 f i dynlight.obj
 0001:00025090       ?insert@?$vector@Udynlight@@@@QAEAAUdynlight@@HABU2@@Z 00426090 f i dynlight.obj
 0001:00025110       ?insert@?$vector@PAUdynlight@@@@QAEAAPAUdynlight@@HABQAU2@@Z 00426110 f i dynlight.obj
 0001:00025190       ?add@?$vector@Udynlight@@@@QAEAAUdynlight@@ABU2@@Z 00426190 f i dynlight.obj
 0001:000251f0       ?growbuf@?$vector@Udynlight@@@@QAEXH@Z 004261f0 f i dynlight.obj
 0001:00025280       ?growbuf@?$vector@PAUdynlight@@@@QAEXH@Z 00426280 f i dynlight.obj
 0001:00025310       ??$dist_to_bb@Uivec@@@vec@@QBEMABUivec@@0@Z 00426310 f i dynlight.obj
 0001:000253e0       ??1rendertarget@@UAE@XZ    004263e0 f i glare.obj
 0001:000253f0       ?attachment@rendertarget@@UBEIXZ 004263f0 f i glare.obj
 0001:00025400       ?colorformats@rendertarget@@UBEPBIXZ 00426400 f i glare.obj
 0001:00025410       ?depthformats@rendertarget@@UBEPBIXZ 00426410 f i glare.obj
 0001:00025420       ?usesvertexarray@?$varenderer@$00@@UAE_NXZ 00426420 f i renderparticles.obj
 0001:00025420       ?hidefrags@captureclientmode@game@@UAE_NXZ 00426420 f i client1.obj
 0001:00025420       ?hidefrags@collectservmode@server@@UAE_NXZ 00426420 f i server1.obj
 0001:00025420       ?hidefrags@collectclientmode@game@@UAE_NXZ 00426420 f i client1.obj
 0001:00025420       ?hidefrags@ctfclientmode@game@@UAE_NXZ 00426420 f i client1.obj
 0001:00025420       ?hidefrags@captureservmode@server@@UAE_NXZ 00426420 f i server1.obj
 0001:00025420       ?keepable@explodeevent@server@@UBE_NXZ 00426420 f i server1.obj
 0001:00025420       ?filter@rendertarget@@UBE_NXZ 00426420 f i glare.obj
 0001:00025420       ?usesvertexarray@?$varenderer@$0A@@@UAE_NXZ 00426420 f i renderparticles.obj
 0001:00025420       ?skeletal@skelmodel@@UBE_NXZ 00426420 f i rendermodel.obj
 0001:00025420       ?shouldrender@rendertarget@@UAE_NXZ 00426420 f i glare.obj
 0001:00025420       ?dorender@rendertarget@@UAE_NXZ 00426420 f i glare.obj
 0001:00025420       ?depthtest@rendertarget@@UBE_NXZ 00426420 f i glare.obj
 0001:00025420       ?hidefrags@ctfservmode@server@@UAE_NXZ 00426420 f i server1.obj
 0001:00025420       ?loaddefaultparts@animmodel@@UAE_NXZ 00426420 f i rendermodel.obj
 0001:00025420       ?flipdebug@rendertarget@@UBE_NXZ 00426420 f i glare.obj
 0001:00025420       ?usesvertexarray@?$varenderer@$01@@UAE_NXZ 00426420 f i renderparticles.obj
 0001:00025430       ?cleanupblur@rendertarget@@QAEXXZ 00426430 f i glare.obj
 0001:00025490       ?setupblur@rendertarget@@QAEXXZ 00426490 f i glare.obj
 0001:000255a0       ?setup@rendertarget@@QAEXHH@Z 004265a0 f i glare.obj
 0001:00025840       ?rendertiles@rendertarget@@UAEXXZ 00426840 f i glare.obj
 0001:00025c60       ?blur@rendertarget@@QAEXHMHHHH_N@Z 00426c60 f i glare.obj
 0001:00025e60       ?doblur@rendertarget@@UAEXHM@Z 00426e60 f i glare.obj
 0001:00025ef0       ?scissorrender@rendertarget@@UAE_NAAH000@Z 00426ef0 f i glare.obj
 0001:00026070       ?scissorblur@rendertarget@@UAE_NAAH000@Z 00427070 f i glare.obj
 0001:000261e0       ?render@rendertarget@@QAEXHHHM@Z 004271e0 f i glare.obj
 0001:00026700       ?leavegame@servmode@server@@UAEXPAUclientinfo@2@_N@Z 00427700 f i server1.obj
 0001:00026700       ?dodebug@rendertarget@@UAEXHH@Z 00427700 f i glare.obj
 0001:00026700       ?died@servmode@server@@UAEXPAUclientinfo@2@0@Z 00427700 f i server1.obj
 0001:00026700       ?setglare@model@@UAEXMM@Z  00427700 f i rendermodel.obj
 0001:00026710       ?debug@rendertarget@@QAEXXZ 00427710 f i glare.obj
 0001:00026910       ??_Grendertarget@@UAEPAXI@Z 00427910 f i glare.obj
 0001:00026910       ??_Erendertarget@@UAEPAXI@Z 00427910 f i * CIL library *:* CIL module *
 0001:00026930       ?dorender@glaretexture@@UAE_NXZ 00427930 f i glare.obj
 0001:00026940       ??_Eglaretexture@@UAEPAXI@Z 00427940 f i * CIL library *:* CIL module *
 0001:00026940       ??_Gdepthfxtexture@@UAEPAXI@Z 00427940 f i renderparticles.obj
 0001:00026940       ??_Eshadowmaptexture@@UAEPAXI@Z 00427940 f i * CIL library *:* CIL module *
 0001:00026940       ??_Edepthfxtexture@@UAEPAXI@Z 00427940 f i * CIL library *:* CIL module *
 0001:00026940       ??_Gglaretexture@@UAEPAXI@Z 00427940 f i glare.obj
 0001:00026940       ??_Gshadowmaptexture@@UAEPAXI@Z 00427940 f i shadowmap.obj
 0001:00026990       ??0grasswedge@@QAE@H@Z     00427990 f i grass.obj
 0001:00026d40       ?growbuf@?$vector@Ugrassvert@@@@QAEXH@Z 00427d40 f i grass.obj
 0001:00026dc0       ?growbuf@?$vector@Ugrassgroup@@@@QAEXH@Z 00427dc0 f i grass.obj
 0001:00026e50       ??0QuadNode@@QAE@HHH@Z     00427e50 f i material.obj
 0001:00026e90       ?clear@QuadNode@@QAEXXZ    00427e90 f i material.obj
 0001:00026ed0       ??1QuadNode@@QAE@XZ        00427ed0 f i material.obj
 0001:00026ee0       ?insert@QuadNode@@QAEXHHH@Z 00427ee0 f i material.obj
 0001:00027030       ?genmatsurfs@QuadNode@@QAEXGEEHAAPAUmaterialsurface@@@Z 00428030 f i material.obj
 0001:00027190       ?growbuf@?$vector@Umd5joint@@@@QAEXH@Z 00428190 f i rendermodel.obj
 0001:00027190       ?growbuf@?$vector@Umaterialsurface@@@@QAEXH@Z 00428190 f i material.obj
 0001:00027190       ?growbuf@?$vector@Uhitinfo@server@@@@QAEXH@Z 00428190 f i server1.obj
 0001:00027220       ?compressfind@unionfind@@QAEHH@Z 00428220 f i material.obj
 0001:00027250       ?unite@unionfind@@QAEXHH@Z 00428250 f i material.obj
 0001:00027350       ??$perspectivetransform@Uvec4@@@glmatrixf@@QBE?AUvec@@ABUvec4@@@Z 00428350 f i rendergl.obj
 0001:00027490       ?clip@glmatrixf@@QAEXABUplane@@ABU1@@Z 00428490 f i rendergl.obj
 0001:00027580       ?transposedtransform@glmatrixf@@QBEXABUplane@@AAU2@@Z 00428580 f i rendergl.obj
 0001:000276a0       ?transpose@glmatrixf@@QAEXXZ 004286a0 f i rendergl.obj
 0001:00027770       ??$mul@MM@glmatrixf@@QAEXQBM0@Z 00428770 f i rendergl.obj
 0001:00027b10       ??0ragdollskel@@QAE@XZ     00428b10 f i rendermodel.obj
 0001:00027c10       ?setupjoints@ragdollskel@@QAEXXZ 00428c10 f i rendermodel.obj
 0001:00028110       ?setuprotfrictions@ragdollskel@@QAEXXZ 00429110 f i rendermodel.obj
 0001:00028220       ??0ragdolldata@@QAE@PAUragdollskel@@M@Z 00429220 f i rendermodel.obj
 0001:000283d0       ?calcanimjoint@ragdolldata@@QAEXHABUmatrix3x4@@@Z 004293d0 f i rendermodel.obj
 0001:00028770       ?calctris@ragdolldata@@QAEXXZ 00429770 f i rendermodel.obj
 0001:000289e0       ?calcboundsphere@ragdolldata@@QAEXXZ 004299e0 f i rendermodel.obj
 0001:00028b20       ?init@ragdolldata@@QAEXPAUdynent@@@Z 00429b20 f i rendermodel.obj
 0001:00028c70       ?collidevert@ragdolldata@@SA_NABUvec@@0M@Z 00429c70 f i rendermodel.obj
 0001:00028e30       ?applyrotlimit@ragdolldata@@QAEXAAUtri@ragdollskel@@0MABUvec@@@Z 00429e30 f i rendermodel.obj
 0001:00029b60       ??_Gragdolldata@@QAEPAXI@Z 0042ab60 f i rendermodel.obj
 0001:00029bc0       ?setframes@animpos@animmodel@@QAEXABUaniminfo@@@Z 0042abc0 f i rendermodel.obj
 0001:00029cb0       ??0skin@animmodel@@QAE@XZ  0042acb0 f i rendermodel.obj
 0001:00029d50       ?setuptmus@skin@animmodel@@QAEXPBUanimstate@2@_N@Z 0042ad50 f i rendermodel.obj
 0001:0002a2e0       ?setshaderparams@skin@animmodel@@QAEXPAUmesh@2@PBUanimstate@2@_N@Z 0042b2e0 f i rendermodel.obj
 0001:0002aad0       ?loadshader@skin@animmodel@@QAEPAUShader@@_N0@Z 0042bad0 f i rendermodel.obj
 0001:0002ad80       ?bind@skin@animmodel@@QAEXPAUmesh@2@PBUanimstate@2@@Z 0042bd80 f i rendermodel.obj
 0001:0002b410       ??1mesh@animmodel@@UAE@XZ  0042c410 f i rendermodel.obj
 0001:0002b440       ?calcbb@mesh@animmodel@@UAEXHAAUvec@@0ABUmatrix3x4@@@Z 0042c440 f i rendermodel.obj
 0001:0002b440       ?gentris@mesh@animmodel@@UAEXHPAUTexture@@PAU?$vector@Utri@BIH@@@@ABUmatrix3x4@@@Z 0042c440 f i rendermodel.obj
 0001:0002b450       ?setshader@mesh@animmodel@@UAEXPAUShader@@@Z 0042c450 f i rendermodel.obj
 0001:0002b4c0       ??1meshgroup@animmodel@@UAE@XZ 0042c4c0 f i rendermodel.obj
 0001:0002b570       ?findtag@meshgroup@animmodel@@UAEHPBD@Z 0042c570 f i rendermodel.obj
 0001:0002b580       ?moved@servmode@server@@UAEXPAUclientinfo@2@ABUvec@@_N12@Z 0042c580 f i server1.obj
 0001:0002b580       ?concattagtransform@meshgroup@animmodel@@UAEXPAUpart@2@HHABUmatrix3x4@@AAU4@@Z 0042c580 f i rendermodel.obj
 0001:0002b590       ?gentris@meshgroup@animmodel@@QAEXHAAU?$vector@Uskin@animmodel@@@@PAU?$vector@Utri@BIH@@@@ABUmatrix3x4@@@Z 0042c590 f i rendermodel.obj
 0001:0002b5f0       ?totalframes@meshgroup@animmodel@@UBEHXZ 0042c5f0 f i rendermodel.obj
 0001:0002b5f0       ?type@md3@@UBEHXZ          0042c5f0 f i rendermodel.obj
 0001:0002b600       ?getteamscores@servmode@server@@UAEXAAU?$vector@Uteamscore@@@@@Z 0042c600 f i server1.obj
 0001:0002b600       ?setfullbright@model@@UAEXM@Z 0042c600 f i rendermodel.obj
 0001:0002b600       ?setalphatest@model@@UAEXM@Z 0042c600 f i rendermodel.obj
 0001:0002b600       ?process@gameevent@server@@UAEXPAUclientinfo@2@@Z 0042c600 f i server1.obj
 0001:0002b600       ?setshader@model@@UAEXPAUShader@@@Z 0042c600 f i rendermodel.obj
 0001:0002b600       ?preload@meshgroup@animmodel@@UAEXPAUpart@2@@Z 0042c600 f i rendermodel.obj
 0001:0002b600       ?setcullface@model@@UAEX_N@Z 0042c600 f i rendermodel.obj
 0001:0002b600       ?setambient@model@@UAEXM@Z 0042c600 f i rendermodel.obj
 0001:0002b600       ?entergame@servmode@server@@UAEXPAUclientinfo@2@@Z 0042c600 f i server1.obj
 0001:0002b600       ?killpart@listrenderer@@UAEXPAUlistparticle@@@Z 0042c600 f i renderparticles.obj
 0001:0002b600       ?respawned@clientmode@game@@UAEXPAUfpsent@@@Z 0042c600 f i client1.obj
 0001:0002b600       ?checkitems@clientmode@game@@UAEXPAUfpsent@@@Z 0042c600 f i client1.obj
 0001:0002b600       ?spawned@servmode@server@@UAEXPAUclientinfo@2@@Z 0042c600 f i server1.obj
 0001:0002b600       ?getteamscores@clientmode@game@@UAEXAAU?$vector@Uteamscore@@@@@Z 0042c600 f i client1.obj
 0001:0002b600       ?init@partrenderer@@UAEXH@Z 0042c600 f i renderparticles.obj
 0001:0002b600       ?setspec@model@@UAEXM@Z    0042c600 f i rendermodel.obj
 0001:0002b600       ?removeplayer@clientmode@game@@UAEXPAUfpsent@@@Z 0042c600 f i client1.obj
 0001:0002b600       ?setalphablend@model@@UAEX_N@Z 0042c600 f i rendermodel.obj
 0001:0002b600       ?respawned@captureclientmode@game@@UAEXPAUfpsent@@@Z 0042c600 f i client1.obj
 0001:0002b600       ?senditems@clientmode@game@@UAEXAAUpacketbuf@@@Z 0042c600 f i client1.obj
 0001:0002b600       ?resettracked@partrenderer@@UAEXPAUphysent@@@Z 0042c600 f i renderparticles.obj
 0001:0002b610       ?seedemitter@partrenderer@@UAEXAAUparticleemitter@@ABUvec@@1HMH@Z 0042c610 f i renderparticles.obj
 0001:0002b610       ?render@meshgroup@animmodel@@UAEXPBUanimstate@2@MABUvec@@1PAUdynent@@PAUpart@2@@Z 0042c610 f i rendermodel.obj
 0001:0002b620       ?adddepthfx@partrenderer@@UAEHAAUvec@@0@Z 0042c620 f i renderparticles.obj
 0001:0002b620       ?clipconsole@clientmode@game@@UAEHHH@Z 0042c620 f i client1.obj
 0001:0002b620       ?write@stream@@UAEHPBXH@Z  0042c620 f i stream.obj
 0001:0002b620       ?read@stream@@UAEHPAXH@Z   0042c620 f i stream.obj
 0001:0002b620       ?loadmeshes@animmodel@@UAEPAUmeshgroup@1@PBDPAD@Z 0042c620 f i rendermodel.obj
 0001:0002b630       ?sharemeshes@animmodel@@QAAPAUmeshgroup@1@PBDZZ 0042c630 f i rendermodel.obj
 0001:0002b6e0       ??0part@animmodel@@QAE@XZ  0042c6e0 f i rendermodel.obj
 0001:0002b7b0       ??1part@animmodel@@UAE@XZ  0042c7b0 f i rendermodel.obj
 0001:0002b880       ?cleanup@part@animmodel@@UAEXXZ 0042c880 f i rendermodel.obj
 0001:0002b890       ?calcbb@part@animmodel@@QAEXHAAUvec@@0ABUmatrix3x4@@@Z 0042c890 f i rendermodel.obj
 0001:0002bb30       ?gentris@part@animmodel@@QAEXHPAU?$vector@Utri@BIH@@@@ABUmatrix3x4@@@Z 0042cb30 f i rendermodel.obj
 0001:0002bda0       ?link@part@animmodel@@QAE_NPAU12@PBDABUvec@@HHPAU3@@Z 0042cda0 f i rendermodel.obj
 0001:0002be60       ?unlink@part@animmodel@@QAE_NPAU12@@Z 0042ce60 f i rendermodel.obj
 0001:0002bf00       ?initskins@part@animmodel@@QAEXPAUTexture@@0H@Z 0042cf00 f i rendermodel.obj
 0001:0002bfa0       ?preloadshaders@part@animmodel@@QAEXXZ 0042cfa0 f i rendermodel.obj
 0001:0002c180       ?getdefaultanim@part@animmodel@@UAEXAAUaniminfo@@HIPAUdynent@@@Z 0042d180 f i rendermodel.obj
 0001:0002c1a0       ?calcanim@part@animmodel@@QAE_NHHHHPAUdynent@@HAAUaniminfo@@AAH@Z 0042d1a0 f i rendermodel.obj
 0001:0002c5f0       ?render@part@animmodel@@QAEXHHHMABUvec@@0PAUdynent@@@Z 0042d5f0 f i rendermodel.obj
 0001:0002c630       ?render@part@animmodel@@QAEXHHHMABUvec@@0PAUdynent@@PAUanimstate@2@@Z 0042d630 f i rendermodel.obj
 0001:0002d360       ?setanim@part@animmodel@@QAEXHHHHMH@Z 0042e360 f i rendermodel.obj
 0001:0002d4a0       ?loadanim@skelmeshgroup@skelmodel@@UAEPAUskelanimspec@2@PBD@Z 0042e4a0 f i rendermodel.obj
 0001:0002d4a0       ?getteamscore@servmode@server@@UAEHPBD@Z 0042e4a0 f i server1.obj
 0001:0002d4a0       ?linktype@animmodel@@UBEHPAU1@@Z 0042e4a0 f i rendermodel.obj
 0001:0002d4a0       ?getteamscore@clientmode@game@@UAEHPBD@Z 0042e4a0 f i client1.obj
 0001:0002d4a0       ?respawnwait@clientmode@game@@UAEHPAUfpsent@@@Z 0042e4a0 f i client1.obj
 0001:0002d4b0       ?render@animmodel@@QAEXHHHMABUvec@@0PAUdynent@@PAUmodelattach@@@Z 0042e4b0 f i rendermodel.obj
 0001:0002d740       ?render@animmodel@@UAEXHHHABUvec@@MMPAUdynent@@PAUmodelattach@@00M@Z 0042e740 f i rendermodel.obj
 0001:0002df50       ??0animmodel@@QAE@PBD@Z    0042ef50 f i rendermodel.obj
 0001:0002e000       ??1animmodel@@UAE@XZ       0042f000 f i rendermodel.obj
 0001:0002e0e0       ?name@animmodel@@UBEPBDXZ  0042f0e0 f i rendermodel.obj
 0001:0002e0f0       ?cleanup@animmodel@@UAEXXZ 0042f0f0 f i rendermodel.obj
 0001:0002e120       ?initmatrix@animmodel@@QAEXAAUmatrix3x4@@@Z 0042f120 f i rendermodel.obj
 0001:0002e300       ?preloadBIH@animmodel@@UAEXXZ 0042f300 f i rendermodel.obj
 0001:0002e380       ?setBIH@animmodel@@UAEPAUBIH@@XZ 0042f380 f i rendermodel.obj
 0001:0002e460       ?envmapped@animmodel@@UAE_NXZ 0042f460 f i rendermodel.obj
 0001:0002e500       ?preloadshaders@animmodel@@UAEXXZ 0042f500 f i rendermodel.obj
 0001:0002e530       ?preloadmeshes@animmodel@@UAEXXZ 0042f530 f i rendermodel.obj
 0001:0002e560       ?setshader@animmodel@@UAEXPAUShader@@@Z 0042f560 f i rendermodel.obj
 0001:0002e5c0       ?setenvmap@animmodel@@UAEXMMPAUTexture@@@Z 0042f5c0 f i rendermodel.obj
 0001:0002e640       ?setspec@animmodel@@UAEXM@Z 0042f640 f i rendermodel.obj
 0001:0002e6a0       ?setambient@animmodel@@UAEXM@Z 0042f6a0 f i rendermodel.obj
 0001:0002e700       ?setglow@animmodel@@UAEXMMM@Z 0042f700 f i rendermodel.obj
 0001:0002e770       ?setglare@animmodel@@UAEXMM@Z 0042f770 f i rendermodel.obj
 0001:0002e7d0       ?setalphatest@animmodel@@UAEXM@Z 0042f7d0 f i rendermodel.obj
 0001:0002e830       ?setalphablend@animmodel@@UAEX_N@Z 0042f830 f i rendermodel.obj
 0001:0002e890       ?setfullbright@animmodel@@UAEXM@Z 0042f890 f i rendermodel.obj
 0001:0002e8f0       ?setcullface@animmodel@@UAEX_N@Z 0042f8f0 f i rendermodel.obj
 0001:0002e950       ?calcbb@animmodel@@UAEXHAAUvec@@0@Z 0042f950 f i rendermodel.obj
 0001:0002ea60       ?startrender@animmodel@@UAEXXZ 0042fa60 f i rendermodel.obj
 0001:0002ebf0       ?disabletc@animmodel@@SAXXZ 0042fbf0 f i rendermodel.obj
 0001:0002ec40       ?disablevbo@animmodel@@SAXXZ 0042fc40 f i rendermodel.obj
 0001:0002ed50       ?disableglow@animmodel@@SAXXZ 0042fd50 f i rendermodel.obj
 0001:0002eda0       ?endrender@animmodel@@UAEXXZ 0042fda0 f i rendermodel.obj
 0001:0002eee0       ??_Emesh@animmodel@@UAEPAXI@Z 0042fee0 f i * CIL library *:* CIL module *
 0001:0002eee0       ??_Gmesh@animmodel@@UAEPAXI@Z 0042fee0 f i rendermodel.obj
 0001:0002ef20       ??_Gmeshgroup@animmodel@@UAEPAXI@Z 0042ff20 f i rendermodel.obj
 0001:0002ef20       ??_Emeshgroup@animmodel@@UAEPAXI@Z 0042ff20 f i * CIL library *:* CIL module *
 0001:0002ef50       ??_Gpart@animmodel@@UAEPAXI@Z 0042ff50 f i rendermodel.obj
 0001:0002ef50       ??_Epart@animmodel@@UAEPAXI@Z 0042ff50 f i * CIL library *:* CIL module *
 0001:0002ef80       ??_Eanimmodel@@UAEPAXI@Z   0042ff80 f i * CIL library *:* CIL module *
 0001:0002ef80       ??_Ganimmodel@@UAEPAXI@Z   0042ff80 f i rendermodel.obj
 0001:0002efb0       ??0vertmesh@vertmodel@@QAE@XZ 0042ffb0 f i rendermodel.obj
 0001:0002f030       ??1vertmesh@vertmodel@@UAE@XZ 00430030 f i rendermodel.obj
 0001:0002f0f0       ?buildnorms@vertmesh@vertmodel@@QAEX_N@Z 004300f0 f i rendermodel.obj
 0001:0002f370       ?calctangents@vertmesh@vertmodel@@QAEX_N@Z 00430370 f i rendermodel.obj
 0001:0002f420       ?calcbb@vertmesh@vertmodel@@UAEXHAAUvec@@0ABUmatrix3x4@@@Z 00430420 f i rendermodel.obj
 0001:0002f560       ?gentris@vertmesh@vertmodel@@UAEXHPAUTexture@@PAU?$vector@Utri@BIH@@@@ABUmatrix3x4@@@Z 00430560 f i rendermodel.obj
 0001:0002f870       ?genvbo@vertmesh@vertmodel@@QAEHAAU?$vector@G@@H@Z 00430870 f i rendermodel.obj
 0001:0002f930       ?interpverts@vertmesh@vertmodel@@QAEXABUanimstate@animmodel@@_N1PIAXAAUskin@4@@Z 00430930 f i rendermodel.obj
 0001:000303c0       ?render@vertmesh@vertmodel@@QAEXPBUanimstate@animmodel@@AAUskin@4@AAUvbocacheentry@2@@Z 004313c0 f i rendermodel.obj
 0001:000306e0       ??0tag@vertmodel@@QAE@XZ   004316e0 f i rendermodel.obj
 0001:000306e0       ??0videobuffer@recorder@@QAE@XZ 004316e0 f i movie.obj
 0001:000306f0       ??1boneinfo@skelmodel@@QAE@XZ 004316f0 f i rendermodel.obj
 0001:000306f0       ??1soundsample@@QAE@XZ     004316f0 f i sound.obj
 0001:000306f0       ??1tag@vertmodel@@QAE@XZ   004316f0 f i rendermodel.obj
 0001:000306f0       ??1zipfile@@QAE@XZ         004316f0 f i zip.obj
 0001:000306f0       ??1videobuffer@recorder@@QAE@XZ 004316f0 f i movie.obj
 0001:00030710       ??0vertmeshgroup@vertmodel@@QAE@XZ 00431710 f i rendermodel.obj
 0001:00030810       ??1vertmeshgroup@vertmodel@@UAE@XZ 00431810 f i rendermodel.obj
 0001:00030900       ?findtag@vertmeshgroup@vertmodel@@UAEHPBD@Z 00431900 f i rendermodel.obj
 0001:00030960       ?count@flarerenderer@@UAEHXZ 00431960 f i renderparticles.obj
 0001:00030960       ?totalframes@vertmeshgroup@vertmodel@@UBEHXZ 00431960 f i rendermodel.obj
 0001:00030970       ?concattagtransform@vertmeshgroup@vertmodel@@UAEXPAUpart@animmodel@@HHABUmatrix3x4@@AAU5@@Z 00431970 f i rendermodel.obj
 0001:00030a60       ?calctagmatrix@vertmeshgroup@vertmodel@@QAEXPAUpart@animmodel@@HABUanimstate@4@AAUglmatrixf@@@Z 00431a60 f i rendermodel.obj
 0001:00030f70       ?genvbo@vertmeshgroup@vertmodel@@QAEX_N0AAUvbocacheentry@2@@Z 00431f70 f i rendermodel.obj
 0001:00031690       ?bindvbo@vertmeshgroup@vertmodel@@QAEXPBUanimstate@animmodel@@AAUvbocacheentry@2@@Z 00432690 f i rendermodel.obj
 0001:00031860       ?cleanup@vertmeshgroup@vertmodel@@UAEXXZ 00432860 f i rendermodel.obj
 0001:000318f0       ?preload@vertmeshgroup@vertmodel@@UAEXPAUpart@animmodel@@@Z 004328f0 f i rendermodel.obj
 0001:000319f0       ?render@vertmeshgroup@vertmodel@@UAEXPBUanimstate@animmodel@@MABUvec@@1PAUdynent@@PAUpart@4@@Z 004329f0 f i rendermodel.obj
 0001:00031e40       ??_Evertmesh@vertmodel@@UAEPAXI@Z 00432e40 f i * CIL library *:* CIL module *
 0001:00031e40       ??_Gvertmesh@vertmodel@@UAEPAXI@Z 00432e40 f i rendermodel.obj
 0001:00031e70       ??_Gvertmeshgroup@vertmodel@@UAEPAXI@Z 00432e70 f i rendermodel.obj
 0001:00031e70       ??_Evertmeshgroup@vertmodel@@UAEPAXI@Z 00432e70 f i * CIL library *:* CIL module *
 0001:00031ea0       ??_Eskelmodel@@UAEPAXI@Z   00432ea0 f i * CIL library *:* CIL module *
 0001:00031ea0       ??_Evertmodel@@UAEPAXI@Z   00432ea0 f i * CIL library *:* CIL module *
 0001:00031ea0       ??_Gskelmodel@@UAEPAXI@Z   00432ea0 f i rendermodel.obj
 0001:00031ea0       ??_Gvertmodel@@UAEPAXI@Z   00432ea0 f i rendermodel.obj
 0001:00031f00       ??1skelmodel@@UAE@XZ       00432f00 f i rendermodel.obj
 0001:00031f00       ??1vertmodel@@UAE@XZ       00432f00 f i rendermodel.obj
 0001:00031f40       ?sortcmp@blendcombo@skelmodel@@SA_NABU12@0@Z 00432f40 f i rendermodel.obj
 0001:00031fa0       ?addweight@blendcombo@skelmodel@@QAEHHMH@Z 00432fa0 f i rendermodel.obj
 0001:000320d0       ?finalize@blendcombo@skelmodel@@QAEXH@Z 004330d0 f i rendermodel.obj
 0001:00032200       ?serialize@blendcombo@skelmodel@@QAEXAAUvvertw@2@@Z 00433200 f i rendermodel.obj
 0001:00032390       ??1skelmesh@skelmodel@@UAE@XZ 00433390 f i rendermodel.obj
 0001:00032440       ?calctangents@skelmesh@skelmodel@@QAEX_N@Z 00433440 f i rendermodel.obj
 0001:000324c0       ?calcbb@skelmesh@skelmodel@@UAEXHAAUvec@@0ABUmatrix3x4@@@Z 004334c0 f i rendermodel.obj
 0001:000325e0       ?gentris@skelmesh@skelmodel@@UAEXHPAUTexture@@PAU?$vector@Utri@BIH@@@@ABUmatrix3x4@@@Z 004335e0 f i rendermodel.obj
 0001:000328c0       ?assignvert@skelmesh@skelmodel@@QAEXAAUvvertbumpw@2@HAAUvert@2@AAUblendcombo@2@@Z 004338c0 f i rendermodel.obj
 0001:00032980       ?genvbo@skelmesh@skelmodel@@QAEHAAU?$vector@G@@H@Z 00433980 f i rendermodel.obj
 0001:00032a80       ?fillbump@skelmesh@skelmodel@@QAEXPAEI@Z 00433a80 f i rendermodel.obj
 0001:00032b10       ?setshader@skelmesh@skelmodel@@UAEXPAUShader@@@Z 00433b10 f i rendermodel.obj
 0001:00032cb0       ?render@skelmesh@skelmodel@@QAEXPBUanimstate@animmodel@@AAUskin@4@AAUvbocacheentry@2@@Z 00433cb0 f i rendermodel.obj
 0001:00033020       ??0boneinfo@skelmodel@@QAE@XZ 00434020 f i rendermodel.obj
 0001:00033090       ??0skeleton@skelmodel@@QAE@XZ 00434090 f i rendermodel.obj
 0001:00033200       ??1skeleton@skelmodel@@QAE@XZ 00434200 f i rendermodel.obj
 0001:000334d0       ?findskelanim@skeleton@skelmodel@@QAEPAUskelanimspec@2@PBDD@Z 004344d0 f i rendermodel.obj
 0001:00033610       ?addskelanim@skeleton@skelmodel@@QAEAAUskelanimspec@2@PBD@Z 00434610 f i rendermodel.obj
 0001:00033680       ?findbone@skeleton@skelmodel@@QAEHPBD@Z 00434680 f i rendermodel.obj
 0001:000336f0       ?findtag@skeleton@skelmodel@@QAEHPBD@Z 004346f0 f i rendermodel.obj
 0001:00033750       ?addtag@skeleton@skelmodel@@QAE_NPBDHABUmatrix3x4@@@Z 00434750 f i rendermodel.obj
 0001:00033800       ?calcantipodes@skeleton@skelmodel@@QAEXXZ 00434800 f i rendermodel.obj
 0001:00033a70       ?remapbones@skeleton@skelmodel@@QAEXXZ 00434a70 f i rendermodel.obj
 0001:00033e30       ?addpitchdep@skeleton@skelmodel@@QAEXHH@Z 00434e30 f i rendermodel.obj
 0001:00033ee0       ?findpitchcorrect@skeleton@skelmodel@@QAEHH@Z 00434ee0 f i rendermodel.obj
 0001:00033f20       ?initpitchdeps@skeleton@skelmodel@@QAEXXZ 00434f20 f i rendermodel.obj
 0001:000344e0       ?expandbonemask@skeleton@skelmodel@@QAEXPAEHH@Z 004354e0 f i rendermodel.obj
 0001:00034530       ?applybonemask@skeleton@skelmodel@@QAEXPAGPAEH@Z 00435530 f i rendermodel.obj
 0001:00034620       ?linkchildren@skeleton@skelmodel@@QAEXXZ 00435620 f i rendermodel.obj
 0001:00034680       ?availgpubones@skeleton@skelmodel@@QBEHXZ 00435680 f i rendermodel.obj
 0001:000346d0       ?calcdeviation@skeleton@skelmodel@@QAEMABUvec@@0ABUdualquat@@1@Z 004356d0 f i rendermodel.obj
 0001:00034be0       ?calcpitchcorrects@skeleton@skelmodel@@QAEXMABUvec@@0@Z 00435be0 f i rendermodel.obj
 0001:00034dd0       ?interpmatbones@skeleton@skelmodel@@QAEXPBUanimstate@animmodel@@MABUvec@@1HPBEAAUskelcacheentry@2@@Z 00435dd0 f i rendermodel.obj
 0001:000364b0       ?interpbones@skeleton@skelmodel@@QAEXPBUanimstate@animmodel@@MABUvec@@1HPBEAAUskelcacheentry@2@@Z 004374b0 f i rendermodel.obj
 0001:00037ae0       ?initmatragdoll@skeleton@skelmodel@@QAEXAAUragdolldata@@AAUskelcacheentry@2@PAUpart@animmodel@@@Z 00438ae0 f i rendermodel.obj
 0001:00037fd0       ?initragdoll@skeleton@skelmodel@@QAEXAAUragdolldata@@AAUskelcacheentry@2@PAUpart@animmodel@@@Z 00438fd0 f i rendermodel.obj
 0001:00038a90       ?genmatragdollbones@skeleton@skelmodel@@QAEXAAUragdolldata@@AAUskelcacheentry@2@PAUpart@animmodel@@@Z 00439a90 f i rendermodel.obj
 0001:00038d20       ?genragdollbones@skeleton@skelmodel@@QAEXAAUragdolldata@@AAUskelcacheentry@2@PAUpart@animmodel@@@Z 00439d20 f i rendermodel.obj
 0001:000397f0       ?concattagtransform@skeleton@skelmodel@@QAEXPAUpart@animmodel@@HHABUmatrix3x4@@AAU5@@Z 0043a7f0 f i rendermodel.obj
 0001:000398d0       ?calctags@skeleton@skelmodel@@QAEXPAUpart@animmodel@@PAUskelcacheentry@2@@Z 0043a8d0 f i rendermodel.obj
 0001:00039ba0       ?cleanup@skeleton@skelmodel@@QAEX_N@Z 0043aba0 f i rendermodel.obj
 0001:00039c70       ?checkskelcache@skeleton@skelmodel@@QAEAAUskelcacheentry@2@PAUpart@animmodel@@PBUanimstate@5@MABUvec@@2PAUragdolldata@@@Z 0043ac70 f i rendermodel.obj
 0001:00039fc0       ?setasmbones@skeleton@skelmodel@@QAEXAAUskelcacheentry@2@H@Z 0043afc0 f i rendermodel.obj
 0001:0003a1a0       ?getblendoffset@skeleton@skelmodel@@QAEHAAUUniformLoc@@@Z 0043b1a0 f i rendermodel.obj
 0001:0003a260       ?setglslbones@skeleton@skelmodel@@QAEXAAUUniformLoc@@AAUskelcacheentry@2@1H@Z 0043b260 f i rendermodel.obj
 0001:0003a350       ??0skelmeshgroup@skelmodel@@QAE@XZ 0043b350 f i rendermodel.obj
 0001:0003a510       ??1skelmeshgroup@skelmodel@@UAE@XZ 0043b510 f i rendermodel.obj
 0001:0003a670       ?shareskeleton@skelmeshgroup@skelmodel@@QAEXPAD@Z 0043b670 f i rendermodel.obj
 0001:0003a7f0       ?findtag@skelmeshgroup@skelmodel@@UAEHPBD@Z 0043b7f0 f i rendermodel.obj
 0001:0003a800       ?totalframes@skelmeshgroup@skelmodel@@UBEHXZ 0043b800 f i rendermodel.obj
 0001:0003a820       ?genvbo@skelmeshgroup@skelmodel@@QAEX_N0AAUvbocacheentry@2@@Z 0043b820 f i rendermodel.obj
 0001:0003b350       ?bindvbo@skelmeshgroup@skelmodel@@QAEXPBUanimstate@animmodel@@AAUvbocacheentry@2@PAUskelcacheentry@2@PAUblendcacheentry@2@@Z 0043c350 f i rendermodel.obj
 0001:0003b5b0       ?concattagtransform@skelmeshgroup@skelmodel@@UAEXPAUpart@animmodel@@HHABUmatrix3x4@@AAU5@@Z 0043c5b0 f i rendermodel.obj
 0001:0003b5c0       ?addblendcombo@skelmeshgroup@skelmodel@@QAEHABUblendcombo@2@@Z 0043c5c0 f i rendermodel.obj
 0001:0003b6f0       ?sortblendcombos@skelmeshgroup@skelmodel@@QAEXXZ 0043c6f0 f i rendermodel.obj
 0001:0003b7c0       ?blendmatbones@skelmeshgroup@skelmodel@@QAEXABUskelcacheentry@2@AAUblendcacheentry@2@@Z 0043c7c0 f i rendermodel.obj
 0001:0003b8b0       ?blendbones@skelmeshgroup@skelmodel@@QAEXABUskelcacheentry@2@AAUblendcacheentry@2@@Z 0043c8b0 f i rendermodel.obj
 0001:0003ba90       ?cleanup@skelmeshgroup@skelmodel@@UAEXXZ 0043ca90 f i rendermodel.obj
 0001:0003bb80       ?checkvbocache@skelmeshgroup@skelmodel@@QAEAAUvbocacheentry@2@AAUskelcacheentry@2@H@Z 0043cb80 f i rendermodel.obj
 0001:0003bd00       ?checkblendcache@skelmeshgroup@skelmodel@@QAEAAUblendcacheentry@2@AAUskelcacheentry@2@H@Z 0043cd00 f i rendermodel.obj
 0001:0003be60       ?preload@skelmeshgroup@skelmodel@@UAEXPAUpart@animmodel@@@Z 0043ce60 f i rendermodel.obj
 0001:0003c030       ?render@skelmeshgroup@skelmodel@@UAEXPBUanimstate@animmodel@@MABUvec@@1PAUdynent@@PAUpart@4@@Z 0043d030 f i rendermodel.obj
 0001:0003c690       ?sharepartmask@skelpart@skelmodel@@QAEPAEPAUanimpartmask@2@@Z 0043d690 f i rendermodel.obj
 0001:0003c730       ?initanimparts@skelpart@skelmodel@@QAEXXZ 0043d730 f i rendermodel.obj
 0001:0003c790       ?linktype@skelmodel@@UBEHPAUanimmodel@@@Z 0043d790 f i rendermodel.obj
 0001:0003c7e0       ??_Gskelmesh@skelmodel@@UAEPAXI@Z 0043d7e0 f i rendermodel.obj
 0001:0003c7e0       ??_Eskelmesh@skelmodel@@UAEPAXI@Z 0043d7e0 f i * CIL library *:* CIL module *
 0001:0003c810       ??1?$hashtable@IH@@QAE@XZ  0043d810 f i rendermodel.obj
 0001:0003c850       ??_Gskelmeshgroup@skelmodel@@UAEPAXI@Z 0043d850 f i rendermodel.obj
 0001:0003c850       ??_Eskelmeshgroup@skelmodel@@UAEPAXI@Z 0043d850 f i * CIL library *:* CIL module *
 0001:0003c880       ??_Eskelpart@skelmodel@@UAEPAXI@Z 0043d880 f i * CIL library *:* CIL module *
 0001:0003c880       ??_Gskelpart@skelmodel@@UAEPAXI@Z 0043d880 f i rendermodel.obj
 0001:0003c900       ??1ragdollskel@@QAE@XZ     0043d900 f i rendermodel.obj
 0001:0003ca40       ?adjust@skeladjustment@@QAEXAAUdualquat@@@Z 0043da40 f i rendermodel.obj
 0001:0003ccc0       ?getcrc@stream@@UAEIXZ     0043dcc0 f i stream.obj
 0001:0003ccc0       ?setBIH@model@@UAEPAUBIH@@XZ 0043dcc0 f i rendermodel.obj
 0001:0003ccc0       ?type@md2@@UBEHXZ          0043dcc0 f i rendermodel.obj
 0001:0003ccd0       ?linktype@md2@@UBEHPAUanimmodel@@@Z 0043dcd0 f i rendermodel.obj
 0001:0003cce0       ?genverts@md2meshgroup@md2@@QAEXPAHAAU?$vector@Utcvert@vertmodel@@@@AAU?$vector@G@@AAU?$vector@Utri@vertmodel@@@@@Z 0043dce0 f i rendermodel.obj
 0001:0003cff0       ?load@md2meshgroup@md2@@QAE_NPBD@Z 0043dff0 f i rendermodel.obj
 0001:0003d560       ?getdefaultanim@md2part@md2@@UAEXAAUaniminfo@@HIPAUdynent@@@Z 0043e560 f i rendermodel.obj
 0001:0003d610       ?loadmeshes@md2@@UAEPAUmeshgroup@animmodel@@PBDPAD@Z 0043e610 f i rendermodel.obj
 0001:0003d6b0       ?load@md2@@UAE_NXZ         0043e6b0 f i rendermodel.obj
 0001:0003d940       ??_Esmd@@UAEPAXI@Z         0043e940 f i * CIL library *:* CIL module *
 0001:0003d940       ??_Gmd3@@UAEPAXI@Z         0043e940 f i rendermodel.obj
 0001:0003d940       ??_Emd2@@UAEPAXI@Z         0043e940 f i * CIL library *:* CIL module *
 0001:0003d940       ??_Gobj@@UAEPAXI@Z         0043e940 f i rendermodel.obj
 0001:0003d940       ??_Eiqm@@UAEPAXI@Z         0043e940 f i * CIL library *:* CIL module *
 0001:0003d940       ??_Gmd5@@UAEPAXI@Z         0043e940 f i rendermodel.obj
 0001:0003d940       ??_Giqm@@UAEPAXI@Z         0043e940 f i rendermodel.obj
 0001:0003d940       ??_Gmd2@@UAEPAXI@Z         0043e940 f i rendermodel.obj
 0001:0003d940       ??_Emd5@@UAEPAXI@Z         0043e940 f i * CIL library *:* CIL module *
 0001:0003d940       ??_Gsmd@@UAEPAXI@Z         0043e940 f i rendermodel.obj
 0001:0003d940       ??_Eobj@@UAEPAXI@Z         0043e940 f i * CIL library *:* CIL module *
 0001:0003d940       ??_Emd3@@UAEPAXI@Z         0043e940 f i * CIL library *:* CIL module *
 0001:0003d9a0       ??_Gmd3meshgroup@md3@@UAEPAXI@Z 0043e9a0 f i rendermodel.obj
 0001:0003d9a0       ??_Emd2meshgroup@md2@@UAEPAXI@Z 0043e9a0 f i * CIL library *:* CIL module *
 0001:0003d9a0       ??_Eobjmeshgroup@obj@@UAEPAXI@Z 0043e9a0 f i * CIL library *:* CIL module *
 0001:0003d9a0       ??_Gmd2meshgroup@md2@@UAEPAXI@Z 0043e9a0 f i rendermodel.obj
 0001:0003d9a0       ??_Gobjmeshgroup@obj@@UAEPAXI@Z 0043e9a0 f i rendermodel.obj
 0001:0003d9a0       ??_Emd3meshgroup@md3@@UAEPAXI@Z 0043e9a0 f i * CIL library *:* CIL module *
 0001:0003da00       ??_Gmd2part@md2@@UAEPAXI@Z 0043ea00 f i rendermodel.obj
 0001:0003da00       ??_Emd2part@md2@@UAEPAXI@Z 0043ea00 f i * CIL library *:* CIL module *
 0001:0003da60       ?load@md3meshgroup@md3@@QAE_NPBD@Z 0043ea60 f i rendermodel.obj
 0001:0003e230       ?loadmeshes@md3@@UAEPAUmeshgroup@animmodel@@PBDPAD@Z 0043f230 f i rendermodel.obj
 0001:0003e2d0       ?loaddefaultparts@md3@@UAE_NXZ 0043f2d0 f i rendermodel.obj
 0001:0003e430       ?load@md3@@UAE_NXZ         0043f430 f i rendermodel.obj
 0001:0003e580       ?type@md5@@UBEHXZ          0043f580 f i rendermodel.obj
 0001:0003e590       ??0md5mesh@md5@@QAE@XZ     0043f590 f i rendermodel.obj
 0001:0003e640       ?buildverts@md5mesh@md5@@QAEXAAU?$vector@Umd5joint@@@@@Z 0043f640 f i rendermodel.obj
 0001:0003e920       ?load@md5mesh@md5@@QAEXPAUstream@@PADI@Z 0043f920 f i rendermodel.obj
 0001:0003ed90       ?loadmesh@md5meshgroup@md5@@QAE_NPBDM@Z 0043fd90 f i rendermodel.obj
 0001:0003f560       ?loadanim@md5meshgroup@md5@@UAEPAUskelanimspec@skelmodel@@PBD@Z 00440560 f i rendermodel.obj
 0001:0003ff30       ?loadmeshes@md5@@UAEPAUmeshgroup@animmodel@@PBDPAD@Z 00440f30 f i rendermodel.obj
 0001:00040030       ?loaddefaultparts@md5@@UAE_NXZ 00441030 f i rendermodel.obj
 0001:000401f0       ?load@md5@@UAE_NXZ         004411f0 f i rendermodel.obj
 0001:00040390       ??_Emd5mesh@md5@@UAEPAXI@Z 00441390 f i * CIL library *:* CIL module *
 0001:00040390       ??_Gmd5mesh@md5@@UAEPAXI@Z 00441390 f i rendermodel.obj
 0001:00040420       ??_Esmdmeshgroup@smd@@UAEPAXI@Z 00441420 f i * CIL library *:* CIL module *
 0001:00040420       ??_Gmd5meshgroup@md5@@UAEPAXI@Z 00441420 f i rendermodel.obj
 0001:00040420       ??_Emd5meshgroup@md5@@UAEPAXI@Z 00441420 f i * CIL library *:* CIL module *
 0001:00040420       ??_Eiqmmeshgroup@iqm@@UAEPAXI@Z 00441420 f i * CIL library *:* CIL module *
 0001:00040420       ??_Gsmdmeshgroup@smd@@UAEPAXI@Z 00441420 f i rendermodel.obj
 0001:00040420       ??_Giqmmeshgroup@iqm@@UAEPAXI@Z 00441420 f i rendermodel.obj
 0001:00040480       ?type@obj@@UBEHXZ          00441480 f i rendermodel.obj
 0001:00040490       ?parsevert@objmeshgroup@obj@@QAEXPADAAU?$vector@Uvec@@@@@Z 00441490 f i rendermodel.obj
 0001:00040580       ?load@objmeshgroup@obj@@QAE_NPBDM@Z 00441580 f i rendermodel.obj
 0001:00041240       ?loadmeshes@obj@@UAEPAUmeshgroup@animmodel@@PBDPAD@Z 00442240 f i rendermodel.obj
 0001:000412e0       ?loaddefaultparts@obj@@UAE_NXZ 004422e0 f i rendermodel.obj
 0001:00041480       ?load@obj@@UAE_NXZ         00442480 f i rendermodel.obj
 0001:000415d0       ?type@smd@@UBEHXZ          004425d0 f i rendermodel.obj
 0001:000415e0       ?skipcomment@smdmeshgroup@smd@@QAE_NAAPAD@Z 004425e0 f i rendermodel.obj
 0001:00041680       ?skipsection@smdmeshgroup@smd@@QAEXPAUstream@@PADI@Z 00442680 f i rendermodel.obj
 0001:00041750       ?readname@smdmeshgroup@smd@@QAEXAAPADPADI@Z 00442750 f i rendermodel.obj
 0001:000417e0       ?readnodes@smdmeshgroup@smd@@QAEXPAUstream@@PADIAAU?$vector@Usmdbone@@@@@Z 004427e0 f i rendermodel.obj
 0001:00041990       ?readmaterial@smdmeshgroup@smd@@QAEXAAPADPADI@Z 00442990 f i rendermodel.obj
 0001:00041a40       ?finalize@smdmeshdata@smdmeshgroup@smd@@QAEXXZ 00442a40 f i rendermodel.obj
 0001:00041ba0       ?readtriangles@smdmeshgroup@smd@@QAEXPAUstream@@PADI@Z 00442ba0 f i rendermodel.obj
 0001:00042400       ?readskeleton@smdmeshgroup@smd@@QAEXPAUstream@@PADI@Z 00443400 f i rendermodel.obj
 0001:00042720       ?loadmesh@smdmeshgroup@smd@@QAE_NPBD@Z 00443720 f i rendermodel.obj
 0001:00042a50       ?readframes@smdmeshgroup@smd@@QAEHPAUstream@@PADIAAU?$vector@Udualquat@@@@@Z 00443a50 f i rendermodel.obj
 0001:00043480       ?loadanim@smdmeshgroup@smd@@UAEPAUskelanimspec@skelmodel@@PBD@Z 00444480 f i rendermodel.obj
 0001:00043800       ?loadmeshes@smd@@UAEPAUmeshgroup@animmodel@@PBDPAD@Z 00444800 f i rendermodel.obj
 0001:000438f0       ?loaddefaultparts@smd@@UAE_NXZ 004448f0 f i rendermodel.obj
 0001:00043a70       ?load@smd@@UAE_NXZ         00444a70 f i rendermodel.obj
 0001:00043c10       ??1?$hashtable@PBDUsmdmeshdata@smdmeshgroup@smd@@@@QAE@XZ 00444c10 f i rendermodel.obj
 0001:00043c70       ??0smdmesh@smd@@QAE@XZ     00444c70 f i rendermodel.obj
 0001:00043d00       ??_Gsmdmesh@smd@@UAEPAXI@Z 00444d00 f i rendermodel.obj
 0001:00043d00       ??_Esmdmesh@smd@@UAEPAXI@Z 00444d00 f i * CIL library *:* CIL module *
 0001:00043d60       ?type@iqm@@UBEHXZ          00444d60 f i rendermodel.obj
 0001:00043d70       ?loadiqmmeshes@iqmmeshgroup@iqm@@QAE_NPBDABUiqmheader@@PAE@Z 00444d70 f i rendermodel.obj
 0001:00044b60       ?loadiqmanims@iqmmeshgroup@iqm@@QAE_NPBDABUiqmheader@@PAE@Z 00445b60 f i rendermodel.obj
 0001:00045960       ?loadiqm@iqmmeshgroup@iqm@@QAE_NPBD_N1@Z 00446960 f i rendermodel.obj
 0001:00045aa0       ?loadanim@iqmmeshgroup@iqm@@UAEPAUskelanimspec@skelmodel@@PBD@Z 00446aa0 f i rendermodel.obj
 0001:00045b40       ?loadmeshes@iqm@@UAEPAUmeshgroup@animmodel@@PBDPAD@Z 00446b40 f i rendermodel.obj
 0001:00045c30       ?loaddefaultparts@iqm@@UAE_NXZ 00446c30 f i rendermodel.obj
 0001:00045db0       ?load@iqm@@UAE_NXZ         00446db0 f i rendermodel.obj
 0001:00045f50       ?add@?$vector@Ulinkedpart@animmodel@@@@QAEAAUlinkedpart@animmodel@@XZ 00446f50 f i rendermodel.obj
 0001:00045ff0       ?access@?$hashtable@PBDPAUmeshgroup@animmodel@@@@QAEPAPAUmeshgroup@animmodel@@ABQBD@Z 00446ff0 f i rendermodel.obj
 0001:00046080       ??A?$hashtable@PBDPAUmeshgroup@animmodel@@@@QAEAAPAUmeshgroup@animmodel@@ABQBD@Z 00447080 f i rendermodel.obj
 0001:00046120       ??1?$hashset@U?$hashtableentry@PBDPAUmeshgroup@animmodel@@@@@@QAE@XZ 00447120 f i rendermodel.obj
 0001:00046170       ??1?$vector@Uskelanimspec@skelmodel@@@@QAE@XZ 00447170 f i rendermodel.obj
 0001:00046190       ??1?$vector@Utag@skelmodel@@@@QAE@XZ 00447190 f i rendermodel.obj
 0001:000461b0       ?add@?$vector@Utag@skelmodel@@@@QAEAAUtag@skelmodel@@XZ 004471b0 f i rendermodel.obj
 0001:00046230       ?insert@?$vector@Upitchdep@skelmodel@@@@QAEAAUpitchdep@skelmodel@@HABU23@@Z 00447230 f i rendermodel.obj
 0001:000462f0       ??1?$hashset@U?$hashtableentry@IH@@@@QAE@XZ 004472f0 f i rendermodel.obj
 0001:00046340       ?clear@?$hashset@U?$hashtableentry@IH@@@@QAEXXZ 00447340 f i rendermodel.obj
 0001:000463a0       ?access@?$hashtable@PBDPAUskeleton@skelmodel@@@@QAEPAPAUskeleton@skelmodel@@ABQBD@Z 004473a0 f i rendermodel.obj
 0001:00046430       ??A?$hashtable@PBDPAUskeleton@skelmodel@@@@QAEAAPAUskeleton@skelmodel@@ABQBD@Z 00447430 f i rendermodel.obj
 0001:000464d0       ??1?$hashset@U?$hashtableentry@PBDPAUskeleton@skelmodel@@@@@@QAE@XZ 004474d0 f i rendermodel.obj
 0001:00046520       ??A?$hashtable@Uivec@@H@@QAEAAHABUivec@@@Z 00447520 f i rendermodel.obj
 0001:00046580       ?clear@?$hashset@U?$hashtableentry@Uivec@@H@@@@QAEXXZ 00447580 f i rendermodel.obj
 0001:000465e0       ?add@?$vector@Umd5joint@@@@QAEAAUmd5joint@@ABU2@@Z 004475e0 f i rendermodel.obj
 0001:00046650       ?add@?$vector@Umd5hierarchy@@@@QAEAAUmd5hierarchy@@ABU2@@Z 00447650 f i rendermodel.obj
 0001:000466a0       ??0?$skelcommands@Umd5@@@@QAE@XZ 004476a0 f i rendermodel.obj
 0001:00046700       ?inrange@?$vector@Usmdbone@@@@QBE_NH@Z 00447700 f i rendermodel.obj
 0001:00046700       ?inrange@?$vector@Ucharinfo@font@@@@QBE_NH@Z 00447700 f i rendertext.obj
 0001:00046720       ?access@?$hashtable@PBDUsmdmeshdata@smdmeshgroup@smd@@@@QAEPAUsmdmeshdata@smdmeshgroup@smd@@ABQBD@Z 00447720 f i rendermodel.obj
 0001:000467b0       ??A?$hashtable@PBDUsmdmeshdata@smdmeshgroup@smd@@@@QAEAAUsmdmeshdata@smdmeshgroup@smd@@ABQBD@Z 004477b0 f i rendermodel.obj
 0001:00046850       ??1?$hashset@U?$hashtableentry@PBDUsmdmeshdata@smdmeshgroup@smd@@@@@@QAE@XZ 00447850 f i rendermodel.obj
 0001:00046880       ??0?$hashset@H@@QAE@H@Z    00447880 f i rendermodel.obj
 0001:00046900       ??1?$hashset@H@@QAE@XZ     00447900 f i rendermodel.obj
 0001:00046950       ??0?$skelcommands@Usmd@@@@QAE@XZ 00447950 f i rendermodel.obj
 0001:000469b0       ??0?$skelcommands@Uiqm@@@@QAE@XZ 004479b0 f i rendermodel.obj
 0001:00046a10       ?access@?$hashtable@PBDPAUmodel@@@@QAEPAPAUmodel@@ABQBD@Z 00447a10 f i rendermodel.obj
 0001:00046aa0       ?access@?$hashtable@PBDPAUmodel@@@@QAEAAPAUmodel@@ABQBDABQAU2@@Z 00447aa0 f i rendermodel.obj
 0001:00046b50       ??1?$hashset@U?$hashtableentry@PBDPAUmodel@@@@@@QAE@XZ 00447b50 f i rendermodel.obj
 0001:00046ba0       ?add@?$vector@Umodelattach@@@@QAEAAUmodelattach@@ABU2@@Z 00447ba0 f i rendermodel.obj
 0001:00046c10       ?growbuf@?$vector@Udistlimit@ragdollskel@@@@QAEXH@Z 00447c10 f i rendermodel.obj
 0001:00046c10       ?growbuf@?$vector@Uaviindexentry@@@@QAEXH@Z 00447c10 f i movie.obj
 0001:00046c10       ?growbuf@?$vector@Uanimspec@animmodel@@@@QAEXH@Z 00447c10 f i rendermodel.obj
 0001:00046c10       ?growbuf@?$vector@Ucharinfo@font@@@@QAEXH@Z 00447c10 f i rendertext.obj
 0001:00046c10       ?growbuf@?$vector@Uwpcachenode@ai@@@@QAEXH@Z 00447c10 f i waypoint.obj
 0001:00046c90       ?growbuf@?$vector@Urotlimit@ragdollskel@@@@QAEXH@Z 00447c90 f i rendermodel.obj
 0001:00046c90       ?growbuf@?$vector@Uvvertbump@vertmodel@@@@QAEXH@Z 00447c90 f i rendermodel.obj
 0001:00046c90       ?growbuf@?$vector@Uavisegmentinfo@@@@QAEXH@Z 00447c90 f i movie.obj
 0001:00046c90       ?growbuf@?$vector@Uvvertbump@skelmodel@@@@QAEXH@Z 00447c90 f i rendermodel.obj
 0001:00046d10       ?growbuf@?$vector@Urotfriction@ragdollskel@@@@QAEXH@Z 00447d10 f i rendermodel.obj
 0001:00046d90       ?growbuf@?$vector@Ulinkedpart@animmodel@@@@QAEXH@Z 00447d90 f i rendermodel.obj
 0001:00046e10       ?growbuf@?$vector@Uskin@animmodel@@@@QAEXH@Z 00447e10 f i rendermodel.obj
 0001:00046e90       ??0?$hashset@U?$hashtableentry@PBDPAUmeshgroup@animmodel@@@@@@QAE@H@Z 00447e90 f i rendermodel.obj
 0001:00046f20       ?growbuf@?$vector@Utri@BIH@@@@QAEXH@Z 00447f20 f i rendermodel.obj
 0001:00046f20       ?growbuf@?$vector@Uflag@ctfservmode@server@@@@QAEXH@Z 00447f20 f i server1.obj
 0001:00046fa0       ?shrink@?$vector@Uskelanimspec@skelmodel@@@@QAEXH@Z 00447fa0 f i rendermodel.obj
 0001:00046fe0       ?shrink@?$vector@Utag@skelmodel@@@@QAEXH@Z 00447fe0 f i rendermodel.obj
 0001:00047030       ?growbuf@?$vector@Utag@skelmodel@@@@QAEXH@Z 00448030 f i rendermodel.obj
 0001:00047030       ?growbuf@?$vector@Uvvertbumpw@skelmodel@@@@QAEXH@Z 00448030 f i rendermodel.obj
 0001:000470c0       ?add@?$vector@Upitchdep@skelmodel@@@@QAEAAUpitchdep@skelmodel@@ABU23@@Z 004480c0 f i rendermodel.obj
 0001:00047130       ?growbuf@?$vector@Uskelcacheentry@skelmodel@@@@QAEXH@Z 00448130 f i rendermodel.obj
 0001:000471b0       ??0?$hashset@U?$hashtableentry@IH@@@@QAE@H@Z 004481b0 f i rendermodel.obj
 0001:00047230       ??0?$hashset@U?$hashtableentry@PBDPAUskeleton@skelmodel@@@@@@QAE@H@Z 00448230 f i rendermodel.obj
 0001:000472c0       ?growbuf@?$vector@Utri@skelmodel@@@@QAEXH@Z 004482c0 f i rendermodel.obj
 0001:000472c0       ?growbuf@?$vector@Utri@vertmodel@@@@QAEXH@Z 004482c0 f i rendermodel.obj
 0001:00047340       ?setpitch@?$vertcommands@Umd2@@@@SAXPAM000@Z 00448340 f i rendermodel.obj
 0001:00047400       ?setanim@?$vertcommands@Umd2@@@@SAXPADPAH1PAM1@Z 00448400 f i rendermodel.obj
 0001:00047520       ?loadpart@?$vertcommands@Umd3@@@@SAXPADPAM@Z 00448520 f i rendermodel.obj
 0001:000476f0       ?setpitch@?$vertcommands@Umd3@@@@SAXPAM000@Z 004486f0 f i rendermodel.obj
 0001:000477b0       ?setanim@?$vertcommands@Umd3@@@@SAXPADPAH1PAM1@Z 004487b0 f i rendermodel.obj
 0001:000478d0       ??0?$modelcommands@Umd3@@Uvertmesh@vertmodel@@@@QAE@XZ 004488d0 f i rendermodel.obj
 0001:000479b0       ?growbuf@?$vector@UTex@Slot@@@@QAEXH@Z 004489b0 f i texture.obj
 0001:000479b0       ?growbuf@?$vector@Umd5hierarchy@@@@QAEXH@Z 004489b0 f i rendermodel.obj
 0001:00047a30       ?loadpart@?$skelcommands@Umd5@@@@SAXPAD0PAM@Z 00448a30 f i rendermodel.obj
 0001:00047c30       ?settag@?$skelcommands@Umd5@@@@SAXPAD0PAM11111@Z 00448c30 f i rendermodel.obj
 0001:00047f00       ?setpitch@?$skelcommands@Umd5@@@@SAXPADPAM111@Z 00448f00 f i rendermodel.obj
 0001:00048090       ?setpitchtarget@?$skelcommands@Umd5@@@@SAXPAD0PAHPAM2@Z 00449090 f i rendermodel.obj
 0001:00048250       ?setpitchcorrect@?$skelcommands@Umd5@@@@SAXPAD0PAM11@Z 00449250 f i rendermodel.obj
 0001:000483b0       ?setanim@?$skelcommands@Umd5@@@@SAXPAD0PAMPAH22@Z 004493b0 f i rendermodel.obj
 0001:000485d0       ?setanimpart@?$skelcommands@Umd5@@@@SAXPAD@Z 004495d0 f i rendermodel.obj
 0001:00048830       ?setadjust@?$skelcommands@Umd5@@@@SAXPADPAM11111@Z 00449830 f i rendermodel.obj
 0001:00048a10       ??0?$modelcommands@Umd5@@Uskelmesh@skelmodel@@@@QAE@XZ 00449a10 f i rendermodel.obj
 0001:00048b00       ?loadpart@?$vertcommands@Uobj@@@@SAXPADPAM@Z 00449b00 f i rendermodel.obj
 0001:00048cd0       ?setpitch@?$vertcommands@Uobj@@@@SAXPAM000@Z 00449cd0 f i rendermodel.obj
 0001:00048d90       ??0?$modelcommands@Uobj@@Uvertmesh@vertmodel@@@@QAE@XZ 00449d90 f i rendermodel.obj
 0001:00048e70       ?growbuf@?$vector@Usmdbone@@@@QAEXH@Z 00449e70 f i rendermodel.obj
 0001:00048e70       ?growbuf@?$vector@Uscore@captureclientmode@game@@@@QAEXH@Z 00449e70 f i client1.obj
 0001:00048e70       ?growbuf@?$vector@Uscore@captureservmode@server@@@@QAEXH@Z 00449e70 f i server1.obj
 0001:00048ef0       ??0?$hashset@U?$hashtableentry@PBDUsmdmeshdata@smdmeshgroup@smd@@@@@@QAE@H@Z 00449ef0 f i rendermodel.obj
 0001:00048f70       ?deletechunks@?$hashset@U?$hashtableentry@PBDUsmdmeshdata@smdmeshgroup@smd@@@@@@QAEXXZ 00449f70 f i rendermodel.obj
 0001:00048fe0       ?loadpart@?$skelcommands@Usmd@@@@SAXPAD0PAM@Z 00449fe0 f i rendermodel.obj
 0001:000491e0       ?settag@?$skelcommands@Usmd@@@@SAXPAD0PAM11111@Z 0044a1e0 f i rendermodel.obj
 0001:000494b0       ?setpitch@?$skelcommands@Usmd@@@@SAXPADPAM111@Z 0044a4b0 f i rendermodel.obj
 0001:00049640       ?setpitchtarget@?$skelcommands@Usmd@@@@SAXPAD0PAHPAM2@Z 0044a640 f i rendermodel.obj
 0001:00049800       ?setpitchcorrect@?$skelcommands@Usmd@@@@SAXPAD0PAM11@Z 0044a800 f i rendermodel.obj
 0001:00049960       ?setanim@?$skelcommands@Usmd@@@@SAXPAD0PAMPAH22@Z 0044a960 f i rendermodel.obj
 0001:00049b80       ?setanimpart@?$skelcommands@Usmd@@@@SAXPAD@Z 0044ab80 f i rendermodel.obj
 0001:00049de0       ?setadjust@?$skelcommands@Usmd@@@@SAXPADPAM11111@Z 0044ade0 f i rendermodel.obj
 0001:00049fc0       ??0?$modelcommands@Usmd@@Uskelmesh@skelmodel@@@@QAE@XZ 0044afc0 f i rendermodel.obj
 0001:0004a0b0       ?loadpart@?$skelcommands@Uiqm@@@@SAXPAD0PAM@Z 0044b0b0 f i rendermodel.obj
 0001:0004a2b0       ?settag@?$skelcommands@Uiqm@@@@SAXPAD0PAM11111@Z 0044b2b0 f i rendermodel.obj
 0001:0004a580       ?setpitch@?$skelcommands@Uiqm@@@@SAXPADPAM111@Z 0044b580 f i rendermodel.obj
 0001:0004a710       ?setpitchtarget@?$skelcommands@Uiqm@@@@SAXPAD0PAHPAM2@Z 0044b710 f i rendermodel.obj
 0001:0004a8d0       ?setpitchcorrect@?$skelcommands@Uiqm@@@@SAXPAD0PAM11@Z 0044b8d0 f i rendermodel.obj
 0001:0004aa30       ?setanim@?$skelcommands@Uiqm@@@@SAXPAD0PAMPAH22@Z 0044ba30 f i rendermodel.obj
 0001:0004ac50       ?setanimpart@?$skelcommands@Uiqm@@@@SAXPAD@Z 0044bc50 f i rendermodel.obj
 0001:0004aeb0       ?setadjust@?$skelcommands@Uiqm@@@@SAXPADPAM11111@Z 0044beb0 f i rendermodel.obj
 0001:0004b090       ??0?$modelcommands@Uiqm@@Uskelmesh@skelmodel@@@@QAE@XZ 0044c090 f i rendermodel.obj
 0001:0004b180       ?growbuf@?$vector@Umapmodelinfo@@@@QAEXH@Z 0044c180 f i rendermodel.obj
 0001:0004b210       ??0?$hashset@U?$hashtableentry@PBDPAUmodel@@@@@@QAE@H@Z 0044c210 f i rendermodel.obj
 0001:0004b2a0       ?growbuf@?$vector@Ubatchedmodel@@@@QAEXH@Z 0044c2a0 f i rendermodel.obj
 0001:0004b320       ?growbuf@?$vector@PAUmodelbatch@@@@QAEXH@Z 0044c320 f i rendermodel.obj
 0001:0004b3b0       ?growbuf@?$vector@Umodelattach@@@@QAEXH@Z 0044c3b0 f i rendermodel.obj
 0001:0004b440       ??1chain@?$hashset@U?$hashtableentry@PBDUsmdmeshdata@smdmeshgroup@smd@@@@@@QAE@XZ 0044c440 f i rendermodel.obj
 0001:0004b490       ??1?$hashtableentry@PBDUsmdmeshdata@smdmeshgroup@smd@@@@QAE@XZ 0044c490 f i rendermodel.obj
 0001:0004b4d0       ??1smdmeshdata@smdmeshgroup@smd@@QAE@XZ 0044c4d0 f i rendermodel.obj
 0001:0004b550       ?insert@?$hashset@U?$hashtableentry@PBDPAUmeshgroup@animmodel@@@@@@QAEPAUchain@1@I@Z 0044c550 f i rendermodel.obj
 0001:0004b610       ?insert@?$vector@Upitchcorrect@skelmodel@@@@QAEAAUpitchcorrect@skelmodel@@HABU23@@Z 0044c610 f i rendermodel.obj
 0001:0004b6e0       ?insert@?$hashset@U?$hashtableentry@PADPAUfilesval@@@@@@QAEPAUchain@1@I@Z 0044c6e0 f i console.obj
 0001:0004b6e0       ?insert@?$hashset@U?$hashtableentry@IH@@@@QAEPAUchain@1@I@Z 0044c6e0 f i rendermodel.obj
 0001:0004b790       ?insert@?$hashset@U?$hashtableentry@PBDPAUskeleton@skelmodel@@@@@@QAEPAUchain@1@I@Z 0044c790 f i rendermodel.obj
 0001:0004b850       ?setdir@?$modelcommands@Umd2@@Uvertmesh@vertmodel@@@@SAXPAD@Z 0044c850 f i rendermodel.obj
 0001:0004b890       ?setdir@?$modelcommands@Umd3@@Uvertmesh@vertmodel@@@@SAXPAD@Z 0044c890 f i rendermodel.obj
 0001:0004b8d0       ?setskin@?$modelcommands@Umd3@@Uvertmesh@vertmodel@@@@SAXPAD00PAM1@Z 0044c8d0 f i rendermodel.obj
 0001:0004ba40       ?setspec@?$modelcommands@Umd3@@Uvertmesh@vertmodel@@@@SAXPADPAH@Z 0044ca40 f i rendermodel.obj
 0001:0004bb50       ?setambient@?$modelcommands@Umd3@@Uvertmesh@vertmodel@@@@SAXPADPAH@Z 0044cb50 f i rendermodel.obj
 0001:0004bc60       ?setglow@?$modelcommands@Umd3@@Uvertmesh@vertmodel@@@@SAXPADPAH1PAM@Z 0044cc60 f i rendermodel.obj
 0001:0004bdb0       ?setglare@?$modelcommands@Umd3@@Uvertmesh@vertmodel@@@@SAXPADPAM1@Z 0044cdb0 f i rendermodel.obj
 0001:0004bea0       ?setalphatest@?$modelcommands@Umd3@@Uvertmesh@vertmodel@@@@SAXPADPAM@Z 0044cea0 f i rendermodel.obj
 0001:0004bfb0       ?setalphablend@?$modelcommands@Umd3@@Uvertmesh@vertmodel@@@@SAXPADPAH@Z 0044cfb0 f i rendermodel.obj
 0001:0004c0a0       ?setcullface@?$modelcommands@Umd3@@Uvertmesh@vertmodel@@@@SAXPADPAH@Z 0044d0a0 f i rendermodel.obj
 0001:0004c190       ?setenvmap@?$modelcommands@Umd3@@Uvertmesh@vertmodel@@@@SAXPAD0@Z 0044d190 f i rendermodel.obj
 0001:0004c290       ?setbumpmap@?$modelcommands@Umd3@@Uvertmesh@vertmodel@@@@SAXPAD00@Z 0044d290 f i rendermodel.obj
 0001:0004c400       ?setfullbright@?$modelcommands@Umd3@@Uvertmesh@vertmodel@@@@SAXPADPAM@Z 0044d400 f i rendermodel.obj
 0001:0004c4f0       ?setshader@?$modelcommands@Umd3@@Uvertmesh@vertmodel@@@@SAXPAD0@Z 0044d4f0 f i rendermodel.obj
 0001:0004c5e0       ?setscroll@?$modelcommands@Umd3@@Uvertmesh@vertmodel@@@@SAXPADPAM1@Z 0044d5e0 f i rendermodel.obj
 0001:0004c6d0       ?setnoclip@?$modelcommands@Umd3@@Uvertmesh@vertmodel@@@@SAXPADPAH@Z 0044d6d0 f i rendermodel.obj
 0001:0004c7b0       ?setlink@?$modelcommands@Umd3@@Uvertmesh@vertmodel@@@@SAXPAH0PADPAM22@Z 0044d7b0 f i rendermodel.obj
 0001:0004c870       ?setdir@?$modelcommands@Umd5@@Uskelmesh@skelmodel@@@@SAXPAD@Z 0044d870 f i rendermodel.obj
 0001:0004c8b0       ?setskin@?$modelcommands@Umd5@@Uskelmesh@skelmodel@@@@SAXPAD00PAM1@Z 0044d8b0 f i rendermodel.obj
 0001:0004ca20       ?setspec@?$modelcommands@Umd5@@Uskelmesh@skelmodel@@@@SAXPADPAH@Z 0044da20 f i rendermodel.obj
 0001:0004cb30       ?setambient@?$modelcommands@Umd5@@Uskelmesh@skelmodel@@@@SAXPADPAH@Z 0044db30 f i rendermodel.obj
 0001:0004cc40       ?setglow@?$modelcommands@Umd5@@Uskelmesh@skelmodel@@@@SAXPADPAH1PAM@Z 0044dc40 f i rendermodel.obj
 0001:0004cd90       ?setglare@?$modelcommands@Umd5@@Uskelmesh@skelmodel@@@@SAXPADPAM1@Z 0044dd90 f i rendermodel.obj
 0001:0004ce80       ?setalphatest@?$modelcommands@Umd5@@Uskelmesh@skelmodel@@@@SAXPADPAM@Z 0044de80 f i rendermodel.obj
 0001:0004cf90       ?setalphablend@?$modelcommands@Umd5@@Uskelmesh@skelmodel@@@@SAXPADPAH@Z 0044df90 f i rendermodel.obj
 0001:0004d080       ?setcullface@?$modelcommands@Umd5@@Uskelmesh@skelmodel@@@@SAXPADPAH@Z 0044e080 f i rendermodel.obj
 0001:0004d170       ?setenvmap@?$modelcommands@Umd5@@Uskelmesh@skelmodel@@@@SAXPAD0@Z 0044e170 f i rendermodel.obj
 0001:0004d270       ?setbumpmap@?$modelcommands@Umd5@@Uskelmesh@skelmodel@@@@SAXPAD00@Z 0044e270 f i rendermodel.obj
 0001:0004d3e0       ?setfullbright@?$modelcommands@Umd5@@Uskelmesh@skelmodel@@@@SAXPADPAM@Z 0044e3e0 f i rendermodel.obj
 0001:0004d4d0       ?setshader@?$modelcommands@Umd5@@Uskelmesh@skelmodel@@@@SAXPAD0@Z 0044e4d0 f i rendermodel.obj
 0001:0004d5c0       ?setscroll@?$modelcommands@Umd5@@Uskelmesh@skelmodel@@@@SAXPADPAM1@Z 0044e5c0 f i rendermodel.obj
 0001:0004d6b0       ?setnoclip@?$modelcommands@Umd5@@Uskelmesh@skelmodel@@@@SAXPADPAH@Z 0044e6b0 f i rendermodel.obj
 0001:0004d790       ?setlink@?$modelcommands@Umd5@@Uskelmesh@skelmodel@@@@SAXPAH0PADPAM22@Z 0044e790 f i rendermodel.obj
 0001:0004d850       ?setdir@?$modelcommands@Uobj@@Uvertmesh@vertmodel@@@@SAXPAD@Z 0044e850 f i rendermodel.obj
 0001:0004d890       ?setskin@?$modelcommands@Uobj@@Uvertmesh@vertmodel@@@@SAXPAD00PAM1@Z 0044e890 f i rendermodel.obj
 0001:0004da00       ?setspec@?$modelcommands@Uobj@@Uvertmesh@vertmodel@@@@SAXPADPAH@Z 0044ea00 f i rendermodel.obj
 0001:0004db10       ?setambient@?$modelcommands@Uobj@@Uvertmesh@vertmodel@@@@SAXPADPAH@Z 0044eb10 f i rendermodel.obj
 0001:0004dc20       ?setglow@?$modelcommands@Uobj@@Uvertmesh@vertmodel@@@@SAXPADPAH1PAM@Z 0044ec20 f i rendermodel.obj
 0001:0004dd70       ?setglare@?$modelcommands@Uobj@@Uvertmesh@vertmodel@@@@SAXPADPAM1@Z 0044ed70 f i rendermodel.obj
 0001:0004de60       ?setalphatest@?$modelcommands@Uobj@@Uvertmesh@vertmodel@@@@SAXPADPAM@Z 0044ee60 f i rendermodel.obj
 0001:0004df70       ?setalphablend@?$modelcommands@Uobj@@Uvertmesh@vertmodel@@@@SAXPADPAH@Z 0044ef70 f i rendermodel.obj
 0001:0004e060       ?setcullface@?$modelcommands@Uobj@@Uvertmesh@vertmodel@@@@SAXPADPAH@Z 0044f060 f i rendermodel.obj
 0001:0004e150       ?setenvmap@?$modelcommands@Uobj@@Uvertmesh@vertmodel@@@@SAXPAD0@Z 0044f150 f i rendermodel.obj
 0001:0004e250       ?setbumpmap@?$modelcommands@Uobj@@Uvertmesh@vertmodel@@@@SAXPAD00@Z 0044f250 f i rendermodel.obj
 0001:0004e3c0       ?setfullbright@?$modelcommands@Uobj@@Uvertmesh@vertmodel@@@@SAXPADPAM@Z 0044f3c0 f i rendermodel.obj
 0001:0004e4b0       ?setshader@?$modelcommands@Uobj@@Uvertmesh@vertmodel@@@@SAXPAD0@Z 0044f4b0 f i rendermodel.obj
 0001:0004e5a0       ?setscroll@?$modelcommands@Uobj@@Uvertmesh@vertmodel@@@@SAXPADPAM1@Z 0044f5a0 f i rendermodel.obj
 0001:0004e690       ?setnoclip@?$modelcommands@Uobj@@Uvertmesh@vertmodel@@@@SAXPADPAH@Z 0044f690 f i rendermodel.obj
 0001:0004e770       ?setlink@?$modelcommands@Uobj@@Uvertmesh@vertmodel@@@@SAXPAH0PADPAM22@Z 0044f770 f i rendermodel.obj
 0001:0004e830       ?insert@?$hashset@U?$hashtableentry@PBDUsmdmeshdata@smdmeshgroup@smd@@@@@@QAEPAUchain@1@I@Z 0044f830 f i rendermodel.obj
 0001:0004e8f0       ?setdir@?$modelcommands@Usmd@@Uskelmesh@skelmodel@@@@SAXPAD@Z 0044f8f0 f i rendermodel.obj
 0001:0004e930       ?setskin@?$modelcommands@Usmd@@Uskelmesh@skelmodel@@@@SAXPAD00PAM1@Z 0044f930 f i rendermodel.obj
 0001:0004eaa0       ?setspec@?$modelcommands@Usmd@@Uskelmesh@skelmodel@@@@SAXPADPAH@Z 0044faa0 f i rendermodel.obj
 0001:0004ebb0       ?setambient@?$modelcommands@Usmd@@Uskelmesh@skelmodel@@@@SAXPADPAH@Z 0044fbb0 f i rendermodel.obj
 0001:0004ecc0       ?setglow@?$modelcommands@Usmd@@Uskelmesh@skelmodel@@@@SAXPADPAH1PAM@Z 0044fcc0 f i rendermodel.obj
 0001:0004ee10       ?setglare@?$modelcommands@Usmd@@Uskelmesh@skelmodel@@@@SAXPADPAM1@Z 0044fe10 f i rendermodel.obj
 0001:0004ef00       ?setalphatest@?$modelcommands@Usmd@@Uskelmesh@skelmodel@@@@SAXPADPAM@Z 0044ff00 f i rendermodel.obj
 0001:0004f010       ?setalphablend@?$modelcommands@Usmd@@Uskelmesh@skelmodel@@@@SAXPADPAH@Z 00450010 f i rendermodel.obj
 0001:0004f100       ?setcullface@?$modelcommands@Usmd@@Uskelmesh@skelmodel@@@@SAXPADPAH@Z 00450100 f i rendermodel.obj
 0001:0004f1f0       ?setenvmap@?$modelcommands@Usmd@@Uskelmesh@skelmodel@@@@SAXPAD0@Z 004501f0 f i rendermodel.obj
 0001:0004f2f0       ?setbumpmap@?$modelcommands@Usmd@@Uskelmesh@skelmodel@@@@SAXPAD00@Z 004502f0 f i rendermodel.obj
 0001:0004f460       ?setfullbright@?$modelcommands@Usmd@@Uskelmesh@skelmodel@@@@SAXPADPAM@Z 00450460 f i rendermodel.obj
 0001:0004f550       ?setshader@?$modelcommands@Usmd@@Uskelmesh@skelmodel@@@@SAXPAD0@Z 00450550 f i rendermodel.obj
 0001:0004f640       ?setscroll@?$modelcommands@Usmd@@Uskelmesh@skelmodel@@@@SAXPADPAM1@Z 00450640 f i rendermodel.obj
 0001:0004f730       ?setnoclip@?$modelcommands@Usmd@@Uskelmesh@skelmodel@@@@SAXPADPAH@Z 00450730 f i rendermodel.obj
 0001:0004f810       ?setlink@?$modelcommands@Usmd@@Uskelmesh@skelmodel@@@@SAXPAH0PADPAM22@Z 00450810 f i rendermodel.obj
 0001:0004f8d0       ?setdir@?$modelcommands@Uiqm@@Uskelmesh@skelmodel@@@@SAXPAD@Z 004508d0 f i rendermodel.obj
 0001:0004f910       ?setskin@?$modelcommands@Uiqm@@Uskelmesh@skelmodel@@@@SAXPAD00PAM1@Z 00450910 f i rendermodel.obj
 0001:0004fa80       ?setspec@?$modelcommands@Uiqm@@Uskelmesh@skelmodel@@@@SAXPADPAH@Z 00450a80 f i rendermodel.obj
 0001:0004fb90       ?setambient@?$modelcommands@Uiqm@@Uskelmesh@skelmodel@@@@SAXPADPAH@Z 00450b90 f i rendermodel.obj
 0001:0004fca0       ?setglow@?$modelcommands@Uiqm@@Uskelmesh@skelmodel@@@@SAXPADPAH1PAM@Z 00450ca0 f i rendermodel.obj
 0001:0004fdf0       ?setglare@?$modelcommands@Uiqm@@Uskelmesh@skelmodel@@@@SAXPADPAM1@Z 00450df0 f i rendermodel.obj
 0001:0004fee0       ?setalphatest@?$modelcommands@Uiqm@@Uskelmesh@skelmodel@@@@SAXPADPAM@Z 00450ee0 f i rendermodel.obj
 0001:0004fff0       ?setalphablend@?$modelcommands@Uiqm@@Uskelmesh@skelmodel@@@@SAXPADPAH@Z 00450ff0 f i rendermodel.obj
 0001:000500e0       ?setcullface@?$modelcommands@Uiqm@@Uskelmesh@skelmodel@@@@SAXPADPAH@Z 004510e0 f i rendermodel.obj
 0001:000501d0       ?setenvmap@?$modelcommands@Uiqm@@Uskelmesh@skelmodel@@@@SAXPAD0@Z 004511d0 f i rendermodel.obj
 0001:000502d0       ?setbumpmap@?$modelcommands@Uiqm@@Uskelmesh@skelmodel@@@@SAXPAD00@Z 004512d0 f i rendermodel.obj
 0001:00050440       ?setfullbright@?$modelcommands@Uiqm@@Uskelmesh@skelmodel@@@@SAXPADPAM@Z 00451440 f i rendermodel.obj
 0001:00050530       ?setshader@?$modelcommands@Uiqm@@Uskelmesh@skelmodel@@@@SAXPAD0@Z 00451530 f i rendermodel.obj
 0001:00050620       ?setscroll@?$modelcommands@Uiqm@@Uskelmesh@skelmodel@@@@SAXPADPAM1@Z 00451620 f i rendermodel.obj
 0001:00050710       ?setnoclip@?$modelcommands@Uiqm@@Uskelmesh@skelmodel@@@@SAXPADPAH@Z 00451710 f i rendermodel.obj
 0001:000507f0       ?setlink@?$modelcommands@Uiqm@@Uskelmesh@skelmodel@@@@SAXPAH0PADPAM22@Z 004517f0 f i rendermodel.obj
 0001:000508b0       ?insert@?$hashset@U?$hashtableentry@PBDPAUmodel@@@@@@QAEPAUchain@1@I@Z 004518b0 f i rendermodel.obj
 0001:00050970       ?deletearrays@?$vector@PAD@@QAEXXZ 00451970 f i rendermodel.obj
 0001:000509a0       ??0chain@?$hashset@U?$hashtableentry@PBDUsmdmeshdata@smdmeshgroup@smd@@@@@@QAE@XZ 004519a0 f i rendermodel.obj
 0001:00050a20       ?growbuf@?$vector@Upitchtarget@skelmodel@@@@QAEXH@Z 00451a20 f i rendermodel.obj
 0001:00050ab0       ??$smoothnorms@Uvert@vertmodel@@Utri@2@@mesh@animmodel@@QAEXPAUvert@vertmodel@@HPAUtri@3@HM_N@Z 00451ab0 f i rendermodel.obj
 0001:000510a0       ??$calctangents@Ubumpvert@vertmodel@@Uvert@2@Utcvert@2@Utri@2@@mesh@animmodel@@QAEXPAUbumpvert@vertmodel@@PAUvert@3@PAUtcvert@3@HPAUtri@3@H_N@Z 004520a0 f i rendermodel.obj
 0001:000517d0       ??$genvbo@Uvvertbump@vertmodel@@@vertmesh@vertmodel@@QAEHAAU?$vector@G@@HAAU?$vector@Uvvertbump@vertmodel@@@@PAHH@Z 004527d0 f i rendermodel.obj
 0001:00051b90       ??$genvbo@Uvvert@vertmodel@@@vertmesh@vertmodel@@QAEHAAU?$vector@G@@HAAU?$vector@Uvvert@vertmodel@@@@PAHH@Z 00452b90 f i rendermodel.obj
 0001:00051eb0       ??$genvbo@Uvvertff@vertmodel@@@vertmesh@vertmodel@@QAEHAAU?$vector@G@@HAAU?$vector@Uvvertff@vertmodel@@@@PAHH@Z 00452eb0 f i rendermodel.obj
 0001:00052190       ??$smoothnorms@Uvert@skelmodel@@Utri@2@@mesh@animmodel@@QAEXPAUvert@skelmodel@@HPAUtri@3@HM_N@Z 00453190 f i rendermodel.obj
 0001:00052770       ??$buildnorms@Uvert@skelmodel@@Utri@2@@mesh@animmodel@@QAEXPAUvert@skelmodel@@HPAUtri@3@H_N@Z 00453770 f i rendermodel.obj
 0001:000529b0       ??$calctangents@Ubumpvert@skelmodel@@Uvert@2@U32@Utri@2@@mesh@animmodel@@QAEXPAUbumpvert@skelmodel@@PAUvert@3@1HPAUtri@3@H_N@Z 004539b0 f i rendermodel.obj
 0001:000530f0       ??$genvbo@Uvvertbumpw@skelmodel@@@skelmesh@skelmodel@@QAEHAAU?$vector@G@@HAAU?$vector@Uvvertbumpw@skelmodel@@@@@Z 004540f0 f i rendermodel.obj
 0001:00053240       ??$genvbo@Uvvertw@skelmodel@@@skelmesh@skelmodel@@QAEHAAU?$vector@G@@HAAU?$vector@Uvvertw@skelmodel@@@@@Z 00454240 f i rendermodel.obj
 0001:000533d0       ??$genvbo@Uvvertbump@skelmodel@@@skelmesh@skelmodel@@QAEHAAU?$vector@G@@HAAU?$vector@Uvvertbump@skelmodel@@@@PAHH@Z 004543d0 f i rendermodel.obj
 0001:000537b0       ??$genvbo@Uvvertn@skelmodel@@@skelmesh@skelmodel@@QAEHAAU?$vector@G@@HAAU?$vector@Uvvertn@skelmodel@@@@PAHH@Z 004547b0 f i rendermodel.obj
 0001:00053aa0       ??$genvbo@Uvvert@skelmodel@@@skelmesh@skelmodel@@QAEHAAU?$vector@G@@HAAU?$vector@Uvvert@skelmodel@@@@PAHH@Z 00454aa0 f i rendermodel.obj
 0001:00053d60       ??$blendbones@Umatrix3x4@@@skelmeshgroup@skelmodel@@SAXAAUmatrix3x4@@PBU2@ABUblendcombo@1@@Z 00454d60 f i rendermodel.obj
 0001:00053ed0       ??$blendbones@Udualquat@@@skelmeshgroup@skelmodel@@SAXAAUdualquat@@PBU2@ABUblendcombo@1@@Z 00454ed0 f i rendermodel.obj
 0001:00054340       ??$interpverts@Umatrix3x4@@@skelmesh@skelmodel@@QAEXPIBUmatrix3x4@@0_N1PIAXAAUskin@animmodel@@@Z 00455340 f i rendermodel.obj
 0001:000549c0       ??$interpverts@Udualquat@@@skelmesh@skelmodel@@QAEXPIBUdualquat@@0_N1PIAXAAUskin@animmodel@@@Z 004559c0 f i rendermodel.obj
 0001:00055600       ??$remove@PAD@?$hashset@U?$hashtableentry@PBDPAUmodel@@@@@@QAE_NABQAD@Z 00456600 f i rendermodel.obj
 0001:000556f0       ??$modelcommand@$$A6AXPAM000@Z@?$modelcommands@Umd2@@Uvertmesh@vertmodel@@@@QAEXP6AXPAM000@ZPBD2@Z 004566f0 f i rendermodel.obj
 0001:00055780       ??$modelcommand@$$A6AXPADPAH1PAM1@Z@?$modelcommands@Umd2@@Uvertmesh@vertmodel@@@@QAEXP6AXPADPAH1PAM1@ZPBD4@Z 00456780 f i rendermodel.obj
 0001:00055810       ??$modelcommand@$$A6AXPADPAM@Z@?$modelcommands@Umd3@@Uvertmesh@vertmodel@@@@QAEXP6AXPADPAM@ZPBD3@Z 00456810 f i rendermodel.obj
 0001:000558a0       ??$modelcommand@$$A6AXPAM000@Z@?$modelcommands@Umd3@@Uvertmesh@vertmodel@@@@QAEXP6AXPAM000@ZPBD2@Z 004568a0 f i rendermodel.obj
 0001:00055930       ??$modelcommand@$$A6AXPADPAH1PAM1@Z@?$modelcommands@Umd3@@Uvertmesh@vertmodel@@@@QAEXP6AXPADPAH1PAM1@ZPBD4@Z 00456930 f i rendermodel.obj
 0001:000559c0       ??$modelcommand@$$A6AXPAD0PAM@Z@?$modelcommands@Umd5@@Uskelmesh@skelmodel@@@@QAEXP6AXPAD0PAM@ZPBD3@Z 004569c0 f i rendermodel.obj
 0001:00055a50       ??$modelcommand@$$A6AXPAD0PAM11111@Z@?$modelcommands@Umd5@@Uskelmesh@skelmodel@@@@QAEXP6AXPAD0PAM11111@ZPBD3@Z 00456a50 f i rendermodel.obj
 0001:00055ae0       ??$modelcommand@$$A6AXPADPAM111@Z@?$modelcommands@Umd5@@Uskelmesh@skelmodel@@@@QAEXP6AXPADPAM111@ZPBD3@Z 00456ae0 f i rendermodel.obj
 0001:00055b70       ??$modelcommand@$$A6AXPAD0PAHPAM2@Z@?$modelcommands@Umd5@@Uskelmesh@skelmodel@@@@QAEXP6AXPAD0PAHPAM2@ZPBD4@Z 00456b70 f i rendermodel.obj
 0001:00055c00       ??$modelcommand@$$A6AXPAD0PAM11@Z@?$modelcommands@Umd5@@Uskelmesh@skelmodel@@@@QAEXP6AXPAD0PAM11@ZPBD3@Z 00456c00 f i rendermodel.obj
 0001:00055c90       ??$modelcommand@$$A6AXPAD0PAMPAH22@Z@?$modelcommands@Umd5@@Uskelmesh@skelmodel@@@@QAEXP6AXPAD0PAMPAH22@ZPBD4@Z 00456c90 f i rendermodel.obj
 0001:00055d20       ??$modelcommand@$$A6AXPAD@Z@?$modelcommands@Umd5@@Uskelmesh@skelmodel@@@@QAEXP6AXPAD@ZPBD2@Z 00456d20 f i rendermodel.obj
 0001:00055db0       ??$modelcommand@$$A6AXPADPAM11111@Z@?$modelcommands@Umd5@@Uskelmesh@skelmodel@@@@QAEXP6AXPADPAM11111@ZPBD3@Z 00456db0 f i rendermodel.obj
 0001:00055e40       ??$modelcommand@$$A6AXPADPAM@Z@?$modelcommands@Uobj@@Uvertmesh@vertmodel@@@@QAEXP6AXPADPAM@ZPBD3@Z 00456e40 f i rendermodel.obj
 0001:00055ed0       ??$modelcommand@$$A6AXPAM000@Z@?$modelcommands@Uobj@@Uvertmesh@vertmodel@@@@QAEXP6AXPAM000@ZPBD2@Z 00456ed0 f i rendermodel.obj
 0001:00055f60       ??$modelcommand@$$A6AXPAD0PAM@Z@?$modelcommands@Usmd@@Uskelmesh@skelmodel@@@@QAEXP6AXPAD0PAM@ZPBD3@Z 00456f60 f i rendermodel.obj
 0001:00055ff0       ??$modelcommand@$$A6AXPAD0PAM11111@Z@?$modelcommands@Usmd@@Uskelmesh@skelmodel@@@@QAEXP6AXPAD0PAM11111@ZPBD3@Z 00456ff0 f i rendermodel.obj
 0001:00056080       ??$modelcommand@$$A6AXPADPAM111@Z@?$modelcommands@Usmd@@Uskelmesh@skelmodel@@@@QAEXP6AXPADPAM111@ZPBD3@Z 00457080 f i rendermodel.obj
 0001:00056110       ??$modelcommand@$$A6AXPAD0PAHPAM2@Z@?$modelcommands@Usmd@@Uskelmesh@skelmodel@@@@QAEXP6AXPAD0PAHPAM2@ZPBD4@Z 00457110 f i rendermodel.obj
 0001:000561a0       ??$modelcommand@$$A6AXPAD0PAM11@Z@?$modelcommands@Usmd@@Uskelmesh@skelmodel@@@@QAEXP6AXPAD0PAM11@ZPBD3@Z 004571a0 f i rendermodel.obj
 0001:00056230       ??$modelcommand@$$A6AXPAD0PAMPAH22@Z@?$modelcommands@Usmd@@Uskelmesh@skelmodel@@@@QAEXP6AXPAD0PAMPAH22@ZPBD4@Z 00457230 f i rendermodel.obj
 0001:000562c0       ??$modelcommand@$$A6AXPAD@Z@?$modelcommands@Usmd@@Uskelmesh@skelmodel@@@@QAEXP6AXPAD@ZPBD2@Z 004572c0 f i rendermodel.obj
 0001:00056350       ??$modelcommand@$$A6AXPADPAM11111@Z@?$modelcommands@Usmd@@Uskelmesh@skelmodel@@@@QAEXP6AXPADPAM11111@ZPBD3@Z 00457350 f i rendermodel.obj
 0001:000563e0       ??$modelcommand@$$A6AXPAD0PAM@Z@?$modelcommands@Uiqm@@Uskelmesh@skelmodel@@@@QAEXP6AXPAD0PAM@ZPBD3@Z 004573e0 f i rendermodel.obj
 0001:00056470       ??$modelcommand@$$A6AXPAD0PAM11111@Z@?$modelcommands@Uiqm@@Uskelmesh@skelmodel@@@@QAEXP6AXPAD0PAM11111@ZPBD3@Z 00457470 f i rendermodel.obj
 0001:00056500       ??$modelcommand@$$A6AXPADPAM111@Z@?$modelcommands@Uiqm@@Uskelmesh@skelmodel@@@@QAEXP6AXPADPAM111@ZPBD3@Z 00457500 f i rendermodel.obj
 0001:00056590       ??$modelcommand@$$A6AXPAD0PAHPAM2@Z@?$modelcommands@Uiqm@@Uskelmesh@skelmodel@@@@QAEXP6AXPAD0PAHPAM2@ZPBD4@Z 00457590 f i rendermodel.obj
 0001:00056620       ??$modelcommand@$$A6AXPAD0PAM11@Z@?$modelcommands@Uiqm@@Uskelmesh@skelmodel@@@@QAEXP6AXPAD0PAM11@ZPBD3@Z 00457620 f i rendermodel.obj
 0001:000566b0       ??$modelcommand@$$A6AXPAD0PAMPAH22@Z@?$modelcommands@Uiqm@@Uskelmesh@skelmodel@@@@QAEXP6AXPAD0PAMPAH22@ZPBD4@Z 004576b0 f i rendermodel.obj
 0001:00056740       ??$modelcommand@$$A6AXPAD@Z@?$modelcommands@Uiqm@@Uskelmesh@skelmodel@@@@QAEXP6AXPAD@ZPBD2@Z 00457740 f i rendermodel.obj
 0001:000567d0       ??$modelcommand@$$A6AXPADPAM11111@Z@?$modelcommands@Uiqm@@Uskelmesh@skelmodel@@@@QAEXP6AXPADPAM11111@ZPBD3@Z 004577d0 f i rendermodel.obj
 0001:00056860       ??$modelcommand@$$A6AXPAD@Z@?$modelcommands@Umd2@@Uvertmesh@vertmodel@@@@QAEXP6AXPAD@ZPBD2@Z 00457860 f i rendermodel.obj
 0001:000568f0       ??$modelcommand@$$A6AXPAD@Z@?$modelcommands@Umd3@@Uvertmesh@vertmodel@@@@QAEXP6AXPAD@ZPBD2@Z 004578f0 f i rendermodel.obj
 0001:00056980       ??$modelcommand@$$A6AXPAD00PAM1@Z@?$modelcommands@Umd3@@Uvertmesh@vertmodel@@@@QAEXP6AXPAD00PAM1@ZPBD3@Z 00457980 f i rendermodel.obj
 0001:00056a10       ??$modelcommand@$$A6AXPADPAH@Z@?$modelcommands@Umd3@@Uvertmesh@vertmodel@@@@QAEXP6AXPADPAH@ZPBD3@Z 00457a10 f i rendermodel.obj
 0001:00056aa0       ??$modelcommand@$$A6AXPADPAH1PAM@Z@?$modelcommands@Umd3@@Uvertmesh@vertmodel@@@@QAEXP6AXPADPAH1PAM@ZPBD4@Z 00457aa0 f i rendermodel.obj
 0001:00056b30       ??$modelcommand@$$A6AXPADPAM1@Z@?$modelcommands@Umd3@@Uvertmesh@vertmodel@@@@QAEXP6AXPADPAM1@ZPBD3@Z 00457b30 f i rendermodel.obj
 0001:00056bc0       ??$modelcommand@$$A6AXPAD0@Z@?$modelcommands@Umd3@@Uvertmesh@vertmodel@@@@QAEXP6AXPAD0@ZPBD2@Z 00457bc0 f i rendermodel.obj
 0001:00056c50       ??$modelcommand@$$A6AXPAD00@Z@?$modelcommands@Umd3@@Uvertmesh@vertmodel@@@@QAEXP6AXPAD00@ZPBD2@Z 00457c50 f i rendermodel.obj
 0001:00056ce0       ??$modelcommand@$$A6AXPAH0PADPAM22@Z@?$modelcommands@Umd3@@Uvertmesh@vertmodel@@@@QAEXP6AXPAH0PADPAM22@ZPBD4@Z 00457ce0 f i rendermodel.obj
 0001:00056d70       ??$modelcommand@$$A6AXPAD00PAM1@Z@?$modelcommands@Umd5@@Uskelmesh@skelmodel@@@@QAEXP6AXPAD00PAM1@ZPBD3@Z 00457d70 f i rendermodel.obj
 0001:00056e00       ??$modelcommand@$$A6AXPADPAH@Z@?$modelcommands@Umd5@@Uskelmesh@skelmodel@@@@QAEXP6AXPADPAH@ZPBD3@Z 00457e00 f i rendermodel.obj
 0001:00056e90       ??$modelcommand@$$A6AXPADPAH1PAM@Z@?$modelcommands@Umd5@@Uskelmesh@skelmodel@@@@QAEXP6AXPADPAH1PAM@ZPBD4@Z 00457e90 f i rendermodel.obj
 0001:00056f20       ??$modelcommand@$$A6AXPADPAM1@Z@?$modelcommands@Umd5@@Uskelmesh@skelmodel@@@@QAEXP6AXPADPAM1@ZPBD3@Z 00457f20 f i rendermodel.obj
 0001:00056fb0       ??$modelcommand@$$A6AXPADPAM@Z@?$modelcommands@Umd5@@Uskelmesh@skelmodel@@@@QAEXP6AXPADPAM@ZPBD3@Z 00457fb0 f i rendermodel.obj
 0001:00057040       ??$modelcommand@$$A6AXPAD0@Z@?$modelcommands@Umd5@@Uskelmesh@skelmodel@@@@QAEXP6AXPAD0@ZPBD2@Z 00458040 f i rendermodel.obj
 0001:000570d0       ??$modelcommand@$$A6AXPAD00@Z@?$modelcommands@Umd5@@Uskelmesh@skelmodel@@@@QAEXP6AXPAD00@ZPBD2@Z 004580d0 f i rendermodel.obj
 0001:00057160       ??$modelcommand@$$A6AXPAH0PADPAM22@Z@?$modelcommands@Umd5@@Uskelmesh@skelmodel@@@@QAEXP6AXPAH0PADPAM22@ZPBD4@Z 00458160 f i rendermodel.obj
 0001:000571f0       ??$modelcommand@$$A6AXPAD@Z@?$modelcommands@Uobj@@Uvertmesh@vertmodel@@@@QAEXP6AXPAD@ZPBD2@Z 004581f0 f i rendermodel.obj
 0001:00057280       ??$modelcommand@$$A6AXPAD00PAM1@Z@?$modelcommands@Uobj@@Uvertmesh@vertmodel@@@@QAEXP6AXPAD00PAM1@ZPBD3@Z 00458280 f i rendermodel.obj
 0001:00057310       ??$modelcommand@$$A6AXPADPAH@Z@?$modelcommands@Uobj@@Uvertmesh@vertmodel@@@@QAEXP6AXPADPAH@ZPBD3@Z 00458310 f i rendermodel.obj
 0001:000573a0       ??$modelcommand@$$A6AXPADPAH1PAM@Z@?$modelcommands@Uobj@@Uvertmesh@vertmodel@@@@QAEXP6AXPADPAH1PAM@ZPBD4@Z 004583a0 f i rendermodel.obj
 0001:00057430       ??$modelcommand@$$A6AXPADPAM1@Z@?$modelcommands@Uobj@@Uvertmesh@vertmodel@@@@QAEXP6AXPADPAM1@ZPBD3@Z 00458430 f i rendermodel.obj
 0001:000574c0       ??$modelcommand@$$A6AXPAD0@Z@?$modelcommands@Uobj@@Uvertmesh@vertmodel@@@@QAEXP6AXPAD0@ZPBD2@Z 004584c0 f i rendermodel.obj
 0001:00057550       ??$modelcommand@$$A6AXPAD00@Z@?$modelcommands@Uobj@@Uvertmesh@vertmodel@@@@QAEXP6AXPAD00@ZPBD2@Z 00458550 f i rendermodel.obj
 0001:000575e0       ??$modelcommand@$$A6AXPAH0PADPAM22@Z@?$modelcommands@Uobj@@Uvertmesh@vertmodel@@@@QAEXP6AXPAH0PADPAM22@ZPBD4@Z 004585e0 f i rendermodel.obj
 0001:00057670       ??$modelcommand@$$A6AXPAD00PAM1@Z@?$modelcommands@Usmd@@Uskelmesh@skelmodel@@@@QAEXP6AXPAD00PAM1@ZPBD3@Z 00458670 f i rendermodel.obj
 0001:00057700       ??$modelcommand@$$A6AXPADPAH@Z@?$modelcommands@Usmd@@Uskelmesh@skelmodel@@@@QAEXP6AXPADPAH@ZPBD3@Z 00458700 f i rendermodel.obj
 0001:00057790       ??$modelcommand@$$A6AXPADPAH1PAM@Z@?$modelcommands@Usmd@@Uskelmesh@skelmodel@@@@QAEXP6AXPADPAH1PAM@ZPBD4@Z 00458790 f i rendermodel.obj
 0001:00057820       ??$modelcommand@$$A6AXPADPAM1@Z@?$modelcommands@Usmd@@Uskelmesh@skelmodel@@@@QAEXP6AXPADPAM1@ZPBD3@Z 00458820 f i rendermodel.obj
 0001:000578b0       ??$modelcommand@$$A6AXPADPAM@Z@?$modelcommands@Usmd@@Uskelmesh@skelmodel@@@@QAEXP6AXPADPAM@ZPBD3@Z 004588b0 f i rendermodel.obj
 0001:00057940       ??$modelcommand@$$A6AXPAD0@Z@?$modelcommands@Usmd@@Uskelmesh@skelmodel@@@@QAEXP6AXPAD0@ZPBD2@Z 00458940 f i rendermodel.obj
 0001:000579d0       ??$modelcommand@$$A6AXPAD00@Z@?$modelcommands@Usmd@@Uskelmesh@skelmodel@@@@QAEXP6AXPAD00@ZPBD2@Z 004589d0 f i rendermodel.obj
 0001:00057a60       ??$modelcommand@$$A6AXPAH0PADPAM22@Z@?$modelcommands@Usmd@@Uskelmesh@skelmodel@@@@QAEXP6AXPAH0PADPAM22@ZPBD4@Z 00458a60 f i rendermodel.obj
 0001:00057af0       ??$modelcommand@$$A6AXPAD00PAM1@Z@?$modelcommands@Uiqm@@Uskelmesh@skelmodel@@@@QAEXP6AXPAD00PAM1@ZPBD3@Z 00458af0 f i rendermodel.obj
 0001:00057b80       ??$modelcommand@$$A6AXPADPAH@Z@?$modelcommands@Uiqm@@Uskelmesh@skelmodel@@@@QAEXP6AXPADPAH@ZPBD3@Z 00458b80 f i rendermodel.obj
 0001:00057c10       ??$modelcommand@$$A6AXPADPAH1PAM@Z@?$modelcommands@Uiqm@@Uskelmesh@skelmodel@@@@QAEXP6AXPADPAH1PAM@ZPBD4@Z 00458c10 f i rendermodel.obj
 0001:00057ca0       ??$modelcommand@$$A6AXPADPAM1@Z@?$modelcommands@Uiqm@@Uskelmesh@skelmodel@@@@QAEXP6AXPADPAM1@ZPBD3@Z 00458ca0 f i rendermodel.obj
 0001:00057d30       ??$modelcommand@$$A6AXPADPAM@Z@?$modelcommands@Uiqm@@Uskelmesh@skelmodel@@@@QAEXP6AXPADPAM@ZPBD3@Z 00458d30 f i rendermodel.obj
 0001:00057dc0       ??$modelcommand@$$A6AXPAD0@Z@?$modelcommands@Uiqm@@Uskelmesh@skelmodel@@@@QAEXP6AXPAD0@ZPBD2@Z 00458dc0 f i rendermodel.obj
 0001:00057e50       ??$modelcommand@$$A6AXPAD00@Z@?$modelcommands@Uiqm@@Uskelmesh@skelmodel@@@@QAEXP6AXPAD00@ZPBD2@Z 00458e50 f i rendermodel.obj
 0001:00057ee0       ??$modelcommand@$$A6AXPAH0PADPAM22@Z@?$modelcommands@Uiqm@@Uskelmesh@skelmodel@@@@QAEXP6AXPAH0PADPAM22@ZPBD4@Z 00458ee0 f i rendermodel.obj
 0001:00057f70       ?insert@?$hashset@H@@QAEPAUchain@1@I@Z 00458f70 f i rendermodel.obj
 0001:00057ff0       ?accumulate@matrix3x4@@QAEXABU1@M@Z 00458ff0 f i rendermodel.obj
 0001:00058160       ?feetpos@physent@@QBE?AUvec@@M@Z 00459160 f i rendermodel.obj
 0001:000581a0       ??_Emodel@@UAEPAXI@Z       004591a0 f i * CIL library *:* CIL module *
 0001:000581a0       ??_Gmodel@@UAEPAXI@Z       004591a0 f i rendermodel.obj
 0001:00058210       ??0matrix3x3@@QAE@ABUquat@@@Z 00459210 f i rendermodel.obj
 0001:000583a0       ??0dualquat@@QAE@ABUquat@@ABUvec@@@Z 004593a0 f i rendermodel.obj
 0001:000584b0       ?mulorient@dualquat@@QAEXABUquat@@@Z 004594b0 f i rendermodel.obj
 0001:000586f0       ?transposemul@matrix3x4@@QAEXABUmatrix3x3@@ABUvec@@ABU1@@Z 004596f0 f i rendermodel.obj
 0001:00058af0       ?invert@dualquat@@QAEAAU1@XZ 00459af0 f i rendermodel.obj
 0001:00058bf0       ?mul@dualquat@@QAEXABU1@@Z 00459bf0 f i rendermodel.obj
 0001:00058c40       ?transposemul@matrix3x4@@QAEXABU1@0@Z 00459c40 f i rendermodel.obj
 0001:000590c0       ?mulorient@dualquat@@QAEXABUquat@@ABU1@@Z 0045a0c0 f i rendermodel.obj
 0001:000596e0       ??0matrix3x4@@QAE@ABUdualquat@@@Z 0045a6e0 f i rendermodel.obj
 0001:00059a30       ?mul@dualquat@@QAEXABU1@0@Z 0045aa30 f i rendermodel.obj
 0001:00059d40       ??0glmatrixf@@QAE@ABUmatrix3x4@@@Z 0045ad40 f i rendermodel.obj
 0001:00059db0       ?mul@matrix3x4@@QAEXABU1@0@Z 0045adb0 f i rendermodel.obj
 0001:0005a1b0       ?identity@matrix3x4@@QAEXXZ 0045b1b0 f i rendermodel.obj
 0001:0005a260       ??1model@@UAE@XZ           0045b260 f i rendermodel.obj
 0001:0005a2c0       ?setenvmap@model@@UAEXMMPAUTexture@@@Z 0045b2c0 f i rendermodel.obj
 0001:0005a2c0       ?changeteam@collectservmode@server@@UAEXPAUclientinfo@2@PBD1@Z 0045b2c0 f i server1.obj
 0001:0005a2c0       ?drawhud@clientmode@game@@UAEXPAUfpsent@@HH@Z 0045b2c0 f i client1.obj
 0001:0005a2c0       ?setglow@model@@UAEXMMM@Z  0045b2c0 f i rendermodel.obj
 0001:0005a2c0       ?aifind@clientmode@game@@UAEXPAUfpsent@@AAUaistate@ai@@AAU?$vector@Uinterest@ai@@@@@Z 0045b2c0 f i client1.obj
 0001:0005a2c0       ?initclient@servmode@server@@UAEXPAUclientinfo@2@AAUpacketbuf@@_N@Z 0045b2c0 f i server1.obj
 0001:0005a2c0       ?changeteam@servmode@server@@UAEXPAUclientinfo@2@PBD1@Z 0045b2c0 f i server1.obj
 0001:0005a2d0       ?preloadBIH@model@@UAEXXZ  0045b2d0 f i rendermodel.obj
 0001:0005a2e0       ??0model@@QAE@XZ           0045b2e0 f i rendermodel.obj
 0001:0005a390       ??9animinfo@@QBE_NABU0@@Z  0045b390 f i rendermodel.obj
 0001:0005a3e0       ?setvariant_@Shader@@QAEXHHPAU1@@Z 0045b3e0 f i rendermodel.obj
 0001:0005a490       ?calcangleaxis@matrix3x3@@QAE_NAAMAAUvec@@M@Z 0045b490 f i rendermodel.obj
 0001:0005a760       ?mul@matrix3x3@@QAEXABU1@0@Z 0045b760 f i rendermodel.obj
 0001:0005aa30       ?transposemul@matrix3x3@@QAEXABU1@0@Z 0045ba30 f i rendermodel.obj
 0001:0005ad00       ?mul@matrix3x4@@QAEXABUmatrix3x3@@ABUvec@@ABU1@@Z 0045bd00 f i rendermodel.obj
 0001:0005b100       ??0matrix3x4@@QAE@ABUmatrix3x3@@ABUvec@@@Z 0045c100 f i rendermodel.obj
 0001:0005b160       ?addblurtiles@rendertarget@@QAE_NMMMMM@Z 0045c160 f i renderparticles.obj
 0001:0005b340       ?debugscissor@rendertarget@@QAEXHH_N@Z 0045c340 f i renderparticles.obj
 0001:0005b470       ?debugblurtiles@rendertarget@@QAEXHH_N@Z 0045c470 f i renderparticles.obj
 0001:0005b770       ?finalize@particleemitter@@QAEXXZ 0045c770 f i renderparticles.obj
 0001:0005b910       ??1partrenderer@@UAE@XZ    0045c910 f i renderparticles.obj
 0001:0005b920       ?calc@partrenderer@@QAEXPAUparticle@@AAH1AAUvec@@2_N@Z 0045c920 f i renderparticles.obj
 0001:0005bc20       ??_Epartrenderer@@UAEPAXI@Z 0045cc20 f i * CIL library *:* CIL module *
 0001:0005bc20       ??_Gpartrenderer@@UAEPAXI@Z 0045cc20 f i renderparticles.obj
 0001:0005bc40       ??1listrenderer@@UAE@XZ    0045cc40 f i renderparticles.obj
 0001:0005bc80       ?reset@listrenderer@@UAEXXZ 0045cc80 f i renderparticles.obj
 0001:0005bcd0       ?resettracked@listrenderer@@UAEXPAUphysent@@@Z 0045ccd0 f i renderparticles.obj
 0001:0005bd20       ?addpart@listrenderer@@UAEPAUparticle@@ABUvec@@0HHMH@Z 0045cd20 f i renderparticles.obj
 0001:0005bed0       ?count@listrenderer@@UAEHXZ 0045ced0 f i renderparticles.obj
 0001:0005bef0       ?haswork@listrenderer@@UAE_NXZ 0045cef0 f i renderparticles.obj
 0001:0005bf00       ?render@listrenderer@@UAEXXZ 0045cf00 f i renderparticles.obj
 0001:0005bff0       ??_Glistrenderer@@UAEPAXI@Z 0045cff0 f i renderparticles.obj
 0001:0005bff0       ??_Elistrenderer@@UAEPAXI@Z 0045cff0 f i * CIL library *:* CIL module *
 0001:0005c050       ?startrender@meterrenderer@@UAEXXZ 0045d050 f i renderparticles.obj
 0001:0005c0a0       ?endrender@meterrenderer@@UAEXXZ 0045d0a0 f i renderparticles.obj
 0001:0005c0f0       ?renderpart@meterrenderer@@UAEXPAUlistparticle@@ABUvec@@1HHPAE@Z 0045d0f0 f i renderparticles.obj
 0001:0005c5f0       ??_Efireballrenderer@@UAEPAXI@Z 0045d5f0 f i * CIL library *:* CIL module *
 0001:0005c5f0       ??_Etextrenderer@@UAEPAXI@Z 0045d5f0 f i * CIL library *:* CIL module *
 0001:0005c5f0       ??_Gmeterrenderer@@UAEPAXI@Z 0045d5f0 f i renderparticles.obj
 0001:0005c5f0       ??_Emeterrenderer@@UAEPAXI@Z 0045d5f0 f i * CIL library *:* CIL module *
 0001:0005c5f0       ??_Glightningrenderer@@UAEPAXI@Z 0045d5f0 f i renderparticles.obj
 0001:0005c5f0       ??_Gfireballrenderer@@UAEPAXI@Z 0045d5f0 f i renderparticles.obj
 0001:0005c5f0       ??_Elightningrenderer@@UAEPAXI@Z 0045d5f0 f i * CIL library *:* CIL module *
 0001:0005c5f0       ??_Gtextrenderer@@UAEPAXI@Z 0045d5f0 f i renderparticles.obj
 0001:0005c650       ??0textrenderer@@QAE@H@Z   0045d650 f i renderparticles.obj
 0001:0005c700       ?killpart@textrenderer@@UAEXPAUlistparticle@@@Z 0045d700 f i renderparticles.obj
 0001:0005c720       ?renderpart@textrenderer@@UAEXPAUlistparticle@@ABUvec@@1HHPAE@Z 0045d720 f i renderparticles.obj
 0001:0005c930       ??$genpos@$00@@YAXABUvec@@0MHHPAUpartvert@@@Z 0045d930 f i renderparticles.obj
 0001:0005cb40       ??$genrotpos@$0A@@@YAXABUvec@@0MHHPAUpartvert@@H@Z 0045db40 f i renderparticles.obj
 0001:0005ce60       ?colorformats@depthfxtexture@@UBEPBIXZ 0045de60 f i renderparticles.obj
 0001:0005ced0       ?addscissorbox@depthfxtexture@@QAE_NABUvec@@0@Z 0045ded0 f i renderparticles.obj
 0001:0005d040       ?screenview@depthfxtexture@@UBE_NXZ 0045e040 f i renderparticles.obj
 0001:0005d050       ?texrect@depthfxtexture@@UBE_NXZ 0045e050 f i renderparticles.obj
 0001:0005d070       ?filter@depthfxtexture@@UBE_NXZ 0045e070 f i renderparticles.obj
 0001:0005d080       ?highprecision@depthfxtexture@@QBE_NXZ 0045e080 f i renderparticles.obj
 0001:0005d0a0       ?shouldrender@depthfxtexture@@UAE_NXZ 0045e0a0 f i renderparticles.obj
 0001:0005d0f0       ?dorender@depthfxtexture@@UAE_NXZ 0045e0f0 f i renderparticles.obj
 0001:0005d1b0       ?dodebug@depthfxtexture@@UAEXHH@Z 0045e1b0 f i renderparticles.obj
 0001:0005d240       ?startrender@fireballrenderer@@UAEXXZ 0045e240 f i renderparticles.obj
 0001:0005d250       ?endrender@fireballrenderer@@UAEXXZ 0045e250 f i renderparticles.obj
 0001:0005d290       ?cleanup@fireballrenderer@@UAEXXZ 0045e290 f i renderparticles.obj
 0001:0005d2a0       ?finddepthfxranges@fireballrenderer@@QAEHPAPAXPAMHHAAUvec@@2@Z 0045e2a0 f i renderparticles.obj
 0001:0005d880       ?seedemitter@fireballrenderer@@UAEXAAUparticleemitter@@ABUvec@@1HMH@Z 0045e880 f i renderparticles.obj
 0001:0005d980       ?renderpart@fireballrenderer@@UAEXPAUlistparticle@@ABUvec@@1HHPAE@Z 0045e980 f i renderparticles.obj
 0001:0005e2a0       ??0flarerenderer@@QAE@PBDH@Z 0045f2a0 f i renderparticles.obj
 0001:0005e380       ?reset@flarerenderer@@UAEXXZ 0045f380 f i renderparticles.obj
 0001:0005e390       ?newflare@flarerenderer@@QAEXAAUvec@@ABU2@EEEMM_N2@Z 0045f390 f i renderparticles.obj
 0001:0005e450       ?addflare@flarerenderer@@QAEXAAUvec@@EEE_N1@Z 0045f450 f i renderparticles.obj
 0001:0005e6d0       ?makelightflares@flarerenderer@@QAEXXZ 0045f6d0 f i renderparticles.obj
 0001:0005e980       ?haswork@flarerenderer@@UAE_NXZ 0045f980 f i renderparticles.obj
 0001:0005e9b0       ?render@flarerenderer@@UAEXXZ 0045f9b0 f i renderparticles.obj
 0001:0005eeb0       ?addpart@flarerenderer@@UAEPAUparticle@@ABUvec@@0HHMH@Z 0045feb0 f i renderparticles.obj
 0001:0005eec0       ??_Gflarerenderer@@UAEPAXI@Z 0045fec0 f i renderparticles.obj
 0001:0005eec0       ??_Eflarerenderer@@UAEPAXI@Z 0045fec0 f i * CIL library *:* CIL module *
 0001:0005eec0       ??_E?$varenderer@$01@@UAEPAXI@Z 0045fec0 f i * CIL library *:* CIL module *
 0001:0005eec0       ??_E?$varenderer@$00@@UAEPAXI@Z 0045fec0 f i * CIL library *:* CIL module *
 0001:0005eec0       ??_G?$varenderer@$00@@UAEPAXI@Z 0045fec0 f i renderparticles.obj
 0001:0005eec0       ??_G?$varenderer@$0A@@@UAEPAXI@Z 0045fec0 f i renderparticles.obj
 0001:0005eec0       ??_G?$varenderer@$01@@UAEPAXI@Z 0045fec0 f i renderparticles.obj
 0001:0005eec0       ??_E?$varenderer@$0A@@@UAEPAXI@Z 0045fec0 f i * CIL library *:* CIL module *
 0001:0005ef10       ??0lightningrenderer@@QAE@XZ 0045ff10 f i renderparticles.obj
 0001:0005efc0       ?startrender@lightningrenderer@@UAEXXZ 0045ffc0 f i renderparticles.obj
 0001:0005efd0       ?endrender@lightningrenderer@@UAEXXZ 0045ffd0 f i renderparticles.obj
 0001:0005efe0       ?update@lightningrenderer@@UAEXXZ 0045ffe0 f i renderparticles.obj
 0001:0005f030       ?seedemitter@lightningrenderer@@UAEXAAUparticleemitter@@ABUvec@@1HMH@Z 00460030 f i renderparticles.obj
 0001:0005f180       ?renderpart@lightningrenderer@@UAEXPAUlistparticle@@ABUvec@@1HHPAE@Z 00460180 f i renderparticles.obj
 0001:0005f200       ?init@?$varenderer@$0A@@@UAEXH@Z 00460200 f i renderparticles.obj
 0001:0005f200       ?init@?$varenderer@$00@@UAEXH@Z 00460200 f i renderparticles.obj
 0001:0005f200       ?init@?$varenderer@$01@@UAEXH@Z 00460200 f i renderparticles.obj
 0001:0005f2e0       ?reset@?$varenderer@$0A@@@UAEXXZ 004602e0 f i renderparticles.obj
 0001:0005f2e0       ?reset@?$varenderer@$01@@UAEXXZ 004602e0 f i renderparticles.obj
 0001:0005f2e0       ?reset@?$varenderer@$00@@UAEXXZ 004602e0 f i renderparticles.obj
 0001:0005f2f0       ?resettracked@?$varenderer@$00@@UAEXPAUphysent@@@Z 004602f0 f i renderparticles.obj
 0001:0005f2f0       ?resettracked@?$varenderer@$01@@UAEXPAUphysent@@@Z 004602f0 f i renderparticles.obj
 0001:0005f2f0       ?resettracked@?$varenderer@$0A@@@UAEXPAUphysent@@@Z 004602f0 f i renderparticles.obj
 0001:0005f340       ?count@?$varenderer@$0A@@@UAEHXZ 00460340 f i renderparticles.obj
 0001:0005f340       ?count@?$varenderer@$00@@UAEHXZ 00460340 f i renderparticles.obj
 0001:0005f340       ?count@?$varenderer@$01@@UAEHXZ 00460340 f i renderparticles.obj
 0001:0005f350       ?haswork@?$varenderer@$00@@UAE_NXZ 00460350 f i renderparticles.obj
 0001:0005f350       ?haswork@?$varenderer@$01@@UAE_NXZ 00460350 f i renderparticles.obj
 0001:0005f350       ?haswork@?$varenderer@$0A@@@UAE_NXZ 00460350 f i renderparticles.obj
 0001:0005f360       ?addpart@?$varenderer@$00@@UAEPAUparticle@@ABUvec@@0HHMH@Z 00460360 f i renderparticles.obj
 0001:0005f360       ?addpart@?$varenderer@$01@@UAEPAUparticle@@ABUvec@@0HHMH@Z 00460360 f i renderparticles.obj
 0001:0005f360       ?addpart@?$varenderer@$0A@@@UAEPAUparticle@@ABUvec@@0HHMH@Z 00460360 f i renderparticles.obj
 0001:0005f450       ?seedemitter@?$varenderer@$0A@@@UAEXAAUparticleemitter@@ABUvec@@1HMH@Z 00460450 f i renderparticles.obj
 0001:0005f6d0       ?update@?$varenderer@$0A@@@UAEXXZ 004606d0 f i renderparticles.obj
 0001:0005fa50       ?render@?$varenderer@$01@@UAEXXZ 00460a50 f i renderparticles.obj
 0001:0005fa50       ?render@?$varenderer@$0A@@@UAEXXZ 00460a50 f i renderparticles.obj
 0001:0005fa50       ?render@?$varenderer@$00@@UAEXXZ 00460a50 f i renderparticles.obj
 0001:0005fad0       ?seedemitter@?$varenderer@$01@@UAEXAAUparticleemitter@@ABUvec@@1HMH@Z 00460ad0 f i renderparticles.obj
 0001:0005fed0       ?update@?$varenderer@$01@@UAEXXZ 00460ed0 f i renderparticles.obj
 0001:0005ffb0       ?seedemitter@?$varenderer@$00@@UAEXAAUparticleemitter@@ABUvec@@1HMH@Z 00460fb0 f i renderparticles.obj
 0001:000602f0       ?update@?$varenderer@$00@@UAEXXZ 004612f0 f i renderparticles.obj
 0001:00060ab0       ?growbuf@?$vector@Uparticleemitter@@@@QAEXH@Z 00461ab0 f i renderparticles.obj
 0001:00060b40       ?genverts@?$varenderer@$0A@@@QAEXPAUparticle@@PAUpartvert@@_N@Z 00461b40 f i renderparticles.obj
 0001:00060dc0       ?genverts@?$varenderer@$01@@QAEXPAUparticle@@PAUpartvert@@_N@Z 00461dc0 f i renderparticles.obj
 0001:00061510       ?genverts@?$varenderer@$00@@QAEXPAUparticle@@PAUpartvert@@_N@Z 00462510 f i renderparticles.obj
 0001:00061970       ??4?$vector@PAUTexture@@@@QAEAAU0@ABU0@@Z 00462970 f i rendertext.obj
 0001:000619d0       ??4?$vector@Ucharinfo@font@@@@QAEAAU0@ABU0@@Z 004629d0 f i rendertext.obj
 0001:00061a60       ??0?$hashset@Ufont@@@@QAE@H@Z 00462a60 f i rendertext.obj
 0001:00061af0       ?deletechunks@?$hashset@Ufont@@@@QAEXXZ 00462af0 f i rendertext.obj
 0001:00061b60       ?growbuf@?$vector@PAUfont@@@@QAEXH@Z 00462b60 f i rendertext.obj
 0001:00061bf0       ??1chain@?$hashset@Ufont@@@@QAE@XZ 00462bf0 f i rendertext.obj
 0001:00061c30       ??$?APAD@?$hashset@Ufont@@@@QAEAAUfont@@ABQAD@Z 00462c30 f i rendertext.obj
 0001:00061c30       ??$?APBD@?$hashset@Ufont@@@@QAEAAUfont@@ABQBD@Z 00462c30 f i rendertext.obj
 0001:00061cc0       ??$access@PBD@?$hashset@Ufont@@@@QAEPAUfont@@ABQBD@Z 00462cc0 f i rendertext.obj
 0001:00061d50       ?insert@?$hashset@Ufont@@@@QAEPAUchain@1@I@Z 00462d50 f i rendertext.obj
 0001:00061e30       ??0chain@?$hashset@Ufont@@@@QAE@XZ 00462e30 f i rendertext.obj
 0001:00061ea0       ??1font@@QAE@XZ            00462ea0 f i rendertext.obj
 0001:00061f30       ??0renderstate@@QAE@XZ     00462f30 f i renderva.obj
 0001:00062080       ??0geombatch@@QAE@ABUelementset@@PAGPAUvtxarray@@@Z 00463080 f i renderva.obj
 0001:00062110       ?compare@geombatch@@QBEHABU1@@Z 00463110 f i renderva.obj
 0001:000621d0       ?add@?$vector@Ugeombatch@@@@QAEAAUgeombatch@@ABU2@@Z 004631d0 f i renderva.obj
 0001:00062240       ?growbuf@?$vector@Ugeombatch@@@@QAEXH@Z 00463240 f i renderva.obj
 0001:000622d0       ?setvariant@Shader@@QAEXHHAAUSlot@@AAUVSlot@@@Z 004632d0 f i renderva.obj
 0001:00062310       ?access@?$hashtable@PBDUShader@@@@QAEPAUShader@@ABQBD@Z 00463310 f i shader.obj
 0001:000623a0       ??A?$hashtable@PBDUShader@@@@QAEAAUShader@@ABQBD@Z 004633a0 f i shader.obj
 0001:00062450       ??1?$hashset@U?$hashtableentry@PBDUShader@@@@@@QAE@XZ 00463450 f i shader.obj
 0001:00062480       ?insert@?$vector@D@@QAEPADHPBDH@Z 00463480 f i shader.obj
 0001:00062510       ??0?$hashset@PBD@@QAE@H@Z  00463510 f i shader.obj
 0001:000625a0       ??1?$hashset@PBD@@QAE@XZ   004635a0 f i shader.obj
 0001:000625f0       ?add@?$vector@Upostfxpass@@@@QAEAAUpostfxpass@@XZ 004635f0 f i shader.obj
 0001:00062690       ?growbuf@?$vector@Utoken@collectclientmode@game@@@@QAEXH@Z 00463690 f i client1.obj
 0001:00062690       ?growbuf@?$vector@ULocalShaderParamState@@@@QAEXH@Z 00463690 f i shader.obj
 0001:00062710       ?growbuf@?$vector@UUniformLoc@@@@QAEXH@Z 00463710 f i shader.obj
 0001:00062710       ?growbuf@?$vector@Uident@@@@QAEXH@Z 00463710 f i command.obj
 0001:00062790       ??0?$hashset@U?$hashtableentry@PBDUShader@@@@@@QAE@H@Z 00463790 f i shader.obj
 0001:00062820       ?deletechunks@?$hashset@U?$hashtableentry@PBDUShader@@@@@@QAEXXZ 00463820 f i shader.obj
 0001:00062890       ?growbuf@?$vector@Upostfxtex@@@@QAEXH@Z 00463890 f i shader.obj
 0001:00062920       ?growbuf@?$vector@Upostfxpass@@@@QAEXH@Z 00463920 f i shader.obj
 0001:000629b0       ??1chain@?$hashset@U?$hashtableentry@PBDUShader@@@@@@QAE@XZ 004639b0 f i shader.obj
 0001:00062a00       ??1?$hashtableentry@PBDUShader@@@@QAE@XZ 00463a00 f i shader.obj
 0001:00062a40       ?insert@?$hashset@U?$hashtableentry@PBDUShader@@@@@@QAEPAUchain@1@I@Z 00463a40 f i shader.obj
 0001:00062b30       ??0chain@?$hashset@U?$hashtableentry@PBDUShader@@@@@@QAE@XZ 00463b30 f i shader.obj
 0001:00062b80       ??$remove@PAD@?$hashset@U?$hashtableentry@PBDUShader@@@@@@QAE_NABQAD@Z 00463b80 f i shader.obj
 0001:00062ca0       ??$access@PBD@?$hashset@PBD@@QAEPAPBDABQBD@Z 00463ca0 f i shader.obj
 0001:00062d30       ??$?APBD@?$hashset@PBD@@QAEAAPBDABQBD@Z 00463d30 f i shader.obj
 0001:00062dc0       ?insert@?$hashset@PBD@@QAEPAUchain@1@I@Z 00463dc0 f i shader.obj
 0001:00062e50       ??0Shader@@QAE@XZ          00463e50 f i shader.obj
 0001:00062fb0       ??1Shader@@QAE@XZ          00463fb0 f i shader.obj
 0001:00063120       ?checkblurtiles@rendertarget@@QAE_NMMMMM@Z 00464120 f i shadowmap.obj
 0001:000632b0       ?attachment@shadowmaptexture@@UBEIXZ 004642b0 f i shadowmap.obj
 0001:000632d0       ?colorformats@shadowmaptexture@@UBEPBIXZ 004642d0 f i shadowmap.obj
 0001:00063320       ?shadowcompare@shadowmaptexture@@UBE_NXZ 00464320 f i shadowmap.obj
 0001:00063330       ?filter@shadowmaptexture@@UBE_NXZ 00464330 f i shadowmap.obj
 0001:00063350       ?swaptexs@shadowmaptexture@@UBE_NXZ 00464350 f i shadowmap.obj
 0001:00063360       ?scissorblur@shadowmaptexture@@UAE_NAAH000@Z 00464360 f i shadowmap.obj
 0001:00063490       ?scissorrender@shadowmaptexture@@UAE_NAAH000@Z 00464490 f i shadowmap.obj
 0001:000634d0       ?doclear@shadowmaptexture@@UAEXXZ 004644d0 f i shadowmap.obj
 0001:00063580       ?dorender@shadowmaptexture@@UAE_NXZ 00464580 f i shadowmap.obj
 0001:00064050       ?dodebug@shadowmaptexture@@UAEXHH@Z 00465050 f i shadowmap.obj
 0001:000640b0       ??1MSlot@@QAE@XZ           004650b0 f i texture.obj
 0001:00064130       ?add@?$vector@PAUSlot@@@@QAEAAPAUSlot@@ABQAU2@@Z 00465130 f i texture.obj
 0001:00064180       ?deletecontents@?$vector@PAUSlot@@@@QAEXXZ 00465180 f i texture.obj
 0001:00064230       ?deletecontents@?$vector@PAUVSlot@@@@QAEXXZ 00465230 f i texture.obj
 0001:000642c0       ?access@?$hashtable@PADUTexture@@@@QAEPAUTexture@@ABQAD@Z 004652c0 f i texture.obj
 0001:00064350       ??A?$hashtable@PADUTexture@@@@QAEAAUTexture@@ABQAD@Z 00465350 f i texture.obj
 0001:000643f0       ??1?$hashset@U?$hashtableentry@PADUTexture@@@@@@QAE@XZ 004653f0 f i texture.obj
 0001:00064440       ?growbuf@?$vector@PAUSlot@@@@QAEXH@Z 00465440 f i texture.obj
 0001:000644d0       ??0?$hashset@U?$hashtableentry@PADUTexture@@@@@@QAE@H@Z 004654d0 f i texture.obj
 0001:00064560       ?growbuf@?$vector@Uenvmap@@@@QAEXH@Z 00465560 f i texture.obj
 0001:00064600       ?insert@?$hashset@U?$hashtableentry@PADUTexture@@@@@@QAEPAUchain@1@I@Z 00465600 f i texture.obj
 0001:000646e0       ??$remove@PAD@?$hashset@U?$hashtableentry@PADUTexture@@@@@@QAE_NABQAD@Z 004656e0 f i texture.obj
 0001:000647e0       ??_GImageData@@QAEPAXI@Z   004657e0 f i texture.obj
 0001:00064830       ?reset@Slot@@QAEXXZ        00465830 f i texture.obj
 0001:000648d0       ??0Slot@@QAE@H@Z           004658d0 f i texture.obj
 0001:00064970       ??1Slot@@QAE@XZ            00465970 f i texture.obj
 0001:000649f0       ??0MSlot@@QAE@XZ           004659f0 f i texture.obj
 0001:00064a50       ?wrap@ImageData@@QAEXPAUSDL_Surface@@@Z 00465a50 f i texture.obj
 0001:00064ae0       ?replace@ImageData@@QAEXAAU1@@Z 00465ae0 f i texture.obj
 0001:00064b80       ??0Reflection@@QAE@XZ      00465b80 f i water.obj
 0001:00064c00       ??1Reflection@@QAE@XZ      00465c00 f i water.obj
 0001:00064c50       ??Rsortfun@@QAE_NABUsortitem@@0@Z 00465c50 f i command.obj
 0001:00064d00       ??0?$hashset@Uident@@@@QAE@H@Z 00465d00 f i command.obj
 0001:00064d90       ??1?$hashset@Uident@@@@QAE@XZ 00465d90 f i command.obj
 0001:00064de0       ?add@?$vector@Uident@@@@QAEAAUident@@ABU2@@Z 00465de0 f i command.obj
 0001:00064e50       ?reserve@?$vector@I@@QAE?AU?$databuf@I@@H@Z 00465e50 f i command.obj
 0001:00064e90       ?remove@?$vector@Usleepcmd@@@@QAE?AUsleepcmd@@H@Z 00465e90 f i command.obj
 0001:00064f20       ?growbuf@?$vector@Usleepcmd@@@@QAEXH@Z 00465f20 f i command.obj
 0001:00064fa0       ??$access@PBDUident@@@?$hashset@Uident@@@@QAEAAUident@@ABQBDABU1@@Z 00465fa0 f i command.obj
 0001:00065060       ??$access@PBD@?$hashset@Uident@@@@QAEPAUident@@ABQBD@Z 00466060 f i command.obj
 0001:00065060       ??$access@PAD@?$hashset@Uident@@@@QAEPAUident@@ABQAD@Z 00466060 f i command.obj
 0001:000650f0       ?insert@?$hashset@Uident@@@@QAEPAUchain@1@I@Z 004660f0 f i command.obj
 0001:000651b0       ?getval@ident@@QBEXAAUtagval@@@Z 004661b0 f i command.obj
 0001:00065230       ?getfloat@ident@@QBEMXZ    00466230 f i command.obj
 0001:00065280       ?getint@ident@@QBEHXZ      00466280 f i command.obj
 0001:000652d0       ?getstr@tagval@@QBEPBDXZ   004662d0 f i command.obj
 0001:00065320       ?getstr@ident@@QBEPBDXZ    00466320 f i command.obj
 0001:00065370       ??0keym@@QAE@XZ            00466370 f i console.obj
 0001:000653d0       ??1keym@@QAE@XZ            004663d0 f i console.obj
 0001:00065420       ?restore@hline@@QAEXXZ     00466420 f i console.obj
 0001:00065540       ?shouldsave@hline@@QAE_NXZ 00466540 f i console.obj
 0001:00065630       ?save@hline@@QAEXXZ        00466630 f i console.obj
 0001:00065710       ?run@hline@@QAEXXZ         00466710 f i console.obj
 0001:00065760       ??_Ghline@@QAEPAXI@Z       00466760 f i console.obj
 0001:00065760       ??_Gauthkey@game@@QAEPAXI@Z 00466760 f i client1.obj
 0001:000657c0       ??0filesval@@QAE@HPBD0@Z   004667c0 f i console.obj
 0001:00065890       ?comparefiles@filesval@@SA_NPBD0@Z 00466890 f i console.obj
 0001:000658d0       ?update@filesval@@QAEXXZ   004668d0 f i console.obj
 0001:000659b0       ?insert@?$vector@Ucline@@@@QAEAAUcline@@HABU2@@Z 004669b0 f i console.obj
 0001:00065a30       ??1?$hashset@U?$hashtableentry@HUkeym@@@@@@QAE@XZ 00466a30 f i console.obj
 0001:00065a60       ?clear@?$hashset@U?$hashtableentry@HUkeym@@@@@@QAEXXZ 00466a60 f i console.obj
 0001:00065b10       ?add@?$vector@PAUhline@@@@QAEAAPAUhline@@ABQAU2@@Z 00466b10 f i console.obj
 0001:00065b60       ?remove@?$vector@PAUhline@@@@QAEXHH@Z 00466b60 f i console.obj
 0001:00065ba0       ?access@?$hashtable@Ufileskey@@PAUfilesval@@@@QAEPAPAUfilesval@@ABUfileskey@@@Z 00466ba0 f i console.obj
 0001:00065c10       ??A?$hashtable@Ufileskey@@PAUfilesval@@@@QAEAAPAUfilesval@@ABUfileskey@@@Z 00466c10 f i console.obj
 0001:00065c90       ??1?$hashset@U?$hashtableentry@Ufileskey@@PAUfilesval@@@@@@QAE@XZ 00466c90 f i console.obj
 0001:00065ce0       ?access@?$hashtable@PADPAUfilesval@@@@QAEPAPAUfilesval@@ABQAD@Z 00466ce0 f i console.obj
 0001:00065d70       ??A?$hashtable@PADPAUfilesval@@@@QAEAAPAUfilesval@@ABQAD@Z 00466d70 f i console.obj
 0001:00065e10       ??1?$hashset@U?$hashtableentry@PADPAUfilesval@@@@@@QAE@XZ 00466e10 f i console.obj
 0001:00065e60       ?add@?$vector@Ucline@@@@QAEAAUcline@@ABU2@@Z 00466e60 f i console.obj
 0001:00065ec0       ??0?$hashset@U?$hashtableentry@HUkeym@@@@@@QAE@H@Z 00466ec0 f i console.obj
 0001:00065f50       ?deletechunks@?$hashset@U?$hashtableentry@HUkeym@@@@@@QAEXXZ 00466f50 f i console.obj
 0001:00065fc0       ?growbuf@?$vector@PAUhline@@@@QAEXH@Z 00466fc0 f i console.obj
 0001:00066050       ?growbuf@?$vector@Ureleaseaction@@@@QAEXH@Z 00467050 f i console.obj
 0001:000660e0       ??0?$hashset@U?$hashtableentry@Ufileskey@@PAUfilesval@@@@@@QAE@H@Z 004670e0 f i console.obj
 0001:00066170       ??0?$hashset@U?$hashtableentry@PADPAUfilesval@@@@@@QAE@H@Z 00467170 f i console.obj
 0001:00066200       ??1chain@?$hashset@U?$hashtableentry@HUkeym@@@@@@QAE@XZ 00467200 f i console.obj
 0001:00066250       ??1?$hashtableentry@HUkeym@@@@QAE@XZ 00467250 f i console.obj
 0001:00066290       ?growbuf@?$vector@Ucline@@@@QAEXH@Z 00467290 f i console.obj
 0001:00066320       ?insert@?$hashset@U?$hashtableentry@HUkeym@@@@@@QAEPAUchain@1@I@Z 00467320 f i console.obj
 0001:00066400       ?insert@?$hashset@U?$hashtableentry@Ufileskey@@PAUfilesval@@@@@@QAEPAUchain@1@I@Z 00467400 f i console.obj
 0001:000664c0       ??0chain@?$hashset@U?$hashtableentry@HUkeym@@@@@@QAE@XZ 004674c0 f i console.obj
 0001:00066510       ?add@?$vector@TSDL_Event@@@@QAEAATSDL_Event@@ABT2@@Z 00467510 f i main.obj
 0001:00066580       ?remove@?$vector@TSDL_Event@@@@QAEXHH@Z 00467580 f i main.obj
 0001:000665e0       ?remove@?$vector@TSDL_Event@@@@QAE?ATSDL_Event@@H@Z 004675e0 f i main.obj
 0001:00066670       ?growbuf@?$vector@TSDL_Event@@@@QAEXH@Z 00467670 f i main.obj
 0001:00066700       ?gui@menu@@UAEXAAUg3d_gui@@_N@Z 00467700 f i menus.obj
 0001:00066780       ?clear@menu@@UAEXXZ        00467780 f i menus.obj
 0001:000667a0       ??1menu@@UAE@XZ            004677a0 f i menus.obj
 0001:000667e0       ?schedule@delayedupdate@@QAEXPBD@Z 004677e0 f i menus.obj
 0001:00066830       ?getstring@delayedupdate@@QBEPBDXZ 00467830 f i menus.obj
 0001:00066870       ?run@delayedupdate@@QAEXXZ 00467870 f i menus.obj
 0001:00066990       ?gui@applymenu@@UAEXAAUg3d_gui@@_N@Z 00467990 f i menus.obj
 0001:00066c00       ?clear@applymenu@@UAEXXZ   00467c00 f i menus.obj
 0001:00066c30       ??0applymenu@@QAE@XZ       00467c30 f i menus.obj
 0001:00066cd0       ??_Gapplymenu@@UAEPAXI@Z   00467cd0 f i menus.obj
 0001:00066cd0       ??_Eapplymenu@@UAEPAXI@Z   00467cd0 f i * CIL library *:* CIL module *
 0001:00066d20       ?access@?$hashtable@PBDUmenu@@@@QAEPAUmenu@@ABQBD@Z 00467d20 f i menus.obj
 0001:00066db0       ??A?$hashtable@PBDUmenu@@@@QAEAAUmenu@@ABQBD@Z 00467db0 f i menus.obj
 0001:00066e50       ??1?$hashset@U?$hashtableentry@PBDUmenu@@@@@@QAE@XZ 00467e50 f i menus.obj
 0001:00066e80       ?insert@?$vector@PAUmenu@@@@QAEAAPAUmenu@@HABQAU2@@Z 00467e80 f i menus.obj
 0001:00066f00       ?add@?$vector@Udelayedupdate@@@@QAEAAUdelayedupdate@@XZ 00467f00 f i menus.obj
 0001:00066f90       ?shrink@?$vector@Udelayedupdate@@@@QAEXH@Z 00467f90 f i menus.obj
 0001:00066ff0       ?remove@?$vector@Uchange@@@@QAE?AUchange@@H@Z 00467ff0 f i menus.obj
 0001:00067050       ??0?$hashset@U?$hashtableentry@PBDUmenu@@@@@@QAE@H@Z 00468050 f i menus.obj
 0001:000670e0       ?deletechunks@?$hashset@U?$hashtableentry@PBDUmenu@@@@@@QAEXXZ 004680e0 f i menus.obj
 0001:00067150       ?growbuf@?$vector@PAUmenu@@@@QAEXH@Z 00468150 f i menus.obj
 0001:000671e0       ?growbuf@?$vector@Udelayedupdate@@@@QAEXH@Z 004681e0 f i menus.obj
 0001:00067270       ?growbuf@?$vector@Uchange@@@@QAEXH@Z 00468270 f i menus.obj
 0001:00067300       ??1chain@?$hashset@U?$hashtableentry@PBDUmenu@@@@@@QAE@XZ 00468300 f i menus.obj
 0001:00067350       ??1?$hashtableentry@PBDUmenu@@@@QAE@XZ 00468350 f i menus.obj
 0001:000673a0       ?insert@?$hashset@U?$hashtableentry@PBDUmenu@@@@@@QAEPAUchain@1@I@Z 004683a0 f i menus.obj
 0001:00067480       ??0chain@?$hashset@U?$hashtableentry@PBDUmenu@@@@@@QAE@XZ 00468480 f i menus.obj
 0001:00067500       ?addindex@aviwriter@@QAEAAUaviindexentry@@HHH@Z 00468500 f i movie.obj
 0001:000675a0       ?startchunk@aviwriter@@QAEXPBDI@Z 004685a0 f i movie.obj
 0001:00067600       ?listchunk@aviwriter@@QAEXPBD0@Z 00468600 f i movie.obj
 0001:00067670       ?endlistchunk@aviwriter@@QAEXXZ 00468670 f i movie.obj
 0001:000676e0       ?writechunk@aviwriter@@QAEXPBDPBXI@Z 004686e0 f i movie.obj
 0001:00067740       ?close@aviwriter@@QAEXXZ   00468740 f i movie.obj
 0001:00067a90       ??0aviwriter@@QAE@PBDIII_N@Z 00468a90 f i movie.obj
 0001:00067c70       ??1aviwriter@@QAE@XZ       00468c70 f i movie.obj
 0001:00067d20       ?open@aviwriter@@QAE_NXZ   00468d20 f i movie.obj
 0001:00068d90       ?boxsample@aviwriter@@SAXPBEIIIIIIIIAAI11@Z 00469d90 f i movie.obj
 0001:000691c0       ?scaleyuv@aviwriter@@QAEXPBEII@Z 0046a1c0 f i movie.obj
 0001:00069760       ?encodeyuv@aviwriter@@QAEXPBE@Z 0046a760 f i movie.obj
 0001:00069a50       ?compressyuv@aviwriter@@QAEXPBE@Z 0046aa50 f i movie.obj
 0001:00069bf0       ?writesound@aviwriter@@QAE_NPAEII@Z 0046abf0 f i movie.obj
 0001:00069d50       ?flushsegment@aviwriter@@QAEXXZ 0046ad50 f i movie.obj
 0001:0006a250       ?nextsegment@aviwriter@@QAE_NXZ 0046b250 f i movie.obj
 0001:0006a310       ?writevideoframe@aviwriter@@QAE_NPBEIIHI@Z 0046b310 f i movie.obj
 0001:0006a420       ??0soundbuffer@recorder@@QAE@XZ 0046b420 f i movie.obj
 0001:0006a430       ??1soundbuffer@recorder@@QAE@XZ 0046b430 f i movie.obj
 0001:0006a460       ?load@soundbuffer@recorder@@QAEXPAEII@Z 0046b460 f i movie.obj
 0001:0006a4c0       ?insert@?$vector@Uaviindexentry@@@@QAEAAUaviindexentry@@HABU2@@Z 0046b4c0 f i movie.obj
 0001:0006a560       ?add@?$vector@Uavisegmentinfo@@@@QAEAAUavisegmentinfo@@ABU2@@Z 0046b560 f i movie.obj
 0001:0006a5d0       ??0?$queue@Usoundbuffer@recorder@@$0IA@@@QAE@XZ 0046b5d0 f i movie.obj
 0001:0006a650       ?hasslot@soundconfig@@QBE_NPBUsoundslot@@ABU?$vector@Usoundslot@@@@@Z 0046b650 f i sound.obj
 0001:0006a690       ?clearloc@soundchannel@@QAEXXZ 0046b690 f i sound.obj
 0001:0006a6c0       ?add@?$vector@Usoundchannel@@@@QAEAAUsoundchannel@@ABU2@@Z 0046b6c0 f i sound.obj
 0001:0006a750       ?inrange@?$vector@Usoundchannel@@@@QBE_NH@Z 0046b750 f i sound.obj
 0001:0006a770       ?access@?$hashtable@PBDUsoundsample@@@@QAEPAUsoundsample@@ABQBD@Z 0046b770 f i sound.obj
 0001:0006a800       ??A?$hashtable@PBDUsoundsample@@@@QAEAAUsoundsample@@ABQBD@Z 0046b800 f i sound.obj
 0001:0006a8a0       ??1?$hashset@U?$hashtableentry@PBDUsoundsample@@@@@@QAE@XZ 0046b8a0 f i sound.obj
 0001:0006a8d0       ?clear@?$hashset@U?$hashtableentry@PBDUsoundsample@@@@@@QAEXXZ 0046b8d0 f i sound.obj
 0001:0006a980       ?growbuf@?$vector@Usoundchannel@@@@QAEXH@Z 0046b980 f i sound.obj
 0001:0006aa10       ??0?$hashset@U?$hashtableentry@PBDUsoundsample@@@@@@QAE@H@Z 0046ba10 f i sound.obj
 0001:0006aaa0       ?deletechunks@?$hashset@U?$hashtableentry@PBDUsoundsample@@@@@@QAEXXZ 0046baa0 f i sound.obj
 0001:0006ab10       ??1chain@?$hashset@U?$hashtableentry@PBDUzipfile@@@@@@QAE@XZ 0046bb10 f i zip.obj
 0001:0006ab10       ??1chain@?$hashset@U?$hashtableentry@PBDUsoundsample@@@@@@QAE@XZ 0046bb10 f i sound.obj
 0001:0006ab70       ??1?$hashtableentry@PBDUzipfile@@@@QAE@XZ 0046bb70 f i zip.obj
 0001:0006ab70       ??1?$hashtableentry@PBDUsoundsample@@@@QAE@XZ 0046bb70 f i sound.obj
 0001:0006abc0       ?insert@?$hashset@U?$hashtableentry@PBDUsoundsample@@@@@@QAEPAUchain@1@I@Z 0046bbc0 f i sound.obj
 0001:0006aca0       ??0chain@?$hashset@U?$hashtableentry@PBDUsoundsample@@@@@@QAE@XZ 0046bca0 f i sound.obj
 0001:0006acf0       ?invert@gfield@@QAE_NABU1@@Z 0046bcf0 f i crypto.obj
 0001:0006b070       ?sqrt@gfield@@QAE_NABU1@@Z 0046c070 f i crypto.obj
 0001:0006b1c0       ??0ecjacobian@@QAE@ABUgfield@@0@Z 0046c1c0 f i crypto.obj
 0001:0006b260       ??0ecjacobian@@QAE@ABUgfield@@00@Z 0046c260 f i crypto.obj
 0001:0006b310       ?mul2@ecjacobian@@QAEXXZ   0046c310 f i crypto.obj
 0001:0006b6d0       ?add@ecjacobian@@QAEXABU1@@Z 0046c6d0 f i crypto.obj
 0001:0006bb20       ?normalize@ecjacobian@@QAEXXZ 0046cb20 f i crypto.obj
 0001:0006bbd0       ?calcy@ecjacobian@@QAE_N_N@Z 0046cbd0 f i crypto.obj
 0001:0006bd40       ?parse@ecjacobian@@QAEXPBD@Z 0046cd40 f i crypto.obj
 0001:0006bdb0       ?printdigits@?$bigint@$0N@@@QBEXAAU?$vector@D@@@Z 0046cdb0 f i crypto.obj
 0001:0006bdb0       ?printdigits@?$bigint@$0M@@@QBEXAAU?$vector@D@@@Z 0046cdb0 f i crypto.obj
 0001:0006be40       ?parsedigits@?$bigint@$0N@@@SAHPAGHPBD@Z 0046ce40 f i crypto.obj
 0001:0006bf10       ??$?M$0N@@?$bigint@$0N@@@QBE_NABU0@@Z 0046cf10 f i crypto.obj
 0001:0006bf70       ??$sub@$0N@$00@?$bigint@$0N@@@QAEAAU0@ABU0@ABU?$bigint@$00@@@Z 0046cf70 f i crypto.obj
 0001:0006bf70       ??$sub@$0N@$0N@@?$bigint@$0N@@@QAEAAU0@ABU0@0@Z 0046cf70 f i crypto.obj
 0001:0006c030       ??$legendre@$0N@@gfield@@SAHABU?$bigint@$0N@@@@Z 0046d030 f i crypto.obj
 0001:0006c140       ??$pow@$0N@$0N@@gfield@@QAEAAU0@ABU?$bigint@$0N@@@0@Z 0046d140 f i crypto.obj
 0001:0006c230       ??$sub@$0N@$0N@@gfield@@QAEAAU0@ABU?$bigint@$0N@@@0@Z 0046d230 f i crypto.obj
 0001:0006c290       ??$sub@$0N@@gfield@@QAEAAU0@ABU?$bigint@$0N@@@@Z 0046d290 f i crypto.obj
 0001:0006c2e0       ??$rshift@$0N@@?$bigint@$0N@@@QAEAAU0@ABU0@H@Z 0046d2e0 f i crypto.obj
 0001:0006c3d0       ?numbits@?$bigint@$0N@@@QBEHXZ 0046d3d0 f i crypto.obj
 0001:0006c3d0       ?numbits@?$bigint@$0M@@@QBEHXZ 0046d3d0 f i crypto.obj
 0001:0006c420       ??$add@$0N@$0N@@?$bigint@$0N@@@QAEAAU0@ABU0@0@Z 0046d420 f i crypto.obj
 0001:0006c420       ??$add@$0N@$00@?$bigint@$0N@@@QAEAAU0@ABU0@ABU?$bigint@$00@@@Z 0046d420 f i crypto.obj
 0001:0006c4e0       ??$mul@$0N@$0N@@?$bigint@$0BK@@@QAEAAU0@ABU?$bigint@$0N@@@0@Z 0046d4e0 f i crypto.obj
 0001:0006c5e0       ??$reduce@$0BK@@gfield@@QAEXABU?$bigint@$0BK@@@@Z 0046d5e0 f i crypto.obj
 0001:0006c820       ??$mul@$0M@@ecjacobian@@QAEXABU0@U?$bigint@$0M@@@@Z 0046d820 f i crypto.obj
 0001:0006c880       ??$mul@$0N@@ecjacobian@@QAEXABU0@U?$bigint@$0N@@@@Z 0046d880 f i crypto.obj
 0001:0006c8e0       ?close@filestream@@UAEXXZ  0046d8e0 f i stream.obj
 0001:0006c900       ?end@filestream@@UAE_NXZ   0046d900 f i stream.obj
 0001:0006c920       ?tell@filestream@@UAE_JXZ  0046d920 f i stream.obj
 0001:0006c930       ?seek@filestream@@UAE_N_JH@Z 0046d930 f i stream.obj
 0001:0006c960       ?read@filestream@@UAEHPAXH@Z 0046d960 f i stream.obj
 0001:0006c980       ?write@filestream@@UAEHPBXH@Z 0046d980 f i stream.obj
 0001:0006c9a0       ?getchar@filestream@@UAEHXZ 0046d9a0 f i stream.obj
 0001:0006c9b0       ?putchar@filestream@@UAE_NH@Z 0046d9b0 f i stream.obj
 0001:0006c9d0       ?getline@filestream@@UAE_NPADH@Z 0046d9d0 f i stream.obj
 0001:0006c9f0       ?putstring@filestream@@UAE_NPBD@Z 0046d9f0 f i stream.obj
 0001:0006ca10       ?printf@filestream@@UAAHPBDZZ 0046da10 f i stream.obj
 0001:0006ca30       ??_Efilestream@@UAEPAXI@Z  0046da30 f i * CIL library *:* CIL module *
 0001:0006ca30       ??_Gfilestream@@UAEPAXI@Z  0046da30 f i stream.obj
 0001:0006cab0       ??0gzstream@@QAE@XZ        0046dab0 f i stream.obj
 0001:0006cb50       ?readbyte@gzstream@@QAEHH@Z 0046db50 f i stream.obj
 0001:0006cba0       ?skipbytes@gzstream@@QAEXH@Z 0046dba0 f i stream.obj
 0001:0006cbf0       ?checkheader@gzstream@@QAE_NXZ 0046dbf0 f i stream.obj
 0001:0006ce50       ?open@gzstream@@QAE_NPAUstream@@PBD_NH@Z 0046de50 f i stream.obj
 0001:0006cf90       ?getcrc@gzstream@@UAEIXZ   0046df90 f i stream.obj
 0001:0006cfa0       ?finishreading@gzstream@@QAEXXZ 0046dfa0 f i stream.obj
 0001:0006d090       ?stopreading@gzstream@@QAEXXZ 0046e090 f i stream.obj
 0001:0006d0b0       ?finishwriting@gzstream@@QAEXXZ 0046e0b0 f i stream.obj
 0001:0006d190       ?stopwriting@gzstream@@QAEXXZ 0046e190 f i stream.obj
 0001:0006d1b0       ?close@gzstream@@UAEXXZ    0046e1b0 f i stream.obj
 0001:0006d230       ?end@gzstream@@UAE_NXZ     0046e230 f i stream.obj
 0001:0006d250       ?tell@gzstream@@UAE_JXZ    0046e250 f i stream.obj
 0001:0006d270       ?rawtell@gzstream@@UAE_JXZ 0046e270 f i stream.obj
 0001:0006d290       ?size@gzstream@@UAE_JXZ    0046e290 f i stream.obj
 0001:0006d310       ?rawsize@gzstream@@UAE_JXZ 0046e310 f i stream.obj
 0001:0006d330       ?seek@gzstream@@UAE_N_JH@Z 0046e330 f i stream.obj
 0001:0006d4c0       ?read@gzstream@@UAEHPAXH@Z 0046e4c0 f i stream.obj
 0001:0006d5a0       ?write@gzstream@@UAEHPBXH@Z 0046e5a0 f i stream.obj
 0001:0006d660       ??_Ggzstream@@UAEPAXI@Z    0046e660 f i stream.obj
 0001:0006d660       ??_Egzstream@@UAEPAXI@Z    0046e660 f i * CIL library *:* CIL module *
 0001:0006d6d0       ??0utf8stream@@QAE@XZ      0046e6d0 f i stream.obj
 0001:0006d750       ?readbuf@utf8stream@@QAE_NH@Z 0046e750 f i stream.obj
 0001:0006d830       ?checkheader@utf8stream@@QAE_NXZ 0046e830 f i stream.obj
 0001:0006d870       ?open@utf8stream@@QAE_NPAUstream@@PBD_N@Z 0046e870 f i stream.obj
 0001:0006d900       ?close@utf8stream@@UAEXXZ  0046e900 f i stream.obj
 0001:0006d940       ?end@utf8stream@@UAE_NXZ   0046e940 f i stream.obj
 0001:0006d960       ?tell@utf8stream@@UAE_JXZ  0046e960 f i stream.obj
 0001:0006d980       ?seek@utf8stream@@UAE_N_JH@Z 0046e980 f i stream.obj
 0001:0006daf0       ?read@utf8stream@@UAEHPAXH@Z 0046eaf0 f i stream.obj
 0001:0006db80       ?getline@utf8stream@@UAE_NPADH@Z 0046eb80 f i stream.obj
 0001:0006dc50       ?write@utf8stream@@UAEHPBXH@Z 0046ec50 f i stream.obj
 0001:0006de70       ??_Gutf8stream@@UAEPAXI@Z  0046ee70 f i stream.obj
 0001:0006de70       ??_Eutf8stream@@UAEPAXI@Z  0046ee70 f i * CIL library *:* CIL module *
 0001:0006df00       ?growbuf@?$vector@Upackagedir@@@@QAEXH@Z 0046ef00 f i stream.obj
 0001:0006df80       ??_Estream@@UAEPAXI@Z      0046ef80 f i * CIL library *:* CIL module *
 0001:0006df80       ??_Gstream@@UAEPAXI@Z      0046ef80 f i stream.obj
 0001:0006dfa0       ?rawtell@stream@@UAE_JXZ   0046efa0 f i stream.obj
 0001:0006dfb0       ?rawsize@stream@@UAE_JXZ   0046efb0 f i stream.obj
 0001:0006dfc0       ?getchar@stream@@UAEHXZ    0046efc0 f i stream.obj
 0001:0006dfe0       ?putstring@stream@@UAE_NPBD@Z 0046efe0 f i stream.obj
 0001:0006e010       ?putchar@stream@@UAE_NH@Z  0046f010 f i stream.obj
 0001:0006e030       ?putline@stream@@UAE_NPBD@Z 0046f030 f i stream.obj
 0001:0006e060       ??1stream@@UAE@XZ          0046f060 f i stream.obj
 0001:0006e070       ?tell@stream@@UAE_JXZ      0046f070 f i stream.obj
 0001:0006e080       ?seek@stream@@UAE_N_JH@Z   0046f080 f i stream.obj
 0001:0006e090       ?put@packetbuf@@QAEXABE@Z  0046f090 f i tools.obj
 0001:0006e0f0       ??0ziparchive@@QAE@XZ      0046f0f0 f i zip.obj
 0001:0006e160       ??1ziparchive@@QAE@XZ      0046f160 f i zip.obj
 0001:0006e200       ??1?$hashtable@PBDUzipfile@@@@QAE@XZ 0046f200 f i zip.obj
 0001:0006e260       ?readbuf@zipstream@@QAEXI@Z 0046f260 f i zip.obj
 0001:0006e300       ?open@zipstream@@QAE_NPAUziparchive@@PAUzipfile@@@Z 0046f300 f i zip.obj
 0001:0006e3c0       ?stopreading@zipstream@@QAEXXZ 0046f3c0 f i zip.obj
 0001:0006e430       ?close@zipstream@@UAEXXZ   0046f430 f i zip.obj
 0001:0006e470       ?size@zipstream@@UAE_JXZ   0046f470 f i zip.obj
 0001:0006e480       ?end@zipstream@@UAE_NXZ    0046f480 f i zip.obj
 0001:0006e4a0       ?tell@zipstream@@UAE_JXZ   0046f4a0 f i zip.obj
 0001:0006e4d0       ?seek@zipstream@@UAE_N_JH@Z 0046f4d0 f i zip.obj
 0001:0006e700       ?read@zipstream@@UAEHPAXH@Z 0046f700 f i zip.obj
 0001:0006e820       ??_Gzipstream@@UAEPAXI@Z   0046f820 f i zip.obj
 0001:0006e820       ??_Ezipstream@@UAEPAXI@Z   0046f820 f i * CIL library *:* CIL module *
 0001:0006e8c0       ?access@?$hashtable@PBDUzipfile@@@@QAEPAUzipfile@@ABQBD@Z 0046f8c0 f i zip.obj
 0001:0006e950       ??A?$hashtable@PBDUzipfile@@@@QAEAAUzipfile@@ABQBD@Z 0046f950 f i zip.obj
 0001:0006e9f0       ??1?$hashset@U?$hashtableentry@PBDUzipfile@@@@@@QAE@XZ 0046f9f0 f i zip.obj
 0001:0006ea20       ??1?$vector@Uzipfile@@@@QAE@XZ 0046fa20 f i zip.obj
 0001:0006ea40       ?add@?$vector@Uzipfile@@@@QAEAAUzipfile@@XZ 0046fa40 f i zip.obj
 0001:0006ead0       ?add@?$vector@PAUziparchive@@@@QAEAAPAUziparchive@@ABQAU2@@Z 0046fad0 f i zip.obj
 0001:0006eb20       ?removeobj@?$vector@PAUziparchive@@@@QAEXABQAUziparchive@@@Z 0046fb20 f i zip.obj
 0001:0006eb70       ??0?$hashset@U?$hashtableentry@PBDUzipfile@@@@@@QAE@H@Z 0046fb70 f i zip.obj
 0001:0006ebf0       ?deletechunks@?$hashset@U?$hashtableentry@PBDUzipfile@@@@@@QAEXXZ 0046fbf0 f i zip.obj
 0001:0006ec60       ?shrink@?$vector@Uzipfile@@@@QAEXH@Z 0046fc60 f i zip.obj
 0001:0006eca0       ?growbuf@?$vector@PAUziparchive@@@@QAEXH@Z 0046fca0 f i zip.obj
 0001:0006ed30       ?insert@?$hashset@U?$hashtableentry@PBDUzipfile@@@@@@QAEPAUchain@1@I@Z 0046fd30 f i zip.obj
 0001:0006edf0       ??0chain@?$hashset@U?$hashtableentry@PBDUzipfile@@@@@@QAE@XZ 0046fdf0 f i zip.obj
 0001:0006ee50       ?add@?$vector@Uinterest@ai@@@@QAEAAUinterest@ai@@XZ 0046fe50 f i ai.obj
 0001:0006eee0       ?removeunordered@?$vector@Uinterest@ai@@@@QAE?AUinterest@ai@@H@Z 0046fee0 f i ai.obj
 0001:0006ef40       ?abovehead@dynent@@QAE?AUvec@@XZ 0046ff40 f i ai.obj
 0001:0006ef80       ?remove@?$vector@Uaistate@ai@@@@QAE?AUaistate@ai@@H@Z 0046ff80 f i ai.obj
 0001:0006f000       ?add@avoidset@ai@@QAEXAAU12@@Z 00470000 f i ai.obj
 0001:0006f130       ?addprevnode@aiinfo@ai@@QAEXH@Z 00470130 f i ai.obj
 0001:0006f160       ?canpickup@fpsstate@@QAE_NH@Z 00470160 f i ai.obj
 0001:0006f220       ?hasammo@fpsstate@@QAEHHH@Z 00470220 f i ai.obj
 0001:0006f250       ?switchstate@aiinfo@ai@@QAEAAUaistate@2@AAU32@HHH@Z 00470250 f i ai.obj
 0001:0006f2b0       ?find@avoidset@ai@@QBE_NHPAUfpsent@@@Z 004702b0 f i ai.obj
 0001:0006f320       ??1aiinfo@ai@@QAE@XZ       00470320 f i ai.obj
 0001:0006f3a0       ?clearsetup@aiinfo@ai@@QAEXXZ 004703a0 f i ai.obj
 0001:0006f460       ?addstate@aiinfo@ai@@QAEAAUaistate@2@HHH@Z 00470460 f i ai.obj
 0001:0006f4f0       ?wipe@aiinfo@ai@@QAEX_N@Z  004704f0 f i ai.obj
 0001:0006f580       ?reset@aiinfo@ai@@QAEX_N@Z 00470580 f i ai.obj
 0001:0006f5e0       ??0aiinfo@ai@@QAE@XZ       004705e0 f i ai.obj
 0001:0006f6c0       ?pickup@fpsstate@@QAEXH@Z  004706c0 f i entities.obj
 0001:0006f7a0       ?removeobj@?$vector@PAUfpsent@@@@QAEXABQAUfpsent@@@Z 004707a0 f i fps.obj
 0001:0006f7f0       ?add@?$vector@Uteamscore@@@@QAEAAUteamscore@@ABU2@@Z 004707f0 f i fps.obj
 0001:0006f830       ?buttonf@g3d_gui@@QAAHPBDH0ZZ 00470830 f i fps.obj
 0001:0006f890       ??1fpsent@@QAE@XZ          00470890 f i fps.obj
 0001:0006f970       ??0dynent@@QAE@XZ          00470970 f i fps.obj
 0001:0006fbd0       ??1dynent@@QAE@XZ          00470bd0 f i fps.obj
 0001:0006fbf0       ??0fpsent@@QAE@XZ          00470bf0 f i fps.obj
 0001:0006fd90       ?spawnstate@fpsstate@@QAEXH@Z 00470d90 f i fps.obj
 0001:0006ff70       ?respawn@fpsent@@QAEXXZ    00470f70 f i fps.obj
 0001:00070110       ??0monster@game@@QAE@HHHHHH@Z 00471110 f i monster.obj
 0001:00070390       ?transition@monster@game@@QAEXHHHH@Z 00471390 f i monster.obj
 0001:00070400       ?monsteraction@monster@game@@QAEXH@Z 00471400 f i monster.obj
 0001:00070c90       ?monsterpain@monster@game@@QAEXHPAUfpsent@@@Z 00471c90 f i monster.obj
 0001:00070ed0       ?growbuf@?$vector@PAUmonster@game@@@@QAEXH@Z 00471ed0 f i monster.obj
 0001:00070f60       ??0movable@game@@QAE@ABUentity@@@Z 00471f60 f i movable.obj
 0001:000711a0       ?explode@movable@game@@QAEXPAUdynent@@@Z 004721a0 f i movable.obj
 0001:000711d0       ?deletecontents@?$vector@PAUmovable@game@@@@QAEXXZ 004721d0 f i movable.obj
 0001:00071250       ?growbuf@?$vector@PAUmovable@game@@@@QAEXH@Z 00472250 f i movable.obj
 0001:000712e0       ?deletecontents@?$vector@PAUfpsent@@@@QAEXXZ 004722e0 f i render.obj
 0001:00071320       ??$htfind@$$BY0BAE@D@?$vector@PBD@@QAEHAAY0BAE@$$CBD@Z 00472320 f i render.obj
 0001:00071390       ?show@scoreboardgui@game@@QAEX_N@Z 00472390 f i scoreboard.obj
 0001:00071480       ?gui@scoreboardgui@game@@UAEXAAUg3d_gui@@_N@Z 00472480 f i scoreboard.obj
 0001:000714b0       ?clear@?$hashset@Uteaminfo@@@@QAEXXZ 004724b0 f i scoreboard.obj
 0001:00071510       ?growbuf@?$vector@PAUscoregroup@game@@@@QAEXH@Z 00472510 f i scoreboard.obj
 0001:000715a0       ??$access@PBD@?$hashset@Uteaminfo@@@@QAEPAUteaminfo@@ABQBD@Z 004725a0 f i scoreboard.obj
 0001:00071630       ??$?APBD@?$hashset@Uteaminfo@@@@QAEAAUteaminfo@@ABQBD@Z 00472630 f i scoreboard.obj
 0001:000716c0       ??$access@$$BY0BAE@D@?$hashset@Uteaminfo@@@@QAEPAUteaminfo@@AAY0BAE@$$CBD@Z 004726c0 f i scoreboard.obj
 0001:00071750       ?insert@?$hashset@Uteaminfo@@@@QAEPAUchain@1@I@Z 00472750 f i scoreboard.obj
 0001:000717d0       ?textf@g3d_gui@@QAAHPBDH0ZZ 004727d0 f i scoreboard.obj
 0001:00071830       ?titlef@g3d_gui@@QAAHPBDH0ZZ 00472830 f i scoreboard.obj
 0001:00071890       ?compare@teamscore@@SA_NABU1@0@Z 00472890 f i scoreboard.obj
 0001:000718f0       ??0wpcache@ai@@QAE@XZ      004728f0 f i waypoint.obj
 0001:00071950       ?clear@wpcache@ai@@QAEXXZ  00472950 f i waypoint.obj
 0001:000719d0       ?build@wpcache@ai@@QAEXHH@Z 004729d0 f i waypoint.obj
 0001:00071bb0       ?build@wpcache@ai@@QAEXPAHHABUvec@@1H@Z 00472bb0 f i waypoint.obj
 0001:000722f0       ?add@?$vector@Uwaypoint@ai@@@@QAEAAUwaypoint@ai@@ABU23@@Z 004732f0 f i waypoint.obj
 0001:00072370       ?add@?$vector@PAUwaypoint@ai@@@@QAEAAPAUwaypoint@ai@@ABQAU23@@Z 00473370 f i waypoint.obj
 0001:000723c0       ?upheap@?$vector@PAUwaypoint@ai@@@@QAEHH@Z 004733c0 f i waypoint.obj
 0001:00072430       ?addheap@?$vector@PAUwaypoint@ai@@@@QAEAAPAUwaypoint@ai@@ABQAU23@@Z 00473430 f i waypoint.obj
 0001:00072490       ?growbuf@?$vector@Uwaypoint@ai@@@@QAEXH@Z 00473490 f i waypoint.obj
 0001:00072520       ?growbuf@?$vector@PAUwpcachenode@ai@@@@QAEXH@Z 00473520 f i waypoint.obj
 0001:000725b0       ?growbuf@?$vector@PAUwaypoint@ai@@@@QAEXH@Z 004735b0 f i waypoint.obj
 0001:00072640       ?downheap@?$vector@PAUwaypoint@ai@@@@QAEHH@Z 00473640 f i waypoint.obj
 0001:00072720       ??0waypoint@ai@@QAE@ABUvec@@H@Z 00473720 f i waypoint.obj
 0001:00072750       ?find@waypoint@ai@@QAEHH@Z 00473750 f i waypoint.obj
 0001:00072780       ?add@avoidset@ai@@QAEXPAXMH@Z 00473780 f i waypoint.obj
 0001:00072820       ??0bouncer@game@@QAE@XZ    00473820 f i weapon.obj
 0001:000728a0       ?add@?$vector@Uhitmsg@game@@@@QAEAAUhitmsg@game@@XZ 004738a0 f i weapon.obj
 0001:00072900       ?deletecontents@?$vector@PAUbouncer@game@@@@QAEXXZ 00473900 f i weapon.obj
 0001:00072940       ?remove@?$vector@PAUbouncer@game@@@@QAEPAUbouncer@game@@H@Z 00473940 f i weapon.obj
 0001:00072990       ?add@?$vector@Uprojectile@game@@@@QAEAAUprojectile@game@@XZ 00473990 f i weapon.obj
 0001:00072a30       ?remove@?$vector@Uprojectile@game@@@@QAE?AUprojectile@game@@H@Z 00473a30 f i weapon.obj
 0001:00072ab0       ?growbuf@?$vector@Uhitmsg@game@@@@QAEXH@Z 00473ab0 f i weapon.obj
 0001:00072b50       ?growbuf@?$vector@PAUbouncer@game@@@@QAEXH@Z 00473b50 f i weapon.obj
 0001:00072be0       ?growbuf@?$vector@Uprojectile@game@@@@QAEXH@Z 00473be0 f i weapon.obj
 0001:00072c60       ?hitpush@fpsent@@QAEXHABUvec@@PAU1@H@Z 00473c60 f i weapon.obj
 0001:00072d30       ??0baseinfo@captureclientmode@game@@QAE@XZ 00473d30 f i client1.obj
 0001:00072dd0       ?getteamscore@captureclientmode@game@@UAEHPBD@Z 00473dd0 f i client1.obj
 0001:00072dd0       ?getteamscore@captureservmode@server@@UAEHPBD@Z 00473dd0 f i server1.obj
 0001:00072e40       ?getteamscores@captureclientmode@game@@UAEXAAU?$vector@Uteamscore@@@@@Z 00473e40 f i client1.obj
 0001:00072e40       ?getteamscores@captureservmode@server@@UAEXAAU?$vector@Uteamscore@@@@@Z 00473e40 f i server1.obj
 0001:00072eb0       ?findscore@captureclientmode@game@@QAEAAUscore@12@PBD@Z 00473eb0 f i client1.obj
 0001:00072f70       ?initbase@captureclientmode@game@@QAEXHHPBD0HH@Z 00473f70 f i client1.obj
 0001:00072ff0       ?disttoenemy@captureclientmode@game@@QAEMAAUbaseinfo@12@@Z 00473ff0 f i client1.obj
 0001:000730e0       ??0captureclientmode@game@@QAE@XZ 004740e0 f i client1.obj
 0001:00073190       ?replenishammo@captureclientmode@game@@QAEXXZ 00474190 f i client1.obj
 0001:000732d0       ?receiveammo@captureclientmode@game@@QAEXPAUfpsent@@H@Z 004742d0 f i client1.obj
 0001:000733a0       ?checkitems@captureclientmode@game@@UAEXPAUfpsent@@@Z 004743a0 f i client1.obj
 0001:000735e0       ?rendertether@captureclientmode@game@@QAEXPAUfpsent@@@Z 004745e0 f i client1.obj
 0001:00073af0       ?preload@captureclientmode@game@@UAEXXZ 00474af0 f i client1.obj
 0001:00073c30       ?rendergame@captureclientmode@game@@UAEXXZ 00474c30 f i client1.obj
 0001:00074470       ?drawblips@captureclientmode@game@@QAEXPAUfpsent@@MHHH_N@Z 00475470 f i client1.obj
 0001:000749c0       ?respawnwait@captureclientmode@game@@UAEHPAUfpsent@@@Z 004759c0 f i client1.obj
 0001:00074a20       ?clipconsole@ctfclientmode@game@@UAEHHH@Z 00475a20 f i client1.obj
 0001:00074a20       ?clipconsole@collectclientmode@game@@UAEHHH@Z 00475a20 f i client1.obj
 0001:00074a20       ?clipconsole@captureclientmode@game@@UAEHHH@Z 00475a20 f i client1.obj
 0001:00074a40       ?drawhud@captureclientmode@game@@UAEXPAUfpsent@@HH@Z 00475a40 f i client1.obj
 0001:00074f00       ?setup@captureclientmode@game@@UAEXXZ 00475f00 f i client1.obj
 0001:000751b0       ?senditems@captureclientmode@game@@UAEXAAUpacketbuf@@@Z 004761b0 f i client1.obj
 0001:00075260       ?updatebase@captureclientmode@game@@QAEXHPBD0HH@Z 00476260 f i client1.obj
 0001:00075a40       ?setscore@captureclientmode@game@@QAEXHPBDH@Z 00476a40 f i client1.obj
 0001:00075bc0       ?closesttoenemy@captureclientmode@game@@QAEHPBD_N1@Z 00476bc0 f i client1.obj
 0001:00075cd0       ?pickteamspawn@captureclientmode@game@@QAEHPBD@Z 00476cd0 f i client1.obj
 0001:00075e50       ?pickspawn@captureclientmode@game@@UAEXPAUfpsent@@@Z 00476e50 f i client1.obj
 0001:00075e80       ?aidefend@clientmode@game@@UAE_NPAUfpsent@@AAUaistate@ai@@@Z 00476e80 f i client1.obj
 0001:00075e80       ?aipursue@clientmode@game@@UAE_NPAUfpsent@@AAUaistate@ai@@@Z 00476e80 f i client1.obj
 0001:00075e80       ?extinfoteam@servmode@server@@UAE_NPBDAAU?$databuf@E@@@Z 00476e80 f i server1.obj
 0001:00075e80       ?aicheck@clientmode@game@@UAE_NPAUfpsent@@AAUaistate@ai@@@Z 00476e80 f i client1.obj
 0001:00075e80       ?aicheck@captureclientmode@game@@UAE_NPAUfpsent@@AAUaistate@ai@@@Z 00476e80 f i client1.obj
 0001:00075e90       ?aifind@captureclientmode@game@@UAEXPAUfpsent@@AAUaistate@ai@@AAU?$vector@Uinterest@ai@@@@@Z 00476e90 f i client1.obj
 0001:000763b0       ?aidefend@captureclientmode@game@@UAE_NPAUfpsent@@AAUaistate@ai@@@Z 004773b0 f i client1.obj
 0001:00076760       ?aipursue@captureclientmode@game@@UAE_NPAUfpsent@@AAUaistate@ai@@@Z 00477760 f i client1.obj
 0001:00076780       ??_Gctfclientmode@game@@UAEPAXI@Z 00477780 f i client1.obj
 0001:00076780       ??_Gcaptureclientmode@game@@UAEPAXI@Z 00477780 f i client1.obj
 0001:00076780       ??_Ectfclientmode@game@@UAEPAXI@Z 00477780 f i * CIL library *:* CIL module *
 0001:00076780       ??_Ecaptureclientmode@game@@UAEPAXI@Z 00477780 f i * CIL library *:* CIL module *
 0001:000767b0       ??1ctfclientmode@game@@UAE@XZ 004777b0 f i client1.obj
 0001:000767b0       ??1captureclientmode@game@@UAE@XZ 004777b0 f i client1.obj
 0001:00076840       ?reset@flag@ctfclientmode@game@@QAEXXZ 00477840 f i client1.obj
 0001:00076930       ?pos@flag@ctfclientmode@game@@QAEABUvec@@XZ 00477930 f i client1.obj
 0001:00076950       ?addflag@ctfclientmode@game@@QAE_NHABUvec@@HH@Z 00477950 f i client1.obj
 0001:000769c0       ?ownflag@ctfclientmode@game@@QAEXHPAUfpsent@@H@Z 004779c0 f i client1.obj
 0001:00076a30       ?dropflag@ctfclientmode@game@@QAEXHABUvec@@MH@Z 00477a30 f i client1.obj
 0001:00076aa0       ?returnflag@ctfclientmode@game@@QAEXHH@Z 00477aa0 f i client1.obj
 0001:00076b10       ?getteamscore@ctfservmode@server@@UAEHPBD@Z 00477b10 f i server1.obj
 0001:00076b10       ?getteamscore@ctfclientmode@game@@UAEHPBD@Z 00477b10 f i client1.obj
 0001:00076bb0       ?getteamscores@ctfservmode@server@@UAEXAAU?$vector@Uteamscore@@@@@Z 00477bb0 f i server1.obj
 0001:00076bb0       ?getteamscores@ctfclientmode@game@@UAEXAAU?$vector@Uteamscore@@@@@Z 00477bb0 f i client1.obj
 0001:00076c20       ?preload@ctfclientmode@game@@UAEXXZ 00477c20 f i client1.obj
 0001:00076cc0       ?drawblip@ctfclientmode@game@@QAEXPAUfpsent@@MMMABUvec@@_N@Z 00477cc0 f i client1.obj
 0001:00076eb0       ?drawblip@ctfclientmode@game@@QAEXPAUfpsent@@MMMH_N@Z 00477eb0 f i client1.obj
 0001:000770d0       ?drawhud@ctfclientmode@game@@UAEXPAUfpsent@@HH@Z 004780d0 f i client1.obj
 0001:00077b80       ?removeplayer@ctfclientmode@game@@UAEXPAUfpsent@@@Z 00478b80 f i client1.obj
 0001:00077c50       ?interpflagpos@ctfclientmode@game@@QAE?AUvec@@AAUflag@12@AAM@Z 00478c50 f i client1.obj
 0001:00077e30       ?rendergame@ctfclientmode@game@@UAEXXZ 00478e30 f i client1.obj
 0001:00078690       ?setup@ctfclientmode@game@@UAEXXZ 00479690 f i client1.obj
 0001:00078970       ?senditems@ctfclientmode@game@@UAEXAAUpacketbuf@@@Z 00479970 f i client1.obj
 0001:00078ab0       ?parseflags@ctfclientmode@game@@QAEXAAU?$databuf@E@@_N@Z 00479ab0 f i client1.obj
 0001:00078d10       ?trydropflag@ctfclientmode@game@@QAEXXZ 00479d10 f i client1.obj
 0001:00078d70       ?teamcolorflag@ctfclientmode@game@@QAEPBDAAUflag@12@@Z 00479d70 f i client1.obj
 0001:00078df0       ?dropflag@ctfclientmode@game@@QAEXPAUfpsent@@HHABUvec@@@Z 00479df0 f i client1.obj
 0001:00079200       ?flagexplosion@ctfclientmode@game@@QAEXHHABUvec@@@Z 0047a200 f i client1.obj
 0001:000793d0       ?flageffect@ctfclientmode@game@@QAEXHHABUvec@@0@Z 0047a3d0 f i client1.obj
 0001:00079590       ?returnflag@ctfclientmode@game@@QAEXPAUfpsent@@HH@Z 0047a590 f i client1.obj
 0001:00079980       ?spawnflag@ctfclientmode@game@@QAEXAAUflag@12@@Z 0047a980 f i client1.obj
 0001:000799e0       ?resetflag@ctfclientmode@game@@QAEXHHHHH@Z 0047a9e0 f i client1.obj
 0001:00079da0       ?scoreflag@ctfclientmode@game@@QAEXPAUfpsent@@HHHHHHHH@Z 0047ada0 f i client1.obj
 0001:0007a550       ?takeflag@ctfclientmode@game@@QAEXPAUfpsent@@HH@Z 0047b550 f i client1.obj
 0001:0007a950       ?invisflag@ctfclientmode@game@@QAEXHH@Z 0047b950 f i client1.obj
 0001:0007a990       ?checkitems@ctfclientmode@game@@UAEXPAUfpsent@@@Z 0047b990 f i client1.obj
 0001:0007aba0       ?respawned@ctfclientmode@game@@UAEXPAUfpsent@@@Z 0047bba0 f i client1.obj
 0001:0007ad30       ?respawnwait@ctfclientmode@game@@UAEHPAUfpsent@@@Z 0047bd30 f i client1.obj
 0001:0007ada0       ?pickholdspawn@ctfclientmode@game@@QAE_NPAUfpsent@@@Z 0047bda0 f i client1.obj
 0001:0007b0b0       ?pickspawn@ctfclientmode@game@@UAEXPAUfpsent@@@Z 0047c0b0 f i client1.obj
 0001:0007b1c0       ?aihomerun@ctfclientmode@game@@QAE_NPAUfpsent@@AAUaistate@ai@@@Z 0047c1c0 f i client1.obj
 0001:0007b890       ?aicheck@ctfclientmode@game@@UAE_NPAUfpsent@@AAUaistate@ai@@@Z 0047c890 f i client1.obj
 0001:0007bba0       ?aifind@ctfclientmode@game@@UAEXPAUfpsent@@AAUaistate@ai@@AAU?$vector@Uinterest@ai@@@@@Z 0047cba0 f i client1.obj
 0001:0007c6b0       ?aidefend@ctfclientmode@game@@UAE_NPAUfpsent@@AAUaistate@ai@@@Z 0047d6b0 f i client1.obj
 0001:0007cee0       ?aipursue@ctfclientmode@game@@UAE_NPAUfpsent@@AAUaistate@ai@@@Z 0047dee0 f i client1.obj
 0001:0007d170       ??0base@collectclientmode@game@@QAE@XZ 0047e170 f i client1.obj
 0001:0007d200       ??0token@collectclientmode@game@@QAE@XZ 0047e200 f i client1.obj
 0001:0007d270       ?addbase@collectclientmode@game@@QAE_NHABUvec@@H@Z 0047e270 f i client1.obj
 0001:0007d360       ?droptoken@collectclientmode@game@@QAEAAUtoken@12@HABUvec@@HH@Z 0047e360 f i client1.obj
 0001:0007d410       ?removetoken@collectclientmode@game@@QAE_NH@Z 0047e410 f i client1.obj
 0001:0007d470       ?getteamscore@collectclientmode@game@@UAEHPBD@Z 0047e470 f i client1.obj
 0001:0007d470       ?getteamscore@collectservmode@server@@UAEHPBD@Z 0047e470 f i server1.obj
 0001:0007d510       ?getteamscores@collectclientmode@game@@UAEXAAU?$vector@Uteamscore@@@@@Z 0047e510 f i client1.obj
 0001:0007d510       ?getteamscores@collectservmode@server@@UAEXAAU?$vector@Uteamscore@@@@@Z 0047e510 f i server1.obj
 0001:0007d580       ?preload@collectclientmode@game@@UAEXXZ 0047e580 f i client1.obj
 0001:0007d600       ?drawblip@collectclientmode@game@@QAEXPAUfpsent@@MMMABUvec@@M@Z 0047e600 f i client1.obj
 0001:0007d7c0       ?drawbaseblip@collectclientmode@game@@QAEXPAUfpsent@@MMMH@Z 0047e7c0 f i client1.obj
 0001:0007d8c0       ?drawhud@collectclientmode@game@@UAEXPAUfpsent@@HH@Z 0047e8c0 f i client1.obj
 0001:0007dde0       ?rendergame@collectclientmode@game@@UAEXXZ 0047ede0 f i client1.obj
 0001:0007e480       ?setup@collectclientmode@game@@UAEXXZ 0047f480 f i client1.obj
 0001:0007e620       ?senditems@collectclientmode@game@@UAEXAAUpacketbuf@@@Z 0047f620 f i client1.obj
 0001:0007e6b0       ?movetoken@collectclientmode@game@@QAE?AUvec@@ABU3@H@Z 0047f6b0 f i client1.obj
 0001:0007e8b0       ?parsetokens@collectclientmode@game@@QAEXAAU?$databuf@E@@_N@Z 0047f8b0 f i client1.obj
 0001:0007eae0       ?baseexplosion@collectclientmode@game@@QAEXHHABUvec@@@Z 0047fae0 f i client1.obj
 0001:0007eca0       ?baseeffect@collectclientmode@game@@QAEXHHABUvec@@0_N1@Z 0047fca0 f i client1.obj
 0001:0007edd0       ?expiretoken@collectclientmode@game@@QAEXH@Z 0047fdd0 f i client1.obj
 0001:0007ee30       ?taketoken@collectclientmode@game@@QAEXPAUfpsent@@HH@Z 0047fe30 f i client1.obj
 0001:0007ef50       ?droptoken@collectclientmode@game@@QAEPAUtoken@12@PAUfpsent@@HABUvec@@HHH@Z 0047ff50 f i client1.obj
 0001:0007f2a0       ?stealtoken@collectclientmode@game@@QAEXPAUfpsent@@HABUvec@@HHHHHH@Z 004802a0 f i client1.obj
 0001:0007f4a0       ?deposittokens@collectclientmode@game@@QAEXPAUfpsent@@HHHHH@Z 004804a0 f i client1.obj
 0001:0007f940       ?checkitems@collectclientmode@game@@UAEXPAUfpsent@@@Z 00480940 f i client1.obj
 0001:0007fd50       ?respawnwait@collectclientmode@game@@UAEHPAUfpsent@@@Z 00480d50 f i client1.obj
 0001:0007fd90       ?pickspawn@collectclientmode@game@@UAEXPAUfpsent@@@Z 00480d90 f i client1.obj
 0001:0007fe50       ?aicheck@collectclientmode@game@@UAE_NPAUfpsent@@AAUaistate@ai@@@Z 00480e50 f i client1.obj
 0001:00080250       ?aifind@collectclientmode@game@@UAEXPAUfpsent@@AAUaistate@ai@@AAU?$vector@Uinterest@ai@@@@@Z 00481250 f i client1.obj
 0001:000805e0       ?aipursue@collectclientmode@game@@UAE_NPAUfpsent@@AAUaistate@ai@@@Z 004815e0 f i client1.obj
 0001:000807d0       ??0ctfclientmode@game@@QAE@XZ 004817d0 f i client1.obj
 0001:00080870       ??0collectclientmode@game@@QAE@XZ 00481870 f i client1.obj
 0001:00080910       ??1collectclientmode@game@@UAE@XZ 00481910 f i client1.obj
 0001:000809a0       ??_Ecollectclientmode@game@@UAEPAXI@Z 004819a0 f i * CIL library *:* CIL module *
 0001:000809a0       ??_Gcollectclientmode@game@@UAEPAXI@Z 004819a0 f i client1.obj
 0001:000809d0       ??0authkey@game@@QAE@PBD00@Z 004819d0 f i client1.obj
 0001:00080ab0       ?add@?$vector@Uholdspawn@ctfclientmode@game@@@@QAEAAUholdspawn@ctfclientmode@game@@XZ 00481ab0 f i client1.obj
 0001:00080b50       ?add@?$vector@Uflag@ctfclientmode@game@@@@QAEAAUflag@ctfclientmode@game@@XZ 00481b50 f i client1.obj
 0001:00080bf0       ?growbuf@?$vector@Ubaseinfo@captureclientmode@game@@@@QAEXH@Z 00481bf0 f i client1.obj
 0001:00080c70       ?growbuf@?$vector@Uflag@ctfclientmode@game@@@@QAEXH@Z 00481c70 f i client1.obj
 0001:00080cf0       ?growbuf@?$vector@Ubase@collectclientmode@game@@@@QAEXH@Z 00481cf0 f i client1.obj
 0001:00080d70       ?growbuf@?$vector@PAUauthkey@game@@@@QAEXH@Z 00481d70 f i client1.obj
 0001:00080e00       ?validate@selinfo@@QAE_NXZ 00481e00 f i client1.obj
 0001:00080f10       ??_Gclientmode@game@@UAEPAXI@Z 00481f10 f i client1.obj
 0001:00080f10       ??_Eclientmode@game@@UAEPAXI@Z 00481f10 f i * CIL library *:* CIL module *
 0001:00080f30       ?pickspawn@clientmode@game@@UAEXPAUfpsent@@@Z 00481f30 f i client1.obj
 0001:00080f50       ??1clientmode@game@@UAE@XZ 00481f50 f i client1.obj
 0001:00080f60       ??1gameevent@server@@UAE@XZ 00481f60 f i server1.obj
 0001:00080f70       ??_Ggameevent@server@@UAEPAXI@Z 00481f70 f i server1.obj
 0001:00080f70       ??_Egameevent@server@@UAEPAXI@Z 00481f70 f i * CIL library *:* CIL module *
 0001:00080f90       ?reset@gamestate@server@@QAEXXZ 00481f90 f i server1.obj
 0001:00081030       ?respawn@gamestate@server@@QAEXXZ 00482030 f i server1.obj
 0001:000810d0       ?save@savedscore@server@@QAEXAAUgamestate@2@@Z 004820d0 f i server1.obj
 0001:00081140       ?restore@savedscore@server@@QAEXAAUgamestate@2@@Z 00482140 f i server1.obj
 0001:000811c0       ??0clientinfo@server@@QAE@XZ 004821c0 f i server1.obj
 0001:00081310       ??1clientinfo@server@@QAE@XZ 00482310 f i server1.obj
 0001:00081490       ?addevent@clientinfo@server@@QAEXPAUgameevent@2@@Z 00482490 f i server1.obj
 0001:000814f0       ?calcpushrange@clientinfo@server@@QAEHXZ 004824f0 f i server1.obj
 0001:00081530       ?setexceeded@clientinfo@server@@QAEXXZ 00482530 f i server1.obj
 0001:000815a0       ?setpushed@clientinfo@server@@QAEXXZ 004825a0 f i server1.obj
 0001:00081620       ?mapchange@clientinfo@server@@QAEXXZ 00482620 f i server1.obj
 0001:000816c0       ?reassign@clientinfo@server@@QAEXXZ 004826c0 f i server1.obj
 0001:00081730       ?cleanauth@clientinfo@server@@QAEX_N@Z 00482730 f i server1.obj
 0001:00081790       ?reset@clientinfo@server@@QAEXXZ 00482790 f i server1.obj
 0001:00081880       ?geteventmillis@clientinfo@server@@QAEHHH@Z 00482880 f i server1.obj
 0001:000818e0       ?findmode@maprotation@server@@QBEHH@Z 004828e0 f i server1.obj
 0001:00081950       ?match@maprotation@server@@QBE_NHPBD@Z 00482950 f i server1.obj
 0001:000819d0       ??1servmode@server@@UAE@XZ 004829d0 f i server1.obj
 0001:000819e0       ?canspawn@servmode@server@@UAE_NPAUclientinfo@2@_N@Z 004829e0 f i server1.obj
 0001:000819f0       ?fragvalue@servmode@server@@UAEHPAUclientinfo@2@0@Z 004829f0 f i server1.obj
 0001:00081a60       ?canchangeteam@servmode@server@@UAE_NPAUclientinfo@2@PBD1@Z 00482a60 f i server1.obj
 0001:00081a70       ??_Eservmode@server@@UAEPAXI@Z 00482a70 f i * CIL library *:* CIL module *
 0001:00081a70       ??_Gservmode@server@@UAEPAXI@Z 00482a70 f i server1.obj
 0001:00081a90       ??0baseinfo@captureservmode@server@@QAE@XZ 00482a90 f i server1.obj
 0001:00081af0       ?valid@baseinfo@captureservmode@server@@QBE_NXZ 00482af0 f i server1.obj
 0001:00081b10       ?enter@baseinfo@captureservmode@server@@QAE_NPBD@Z 00482b10 f i server1.obj
 0001:00081c10       ?steal@baseinfo@captureservmode@server@@QAE_NPBD@Z 00482c10 f i server1.obj
 0001:00081c60       ?leave@baseinfo@captureservmode@server@@QAE_NPBD@Z 00482c60 f i server1.obj
 0001:00081d00       ?occupy@baseinfo@captureservmode@server@@QAEHPBDH@Z 00482d00 f i server1.obj
 0001:00081e20       ?findscore@captureservmode@server@@QAEAAUscore@12@PBD@Z 00482e20 f i server1.obj
 0001:00081ed0       ?addbase@captureservmode@server@@QAEXHABUvec@@@Z 00482ed0 f i server1.obj
 0001:000820e0       ??0captureservmode@server@@QAE@XZ 004830e0 f i server1.obj
 0001:00082190       ?cleanup@captureservmode@server@@UAEXXZ 00483190 f i server1.obj
 0001:000821c0       ?setup@captureservmode@server@@UAEXXZ 004831c0 f i server1.obj
 0001:00082280       ?newmap@captureservmode@server@@UAEXXZ 00483280 f i server1.obj
 0001:000822b0       ?stealbase@captureservmode@server@@QAEXHPBD@Z 004832b0 f i server1.obj
 0001:00082400       ?replenishammo@captureservmode@server@@QAEXPAUclientinfo@2@@Z 00483400 f i server1.obj
 0001:000825a0       ?movebases@captureservmode@server@@QAEXPBDABUvec@@_N12@Z 004835a0 f i server1.obj
 0001:00082710       ?addscore@captureservmode@server@@QAEXHPBDH@Z 00483710 f i server1.obj
 0001:00082750       ?regenowners@captureservmode@server@@QAEXAAUbaseinfo@12@H@Z 00483750 f i server1.obj
 0001:00082980       ?update@captureservmode@server@@UAEXXZ 00483980 f i server1.obj
 0001:00082b70       ?sendbaseinfo@captureservmode@server@@QAEXH@Z 00483b70 f i server1.obj
 0001:00082bd0       ?sendbases@captureservmode@server@@QAEXXZ 00483bd0 f i server1.obj
 0001:00082ce0       ?initclient@captureservmode@server@@UAEXPAUclientinfo@2@AAUpacketbuf@@_N@Z 00483ce0 f i server1.obj
 0001:00082e40       ?endcheck@captureservmode@server@@QAEXXZ 00483e40 f i server1.obj
 0001:00082f20       ?entergame@captureservmode@server@@UAEXPAUclientinfo@2@@Z 00483f20 f i server1.obj
 0001:00082f80       ?spawned@captureservmode@server@@UAEXPAUclientinfo@2@@Z 00483f80 f i server1.obj
 0001:00082fd0       ?leavegame@captureservmode@server@@UAEXPAUclientinfo@2@_N@Z 00483fd0 f i server1.obj
 0001:00083030       ?died@captureservmode@server@@UAEXPAUclientinfo@2@0@Z 00484030 f i server1.obj
 0001:00083080       ?canspawn@captureservmode@server@@UAE_NPAUclientinfo@2@_N@Z 00484080 f i server1.obj
 0001:000830e0       ?moved@captureservmode@server@@UAEXPAUclientinfo@2@ABUvec@@_N12@Z 004840e0 f i server1.obj
 0001:00083100       ?changeteam@captureservmode@server@@UAEXPAUclientinfo@2@PBD1@Z 00484100 f i server1.obj
 0001:00083180       ?parsebases@captureservmode@server@@QAEXAAU?$databuf@E@@_N@Z 00484180 f i server1.obj
 0001:000832a0       ?extinfoteam@captureservmode@server@@UAE_NPBDAAU?$databuf@E@@@Z 004842a0 f i server1.obj
 0001:00083370       ??_Ecaptureservmode@server@@UAEPAXI@Z 00484370 f i * CIL library *:* CIL module *
 0001:00083370       ??_Ectfservmode@server@@UAEPAXI@Z 00484370 f i * CIL library *:* CIL module *
 0001:00083370       ??_Gctfservmode@server@@UAEPAXI@Z 00484370 f i server1.obj
 0001:00083370       ??_Gcaptureservmode@server@@UAEPAXI@Z 00484370 f i server1.obj
 0001:000833a0       ??1ctfservmode@server@@UAE@XZ 004843a0 f i server1.obj
 0001:000833a0       ??1captureservmode@server@@UAE@XZ 004843a0 f i server1.obj
 0001:00083430       ?reset@flag@ctfservmode@server@@QAEXXZ 00484430 f i server1.obj
 0001:000834b0       ?addflag@ctfservmode@server@@QAE_NHABUvec@@HH@Z 004844b0 f i server1.obj
 0001:00083580       ?addholdspawn@ctfservmode@server@@QAE_NABUvec@@@Z 00484580 f i server1.obj
 0001:00083610       ?ownflag@ctfservmode@server@@QAEXHHH@Z 00484610 f i server1.obj
 0001:00083660       ?dropflag@ctfservmode@server@@QAEXHABUvec@@HH_N@Z 00484660 f i server1.obj
 0001:000836d0       ?returnflag@ctfservmode@server@@QAEXHH@Z 004846d0 f i server1.obj
 0001:00083700       ??0ctfservmode@server@@QAE@XZ 00484700 f i server1.obj
 0001:000837b0       ?cleanup@ctfservmode@server@@UAEXXZ 004847b0 f i server1.obj
 0001:000837f0       ?setupholdspawns@ctfservmode@server@@QAEXXZ 004847f0 f i server1.obj
 0001:000838a0       ?setup@ctfservmode@server@@UAEXXZ 004848a0 f i server1.obj
 0001:000839f0       ?newmap@ctfservmode@server@@UAEXXZ 004849f0 f i server1.obj
 0001:00083a30       ?dropflag@ctfservmode@server@@QAEXPAUclientinfo@2@0@Z 00484a30 f i server1.obj
 0001:00083c50       ?leavegame@ctfservmode@server@@UAEXPAUclientinfo@2@_N@Z 00484c50 f i server1.obj
 0001:00083ca0       ?died@ctfservmode@server@@UAEXPAUclientinfo@2@0@Z 00484ca0 f i server1.obj
 0001:00083d50       ?canspawn@ctfservmode@server@@UAE_NPAUclientinfo@2@_N@Z 00484d50 f i server1.obj
 0001:00083db0       ?canchangeteam@ctfservmode@server@@UAE_NPAUclientinfo@2@PBD1@Z 00484db0 f i server1.obj
 0001:00083db0       ?canchangeteam@collectservmode@server@@UAE_NPAUclientinfo@2@PBD1@Z 00484db0 f i server1.obj
 0001:00083e40       ?changeteam@ctfservmode@server@@UAEXPAUclientinfo@2@PBD1@Z 00484e40 f i server1.obj
 0001:00083e50       ?spawnflag@ctfservmode@server@@QAEXH@Z 00484e50 f i server1.obj
 0001:00083f50       ?scoreflag@ctfservmode@server@@QAEXPAUclientinfo@2@HH@Z 00484f50 f i server1.obj
 0001:00084110       ?takeflag@ctfservmode@server@@QAEXPAUclientinfo@2@HH@Z 00485110 f i server1.obj
 0001:000843a0       ?update@ctfservmode@server@@UAEXXZ 004853a0 f i server1.obj
 0001:000845f0       ?initclient@ctfservmode@server@@UAEXPAUclientinfo@2@AAUpacketbuf@@_N@Z 004855f0 f i server1.obj
 0001:000846f0       ?parseflags@ctfservmode@server@@QAEXAAU?$databuf@E@@_N@Z 004856f0 f i server1.obj
 0001:00084840       ?addbase@collectservmode@server@@QAE_NHABUvec@@H@Z 00485840 f i server1.obj
 0001:000848e0       ?droptoken@collectservmode@server@@QAEAAUtoken@12@ABUvec@@HHHH@Z 004858e0 f i server1.obj
 0001:00084940       ??0collectservmode@server@@QAE@XZ 00485940 f i server1.obj
 0001:000849f0       ?cleanup@collectservmode@server@@UAEXXZ 004859f0 f i server1.obj
 0001:00084a40       ?setup@collectservmode@server@@UAEXXZ 00485a40 f i server1.obj
 0001:00084b00       ?newmap@collectservmode@server@@UAEXXZ 00485b00 f i server1.obj
 0001:00084b50       ?droptokens@collectservmode@server@@QAEXPAUclientinfo@2@_N@Z 00485b50 f i server1.obj
 0001:00084f10       ?leavegame@collectservmode@server@@UAEXPAUclientinfo@2@_N@Z 00485f10 f i server1.obj
 0001:00085210       ?died@collectservmode@server@@UAEXPAUclientinfo@2@0@Z 00486210 f i server1.obj
 0001:000852a0       ?canspawn@collectservmode@server@@UAE_NPAUclientinfo@2@_N@Z 004862a0 f i server1.obj
 0001:000852e0       ?deposittokens@collectservmode@server@@QAEXPAUclientinfo@2@H@Z 004862e0 f i server1.obj
 0001:000855b0       ?taketoken@collectservmode@server@@QAEXPAUclientinfo@2@H@Z 004865b0 f i server1.obj
 0001:00085710       ?update@collectservmode@server@@UAEXXZ 00486710 f i server1.obj
 0001:00085830       ?initclient@collectservmode@server@@UAEXPAUclientinfo@2@AAUpacketbuf@@_N@Z 00486830 f i server1.obj
 0001:00085960       ?parsebases@collectservmode@server@@QAEXAAU?$databuf@E@@_N@Z 00486960 f i server1.obj
 0001:00085a10       ??_Gcollectservmode@server@@UAEPAXI@Z 00486a10 f i server1.obj
 0001:00085a10       ??_Ecollectservmode@server@@UAEPAXI@Z 00486a10 f i * CIL library *:* CIL module *
 0001:00085a40       ??1collectservmode@server@@UAE@XZ 00486a40 f i server1.obj
 0001:00085ad0       ??1userinfo@server@@QAE@XZ 00486ad0 f i server1.obj
 0001:00085b10       ?compare@crcinfo@server@@SA_NABU12@0@Z 00486b10 f i server1.obj
 0001:00085b30       ??0shotevent@server@@QAE@XZ 00486b30 f i server1.obj
 0001:00085ba0       ??0explodeevent@server@@QAE@XZ 00486ba0 f i server1.obj
 0001:00085c10       ??_Esuicideevent@server@@UAEPAXI@Z 00486c10 f i * CIL library *:* CIL module *
 0001:00085c10       ??_Epickupevent@server@@UAEPAXI@Z 00486c10 f i * CIL library *:* CIL module *
 0001:00085c10       ??_Gsuicideevent@server@@UAEPAXI@Z 00486c10 f i server1.obj
 0001:00085c10       ??_Gpickupevent@server@@UAEPAXI@Z 00486c10 f i server1.obj
 0001:00085c10       ??_Etimedevent@server@@UAEPAXI@Z 00486c10 f i * CIL library *:* CIL module *
 0001:00085c10       ??_Gtimedevent@server@@UAEPAXI@Z 00486c10 f i server1.obj
 0001:00085c60       ??_Gshotevent@server@@UAEPAXI@Z 00486c60 f i server1.obj
 0001:00085c60       ??_Eshotevent@server@@UAEPAXI@Z 00486c60 f i * CIL library *:* CIL module *
 0001:00085ce0       ??1timedevent@server@@UAE@XZ 00486ce0 f i server1.obj
 0001:00085d20       ??_Eexplodeevent@server@@UAEPAXI@Z 00486d20 f i * CIL library *:* CIL module *
 0001:00085d20       ??_Gexplodeevent@server@@UAEPAXI@Z 00486d20 f i server1.obj
 0001:00085da0       ?add@?$vector@Uhitinfo@server@@@@QAEAAUhitinfo@server@@XZ 00486da0 f i server1.obj
 0001:00085e00       ?add@?$projectilestate@$07@server@@QAEXH@Z 00486e00 f i server1.obj
 0001:00085e20       ?removeobj@?$vector@I@@QAEXABI@Z 00486e20 f i server1.obj
 0001:00085e70       ?add@?$vector@Uban@server@@@@QAEAAUban@server@@ABU23@@Z 00486e70 f i server1.obj
 0001:00085ed0       ?remove@?$vector@Uban@server@@@@QAE?AUban@server@@H@Z 00486ed0 f i server1.obj
 0001:00085f40       ?insert@?$vector@Uban@server@@@@QAEAAUban@server@@HABU23@@Z 00486f40 f i server1.obj
 0001:00085fd0       ?remove@?$vector@Udemofile@server@@@@QAEXHH@Z 00486fd0 f i server1.obj
 0001:00086040       ?remove@?$vector@Udemofile@server@@@@QAE?AUdemofile@server@@H@Z 00487040 f i server1.obj
 0001:000860d0       ?add@?$vector@Uteamkillinfo@server@@@@QAEAAUteamkillinfo@server@@XZ 004870d0 f i server1.obj
 0001:00086100       ?add@?$vector@Userver_entity@server@@@@QAEAAUserver_entity@server@@ABU23@@Z 00487100 f i server1.obj
 0001:00086160       ?inrange@?$vector@Userver_entity@server@@@@QBE_NH@Z 00487160 f i server1.obj
 0001:00086180       ?add@?$vector@Ubase@collectservmode@server@@@@QAEAAUbase@collectservmode@server@@XZ 00487180 f i server1.obj
 0001:00086230       ?add@?$vector@Utoken@collectservmode@server@@@@QAEAAUtoken@collectservmode@server@@XZ 00487230 f i server1.obj
 0001:000862e0       ?removeunordered@?$vector@Utoken@collectservmode@server@@@@QAE?AUtoken@collectservmode@server@@H@Z 004872e0 f i server1.obj
 0001:00086360       ??0?$hashset@Uuserinfo@server@@@@QAE@H@Z 00487360 f i server1.obj
 0001:000863f0       ?clear@?$hashset@Uuserinfo@server@@@@QAEXXZ 004873f0 f i server1.obj
 0001:000864a0       ?growbuf@?$vector@Uban@server@@@@QAEXH@Z 004874a0 f i server1.obj
 0001:00086530       ?growbuf@?$vector@Umaprotation@server@@@@QAEXH@Z 00487530 f i server1.obj
 0001:000865c0       ?growbuf@?$vector@Udemofile@server@@@@QAEXH@Z 004875c0 f i server1.obj
 0001:00086650       ?growbuf@?$vector@Uteamkillkick@server@@@@QAEXH@Z 00487650 f i server1.obj
 0001:000866e0       ?growbuf@?$vector@Uteamkillinfo@server@@@@QAEXH@Z 004876e0 f i server1.obj
 0001:00086770       ?growbuf@?$vector@Userver_entity@server@@@@QAEXH@Z 00487770 f i server1.obj
 0001:00086800       ?growbuf@?$vector@Usavedscore@server@@@@QAEXH@Z 00487800 f i server1.obj
 0001:00086890       ?growbuf@?$vector@Ubaseinfo@captureservmode@server@@@@QAEXH@Z 00487890 f i server1.obj
 0001:00086910       ?deletechunks@?$hashset@Uuserinfo@server@@@@QAEXXZ 00487910 f i server1.obj
 0001:00086980       ?growbuf@?$vector@Uworldstate@server@@@@QAEXH@Z 00487980 f i server1.obj
 0001:00086a10       ?growbuf@?$vector@Ugbaninfo@server@@@@QAEXH@Z 00487a10 f i server1.obj
 0001:00086aa0       ??1chain@?$hashset@Uuserinfo@server@@@@QAE@XZ 00487aa0 f i server1.obj
 0001:00086b10       ??$remove@$$BY04D@?$hashset@Uteaminfo@@@@QAE_NAAY04$$CBD@Z 00487b10 f i server1.obj
 0001:00086bb0       ??$?AUuserkey@server@@@?$hashset@Uuserinfo@server@@@@QAEAAUuserinfo@server@@ABUuserkey@2@@Z 00487bb0 f i server1.obj
 0001:00086c70       ??$sendstate@Upacketbuf@@@server@@YAXAAUgamestate@0@AAUpacketbuf@@@Z 00487c70 f i server1.obj
 0001:00086ce0       ??$access@Uuserkey@server@@@?$hashset@Uuserinfo@server@@@@QAEPAUuserinfo@server@@ABUuserkey@2@@Z 00487ce0 f i server1.obj
 0001:00086da0       ??$sendstate@U?$vector@E@@@server@@YAXAAUgamestate@0@AAU?$vector@E@@@Z 00487da0 f i server1.obj
 0001:00086e10       ??$htfind@$$BY0BAE@D@?$vector@Uteamscore@@@@QAEHAAY0BAE@$$CBD@Z 00487e10 f i server1.obj
 0001:00086e70       ??$htfind@PBD@?$vector@Uteamscore@@@@QAEHABQBD@Z 00487e70 f i server1.obj
 0001:00086ee0       ?insert@?$hashset@Uuserinfo@server@@@@QAEPAUchain@1@I@Z 00487ee0 f i server1.obj
 0001:00086fc0       ??0chain@?$hashset@Uuserinfo@server@@@@QAE@XZ 00487fc0 f i server1.obj
 0001:00087010       _enet_host_bandwidth_limit 00488010 f   enet:host.obj
 0001:00087030       _enet_host_bandwidth_throttle 00488030 f   enet:host.obj
 0001:000873c0       _enet_host_connect         004883c0 f   enet:host.obj
 0001:000875d0       _enet_host_create          004885d0 f   enet:host.obj
 0001:00087870       _enet_host_destroy         00488870 f   enet:host.obj
 0001:000878f0       _enet_peer_disconnect      004888f0 f   enet:peer.obj
 0001:00087980       _enet_peer_dispatch_incoming_reliable_commands 00488980 f   enet:peer.obj
 0001:00087ba0       _enet_peer_dispatch_incoming_unreliable_commands 00488ba0 f   enet:peer.obj
 0001:00087d30       _enet_peer_ping            00488d30 f   enet:peer.obj
 0001:00087db0       _enet_peer_queue_acknowledgement 00488db0 f   enet:peer.obj
 0001:00087e80       _enet_peer_queue_incoming_command 00488e80 f   enet:peer.obj
 0001:00088160       _enet_peer_queue_outgoing_command 00489160 f   enet:peer.obj
 0001:000881e0       _enet_peer_receive         004891e0 f   enet:peer.obj
 0001:000882a0       _enet_peer_reset           004892a0 f   enet:peer.obj
 0001:00088470       _enet_peer_reset_queues    00489470 f   enet:peer.obj
 0001:00088570       _enet_peer_send            00489570 f   enet:peer.obj
 0001:000887e0       _enet_peer_setup_outgoing_command 004897e0 f   enet:peer.obj
 0001:000888e0       _enet_peer_throttle        004898e0 f   enet:peer.obj
 0001:00088950       _enet_peer_throttle_configure 00489950 f   enet:peer.obj
 0001:00088a00       _enet_address_get_host_ip  00489a00 f   enet:win32.obj
 0001:00088a30       _enet_address_set_host     00489a30 f   enet:win32.obj
 0001:00088a70       _enet_deinitialize         00489a70 f   enet:win32.obj
 0001:00088a80       _enet_initialize           00489a80 f   enet:win32.obj
 0001:00088af0       _enet_socket_bind          00489af0 f   enet:win32.obj
 0001:00088b60       _enet_socket_connect       00489b60 f   enet:win32.obj
 0001:00088bf0       _enet_socket_create        00489bf0 f   enet:win32.obj
 0001:00088c10       _enet_socket_destroy       00489c10 f   enet:win32.obj
 0001:00088c30       _enet_socket_receive       00489c30 f   enet:win32.obj
 0001:00088cf0       _enet_socket_send          00489cf0 f   enet:win32.obj
 0001:00088da0       _enet_socket_set_option    00489da0 f   enet:win32.obj
 0001:00088e60       _enet_socket_wait          00489e60 f   enet:win32.obj
 0001:00088f60       _enet_socketset_select     00489f60 f   enet:win32.obj
 0001:00088fb0       _enet_time_get             00489fb0 f   enet:win32.obj
 0001:00088fc0       _enet_time_set             00489fc0 f   enet:win32.obj
 0001:00088fe0       _enet_host_check_events    00489fe0 f   enet:protocol.obj
 0001:00089010       _enet_host_flush           0048a010 f   enet:protocol.obj
 0001:00089030       _enet_host_service         0048a030 f   enet:protocol.obj
 0001:00089310       _enet_protocol_command_size 0048a310 f   enet:protocol.obj
 0001:0008b760       _enet_packet_create        0048c760 f   enet:packet.obj
 0001:0008b7f0       _enet_packet_destroy       0048c7f0 f   enet:packet.obj
 0001:0008b830       _enet_packet_resize        0048c830 f   enet:packet.obj
 0001:0008b890       _enet_list_clear           0048c890 f   enet:list.obj
 0001:0008b8a0       _enet_list_insert          0048c8a0 f   enet:list.obj
 0001:0008b8c0       _enet_list_move            0048c8c0 f   enet:list.obj
 0001:0008b900       _enet_list_remove          0048c900 f   enet:list.obj
 0001:0008b920       _enet_free                 0048c920 f   enet:callbacks.obj
 0001:0008b930       _enet_malloc               0048c930 f   enet:callbacks.obj
 0001:0008b952       ___WSAFDIsSet@8            0048c952 f   ws2_32:WS2_32.dll
 0001:0008b958       _free                      0048c958 f   LIBCMT:free.obj
 0001:0008b990       __set_abort_behavior       0048c990 f   LIBCMT:abort.obj
 0001:0008b9af       _abort                     0048c9af f   LIBCMT:abort.obj
 0001:0008b9f2       _malloc                    0048c9f2 f   LIBCMT:malloc.obj
 0001:0008ba90       _strncpy                   0048ca90 f   LIBCMT:strncpy.obj
 0001:0008bbb4       ___onexitinit              0048cbb4 f   LIBCMT:onexit.obj
 0001:0008bbe3       __onexit                   0048cbe3 f   LIBCMT:onexit.obj
 0001:0008bcd9       _atexit                    0048ccd9 f   LIBCMT:onexit.obj
 0001:0008bcee       __vsnprintf                0048ccee f   LIBCMT:vsnprint.obj
 0001:0008bd09       __vsnprintf_l              0048cd09 f   LIBCMT:vsnprint.obj
 0001:0008bdc0       _strncmp                   0048cdc0 f   LIBCMT:strncmp.obj
 0001:0008be38       ??_L@YGXPAXIHP6EX0@Z1@Z    0048ce38 f   LIBCMT:ehvecctr.obj
 0001:0008bea0       ??_M@YGXPAXIHP6EX0@Z@Z     0048cea0 f   LIBCMT:ehvecdtr.obj
 0001:0008bf0f       ?__ArrayUnwind@@YGXPAXIHP6EX0@Z@Z 0048cf0f f   LIBCMT:ehvecdtr.obj
 0001:0008bf70       _memmove                   0048cf70 f   LIBCMT:memmove.obj
 0001:0008c5c0       _ceil                      0048d5c0 f   LIBCMT:ceil_pentium4.obj
 0001:0008c600       __ceil_pentium4            0048d600 f   LIBCMT:ceil_pentium4.obj
 0001:0008c6e0       _strrchr                   0048d6e0 f   LIBCMT:strrchr.obj
 0001:0008c820       _strpbrk                   0048d820 f   LIBCMT:strpbrk.obj
 0001:0008c860       __purecall                 0048d860 f   LIBCMT:purevirt.obj
 0001:0008c88a       ??1type_info@@UAE@XZ       0048d88a f   LIBCMT:typinfo.obj
 0001:0008c898       ??8type_info@@QBE_NABV0@@Z 0048d898 f   LIBCMT:typinfo.obj
 0001:0008c8b6       ??_Etype_info@@UAEPAXI@Z   0048d8b6 f i LIBCMT:typinfo.obj
 0001:0008c8b6       ??_Gtype_info@@UAEPAXI@Z   0048d8b6 f i LIBCMT:typinfo.obj
 0001:0008c8d5       __get_printf_count_output  0048d8d5 f   LIBCMT:printf.obj
 0001:0008c8ea       _printf                    0048d8ea f   LIBCMT:printf.obj
 0001:0008c9a0       _strstr                    0048d9a0 f   LIBCMT:strstr.obj
 0001:0008cc03       _remove                    0048dc03 f   LIBCMT:unlink.obj
 0001:0008cc43       _rename                    0048dc43 f   LIBCMT:rename.obj
 0001:0008cd04       __fclose_nolock            0048dd04 f   LIBCMT:fclose.obj
 0001:0008cd70       _fclose                    0048dd70 f   LIBCMT:fclose.obj
 0001:0008cde7       __fsopen                   0048dde7 f   LIBCMT:fopen.obj
 0001:0008ceab       _fopen                     0048deab f   LIBCMT:fopen.obj
 0001:0008cec0       _setvbuf                   0048dec0 f   LIBCMT:setvbuf.obj
 0001:0008cfc6       __fwrite_nolock            0048dfc6 f   LIBCMT:fwrite.obj
 0001:0008d11d       _fwrite                    0048e11d f   LIBCMT:fwrite.obj
 0001:0008d19b       ??0_LocaleUpdate@@QAE@PAUlocaleinfo_struct@@@Z 0048e19b f i LIBCMT:_ctype.obj
 0001:0008d223       __isalpha_l                0048e223 f i LIBCMT:_ctype.obj
 0001:0008d279       __isdigit_l                0048e279 f i LIBCMT:_ctype.obj
 0001:0008d2c9       __isspace_l                0048e2c9 f i LIBCMT:_ctype.obj
 0001:0008d319       __isxdigit_l               0048e319 f i LIBCMT:_ctype.obj
 0001:0008d36f       _isalpha                   0048e36f f i LIBCMT:_ctype.obj
 0001:0008d39c       _isdigit                   0048e39c f i LIBCMT:_ctype.obj
 0001:0008d3c7       _isspace                   0048e3c7 f i LIBCMT:_ctype.obj
 0001:0008d3f2       _isxdigit                  0048e3f2 f i LIBCMT:_ctype.obj
 0001:0008d420       _memchr                    0048e420 f   LIBCMT:memchr.obj
 0001:0008d4cd       ___copy_path_to_wide_string 0048e4cd f   LIBCMT:crt0dat.obj
 0001:0008d57d       ___crtCorExitProcess       0048e57d f   LIBCMT:crt0dat.obj
 0001:0008d5af       ___crtExitProcess          0048e5af f   LIBCMT:crt0dat.obj
 0001:0008d5c5       __amsg_exit                0048e5c5 f   LIBCMT:crt0dat.obj
 0001:0008d5e1       __c_exit                   0048e5e1 f   LIBCMT:crt0dat.obj
 0001:0008d5f0       __cexit                    0048e5f0 f   LIBCMT:crt0dat.obj
 0001:0008d5ff       __cinit                    0048e5ff f   LIBCMT:crt0dat.obj
 0001:0008d690       __exit                     0048e690 f   LIBCMT:crt0dat.obj
 0001:0008d6a4       __init_pointers            0048e6a4 f   LIBCMT:crt0dat.obj
 0001:0008d6f8       __initterm_e               0048e6f8 f   LIBCMT:crt0dat.obj
 0001:0008d71a       __lockexit                 0048e71a f   LIBCMT:crt0dat.obj
 0001:0008d723       __unlockexit               0048e723 f   LIBCMT:crt0dat.obj
 0001:0008d85b       _exit                      0048e85b f   LIBCMT:crt0dat.obj
 0001:0008d86f       _atoi                      0048e86f f   LIBCMT:atox.obj
 0001:0008d878       _atol                      0048e878 f   LIBCMT:atox.obj
 0001:0008d88c       _sscanf                    0048e88c f   LIBCMT:sscanf.obj
 0001:0008d91b       __time64                   0048e91b f   LIBCMT:time64.obj
 0001:0008d96a       __localtime64              0048e96a f   LIBCMT:loctim64.obj
 0001:0008d98f       __localtime64_s            0048e98f f   LIBCMT:loctim64.obj
 0001:0008dc07       __Strftime_l               0048ec07 f   LIBCMT:strftime.obj
 0001:0008dd28       _strftime                  0048ed28 f   LIBCMT:strftime.obj
 0001:0008dd45       __tolower_l                0048ed45 f   LIBCMT:tolower.obj
 0001:0008de86       _tolower                   0048ee86 f   LIBCMT:tolower.obj
 0001:0008dec0       _strchr                    0048eec0 f   LIBCMT:strchr.obj
 0001:0008df2e       ___from_strstr_to_strchr   0048ef2e     LIBCMT:strchr.obj
 0001:0008dfeb       __strtod_l                 0048efeb f   LIBCMT:strtod.obj
 0001:0008e100       _strtod                    0048f100 f   LIBCMT:strtod.obj
 0001:0008e115       ___ascii_stricmp           0048f115 f   LIBCMT:stricmp.obj
 0001:0008e14e       __stricmp                  0048f14e f   LIBCMT:stricmp.obj
 0001:0008e195       __stricmp_l                0048f195 f   LIBCMT:stricmp.obj
 0001:0008e44c       _strtol                    0048f44c f   LIBCMT:strtol.obj
 0001:0008e480       _strspn                    0048f480 f   LIBCMT:strspn.obj
 0001:0008e4c6       _fputs                     0048f4c6 f   LIBCMT:fputs.obj
 0001:0008e5cc       _fprintf                   0048f5cc f   LIBCMT:fprintf.obj
 0001:0008e6de       _fputc                     0048f6de f   LIBCMT:fputc.obj
 0001:0008e7e0       _strcspn                   0048f7e0 f   LIBCMT:strcspn.obj
 0001:0008e826       __atof_l                   0048f826 f   LIBCMT:atof.obj
 0001:0008e8c2       _atof                      0048f8c2 f   LIBCMT:atof.obj
 0001:0008e8d3       _wcsncpy                   0048f8d3 f   LIBCMT:wcsncpy.obj
 0001:0008e91d       __toupper_l                0048f91d f   LIBCMT:toupper.obj
 0001:0008ea5f       _toupper                   0048fa5f f   LIBCMT:toupper.obj
 0001:0008ea8b       __vscprintf                0048fa8b f   LIBCMT:vsprintf.obj
 0001:0008eaa5       __vscprintf_helper         0048faa5 f   LIBCMT:vsprintf.obj
 0001:0008eaff       _feof                      0048faff f   LIBCMT:feoferr.obj
 0001:0008eb25       __ftelli64                 0048fb25 f   LIBCMT:ftelli64.obj
 0001:0008eb99       __ftelli64_nolock          0048fb99 f   LIBCMT:ftelli64.obj
 0001:0008ef44       __fseeki64                 0048ff44 f   LIBCMT:fseeki64.obj
 0001:0008efc6       __fseeki64_nolock          0048ffc6 f   LIBCMT:fseeki64.obj
 0001:0008f077       __fread_nolock_s           00490077 f   LIBCMT:fread.obj
 0001:0008f23a       _fread                     0049023a f   LIBCMT:fread.obj
 0001:0008f255       _fread_s                   00490255 f   LIBCMT:fread.obj
 0001:0008f2e6       _fgetc                     004902e6 f   LIBCMT:fgetc.obj
 0001:0008f3df       _fgets                     004903df f   LIBCMT:fgets.obj
 0001:0008f51e       _vfprintf                  0049051e f   LIBCMT:vfprintf.obj
 0001:0008f53b       _vfprintf_helper           0049053b f   LIBCMT:vfprintf.obj
 0001:0008f64c       __fseek_nolock             0049064c f   LIBCMT:fseek.obj
 0001:0008f6db       _fseek                     004906db f   LIBCMT:fseek.obj
 0001:0008f75a       __ftell_nolock             0049075a f   LIBCMT:ftell.obj
 0001:0008fab3       _ftell                     00490ab3 f   LIBCMT:ftell.obj
 0001:0008fb1b       __ctime64                  00490b1b f   LIBCMT:ctime64.obj
 0001:0008fb86       _WinMainCRTStartup         00490b86 f   LIBCMT:wincrt0.obj
 0001:0008fd07       @__security_check_cookie@4 00490d07 f   LIBCMT:secchk.obj
 0001:0008fd20       _memset                    00490d20 f   LIBCMT:memset.obj
 0001:0008fdb0       __get_sys_err_msg          00490db0 f i LIBCMT:perror.obj
 0001:0008fdd6       _perror                    00490dd6 f   LIBCMT:perror.obj
 0001:0008fe70       _memcpy                    00490e70 f   LIBCMT:memcpy.obj
 0001:000904b4       ___doserrno                004914b4 f   LIBCMT:dosmap.obj
 0001:000904c7       __dosmaperr                004914c7 f   LIBCMT:dosmap.obj
 0001:000904e8       __errno                    004914e8 f   LIBCMT:dosmap.obj
 0001:000904fb       __get_errno_from_oserr     004914fb f   LIBCMT:dosmap.obj
 0001:0009053c       __heap_init                0049153c f   LIBCMT:heapinit.obj
 0001:00090551       ___get_sigabrt             00491551 f   LIBCMT:winsig.obj
 0001:0009055e       __initp_misc_winsig        0049155e f   LIBCMT:winsig.obj
 0001:0009057a       _raise                     0049157a f   LIBCMT:winsig.obj
 0001:0009076b       __call_reportfault         0049176b f   LIBCMT:invarg.obj
 0001:0009088e       __initp_misc_invarg        0049188e f   LIBCMT:invarg.obj
 0001:0009089b       __invalid_parameter        0049189b f   LIBCMT:invarg.obj
 0001:000908c6       __invalid_parameter_noinfo 004918c6 f   LIBCMT:invarg.obj
 0001:000908d6       __invoke_watson            004918d6 f   LIBCMT:invarg.obj
 0001:00090901       __callnewh                 00491901 f   LIBCMT:handler.obj
 0001:00090927       __initp_heap_handler       00491927 f   LIBCMT:handler.obj
 0001:00090934       __FF_MSGBANNER             00491934 f   LIBCMT:crt0msg.obj
 0001:0009096d       __GET_RTERRMSG             0049196d f   LIBCMT:crt0msg.obj
 0001:00090991       __NMSG_WRITE               00491991 f   LIBCMT:crt0msg.obj
 0001:00090b4c       __msize                    00491b4c f   LIBCMT:msize.obj
 0001:00090b7d       __calloc_crt               00491b7d f   LIBCMT:crtheap.obj
 0001:00090bc7       __malloc_crt               00491bc7 f   LIBCMT:crtheap.obj
 0001:00090c10       __realloc_crt              00491c10 f   LIBCMT:crtheap.obj
 0001:00090c5c       __recalloc_crt             00491c5c f   LIBCMT:crtheap.obj
 0001:00090cb0       __SEH_prolog4              00491cb0 f   LIBCMT:sehprolg4.obj
 0001:00090cf5       __SEH_epilog4              00491cf5 f   LIBCMT:sehprolg4.obj
 0001:00090d10       __except_handler4          00491d10 f   LIBCMT:chandler4.obj
 0001:00090ea5       __flsbuf                   00491ea5 f   LIBCMT:_flsbuf.obj
 0001:00090ff2       __output_l                 00491ff2 f   LIBCMT:output.obj
 0001:00091c64       ?_inconsistency@@YAXXZ     00492c64 f   LIBCMT:hooks.obj
 0001:00091c9c       ?terminate@@YAXXZ          00492c9c f   LIBCMT:hooks.obj
 0001:00091cd0       ?unexpected@@YAXXZ         00492cd0 f   LIBCMT:hooks.obj
 0001:00091ce3       __initp_eh_hooks           00492ce3 f   LIBCMT:hooks.obj
 0001:00091cf4       ___isa_available_init      00492cf4 f   LIBCMT:cpu_disp.obj
 0001:00091e2d       ___libm_error_support      00492e2d f   LIBCMT:libm_error.obj
 0001:00092115       __sse2_mathfcns_init       00493115 f   LIBCMT:mathfcns.obj
 0001:00092124       __ceil_default             00493124 f   LIBCMT:ceil.obj
 0001:000921f7       __initp_misc_purevirt      004931f7 f   LIBCMT:inithelp.obj
 0001:00092210       _strcmp                    00493210 f   LIBCMT:strcmp.obj
 0001:0009229c       ?_Type_info_dtor@type_info@@CAXPAV1@@Z 0049329c f   LIBCMT:typname.obj
 0001:0009230d       ___initstdio               0049330d f   LIBCMT:_file.obj
 0001:00092380       ___endstdio                00493380 f   LIBCMT:_file.obj
 0001:000923a7       ___iob_func                004933a7 f   LIBCMT:_file.obj
 0001:000923ad       __lock_file                004933ad f   LIBCMT:_file.obj
 0001:000923ec       __lock_file2               004933ec f   LIBCMT:_file.obj
 0001:0009241c       __unlock_file              0049341c f   LIBCMT:_file.obj
 0001:00092456       __unlock_file2             00493456 f   LIBCMT:_file.obj
 0001:00092483       __ftbuf                    00493483 f   LIBCMT:_sftbuf.obj
 0001:000924b4       __stbuf                    004934b4 f   LIBCMT:_sftbuf.obj
 0001:0009255a       __wremove                  0049355a f   LIBCMT:wunlink.obj
 0001:00092588       __wrename                  00493588 f   LIBCMT:wrename.obj
 0001:000925bb       ___crtFlsAlloc             004935bb f   LIBCMT:winapisupp.obj
 0001:000925d9       ___crtFlsFree              004935d9 f   LIBCMT:winapisupp.obj
 0001:000925f8       ___crtFlsGetValue          004935f8 f   LIBCMT:winapisupp.obj
 0001:00092617       ___crtFlsSetValue          00493617 f   LIBCMT:winapisupp.obj
 0001:00092639       ___crtGetShowWindowMode    00493639 f   LIBCMT:winapisupp.obj
 0001:0009265a       ___crtIsPackagedApp        0049365a f   LIBCMT:winapisupp.obj
 0001:00092698       ___crtLoadWinApiPointers   00493698 f   LIBCMT:winapisupp.obj
 0001:000928d7       ___crtSetUnhandledExceptionFilter 004938d7 f   LIBCMT:winapisupp.obj
 0001:000928e5       ___crtTerminateProcess     004938e5 f   LIBCMT:winapisupp.obj
 0001:000928fa       ___crtUnhandledException   004938fa f   LIBCMT:winapisupp.obj
 0001:00092910       __fileno                   00493910 f   LIBCMT:fileno.obj
 0001:00092934       __close                    00493934 f   LIBCMT:close.obj
 0001:000929fe       __close_nolock             004939fe f   LIBCMT:close.obj
 0001:00092a98       __freebuf                  00493a98 f   LIBCMT:_freebuf.obj
 0001:00092ac8       __fflush_nolock            00493ac8 f   LIBCMT:fflush.obj
 0001:00092b0e       __flush                    00493b0e f   LIBCMT:fflush.obj
 0001:00092b72       __flushall                 00493b72 f   LIBCMT:fflush.obj
 0001:00092c5f       __getstream                00493c5f f   LIBCMT:stream.obj
 0001:00092d77       __openfile                 00493d77 f   LIBCMT:_open.obj
 0001:00092ff0       __local_unwind4            00493ff0 f   LIBCMT:exsup4.obj
 0001:000930c6       __seh_longjmp_unwind4@4    004940c6 f   LIBCMT:exsup4.obj
 0001:000930e2       @_EH4_CallFilterFunc@8     004940e2 f   LIBCMT:exsup4.obj
 0001:000930f9       @_EH4_TransferToHandler@8  004940f9 f   LIBCMT:exsup4.obj
 0001:00093112       @_EH4_GlobalUnwind2@8      00494112 f   LIBCMT:exsup4.obj
 0001:0009312b       @_EH4_LocalUnwind@16       0049412b f   LIBCMT:exsup4.obj
 0001:00093142       __write                    00494142 f   LIBCMT:write.obj
 0001:00093224       __write_nolock             00494224 f   LIBCMT:write.obj
 0001:00093a4e       ___addlocaleref            00494a4e f   LIBCMT:localref.obj
 0001:00093ade       ___freetlocinfo            00494ade f   LIBCMT:localref.obj
 0001:00093c38       ___removelocaleref         00494c38 f   LIBCMT:localref.obj
 0001:00093cd3       ___updatetlocinfo          00494cd3 f   LIBCMT:localref.obj
 0001:00093d4f       __updatetlocinfoEx_nolock  00494d4f f   LIBCMT:localref.obj
 0001:00093d9a       ___initmbctable            00494d9a f   LIBCMT:mbctype.obj
 0001:00094055       ___updatetmbcinfo          00495055 f   LIBCMT:mbctype.obj
 0001:000940fa       __setmbcp                  004950fa f   LIBCMT:mbctype.obj
 0001:000942a8       __setmbcp_nolock           004952a8 f   LIBCMT:mbctype.obj
 0001:0009449d       __isctype_l                0049549d f   LIBCMT:isctype.obj
 0001:0009454c       __freefls@4                0049554c f   LIBCMT:tidtable.obj
 0001:00094683       __getptd                   00495683 f   LIBCMT:tidtable.obj
 0001:0009469b       __getptd_noexit            0049569b f   LIBCMT:tidtable.obj
 0001:0009470a       __initptd                  0049570a f   LIBCMT:tidtable.obj
 0001:000947bd       __mtinit                   004957bd f   LIBCMT:tidtable.obj
 0001:00094833       __mtterm                   00495833 f   LIBCMT:tidtable.obj
 0001:00094850       __locterm                  00495850 f   LIBCMT:wsetloca.obj
 0001:000948a2       __RTC_Initialize           004958a2 f   LIBCMT:initsect.obj
 0001:000948c2       __RTC_Terminate            004958c2 f   LIBCMT:initsect.obj
 0001:000948e2       __lock                     004958e2 f   LIBCMT:mlock.obj
 0001:00094916       __mtdeletelocks            00495916 f   LIBCMT:mlock.obj
 0001:0009496a       __mtinitlocknum            0049596a f   LIBCMT:mlock.obj
 0001:00094a11       __mtinitlocks              00495a11 f   LIBCMT:mlock.obj
 0001:00094a46       __unlock                   00495a46 f   LIBCMT:mlock.obj
 0001:00094a60       __FindPESection            00495a60 f   LIBCMT:pesect.obj
 0001:00094ab0       __IsNonwritableInCurrentImage 00495ab0 f   LIBCMT:pesect.obj
 0001:00094b70       __ValidateImageBase        00495b70 f   LIBCMT:pesect.obj
 0001:00094ba1       __initp_misc_cfltcvt_tab   00495ba1 f   LIBCMT:cmiscdat.obj
 0001:00094bc0       __initp_misc_rand_s        00495bc0 f   LIBCMT:rand_s.obj
 0001:00094bd0       _strlen                    00495bd0 f   LIBCMT:strlen.obj
 0001:00094cfd       __input_l                  00495cfd f   LIBCMT:input.obj
 0001:00095e20       __aulldiv                  00496e20 f   LIBCMT:ulldiv.obj
 0001:00095e88       ___daylight                00496e88 f   LIBCMT:timeset.obj
 0001:00095e8e       ___dstbias                 00496e8e f   LIBCMT:timeset.obj
 0001:00095e94       ___timezone                00496e94 f   LIBCMT:timeset.obj
 0001:00095e9a       ___tzname                  00496e9a f   LIBCMT:timeset.obj
 0001:00095ea0       __get_daylight             00496ea0 f   LIBCMT:timeset.obj
 0001:00095eca       __get_dstbias              00496eca f   LIBCMT:timeset.obj
 0001:00095ef4       __get_timezone             00496ef4 f   LIBCMT:timeset.obj
 0001:00095f1e       __gmtime64_s               00496f1e f   LIBCMT:gmtime64.obj
 0001:00096147       ___tzset                   00497147 f   LIBCMT:tzset.obj
 0001:00096197       __isindst                  00497197 f   LIBCMT:tzset.obj
 0001:000968df       ___getgmtimebuf            004978df f   LIBCMT:gmtime.obj
 0001:00096920       __alldiv                   00497920 f   LIBCMT:lldiv.obj
 0001:000969d0       __allrem                   004979d0 f   LIBCMT:llrem.obj
 0001:00096a82       _strcpy_s                  00497a82 f   LIBCMT:strcpy_s.obj
 0001:000974d2       __Wcsftime_l               004984d2 f   LIBCMT:wcsftime.obj
 0001:00097613       __freea                    00498613 f i LIBCMT:wcsftime.obj
 0001:00097631       __isleadbyte_l             00498631 f i LIBCMT:_wctype.obj
 0001:00097667       _isleadbyte                00498667 f i LIBCMT:_wctype.obj
 0001:00097861       ___crtLCMapStringA         00498861 f   LIBCMT:a_map.obj
 0001:000978a5       __fltin2                   004988a5 f   LIBCMT:cfin.obj
 0001:00097950       __fpmath                   00498950 f   LIBCMT:fpinit.obj
 0001:00097967       __cfltcvt_init             00498967 f   LIBCMT:fpinit.obj
 0001:000979c7       __ioinit                   004989c7 f   LIBCMT:ioinit.obj
 0001:00097c75       ___strgtold12_l            00498c75 f   LIBCMT:strgtold.obj
 0001:000983f1       __lseeki64                 004993f1 f   LIBCMT:lseeki64.obj
 0001:000984ed       __lseeki64_nolock          004994ed f   LIBCMT:lseeki64.obj
 0001:00098560       __chkstk                   00499560 f   LIBCMT:chkstk.obj
 0001:00098560       __alloca_probe             00499560     LIBCMT:chkstk.obj
 0001:0009858b       __read                     0049958b f   LIBCMT:read.obj
 0001:00098693       __read_nolock              00499693 f   LIBCMT:read.obj
 0001:00098e22       __filbuf                   00499e22 f   LIBCMT:_filbuf.obj
 0001:00098f43       _memcpy_s                  00499f43 f   LIBCMT:memcpy_s.obj
 0001:00098fc2       __lseek                    00499fc2 f   LIBCMT:lseek.obj
 0001:000990a4       __lseek_nolock             0049a0a4 f   LIBCMT:lseek.obj
 0001:00099116       _asctime                   0049a116 f   LIBCMT:asctime.obj
 0001:00099314       ?__CxxUnhandledExceptionFilter@@YGJPAU_EXCEPTION_POINTERS@@@Z 0049a314 f   LIBCMT:unhandld.obj
 0001:00099355       ___CxxSetUnhandledExceptionFilter 0049a355 f   LIBCMT:unhandld.obj
 0001:00099363       __XcptFilter               0049a363 f   LIBCMT:winxfltr.obj
 0001:000994be       __setargv                  0049a4be f   LIBCMT:stdargv.obj
 0001:000996eb       __setenvp                  0049a6eb f   LIBCMT:stdenvp.obj
 0001:000997cc       ___set_app_type            0049a7cc f   LIBCMT:errmode.obj
 0001:000997d9       __set_error_mode           0049a7d9 f   LIBCMT:errmode.obj
 0001:00099819       ___security_init_cookie    0049a819 f   LIBCMT:gs_support.obj
 0001:000998b3       ___crtGetEnvironmentStringsA 0049a8b3 f   LIBCMT:a_env.obj
 0001:0009993e       __wincmdln                 0049a93e f   LIBCMT:wincmdln.obj
 0001:0009999d       ___raise_securityfailure   0049a99d f   LIBCMT:gs_report.obj
 0001:000999da       ___report_gsfailure        0049a9da f   LIBCMT:gs_report.obj
 0001:00099ad3       __VEC_memset               0049aad3 f   LIBCMT:p4_memset.obj
 0001:00099b9b       ___sys_errlist             0049ab9b f   LIBCMT:syserr.obj
 0001:00099ba1       ___sys_nerr                0049aba1 f   LIBCMT:syserr.obj
 0001:00099ba7       ___lock_fhandle            0049aba7 f   LIBCMT:osfinfo.obj
 0001:00099c33       __alloc_osfhnd             0049ac33 f   LIBCMT:osfinfo.obj
 0001:00099dd8       __free_osfhnd              0049add8 f   LIBCMT:osfinfo.obj
 0001:00099e5e       __get_osfhandle            0049ae5e f   LIBCMT:osfinfo.obj
 0001:00099ec5       __set_osfhnd               0049aec5 f   LIBCMT:osfinfo.obj
 0001:00099f47       __unlock_fhandle           0049af47 f   LIBCMT:osfinfo.obj
 0001:00099f6d       __crt_debugger_hook        0049af6d f   LIBCMT:dbghook.obj
 0001:00099f75       _wcscat_s                  0049af75 f   LIBCMT:wcscat_s.obj
 0001:00099fe1       _wcscpy_s                  0049afe1 f   LIBCMT:wcscpy_s.obj
 0001:0009a03d       _wcslen                    0049b03d f   LIBCMT:wcslen.obj
 0001:0009a056       _wcsncpy_s                 0049b056 f   LIBCMT:wcsncpy_s.obj
 0001:0009a114       ___crtMessageBoxW          0049b114 f   LIBCMT:crtmboxw.obj
 0001:0009a2f6       _realloc                   0049b2f6 f   LIBCMT:realloc.obj
 0001:0009a3a1       __recalloc                 0049b3a1 f   LIBCMT:recalloc.obj
 0001:0009a40a       __calloc_impl              0049b40a f   LIBCMT:calloc_impl.obj
 0001:0009a484       __isatty                   0049b484 f   LIBCMT:isatty.obj
 0001:0009a4d8       __getbuf                   0049b4d8 f   LIBCMT:_getbuf.obj
 0001:0009a51e       __wctomb_s_l               0049b51e f   LIBCMT:wctomb.obj
 0001:0009a640       _wctomb_s                  0049b640 f   LIBCMT:wctomb.obj
 0001:0009a660       __aulldvrm                 0049b660 f   LIBCMT:ulldvrm.obj
 0001:0009a6f5       __matherr                  0049b6f5 f   LIBCMT:matherr.obj
 0001:0009a6f8       __frnd                     0049b6f8 f   LIBCMT:frnd.obj
 0001:0009a70a       __errcode                  0049b70a f   LIBCMT:fpexcept.obj
 0001:0009a73c       __except1                  0049b73c f   LIBCMT:fpexcept.obj
 0001:0009a804       __handle_exc               0049b804 f   LIBCMT:fpexcept.obj
 0001:0009a9e0       __handle_qnan1             0049b9e0 f   LIBCMT:fpexcept.obj
 0001:0009aa30       __raise_exc                0049ba30 f   LIBCMT:fpexcept.obj
 0001:0009aa51       __raise_exc_ex             0049ba51 f   LIBCMT:fpexcept.obj
 0001:0009ad36       __set_errno_from_matherr   0049bd36 f   LIBCMT:fpexcept.obj
 0001:0009ad63       __umatherr                 0049bd63 f   LIBCMT:fpexcept.obj
 0001:0009ae01       __decomp                   0049be01 f   LIBCMT:util.obj
 0001:0009aed3       __set_exp                  0049bed3 f   LIBCMT:util.obj
 0001:0009aefe       __sptype                   0049befe f   LIBCMT:util.obj
 0001:0009af5a       ___set_fpsr_sse2           0049bf5a f   LIBCMT:fpctrl.obj
 0001:0009afd0       __clrfp                    0049bfd0 f   LIBCMT:fpctrl.obj
 0001:0009afdf       __ctrlfp                   0049bfdf f   LIBCMT:fpctrl.obj
 0001:0009b008       __set_statfp               0049c008 f   LIBCMT:fpctrl.obj
 0001:0009b05e       __statfp                   0049c05e f   LIBCMT:fpctrl.obj
 0001:0009b06c       _strncpy_s                 0049c06c f   LIBCMT:strncpy_s.obj
 0001:0009b110       _GetTableIndexFromLocaleName 0049c110 f   LIBCMT:winapinls.obj
 0001:0009b15e       ___crtCompareStringEx      0049c15e f   LIBCMT:winapinls.obj
 0001:0009b1aa       ___crtDownlevelLocaleNameToLCID 0049c1aa f   LIBCMT:winapinls.obj
 0001:0009b1d4       ___crtGetDateFormatEx      0049c1d4 f   LIBCMT:winapinls.obj
 0001:0009b21d       ___crtGetTimeFormatEx      0049c21d f   LIBCMT:winapinls.obj
 0001:0009b252       ___crtLCMapStringEx        0049c252 f   LIBCMT:winapinls.obj
 0001:0009b29e       ___wcsnicmp_ascii          0049c29e f   LIBCMT:winapinls.obj
 0001:0009b30c       __fcloseall                0049c30c f   LIBCMT:closeall.obj
 0001:0009b3a9       __commit                   0049c3a9 f   LIBCMT:commit.obj
 0001:0009b48f       __sopen_helper             0049c48f f   LIBCMT:open.obj
 0001:0009b556       __sopen_nolock             0049c556 f   LIBCMT:open.obj
 0001:0009b5a2       __sopen_s                  0049c5a2 f   LIBCMT:open.obj
 0001:0009b5c0       __mbsnbcmp                 0049c5c0 f   LIBCMT:mbsnbcmp.obj
 0001:0009b5d8       __mbsnbcmp_l               0049c5d8 f   LIBCMT:mbsnbcmp.obj
 0001:0009b6ed       __mbsnbicmp                0049c6ed f   LIBCMT:mbsnbicm.obj
 0001:0009b705       __mbsnbicmp_l              0049c705 f   LIBCMT:mbsnbicm.obj
 0001:0009b8d0       __global_unwind2           0049c8d0 f   LIBCMT:exsup.obj
 0001:0009b935       __local_unwind2            0049c935 f   LIBCMT:exsup.obj
 0001:0009b9b9       __abnormal_termination     0049c9b9 f   LIBCMT:exsup.obj
 0001:0009b9dc       __NLG_Notify1              0049c9dc f   LIBCMT:exsup.obj
 0001:0009b9e5       __NLG_Notify               0049c9e5 f   LIBCMT:exsup.obj
 0001:0009b9fc       __NLG_Dispatch             0049c9fc     LIBCMT:exsup.obj
 0001:0009b9fc       __NLG_Dispatch2            0049c9fc     LIBCMT:exsup.obj
 0001:0009ba04       __NLG_Call                 0049ca04 f   LIBCMT:exsup.obj
 0001:0009ba06       __NLG_Return2              0049ca06     LIBCMT:exsup.obj
 0001:0009ba07       __mbtowc_l                 0049ca07 f   LIBCMT:mbtowc.obj
 0001:0009bafa       _mbtowc                    0049cafa f   LIBCMT:mbtowc.obj
 0001:0009bb12       __putwch_nolock            0049cb12 f   LIBCMT:putwch.obj
 0001:0009bb53       ___free_lconv_mon          0049cb53 f   LIBCMT:initmon.obj
 0001:0009bc4f       ___free_lconv_num          0049cc4f f   LIBCMT:initnum.obj
 0001:0009bcb6       ___free_lc_time            0049ccb6 f   LIBCMT:inittime.obj
 0001:0009c122       ___crtGetStringTypeA       0049d122 f   LIBCMT:a_str.obj
 0001:0009c160       ____lc_codepage_func       0049d160 f   LIBCMT:initctyp.obj
 0001:0009c186       _wcsnlen                   0049d186 f   LIBCMT:wcslen_s.obj
 0001:0009c1a5       __fptrap                   0049d1a5 f   LIBCMT:crt0fp.obj
 0001:0009c1b0       __allmul                   0049d1b0 f   LIBCMT:llmul.obj
 0001:0009c1e4       __ungetc_nolock            0049d1e4 f   LIBCMT:ungetc.obj
 0001:0009c2c4       __getenv_helper_nolock     0049d2c4 f   LIBCMT:getenv.obj
 0001:0009c348       __wcsicmp                  0049d348 f   LIBCMT:wcsicmp.obj
 0001:0009c3db       __wcsicmp_l                0049d3db f   LIBCMT:wcsicmp.obj
 0001:0009c4b4       __mbstowcs_l_helper        0049d4b4 f   LIBCMT:mbstowcs.obj
 0001:0009c613       __mbstowcs_s_l             0049d613 f   LIBCMT:mbstowcs.obj
 0001:0009c6f0       __alloca_probe_16          0049d6f0 f   LIBCMT:alloca16.obj
 0001:0009c706       __alloca_probe_8           0049d706     LIBCMT:alloca16.obj
 0001:0009c71c       _iswctype                  0049d71c f   LIBCMT:iswctype.obj
 0001:0009c76e       __ld12tod                  0049d76e f   LIBCMT:intrncvt.obj
 0001:0009ccde       __ld12tof                  0049dcde f   LIBCMT:intrncvt.obj
 0001:0009d24e       __cfltcvt                  0049e24e f   LIBCMT:cvt.obj
 0001:0009d26f       __cfltcvt_l                0049e26f f   LIBCMT:cvt.obj
 0001:0009d2f5       __cftoa_l                  0049e2f5 f   LIBCMT:cvt.obj
 0001:0009d64f       __cftoe                    0049e64f f   LIBCMT:cvt.obj
 0001:0009d7bc       __cftoe_l                  0049e7bc f   LIBCMT:cvt.obj
 0001:0009d972       __cftof_l                  0049e972 f   LIBCMT:cvt.obj
 0001:0009da31       __cftog_l                  0049ea31 f   LIBCMT:cvt.obj
 0001:0009db2e       __cropzeros                0049eb2e f   LIBCMT:cvt.obj
 0001:0009db3f       __cropzeros_l              0049eb3f f   LIBCMT:cvt.obj
 0001:0009dbbd       __fassign                  0049ebbd f   LIBCMT:cvt.obj
 0001:0009dbd5       __fassign_l                0049ebd5 f   LIBCMT:cvt.obj
 0001:0009dc15       __forcdecpt                0049ec15 f   LIBCMT:cvt.obj
 0001:0009dc26       __forcdecpt_l              0049ec26 f   LIBCMT:cvt.obj
 0001:0009dc98       __positive                 0049ec98 f   LIBCMT:cvt.obj
 0001:0009dcda       __setdefaultprecision      0049ecda f   LIBCMT:fp8.obj
 0001:0009dd01       ___mtold12                 0049ed01 f   LIBCMT:mantold.obj
 0001:0009df39       __ismbblead                0049ef39 f   LIBCMT:ismbbyte.obj
 0001:0009dfe0       __wsopen_nolock            0049efe0 f   LIBCMT:wopen.obj
 0001:0009e731       __strnicmp                 0049f731 f   LIBCMT:strnicmp.obj
 0001:0009e79c       __strnicmp_l               0049f79c f   LIBCMT:strnicmp.obj
 0001:0009e84b       ___termconout              0049f84b f   LIBCMT:initcon.obj
 0001:0009e862       ___initconout              0049f862 f   LIBCMT:initcon.obj
 0001:0009e881       ___wtomb_environ           0049f881 f   LIBCMT:wtombenv.obj
 0001:0009e90e       __mbsnbicoll               0049f90e f   LIBCMT:mbsnbico.obj
 0001:0009e926       __mbsnbicoll_l             0049f926 f   LIBCMT:mbsnbico.obj
 0001:0009e9da       __towlower_l               0049f9da f   LIBCMT:towlower.obj
 0001:0009ea8c       __fptostr                  0049fa8c f   LIBCMT:_fptostr.obj
 0001:0009eb3c       __atodbl_l                 0049fb3c f   LIBCMT:atodbl.obj
 0001:0009ebc8       __atoflt_l                 0049fbc8 f   LIBCMT:atodbl.obj
 0001:0009ec54       ___dtold                   0049fc54 f   LIBCMT:cfout.obj
 0001:0009ed1a       __fltout2                  0049fd1a f   LIBCMT:cfout.obj
 0001:0009edb0       __alldvrm                  0049fdb0 f   LIBCMT:lldvrm.obj
 0001:0009ee90       __aullshr                  0049fe90 f   LIBCMT:ullshr.obj
 0001:0009eeaf       __controlfp_s              0049feaf f   LIBCMT:contrlfp.obj
 0001:0009ef0c       __chsize_nolock            0049ff0c f   LIBCMT:chsize.obj
 0001:0009f0c0       __get_fmode                004a00c0 f   LIBCMT:setmode.obj
 0001:0009f0ea       __setmode_nolock           004a00ea f   LIBCMT:setmode.obj
 0001:0009f1c0       ___ascii_strnicmp          004a01c0 f   LIBCMT:_strnicm.obj
 0001:0009f221       ___crtsetenv               004a0221 f   LIBCMT:setenv.obj
 0001:0009f522       __strnicoll_l              004a0522 f   LIBCMT:strnicol.obj
 0001:0009f870       ___crtCompareStringA       004a0870 f   LIBCMT:a_cmp.obj
 0001:0009f8b1       ___crtLCMapStringW         004a08b1 f   LIBCMT:w_map.obj
 0001:0009f8e0       _$I10_OUTPUT               004a08e0 f   LIBCMT:x10fout.obj
 0001:000a034d       __control87                004a134d f i LIBCMT:ieee87.obj
 0001:000a06e4       __strdup                   004a16e4 f   LIBCMT:strdup.obj
 0001:000a0734       __mbschr                   004a1734 f   LIBCMT:mbschr.obj
 0001:000a0749       __mbschr_l                 004a1749 f   LIBCMT:mbschr.obj
 0001:000a07e4       _IsProcessorFeaturePresent@4 004a17e4 f   kernel32:KERNEL32.dll
 0001:000a07ea       _RtlUnwind@16              004a17ea f   kernel32:KERNEL32.dll
 0001:000a08a0       ?shouldsaveblendmap@@YAEXZ 004a18a0 f   blend.obj
 0001:000a08b0       ?saveblendmap@@YAXPAUstream@@@Z 004a18b0 f   blend.obj
 0001:000a08d0       ?saveblendmap@@YAXPAUstream@@EAAUBlendMapNode@@@Z 004a18d0 f   blend.obj
 0001:000a0940       ?loadblendmap@@YA_NPAUstream@@H@Z 004a1940 f   blend.obj
 0001:000a0960       ?loadblendmap@@YA_NPAUstream@@AAEAAUBlendMapNode@@@Z 004a1960 f   blend.obj
 0001:000a0a80       ?renderblendbrush@@YAXXZ   004a1a80 f   blend.obj
 0001:000a0bd0       ?run@?$_icmd_moveblendmap@$0DAN@@@SAXPAH0@Z 004a1bd0 f   blend.obj
 0001:000a0ca0       ?run@?$_icmd_clearblendmap@$0CPO@@@SAXXZ 004a1ca0 f   blend.obj
 0001:000a0cf0       ?showblendmap@@YAXXZ       004a1cf0 f   blend.obj
 0001:000a0d80       ?invertblendmap@@YAXXZ     004a1d80 f   blend.obj
 0001:000a0ef0       ?invertblendmapsel@@YAXXZ  004a1ef0 f   blend.obj
 0001:000a10c0       ?clearblendmapsel@@YAXXZ   004a20c0 f   blend.obj
 0001:000a1290       ?run@?$_icmd_paintblendmap@$0CMK@@@SAXPAH@Z 004a2290 f   blend.obj
 0001:000a12d0       ?trypaintblendmap@@YAXXZ   004a22d0 f   blend.obj
 0001:000a1330       ?stoppaintblendmap@@YAXXZ  004a2330 f   blend.obj
 0001:000a1350       ?paintblendmap@@YAX_N@Z    004a2350 f   blend.obj
 0001:000a14e0       ?rotateblendbrush@@YAXPAH@Z 004a24e0 f   blend.obj
 0001:000a15c0       ?canpaintblendmap@@YA_N_N00@Z 004a25c0 f   blend.obj
 0001:000a1650       ?curblendbrush@@YAXXZ      004a2650 f   blend.obj
 0001:000a1670       ?getblendbrushname@@YAXPAH@Z 004a2670 f   blend.obj
 0001:000a16f0       ?setblendbrush@@YAXPBD@Z   004a26f0 f   blend.obj
 0001:000a1760       ?nextblendbrush@@YAXPAH@Z  004a2760 f   blend.obj
 0001:000a17c0       ?addblendbrush@@YAXPBD0@Z  004a27c0 f   blend.obj
 0001:000a19d0       ?delblendbrush@@YAXPBD@Z   004a29d0 f   blend.obj
 0001:000a1ad0       ?clearblendbrushes@@YAXXZ  004a2ad0 f   blend.obj
 0001:000a1b50       ?cleanupblendmap@@YAXXZ    004a2b50 f   blend.obj
 0001:000a1b90       ?moveblendmap@@YAXHH@Z     004a2b90 f   blend.obj
 0001:000a1c10       ?moveblendmap@@YAXEAAUBlendMapNode@@HHHHH@Z 004a2c10 f   blend.obj
 0001:000a1d00       ?shrinkblendmap@@YAXH@Z    004a2d00 f   blend.obj
 0001:000a1d10       ?enlargeblendmap@@YAXXZ    004a2d10 f   blend.obj
 0001:000a1d70       ?resetblendmap@@YAXXZ      004a2d70 f   blend.obj
 0001:000a1dd0       ?blitblendmap@@YAXPAEHHHHH@Z 004a2dd0 f   blend.obj
 0001:000a21c0       ?var_blendpaintmode@@YAXXZ 004a31c0 f   blend.obj
 0001:000a21e0       ?optimizeblendmap@@YAXXZ   004a31e0 f   blend.obj
 0001:000a2310       ?invertblendmap@@YAXHHHH@Z 004a3310 f   blend.obj
 0001:000a2590       ?fillblendmap@@YAXHHHHE@Z  004a3590 f   blend.obj
 0001:000a28d0       ?lookupblendmap@@YAEPAUBlendMapCache@@ABUvec@@@Z 004a38d0 f   blend.obj
 0001:000a2ae0       ?setblendmaporigin@@YA_NPAUBlendMapCache@@ABUivec@@H@Z 004a3ae0 f   blend.obj
 0001:000a2c70       ?freeblendmapcache@@YAXAAPAUBlendMapCache@@@Z 004a3c70 f   blend.obj
 0001:000a2c90       ?newblendmapcache@@YAPAUBlendMapCache@@XZ 004a3c90 f   blend.obj
 0001:000a2cf0       ?shrink@BlendMapBranch@@QAEEAAUBlendMapNode@@H@Z 004a3cf0 f   blend.obj
 0001:000a2d20       ?splitsolid@BlendMapNode@@QAEXAAEE@Z 004a3d20 f   blend.obj
 0001:000a2db0       ?cleanup@BlendMapNode@@QAEXH@Z 004a3db0 f   blend.obj
 0001:000a2df0       ?importcube@@YAXPAD@Z      004a3df0 f   cubeloader.obj
 0001:000a3020       ?dumplms@@YAXXZ            004a4020 f   lightmap.obj
 0001:000a31b0       ?brightestlight@@YAPAUentity@@ABUvec@@0@Z 004a41b0 f   lightmap.obj
 0001:000a3560       ?lightreaching@@YAXABUvec@@AAU1@1_NPAUextentity@@M@Z 004a4560 f   lightmap.obj
 0001:000a41f0       ?initlights@@YAXXZ         004a51f0 f   lightmap.obj
 0001:000a4260       ?lightents@@YAX_N@Z        004a5260 f   lightmap.obj
 0001:000a4360       ?lightent@@YAXAAUextentity@@M@Z 004a5360 f   lightmap.obj
 0001:000a4420       ?genlightmaptexs@@YAXHH@Z  004a5420 f   lightmap.obj
 0001:000a48f0       ?var_batchlightmaps@@YAXXZ 004a58f0 f   lightmap.obj
 0001:000a4990       ?var_roundlightmaptex@@YAXXZ 004a5990 f   lightmap.obj
 0001:000a4b70       ?genreservedlightmaptexs@@YAXXZ 004a5b70 f   lightmap.obj
 0001:000a5110       ?var_convertlms@@YAXXZ     004a6110 f   lightmap.obj
 0001:000a5320       ?fixrotatedlightmaps@@YAXXZ 004a6320 f   lightmap.obj
 0001:000a5380       ?fixrotatedlightmaps@@YAXAAUcube@@ABUivec@@H@Z 004a6380 f   lightmap.obj
 0001:000a5730       ?fixlightmapnormals@@YAXXZ 004a6730 f   lightmap.obj
 0001:000a59f0       ?var_fullbrightlevel@@YAXXZ 004a69f0 f   lightmap.obj
 0001:000a5a00       ?var_fullbright@@YAXXZ     004a6a00 f   lightmap.obj
 0001:000a5a20       ?setfullbrightlevel@@YAXH@Z 004a6a20 f   lightmap.obj
 0001:000a5b30       ?clearlightmaps@@YAXXZ     004a6b30 f   lightmap.obj
 0001:000a5c30       ?patchlight@@YAXPAH@Z      004a6c30 f   lightmap.obj
 0001:000a6100       ?calclight@@YAXPAH@Z       004a7100 f   lightmap.obj
 0001:000a6a00       ?setlightmapquality@@YA_NH@Z 004a7a00 f   lightmap.obj
 0001:000a6a90       ?setupthread@lightmapworker@@QAE_NXZ 004a7a90 f   lightmap.obj
 0001:000a6ad0       ?reset@lightmapworker@@QAEXXZ 004a7ad0 f   lightmap.obj
 0001:000a6b30       ?cleanupthread@lightmapworker@@QAEXXZ 004a7b30 f   lightmap.obj
 0001:000a6b60       ??1lightmapworker@@QAE@XZ  004a7b60 f   lightmap.obj
 0001:000a6c50       ??0lightmapworker@@QAE@XZ  004a7c50 f   lightmap.obj
 0001:000a6dd0       ?resetlightmaps@@YAX_N@Z   004a7dd0 f   lightmap.obj
 0001:000a6e50       ?cleanuplightmaps@@YAXXZ   004a7e50 f   lightmap.obj
 0001:000a8720       ?work@lightmapworker@@SAHPAX@Z 004a9720 f   lightmap.obj
 0001:000ab7c0       ?checklightcache@@YAABU?$vector@H@@HH@Z 004ac7c0 f   lightmap.obj
 0001:000ab930       ?clearlightcache@@YAXH@Z   004ac930 f   lightmap.obj
 0001:000aba60       ?var_lightcachesize@@YAXXZ 004aca60 f   lightmap.obj
 0001:000b09c0       ?copy@LightMap@@QAEXGGPAEGG@Z 004b19c0 f   lightmap.obj
 0001:000b0a30       ?insert@LightMap@@QAE_NAAG0PAEGG@Z 004b1a30 f   lightmap.obj
 0001:000b0a90       ?insert@PackNode@@QAE_NAAG0GG@Z 004b1a90 f   lightmap.obj
 0001:000b0d00       ?show_calclight_progress@@YAXXZ 004b1d00 f   lightmap.obj
 0001:000b0f80       ?check_calclight_canceled@@YAXXZ 004b1f80 f   lightmap.obj
 0001:000b0fd0       ?setsurface@@YAXAAUcube@@HABUsurfaceinfo@@PBUvertinfo@@H@Z 004b1fd0 f   lightmap.obj
 0001:000b12b0       ?setsurfaces@@YAXAAUcube@@PBUsurfaceinfo@@PBUvertinfo@@H@Z 004b22b0 f   lightmap.obj
 0001:000b1320       ?brightencube@@YAXAAUcube@@@Z 004b2320 f   lightmap.obj
 0001:000b1370       ?setupsunlight@@YAXXZ      004b2370 f   lightmap.obj
 0001:000b1560       ?setsunlightdir@@YAXXZ     004b2560 f   lightmap.obj
 0001:000b16c0       ?var_sunlightpitch@@YAXXZ  004b26c0 f   lightmap.obj
 0001:000b16d0       ?var_sunlightyaw@@YAXXZ    004b26d0 f   lightmap.obj
 0001:000b16e0       ?var_sunlightscale@@YAXXZ  004b26e0 f   lightmap.obj
 0001:000b16f0       ?var_sunlight@@YAXXZ       004b26f0 f   lightmap.obj
 0001:000b1740       ?var_skylight@@YAXXZ       004b2740 f   lightmap.obj
 0001:000b1790       ?var_ambient@@YAXXZ        004b2790 f   lightmap.obj
 0001:000b17e0       ?clearlights@@YAXXZ        004b27e0 f   lightmap.obj
 0001:000b18a0       ?previewblends@@YAXABUivec@@0@Z 004b28a0 f   lightmap.obj
 0001:000b1ab0       ?updatelerpbounds@@YAXMPBUlerpvert@@HAAUlerpbounds@@1@Z 004b2ab0 f   normal.obj
 0001:000b1b80       ?setlerpstep@@YAXMAAUlerpbounds@@@Z 004b2b80 f   normal.obj
 0001:000b1dd0       ?addnormals@@YAXAAUcube@@ABUivec@@H@Z 004b2dd0 f   normal.obj
 0001:000b2cd0       ?show_addnormals_progress@@YAXXZ 004b3cd0 f   normal.obj
 0001:000b3440       ?initlerpbounds@@YAXMMPBUlerpvert@@HAAUlerpbounds@@1@Z 004b4440 f   normal.obj
 0001:000b3590       ?lerpnormal@@YAXMMPBUlerpvert@@HAAUlerpbounds@@1AAUvec@@2@Z 004b4590 f   normal.obj
 0001:000b3920       ?calclerpverts@@YAXPBUvec2@@PBUvec@@PAUlerpvert@@AAH@Z 004b4920 f   normal.obj
 0001:000b3a50       ?findnormal@@YAXABUvec@@0AAU1@@Z 004b4a50 f   normal.obj
 0001:000b3ab0       ?calcnormals@@YAX_N@Z      004b4ab0 f   normal.obj
 0001:000b3b70       ?clearnormals@@YAXXZ       004b4b70 f   normal.obj
 0001:000b41f0       ?calcmerges@@YAXXZ         004b51f0 f   octa.obj
 0001:000b42d0       ?genmerges@@YAXPAUcube@@ABUivec@@H@Z 004b52d0 f   octa.obj
 0001:000b4680       ?mergepolys@@YAXHABUivec@@0HAAU?$vector@Upoly@@@@@Z 004b5680 f   octa.obj
 0001:000b4960       ?addmerges@@YAXHABUivec@@0HAAU?$vector@Upoly@@@@@Z 004b5960 f   octa.obj
 0001:000b4a20       ?addmerge@@YAXAAUcube@@HABUivec@@1HAAUpoly@@@Z 004b5a20 f   octa.obj
 0001:000b4c80       ?mergepolys@@YA_NHAAU?$hashset@Uplink@@@@AAU?$vector@PAUplink@@@@HAAUpoly@@2ABUpedge@@@Z 004b5c80 f   octa.obj
 0001:000b5010       ?genpoly@@YA_NAAUcube@@HABUivec@@HHAAU2@AAHAAUpoly@@@Z 004b6010 f   octa.obj
 0001:000b5820       ?clippoly@@YA_NAAUpoly@@ABUfacebounds@@@Z 004b6820 f   octa.obj
 0001:000b5ca0       ?mincubeface@@YA_NABUcube@@HABUivec@@HAAUfacebounds@@@Z 004b6ca0 f   octa.obj
 0001:000b5d80       ?mincubeface@@YAXABUcube@@HABUivec@@HABUfacebounds@@AAU3@GG@Z 004b6d80 f   octa.obj
 0001:000b6200       ?mergefaces@@YAHHPAUfacebounds@@H@Z 004b7200 f   octa.obj
 0001:000b63a0       ?genclipplanes@@YAXABUcube@@HHHHAAUclipplanes@@_N@Z 004b73a0 f   octa.obj
 0001:000b6f70       ?calcvert@@YAXABUcube@@HHHHAAUvec@@H_N@Z 004b7f70 f   octa.obj
 0001:000b6ff0       ?classifyface@@YAHABUcube@@HHHHH@Z 004b7ff0 f   octa.obj
 0001:000b7330       ?visibleface@@YA_NABUcube@@HHHHHGGG@Z 004b8330 f   octa.obj
 0001:000b7980       ?collapsedface@@YA_NABUcube@@H@Z 004b8980 f   octa.obj
 0001:000b8bd0       ?faceedges@@YAIABUcube@@H@Z 004b9bd0 f   octa.obj
 0001:000b8c70       ?faceconvexity@@YAHABUcube@@H@Z 004b9c70 f   octa.obj
 0001:000b8cc0       ?faceconvexity@@YAHQBUivec@@AAH@Z 004b9cc0 f   octa.obj
 0001:000b8e10       ?notouchingface@@YA_NABUcube@@H@Z 004b9e10 f   octa.obj
 0001:000b8e40       ?touchingface@@YA_NABUcube@@H@Z 004b9e40 f   octa.obj
 0001:000b8e70       ?collideface@@YA_NABUcube@@H@Z 004b9e70 f   octa.obj
 0001:000b8f20       ?edgespan2vectorcube@@YAXAAUcube@@@Z 004b9f20 f   octa.obj
 0001:000b9520       ?genvertp@@YAXAAUcube@@AAUivec@@11AAUplane@@_N@Z 004ba520 f   octa.obj
 0001:000b9840       ?remip_@@YAXXZ             004ba840 f   octa.obj
 0001:000b98e0       ?remip@@YA_NAAUcube@@HHHH@Z 004ba8e0 f   octa.obj
 0001:000b9ea0       ?visibleorient@@YAHABUcube@@H@Z 004baea0 f   octa.obj
 0001:000b9f50       ?crushededge@@YA_NEH@Z     004baf50 f   octa.obj
 0001:000b9f70       ?subdividecube@@YA_NAAUcube@@_N1@Z 004baf70 f   octa.obj
 0001:000ba7f0       ?forcemip@@YAXAAUcube@@_N@Z 004bb7f0 f   octa.obj
 0001:000ba940       ?getmippedtexture@@YAHABUcube@@H@Z 004bb940 f   octa.obj
 0001:000baa70       ?neighbourcube@@YAABUcube@@ABU1@HHHHHAAUivec@@AAH@Z 004bba70 f   octa.obj
 0001:000babd0       ?lookupmaterial@@YAHABUvec@@@Z 004bbbd0 f   octa.obj
 0001:000bac70       ?validatec@@YAXPAUcube@@H@Z 004bbc70 f   octa.obj
 0001:000bad50       ?isvalidcube@@YA_NABUcube@@@Z 004bbd50 f   octa.obj
 0001:000baee0       ?printcube@@YAXXZ          004bbee0 f   octa.obj
 0001:000baf60       ?optiface@@YAXPAEAAUcube@@@Z 004bbf60 f   octa.obj
 0001:000bb0b0       ?setcubevector@@YAXAAUcube@@HHHHABUivec@@@Z 004bc0b0 f   octa.obj
 0001:000bb1a0       ?getcubevector@@YAXAAUcube@@HHHHAAUivec@@@Z 004bc1a0 f   octa.obj
 0001:000bb240       ?discardchildren@@YAXAAUcube@@_NH@Z 004bc240 f   octa.obj
 0001:000bb320       ?freecubeext@@YAXAAUcube@@@Z 004bc320 f   octa.obj
 0001:000bb340       ?familysize@@YAHABUcube@@@Z 004bc340 f   octa.obj
 0001:000bb370       ?newcubeext@@YAPAUcubeext@@AAUcube@@H_N@Z 004bc370 f   octa.obj
 0001:000bb470       ?growcubeext@@YAPAUcubeext@@PAU1@H@Z 004bc470 f   octa.obj
 0001:000bb4d0       ?setcubeext@@YAXAAUcube@@PAUcubeext@@@Z 004bc4d0 f   octa.obj
 0001:000bb4f0       ?calcmergedsize@@YAHHABUivec@@HPBUvertinfo@@H@Z 004bc4f0 f   octa.obj
 0001:000bb6c0       ?flataxisface@@YA_NABUcube@@H@Z 004bc6c0 f   octa.obj
 0001:000bb6f0       ?faceconvexity@@YAHPBUvertinfo@@HH@Z 004bc6f0 f   octa.obj
 0001:000bb850       ?genfaceverts@@YAXABUcube@@HQAUivec@@@Z 004bc850 f   octa.obj
 0001:000bbcb0       ?faceconvexity@@YAHQBUivec@@@Z 004bccb0 f   octa.obj
 0001:000bbd70       ?visibletris@@YAHABUcube@@HHHHHGG@Z 004bcd70 f   octa.obj
 0001:000bc2f0       ?invalidatemerges@@YAXAAUcube@@ABUivec@@H_N@Z 004bd2f0 f   octa.obj
 0001:000bc330       ?lookupcube@@YAAAUcube@@HHHHAAUivec@@AAH@Z 004bd330 f   octa.obj
 0001:000bc4a0       ?mpremip@@YAX_N@Z          004bd4a0 f   octa.obj
 0001:000bc660       ?freeocta@@YAXPAUcube@@@Z  004bd660 f   octa.obj
 0001:000bc720       ?newcubes@@YAPAUcube@@IH@Z 004bd720 f   octa.obj
 0001:000bd120       ?rendertexturepanel@@YAXHH@Z 004be120 f   octaedit.obj
 0001:000bda40       ?showtexgui@@YAXPAH@Z      004bea40 f   octaedit.obj
 0001:000bda90       ?g3d_texturemenu@@YAXXZ    004bea90 f   octaedit.obj
 0001:000bdaa0       ?editmat@@YAXPAD0@Z        004beaa0 f   octaedit.obj
 0001:000bdc60       ?mpeditmat@@YAXHHAAUselinfo@@_N@Z 004bec60 f   octaedit.obj
 0001:000bdef0       ?setmat@@YAXAAUcube@@GGGGH@Z 004beef0 f   octaedit.obj
 0001:000bdfd0       ?rotate@@YAXPAH@Z          004befd0 f   octaedit.obj
 0001:000be0f0       ?mprotate@@YAXHAAUselinfo@@_N@Z 004bf0f0 f   octaedit.obj
 0001:000be4e0       ?flip@@YAXXZ               004bf4e0 f   octaedit.obj
 0001:000be5f0       ?mpflip@@YAXAAUselinfo@@_N@Z 004bf5f0 f   octaedit.obj
 0001:000be8d0       ?rotatecube@@YAXAAUcube@@H@Z 004bf8d0 f   octaedit.obj
 0001:000beb10       ?rotatequad@@YAXAAUcube@@000@Z 004bfb10 f   octaedit.obj
 0001:000bebd0       ?flipcube@@YAXAAUcube@@H@Z 004bfbd0 f   octaedit.obj
 0001:000bf090       ?mflip@@YAII@Z             004c0090 f   octaedit.obj
 0001:000bf0b0       ?rflip@@YAII@Z             004c00b0 f   octaedit.obj
 0001:000bf0c0       ?cflip@@YAII@Z             004c00c0 f   octaedit.obj
 0001:000bf0e0       ?dflip@@YAII@Z             004c00e0 f   octaedit.obj
 0001:000bf110       ?run@?$_icmd_replacesel@$0HLI@@@SAXXZ 004c0110 f   octaedit.obj
 0001:000bf120       ?run@?$_icmd_replace@$0HLH@@@SAXXZ 004c0120 f   octaedit.obj
 0001:000bf130       ?replace@@YAX_N@Z          004c0130 f   octaedit.obj
 0001:000bf270       ?mpreplacetex@@YAXHH_NAAUselinfo@@0@Z 004c0270 f   octaedit.obj
 0001:000bf5e0       ?replacetexcube@@YAXAAUcube@@HH@Z 004c05e0 f   octaedit.obj
 0001:000bf630       ?run@?$_icmd_getreptex@$0HJJ@@@SAXXZ 004c0630 f   octaedit.obj
 0001:000bf760       ?gettexname@@YAXPAH0@Z     004c0760 f   octaedit.obj
 0001:000bf7e0       ?getseltex@@YAXXZ          004c07e0 f   octaedit.obj
 0001:000bf850       ?getcurtex@@YAXXZ          004c0850 f   octaedit.obj
 0001:000bf8a0       ?gettex@@YAXXZ             004c08a0 f   octaedit.obj
 0001:000bfa70       ?edittex_@@YAXPAH@Z        004c0a70 f   octaedit.obj
 0001:000bfc60       ?edittex@@YAXH_N@Z         004c0c60 f   octaedit.obj
 0001:000bfcc0       ?compactmruvslots@@YAXXZ   004c0cc0 f   octaedit.obj
 0001:000bfdd0       ?filltexlist@@YAXXZ        004c0dd0 f   octaedit.obj
 0001:000bfed0       ?mpedittex@@YAXHHAAUselinfo@@_N@Z 004c0ed0 f   octaedit.obj
 0001:000c00e0       ?vshaderparam@@YAXPBDPAM111@Z 004c10e0 f   octaedit.obj
 0001:000c0360       ?vreset@@YAXXZ             004c1360 f   octaedit.obj
 0001:000c0570       ?vcolor@@YAXPAM00@Z        004c1570 f   octaedit.obj
 0001:000c0810       ?valpha@@YAXPAM0@Z         004c1810 f   octaedit.obj
 0001:000c0a80       ?vlayer@@YAXPAH@Z          004c1a80 f   octaedit.obj
 0001:000c0cb0       ?vscale@@YAXPAM@Z          004c1cb0 f   octaedit.obj
 0001:000c0f20       ?vscroll@@YAXPAM0@Z        004c1f20 f   octaedit.obj
 0001:000c1170       ?voffset@@YAXPAH0@Z        004c2170 f   octaedit.obj
 0001:000c13c0       ?vrotate@@YAXPAH@Z         004c23c0 f   octaedit.obj
 0001:000c1600       ?vdelta@@YAXPAD@Z          004c2600 f   octaedit.obj
 0001:000c1750       ?mpeditvslot@@YAXAAUVSlot@@HAAUselinfo@@_N@Z 004c2750 f   octaedit.obj
 0001:000c1a80       ?edittexcube@@YAXAAUcube@@HHAA_N@Z 004c2a80 f   octaedit.obj
 0001:000c1ee0       ?tofronttex@@YAXXZ         004c2ee0 f   octaedit.obj
 0001:000c1f10       ?delcube@@YAXXZ            004c2f10 f   octaedit.obj
 0001:000c2020       ?mpdelcube@@YAXAAUselinfo@@_N@Z 004c3020 f   octaedit.obj
 0001:000c21f0       ?pushsel@@YAXPAH@Z         004c31f0 f   octaedit.obj
 0001:000c22a0       ?editface@@YAXPAH0@Z       004c32a0 f   octaedit.obj
 0001:000c2330       ?mpeditface@@YAXHHAAUselinfo@@_N@Z 004c3330 f   octaedit.obj
 0001:000c2950       ?linkedpush@@YAXAAUcube@@HHHHH@Z 004c3950 f   octaedit.obj
 0001:000c2a70       ?pushedge@@YAXAAEHH@Z      004c3a70 f   octaedit.obj
 0001:000c2b10       ?bounded@@YAHH@Z           004c3b10 f   octaedit.obj
 0001:000c2b30       ?edithmap@@YAXHH@Z         004c3b30 f   octaedit.obj
 0001:000c2b70       ?run@hmap@@YAXHH@Z         004c3b70 f   octaedit.obj
 0001:000c2fe0       ?rippleandset@hmap@@YAXXZ  004c3fe0 f   octaedit.obj
 0001:000c3040       ?smooth@hmap@@YAXXZ        004c4040 f   octaedit.obj
 0001:000c3130       ?paint@hmap@@YAXXZ         004c4130 f   octaedit.obj
 0001:000c31b0       ?ripple@hmap@@YAXHHH_N@Z   004c41b0 f   octaedit.obj
 0001:000c39a0       ?select@hmap@@YAXHHH@Z     004c49a0 f   octaedit.obj
 0001:000c3e10       ?addpoint@hmap@@YAXHHHH@Z  004c4e10 f   octaedit.obj
 0001:000c3e40       ?pushside@hmap@@YAXAAUcube@@HHHH@Z 004c4e40 f   octaedit.obj
 0001:000c3eb0       ?getface@hmap@@YAIPAUcube@@H@Z 004c4eb0 f   octaedit.obj
 0001:000c3ef0       ?getcube@hmap@@YAPAUcube@@Uivec@@H@Z 004c4ef0 f   octaedit.obj
 0001:000c4020       ?run@?$_icmd_hmapselect@$0EGC@@@SAXXZ 004c5020 f   octaedit.obj
 0001:000c40f0       ?run@?$_icmd_hmapcancel@$0EFK@@@SAXXZ 004c50f0 f   octaedit.obj
 0001:000c4100       ?brushvert@@YAXPAH00@Z     004c5100 f   octaedit.obj
 0001:000c4210       ?clearbrush@@YAXXZ         004c5210 f   octaedit.obj
 0001:000c4260       ?compacteditvslots@@YAXXZ  004c5260 f   octaedit.obj
 0001:000c4310       ?paste@@YAXXZ              004c5310 f   octaedit.obj
 0001:000c4430       ?pastehilite@@YAXXZ        004c5430 f   octaedit.obj
 0001:000c44b0       ?copy@@YAXXZ               004c54b0 f   octaedit.obj
 0001:000c44e0       ?mppaste@@YAXAAPAUeditinfo@@AAUselinfo@@_N@Z 004c54e0 f   octaedit.obj
 0001:000c45b0       ?mpcopy@@YAXAAPAUeditinfo@@AAUselinfo@@_N@Z 004c55b0 f   octaedit.obj
 0001:000c47d0       ?pastebrush@@YAXPAD@Z      004c57d0 f   octaedit.obj
 0001:000c4b60       ?pasteblock@@YAXAAUblock3@@AAUselinfo@@_N@Z 004c5b60 f   octaedit.obj
 0001:000c4d10       ?savebrush@@YAXPAD@Z       004c5d10 f   octaedit.obj
 0001:000c5000       ?delbrush@@YAXPAD@Z        004c6000 f   octaedit.obj
 0001:000c5060       ?freeeditinfo@@YAXAAPAUeditinfo@@@Z 004c6060 f   octaedit.obj
 0001:000c50a0       ?unpackeditinfo@@YA_NAAPAUeditinfo@@PBEHH@Z 004c60a0 f   octaedit.obj
 0001:000c51b0       ?packeditinfo@@YA_NPAUeditinfo@@AAHAAPAE1@Z 004c61b0 f   octaedit.obj
 0001:000c5380       ?editredo@@YAXXZ           004c6380 f   octaedit.obj
 0001:000c53a0       ?editundo@@YAXXZ           004c63a0 f   octaedit.obj
 0001:000c53c0       ?swapundo@@YAXAAUundolist@@0PBD@Z 004c63c0 f   octaedit.obj
 0001:000c56d0       ?makeundo@@YAXXZ           004c66d0 f   octaedit.obj
 0001:000c5790       ?makeundoex@@YAXAAUselinfo@@@Z 004c6790 f   octaedit.obj
 0001:000c57c0       ?addundo@@YAXPAUundoblock@@@Z 004c67c0 f   octaedit.obj
 0001:000c5820       ?newundocube@@YAPAUundoblock@@AAUselinfo@@@Z 004c6820 f   octaedit.obj
 0001:000c58e0       ?clearundos@@YAXXZ         004c68e0 f   octaedit.obj
 0001:000c58f0       ?pruneundos@@YAXH@Z        004c68f0 f   octaedit.obj
 0001:000c5a30       ?pasteundo@@YAXPAUundoblock@@@Z 004c6a30 f   octaedit.obj
 0001:000c5b40       ?freeundo@@YAXPAUundoblock@@@Z 004c6b40 f   octaedit.obj
 0001:000c5b60       ?selgridmap@@YAXAAUselinfo@@PAH@Z 004c6b60 f   octaedit.obj
 0001:000c5c70       ?freeblock@@YAXPAUblock3@@_N@Z 004c6c70 f   octaedit.obj
 0001:000c5d50       ?blockcopy@@YAPAUblock3@@ABU1@H@Z 004c6d50 f   octaedit.obj
 0001:000c5db0       ?blockcopy@@YAXABUblock3@@HPAU1@@Z 004c6db0 f   octaedit.obj
 0001:000c5f30       ?changed@@YAXABUblock3@@_N@Z 004c6f30 f   octaedit.obj
 0001:000c6080       ?readychanges@@YAXAAUblock3@@PAUcube@@ABUivec@@H@Z 004c7080 f   octaedit.obj
 0001:000c6210       ?tryedit@@YAXXZ            004c7210 f   octaedit.obj
 0001:000c6240       ?rendereditcursor@@YAXXZ   004c7240 f   octaedit.obj
 0001:000c74d0       ?editmoveplane@@YAXABUvec@@0HMAAU1@1_N@Z 004c84d0 f   octaedit.obj
 0001:000c7660       ?updateselection@@YAXXZ    004c8660 f   octaedit.obj
 0001:000c76f0       ?normalizelookupcube@@YAXHHH@Z 004c86f0 f   octaedit.obj
 0001:000c7780       ?countselchild@@YAXPAUcube@@ABUivec@@H@Z 004c8780 f   octaedit.obj
 0001:000c7890       ?run@?$_icmd_havesel@$0NI@@@SAXXZ 004c8890 f   octaedit.obj
 0001:000c78b0       ?blockcube@@YAAAUcube@@HHHABUblock3@@H@Z 004c88b0 f   octaedit.obj
 0001:000c7960       ?run@?$_icmd_edittoggle@$0LN@@@SAXXZ 004c8960 f   octaedit.obj
 0001:000c7970       ?selextend@@YAXXZ          004c8970 f   octaedit.obj
 0001:000c7a50       ?reorient@@YAXXZ           004c8a50 f   octaedit.obj
 0001:000c7aa0       ?toggleedit@@YAX_N@Z       004c8aa0 f   octaedit.obj
 0001:000c7be0       ?cancelsel@@YAXXZ          004c8be0 f   octaedit.obj
 0001:000c7c30       ?cubecancel@@YAXXZ         004c8c30 f   octaedit.obj
 0001:000c7c70       ?forcenextundo@@YAXXZ      004c8c70 f   octaedit.obj
 0001:000c7c80       ?var_hmapedit@@YAXXZ       004c8c80 f   octaedit.obj
 0001:000c7c90       ?var_gridpower@@YAXXZ      004c8c90 f   octaedit.obj
 0001:000c7d10       ?var_moving@@YAXXZ         004c8d10 f   octaedit.obj
 0001:000c7e00       ?var_dragging@@YAXXZ       004c8e00 f   octaedit.obj
 0001:000c7e60       ?boxsgrid@@YAXHUvec@@0H@Z  004c8e60 f   octaedit.obj
 0001:000c8050       ?boxs3D@@YAXABUvec@@U1@H@Z 004c9050 f   octaedit.obj
 0001:000c80c0       ?boxs@@YAXHUvec@@ABU1@@Z   004c90c0 f   octaedit.obj
 0001:000c81a0       ?commitchanges@@YAX_N@Z    004c91a0 f   octaedit.obj
 0001:000c8220       ?noedit@@YA_N_N0@Z         004c9220 f   octaedit.obj
 0001:000c8920       ?recalc@@YAXXZ             004c9920 f   octarender.obj
 0001:000c8930       ?precachetextures@@YAXXZ   004c9930 f   octarender.obj
 0001:000c8b00       ?findtjoints@@YAXHABUedgegroup@@@Z 004c9b00 f   octarender.obj
 0001:000c8c70       ?addtjoint@@YAXABUedgegroup@@ABUcubeedge@@H@Z 004c9c70 f   octarender.obj
 0001:000c8d50       ?updateva@@YAHPAUcube@@HHHHH@Z 004c9d50 f   octarender.obj
 0001:000c9170       ?var_vacubesize@@YAXXZ     004ca170 f   octarender.obj
 0001:000c9210       ?var_vafacemin@@YAXXZ      004ca210 f   octarender.obj
 0001:000c92b0       ?var_vafacemax@@YAXXZ      004ca2b0 f   octarender.obj
 0001:000c9470       ?setva@@YAXAAUcube@@HHHHH@Z 004ca470 f   octarender.obj
 0001:000c97b0       ?calcmatbb@@YAXHHHHAAUivec@@0@Z 004ca7b0 f   octarender.obj
 0001:000c98f0       ?calcgeombb@@YAXHHHHAAUivec@@0@Z 004ca8f0 f   octarender.obj
 0001:000c9a50       ?rendercube@@YAXAAUcube@@HHHHHAAH@Z 004caa50 f   octarender.obj
 0001:000c9ce0       ?addmergedverts@@YAXHABUivec@@@Z 004cace0 f   octarender.obj
 0001:000c9f10       ?findmergedfaces@@YAHAAUcube@@ABUivec@@HHH@Z 004caf10 f   octarender.obj
 0001:000ca020       ?genmergedfaces@@YAHAAUcube@@ABUivec@@HH@Z 004cb020 f   octarender.obj
 0001:000ca300       ?updatevabb@@YAXPAUvtxarray@@_N@Z 004cb300 f   octarender.obj
 0001:000ca600       ?clearvas@@YAXPAUcube@@@Z  004cb600 f   octarender.obj
 0001:000ca6f0       ?newva@@YAPAUvtxarray@@HHHH@Z 004cb6f0 f   octarender.obj
 0001:000ca8b0       ?addskyverts@@YAXABUivec@@H@Z 004cb8b0 f   octarender.obj
 0001:000cad20       ?genskyfaces@@YAXAAUcube@@ABUivec@@H@Z 004cbd20 f   octarender.obj
 0001:000cae70       ?minskyface@@YAXAAUcube@@HABUivec@@HAAUfacebounds@@@Z 004cbe70 f   octarender.obj
 0001:000cb130       ?gencubeverts@@YAXAAUcube@@HHHHH@Z 004cc130 f   octarender.obj
 0001:000cb9f0       ?gencubeedges@@YAXPAUcube@@HHHH@Z 004cc9f0 f   octarender.obj
 0001:000cbae0       ?gencubeedges@@YAXAAUcube@@HHHH@Z 004ccae0 f   octarender.obj
 0001:000cc220       ?addcubeverts@@YAXAAUVSlot@@HHPAUvec@@HGGPAUvertinfo@@HHGH_NH@Z 004cd220 f   octarender.obj
 0001:000ccc90       ?decodenormal@@YA?AUvec@@G@Z 004cdc90 f   octarender.obj
 0001:000ccea0       ?addgrasstri@@YAXHPAUvertex@@HGG@Z 004cdea0 f   octarender.obj
 0001:000cd630       ?addtris@@YAXABUsortkey@@HPAUvertex@@PAHHHHH@Z 004ce630 f   octarender.obj
 0001:000cdd50       ?var_filltjoints@@YAXXZ    004ced50 f   octarender.obj
 0001:000cddf0       ?calcshadowmask@@YAHPAUvec@@H@Z 004cedf0 f   octarender.obj
 0001:000ce0d0       ?addvbo@@YAPAEPAUvtxarray@@HHH@Z 004cf0d0 f   octarender.obj
 0001:000ce140       ?flushvbo@@YAXH@Z          004cf140 f   octarender.obj
 0001:000ce1b0       ?readva@@YA_NPAUvtxarray@@AAPAGAAPAE@Z 004cf1b0 f   octarender.obj
 0001:000ce2d0       ?genvbo@@YAXHPAXHPAPAUvtxarray@@H@Z 004cf2d0 f   octarender.obj
 0001:000ce440       ?destroyvbo@@YAXI@Z        004cf440 f   octarender.obj
 0001:000ce4c0       ?var_vbosize@@YAXXZ        004cf4c0 f   octarender.obj
 0001:000ce560       ?octarender@@YAXXZ         004cf560 f   octarender.obj
 0001:000ce6a0       ?updatevabbs@@YAX_N@Z      004cf6a0 f   octarender.obj
 0001:000ce9e0       ?reduceslope@@YAXAAUivec@@@Z 004cf9e0 f   octarender.obj
 0001:000ceaa0       ?findtjoints@@YAXXZ        004cfaa0 f   octarender.obj
 0001:000ceb80       ?encodenormal@@YAGABUvec@@@Z 004cfb80 f   octarender.obj
 0001:000cec40       ?destroyva@@YAXPAUvtxarray@@_N@Z 004cfc40 f   octarender.obj
 0001:000ced50       ?allchanged@@YAX_N@Z       004cfd50 f   octarender.obj
 0001:000d4070       ?run@?$_icmd_attack@$0ICP@@@SAXPAH@Z 004d5070 f   physics.obj
 0001:000d40a0       ?run@?$_icmd_jump@$0ICO@@@SAXPAH@Z 004d50a0 f   physics.obj
 0001:000d40e0       ?run@?$_icmd_right@$0ICM@@@SAXPAH@Z 004d50e0 f   physics.obj
 0001:000d4110       ?run@?$_icmd_left@$0ICL@@@SAXPAH@Z 004d5110 f   physics.obj
 0001:000d4140       ?run@?$_icmd_forward@$0ICK@@@SAXPAH@Z 004d5140 f   physics.obj
 0001:000d4170       ?run@?$_icmd_backward@$0ICJ@@@SAXPAH@Z 004d5170 f   physics.obj
 0001:000d41a0       ?moveplatform@@YA_NPAUphysent@@ABUvec@@@Z 004d51a0 f   physics.obj
 0001:000d5010       ?platformcollide@@YA_NPAUphysent@@0ABUvec@@M@Z 004d6010 f   physics.obj
 0001:000d50c0       ?updatephysstate@@YAXPAUphysent@@@Z 004d60c0 f   physics.obj
 0001:000d5270       ?bounce@@YA_NPAUphysent@@MMM@Z 004d6270 f   physics.obj
 0001:000d5410       ?moveplayer@@YAXPAUphysent@@H_N@Z 004d6410 f   physics.obj
 0001:000d54f0       ?interppos@@YAXPAUphysent@@@Z 004d64f0 f   physics.obj
 0001:000d55a0       ?physicsframe@@YAXXZ       004d65a0 f   physics.obj
 0001:000d5620       ?moveplayer@@YA_NPAUphysent@@H_NH@Z 004d6620 f   physics.obj
 0001:000d5ad0       ?modifygravity@@YAXPAUphysent@@_NH@Z 004d6ad0 f   physics.obj
 0001:000d5d00       ?modifyvelocity@@YAXPAUphysent@@_N11H@Z 004d6d00 f   physics.obj
 0001:000d6100       ?vectoyawpitch@@YAXABUvec@@AAM1@Z 004d7100 f   physics.obj
 0001:000d6180       ?vecfromyawpitch@@YAXMMHHAAUvec@@@Z 004d7180 f   physics.obj
 0001:000d62d0       ?phystest@@YAXXZ           004d72d0 f   physics.obj
 0001:000d6420       ?dropheight@@YAMAAUentity@@@Z 004d7420 f   physics.obj
 0001:000d64a0       ?droptofloor@@YA_NAAUvec@@MM@Z 004d74a0 f   physics.obj
 0001:000d66e0       ?movecamera@@YA_NPAUphysent@@ABUvec@@MM@Z 004d76e0 f   physics.obj
 0001:000d68a0       ?avoidcollision@@YAXPAUphysent@@ABUvec@@0M@Z 004d78a0 f   physics.obj
 0001:000d6aa0       ?bounce@@YA_NPAUphysent@@MMMM@Z 004d7aa0 f   physics.obj
 0001:000d6f20       ?move@@YA_NPAUphysent@@AAUvec@@@Z 004d7f20 f   physics.obj
 0001:000d7430       ?findfloor@@YA_NPAUphysent@@_NABUvec@@AA_NAAU2@@Z 004d8430 f   physics.obj
 0001:000d76f0       ?landing@@YAXPAUphysent@@AAUvec@@ABU2@_N@Z 004d86f0 f   physics.obj
 0001:000d7750       ?falling@@YAXPAUphysent@@AAUvec@@ABU2@@Z 004d8750 f   physics.obj
 0001:000d7850       ?trystepdown@@YA_NPAUphysent@@AAUvec@@_N@Z 004d8850 f   physics.obj
 0001:000d7950       ?trystepdown@@YA_NPAUphysent@@AAUvec@@MMM_N@Z 004d8950 f   physics.obj
 0001:000d7db0       ?trystepup@@YA_NPAUphysent@@AAUvec@@ABU2@M2@Z 004d8db0 f   physics.obj
 0001:000d8490       ?switchfloor@@YAXPAUphysent@@AAUvec@@ABU2@@Z 004d9490 f   physics.obj
 0001:000d8820       ?slideagainst@@YAXPAUphysent@@AAUvec@@ABU2@_N3@Z 004d9820 f   physics.obj
 0001:000d8ad0       ?recalcdir@@YAXPAUphysent@@ABUvec@@AAU2@@Z 004d9ad0 f   physics.obj
 0001:000d8bb0       ?collide@@YA_NPAUphysent@@ABUvec@@M_N@Z 004d9bb0 f   physics.obj
 0001:000d92d0       ?mmcollide@@YA_NPAUphysent@@ABUvec@@AAUoctaentities@@@Z 004da2d0 f   physics.obj
 0001:000d9490       ?rotatebb@@YAXAAUvec@@0H@Z 004da490 f   physics.obj
 0001:000d95d0       ?plcollide@@YA_NPAUphysent@@ABUvec@@@Z 004da5d0 f   physics.obj
 0001:000d98f0       ?overlapsdynent@@YA_NABUvec@@M@Z 004da8f0 f   physics.obj
 0001:000d9a70       ?updatedynentcache@@YAXPAUphysent@@@Z 004daa70 f   physics.obj
 0001:000d9bb0       ?checkdynentcache@@YAABU?$vector@PAUphysent@@@@HH@Z 004dabb0 f   physics.obj
 0001:000d9d90       ?var_dynentsize@@YAXXZ     004dad90 f   physics.obj
 0001:000d9da0       ?cleardynentcache@@YAXXZ   004dada0 f   physics.obj
 0001:000d9df0       ?rectcollide@@YA_NPAUphysent@@ABUvec@@1MMMME@Z 004dadf0 f   physics.obj
 0001:000da190       ?ellipsecollide@@YA_NPAUphysent@@ABUvec@@11MMMMM@Z 004db190 f   physics.obj
 0001:000da5c0       ?ellipserectcollide@@YA_NPAUphysent@@ABUvec@@11MMMMM@Z 004db5c0 f   physics.obj
 0001:000daaa0       ?rayfloor@@YAMABUvec@@AAU1@HM@Z 004dbaa0 f   physics.obj
 0001:000dab50       ?raycubelos@@YA_NABUvec@@0AAU1@@Z 004dbb50 f   physics.obj
 0001:000daca0       ?raycubepos@@YAMABUvec@@0AAU1@MHH@Z 004dbca0 f   physics.obj
 0001:000dad40       ?raycube@@YAMABUvec@@0MHHPAUextentity@@@Z 004dbd40 f   physics.obj
 0001:000dbd00       ?entinmap@@YA_NPAUdynent@@_N@Z 004dcd00 f   physics.obj
 0001:000dc000       ?rayent@@YAMABUvec@@0MHHAAH1@Z 004dd000 f   physics.obj
 0001:000dc0c0       ?resetclipplanes@@YAXXZ    004dd0c0 f   physics.obj
 0001:000dc0f0       ?pointincube@@YA_NABUclipplanes@@ABUvec@@@Z 004dd0f0 f   physics.obj
 0001:000dc1c0       ?shadowray@@YAMPAUShadowRayCache@@ABUvec@@1MHPAUextentity@@@Z 004dd1c0 f   physics.obj
 0001:000dcbe0       ?shadowray@@YAMABUvec@@0MHPAUextentity@@@Z 004ddbe0 f   physics.obj
 0001:000dd590       ?newshadowraycache@@YAPAUShadowRayCache@@XZ 004de590 f   physics.obj
 0001:000dd5f0       ?freeshadowraycache@@YAXAAPAUShadowRayCache@@@Z 004de5f0 f   physics.obj
 0001:000dd610       ?resetshadowraycache@@YAXPAUShadowRayCache@@@Z 004de610 f   physics.obj
 0001:000dd640       ?dropenttofloor@@YAXPAUentity@@@Z 004de640 f   physics.obj
 0001:000dd7d0       ?getnumviewcells@@YAHXZ    004de7d0 f   pvs.obj
 0001:000dd7e0       ?loadpvs@@YAXPAUstream@@H@Z 004de7e0 f   pvs.obj
 0001:000dd920       ?loadviewcells@@YAPAUviewcellnode@@PAUstream@@@Z 004de920 f   pvs.obj
 0001:000dda10       ?savepvs@@YAXPAUstream@@@Z 004dea10 f   pvs.obj
 0001:000ddaf0       ?saveviewcells@@YAXPAUstream@@AAUviewcellnode@@@Z 004deaf0 f   pvs.obj
 0001:000ddb50       ?waterpvsoccluded@@YA_NH@Z 004deb50 f   pvs.obj
 0001:000ddbc0       ?pvsoccluded@@YA_NABUivec@@0@Z 004debc0 f   pvs.obj
 0001:000dde60       ?pvsstats@@YAXXZ           004dee60 f   pvs.obj
 0001:000ddeb0       ?genpvs@@YAXPAH@Z          004deeb0 f   pvs.obj
 0001:000de550       ?testpvs@@YAXPAH@Z         004df550 f   pvs.obj
 0001:000dea10       ?clearpvs@@YAXXZ           004dfa10 f   pvs.obj
 0001:000dea70       ?setviewcell@@YAXABUvec@@@Z 004dfa70 f   pvs.obj
 0001:000deb20       ?var_lockpvs@@YAXXZ        004dfb20 f   pvs.obj
 0001:000dfa90       ?getworldsize@@YAHXZ       004e0a90 f   world.obj
 0001:000dfaa0       ?mpeditent@@YAXHABUvec@@HHHHHH_N@Z 004e0aa0 f   world.obj
 0001:000dfbc0       ?mapname@@YAXXZ            004e0bc0 f   world.obj
 0001:000dfc10       ?mapenlarge@@YAXXZ         004e0c10 f   world.obj
 0001:000dfdf0       ?newmap@@YAXPAH@Z          004e0df0 f   world.obj
 0001:000dfe50       ?shrinkmap@@YAXXZ          004e0e50 f   world.obj
 0001:000e0160       ?enlargemap@@YA_N_N@Z      004e1160 f   world.obj
 0001:000e0330       ?resetmap@@YAXXZ           004e1330 f   world.obj
 0001:000e0410       ?splitocta@@YAXPAUcube@@H@Z 004e1410 f   world.obj
 0001:000e0460       ?findplayerspawn@@YAXPAUdynent@@HH@Z 004e1460 f   world.obj
 0001:000e05b0       ?findentity@@YAHHHHH@Z     004e15b0 f   world.obj
 0001:000e0650       ?entattr@@YAXPAH00@Z       004e1650 f   world.obj
 0001:000e0b10       ?enttype@@YAXPADPAH@Z      004e1b10 f   world.obj
 0001:000e0e80       ?run@?$_icmd_entindex@$0EAF@@@SAXXZ 004e1e80 f   world.obj
 0001:000e0ea0       ?run@?$_icmd_entget@$0EAE@@@SAXXZ 004e1ea0 f   world.obj
 0001:000e0ed0       ?run@?$_icmd_insel@$0EAD@@@SAXXZ 004e1ed0 f   world.obj
 0001:000e0fa0       ?run@?$_icmd_entloop@$0EAC@@@SAXPAI@Z 004e1fa0 f   world.obj
 0001:000e1220       ?run@?$_icmd_entselect@$0EAB@@@SAXPAI@Z 004e2220 f   world.obj
 0001:000e12d0       ?run@?$_icmd_enthavesel@$0EAA@@@SAXXZ 004e22d0 f   world.obj
 0001:000e1330       ?nearestent@@YAXXZ         004e2330 f   world.obj
 0001:000e1460       ?printent@@YAXAAUextentity@@PAD@Z 004e2460 f   world.obj
 0001:000e14d0       ?entset@@YAXPADPAH1111@Z   004e24d0 f   world.obj
 0001:000e18e0       ?entpaste@@YAXXZ           004e28e0 f   world.obj
 0001:000e1cf0       ?entcopy@@YAXXZ            004e2cf0 f   world.obj
 0001:000e1df0       ?newent@@YAXPADPAH1111@Z   004e2df0 f   world.obj
 0001:000e1e60       ?newentity@@YAXHHHHHH@Z    004e2e60 f   world.obj
 0001:000e1f80       ?newentity@@YAPAUextentity@@_NABUvec@@HHHHHHAAH@Z 004e2f80 f   world.obj
 0001:000e21c0       ?attachent@@YAXXZ          004e31c0 f   world.obj
 0001:000e2520       ?dropent@@YAXXZ            004e3520 f   world.obj
 0001:000e2880       ?dropentity@@YA_NAAUentity@@H@Z 004e3880 f   world.obj
 0001:000e2aa0       ?findtype@@YAHPAD@Z        004e3aa0 f   world.obj
 0001:000e2b10       ?delent@@YAXXZ             004e3b10 f   world.obj
 0001:000e2e20       ?entautoview@@YAXPAH@Z     004e3e20 f   world.obj
 0001:000e2fa0       ?entpush@@YAXPAH@Z         004e3fa0 f   world.obj
 0001:000e3510       ?var_entmoving@@YAXXZ      004e4510 f   world.obj
 0001:000e35a0       ?enttoggle@@YA_NH@Z        004e45a0 f   world.obj
 0001:000e3650       ?renderentradius@@YAXAAUextentity@@_N@Z 004e4650 f   world.obj
 0001:000e3a00       ?renderentcone@@YAXABUextentity@@ABUvec@@MM@Z 004e4a00 f   world.obj
 0001:000e3f70       ?renderentarrow@@YAXABUextentity@@ABUvec@@M@Z 004e4f70 f   world.obj
 0001:000e4370       ?renderentattachment@@YAXABUextentity@@@Z 004e5370 f   world.obj
 0001:000e43a0       ?renderentsphere@@YAXABUextentity@@M@Z 004e53a0 f   world.obj
 0001:000e4470       ?renderentring@@YAXABUextentity@@MH@Z 004e5470 f   world.obj
 0001:000e4530       ?entrotate@@YAXPAH@Z       004e5530 f   world.obj
 0001:000e48f0       ?entflip@@YAXXZ            004e58f0 f   world.obj
 0001:000e4b60       ?getselpos@@YA?AUvec@@XZ   004e5b60 f   world.obj
 0001:000e4be0       ?attachentities@@YAXXZ     004e5be0 f   world.obj
 0001:000e4d30       ?attachentity@@YAXAAUextentity@@@Z 004e5d30 f   world.obj
 0001:000e4e30       ?detachentity@@YAXAAUextentity@@@Z 004e5e30 f   world.obj
 0001:000e4e50       ?makeundoent@@YAXXZ        004e5e50 f   world.obj
 0001:000e4e80       ?newundoent@@YAPAUundoblock@@XZ 004e5e80 f   world.obj
 0001:000e4f20       ?entadd@@YAXH@Z            004e5f20 f   world.obj
 0001:000e4f70       ?noentedit@@YA_NXZ         004e5f70 f   world.obj
 0001:000e4fa0       ?var_entediting@@YAXXZ     004e5fa0 f   world.obj
 0001:000e4fd0       ?entname@@YAPADAAUentity@@@Z 004e5fd0 f   world.obj
 0001:000e5010       ?findents@@YAXHH_NABUvec@@1AAU?$vector@H@@@Z 004e6010 f   world.obj
 0001:000e57b0       ?modifyoctaentity@@YAXHHAAUextentity@@PAUcube@@ABUivec@@H22HPAUvtxarray@@@Z 004e67b0 f   world.obj
 0001:000e5cb0       ?getentboundingbox@@YA_NAAUextentity@@AAUivec@@1@Z 004e6cb0 f   world.obj
 0001:000e5e00       ?entselectionbox@@YAXABUentity@@AAUvec@@1@Z 004e6e00 f   world.obj
 0001:000e6010       ?pointinsel@@YA_NAAUselinfo@@AAUvec@@@Z 004e7010 f   world.obj
 0001:000e60b0       ?entcancel@@YAXXZ          004e70b0 f   world.obj
 0001:000e60c0       ?haveselent@@YA_NXZ        004e70c0 f   world.obj
 0001:000e60d0       ?entdrag@@YAXABUvec@@@Z    004e70d0 f   world.obj
 0001:000e6670       ?hoveringonent@@YA_NHH@Z   004e7670 f   world.obj
 0001:000e66f0       ?renderentselection@@YAXABUvec@@0_N@Z 004e76f0 f   world.obj
 0001:000e6b70       ?pasteundoents@@YAXPAUundoblock@@@Z 004e7b70 f   world.obj
 0001:000e6cf0       ?copyundoents@@YAPAUundoblock@@PAU1@@Z 004e7cf0 f   world.obj
 0001:000e6da0       ?freeoctaentities@@YAXAAUcube@@@Z 004e7da0 f   world.obj
 0001:000e6e30       ?emptymap@@YA_NH_NPBD0@Z   004e7e30 f   world.obj
 0001:000e71e0       ?entitiesinoctanodes@@YAXXZ 004e81e0 f   world.obj
 0001:000e73f0       ?startmap@@YAXPBD@Z        004e83f0 f   world.obj
 0001:000e7930       ?writeobj@@YAXPAD@Z        004e8930 f   worldio.obj
 0001:000e85d0       ?savemap@@YAXPAD@Z         004e95d0 f   worldio.obj
 0001:000e85e0       ?savecurrentmap@@YAXXZ     004e95e0 f   worldio.obj
 0001:000e85f0       ?load_world@@YA_NPBD0@Z    004e95f0 f   worldio.obj
 0001:000e9630       ?getmapcrc@@YAIXZ          004ea630 f   worldio.obj
 0001:000e9640       ?save_world@@YA_NPBD_N@Z   004ea640 f   worldio.obj
 0001:000e9d70       ?loadvslots@@YAXPAUstream@@H@Z 004ead70 f   worldio.obj
 0001:000ea020       ?loadvslot@@YAXPAUstream@@AAUVSlot@@H@Z 004eb020 f   worldio.obj
 0001:000ea350       ?savevslots@@YAXPAUstream@@H@Z 004eb350 f   worldio.obj
 0001:000ea470       ?savevslot@@YAXPAUstream@@AAUVSlot@@H@Z 004eb470 f   worldio.obj
 0001:000ea6a0       ?loadchildren@@YAPAUcube@@PAUstream@@ABUivec@@HAA_N@Z 004eb6a0 f   worldio.obj
 0001:000ea740       ?loadc@@YAXPAUstream@@AAUcube@@ABUivec@@HAA_N@Z 004eb740 f   worldio.obj
 0001:000eb8a0       ?convertoldsurfaces@@YAXAAUcube@@ABUivec@@HPAUsurfacecompat@@HPAUnormalscompat@@HPAUmergecompat@@H@Z 004ec8a0 f   worldio.obj
 0001:000ec720       ?savec@@YAXPAUcube@@ABUivec@@HPAUstream@@_N@Z 004ed720 f   worldio.obj
 0001:000ed230       ?backup@@YAXPAD0@Z         004ee230 f   worldio.obj
 0001:000ed290       ?mapcfgname@@YAXXZ         004ee290 f   worldio.obj
 0001:000ed360       ?setmapfilenames@@YAXPBD0@Z 004ee360 f   worldio.obj
 0001:000ed460       ?loadents@@YA_NPBDAAU?$vector@Uentity@@@@PAI@Z 004ee460 f   worldio.obj
 0001:000ed950       ?getmapfilenames@@YAXPBD0PAD11@Z 004ee950 f   worldio.obj
 0001:000eda80       ?cutogz@@YAXPAD@Z          004eea80 f   worldio.obj
 0001:000edaa0       ?clearmapcrc@@YAXXZ        004eeaa0 f   worldio.obj
 0001:000edac0       ?gets2c@@YAXXZ             004eeac0 f   client.obj
 0001:000edcf0       ?clientkeepalive@@YAXXZ    004eecf0 f   client.obj
 0001:000edd10       ?localservertoclient@@YAXHPAU_ENetPacket@@@Z 004eed10 f   client.obj
 0001:000eddf0       ?neterr@@YAXPBD_N@Z        004eedf0 f   client.obj
 0001:000ede00       ?flushclient@@YAXXZ        004eee00 f   client.obj
 0001:000ede20       ?sendclientpacket@@YAXPAU_ENetPacket@@H@Z 004eee20 f   client.obj
 0001:000ede50       ?run@?$_icmd_localdisconnect@$0LI@@@SAXXZ 004eee50 f   client.obj
 0001:000ede70       ?run@?$_icmd_localconnect@$0LH@@@SAXXZ 004eee70 f   client.obj
 0001:000ede90       ?run@?$_icmd_disconnect@$0LG@@@SAXPAH@Z 004eee90 f   client.obj
 0001:000edea0       ?run@?$_icmd_lanconnect@$0LE@@@SAXPAHPAD@Z 004eeea0 f   client.obj
 0001:000edec0       ?run@?$_icmd_connect@$0LD@@@SAXPADPAH0@Z 004eeec0 f   client.obj
 0001:000edee0       ?trydisconnect@@YAX_N@Z    004eeee0 f   client.obj
 0001:000edf50       ?disconnect@@YAX_N0@Z      004eef50 f   client.obj
 0001:000ee000       ?reconnect@@YAXPBD@Z       004ef000 f   client.obj
 0001:000ee030       ?connectserv@@YAXPBDH0@Z   004ef030 f   client.obj
 0001:000ee200       ?abortconnect@@YAXXZ       004ef200 f   client.obj
 0001:000ee260       ?run@?$_icmd_connectedport@$0DM@@@SAXXZ 004ef260 f   client.obj
 0001:000ee2a0       ?run@?$_icmd_connectedip@$0DG@@@SAXXZ 004ef2a0 f   client.obj
 0001:000ee330       ?connectedpeer@@YAPBU_ENetAddress@@XZ 004ef330 f   client.obj
 0001:000ee340       ?run@?$_icmd_isconnected@$0CK@@@SAXPAH0@Z 004ef340 f   client.obj
 0001:000ee390       ?throttle@@YAXXZ           004ef390 f   client.obj
 0001:000ee3c0       ?var_throttle_decel@@YAXXZ 004ef3c0 f   client.obj
 0001:000ee3f0       ?var_throttle_accel@@YAXXZ 004ef3f0 f   client.obj
 0001:000ee420       ?var_throttle_interval@@YAXXZ 004ef420 f   client.obj
 0001:000ee450       ?var_rate@@YAXXZ           004ef450 f   client.obj
 0001:000ee480       ?setrate@@YAXH@Z           004ef480 f   client.obj
 0001:000ee4b0       ?isconnected@@YA_N_N0@Z    004ef4b0 f   client.obj
 0001:000ee4e0       ?multiplayer@@YA_N_N@Z     004ef4e0 f   client.obj
 0001:000ee580       ?serveroption@@YA_NPAD@Z   004ef580 f   server.obj
 0001:000ee670       ?stoplistenserver@@YAXXZ   004ef670 f   server.obj
 0001:000ee6b0       ?startlistenserver@@YAXPAH@Z 004ef6b0 f   server.obj
 0001:000ee720       ?initserver@@YAX_N0@Z      004ef720 f   server.obj
 0001:000ee840       ?setuplistenserver@@YA_N_N@Z 004ef840 f   server.obj
 0001:000eea40       ?servererror@@YA_N_NPBD@Z  004efa40 f   server.obj
 0001:000eea60       ?rundedicatedserver@@YAXXZ 004efa60 f   server.obj
 0001:000eeb00       ?isdedicatedserver@@YA_NXZ 004efb00 f   server.obj
 0001:000eeb10       ?logoutfv@@YAXPBDPAD@Z     004efb10 f   server.obj
 0001:000eebd0       _WinMain@16                004efbd0 f   server.obj
 0001:000ef4b0       ?flushserver@@YAX_N@Z      004f04b0 f   server.obj
 0001:000ef4d0       ?serverslice@@YAX_NI@Z     004f04d0 f   server.obj
 0001:000ef8e0       ?updatetime@@YAXXZ         004f08e0 f   server.obj
 0001:000ef920       ?updatemasterserver@@YAXXZ 004f0920 f   server.obj
 0001:000ef960       ?var_serverport@@YAXXZ     004f0960 f   server.obj
 0001:000ef980       ?var_maxclients@@YAXXZ     004f0980 f   server.obj
 0001:000ef9a0       ?checkserversockets@@YAXXZ 004f09a0 f   server.obj
 0001:000efc60       ?sendserverinforeply@@YAXAAU?$databuf@E@@@Z 004f0c60 f   server.obj
 0001:000efc90       ?flushmasterinput@@YAXXZ   004f0c90 f   server.obj
 0001:000efd10       ?flushmasteroutput@@YAXXZ  004f0d10 f   server.obj
 0001:000efd90       ?processmasterinput@@YAXXZ 004f0d90 f   server.obj
 0001:000efec0       ?requestmasterf@@YA_NPBDZZ 004f0ec0 f   server.obj
 0001:000eff00       ?requestmaster@@YA_NPBD@Z  004f0f00 f   server.obj
 0001:000eff80       ?connectmaster@@YAIXZ      004f0f80 f   server.obj
 0001:000f0010       ?var_masterport@@YAXXZ     004f1010 f   server.obj
 0001:000f0020       ?var_mastername@@YAXXZ     004f1020 f   server.obj
 0001:000f0030       ?disconnectmaster@@YAXXZ   004f1030 f   server.obj
 0001:000f0090       ?process@@YAXPAU_ENetPacket@@HH@Z 004f1090 f   server.obj
 0001:000f0160       ?kicknonlocalclients@@YAXH@Z 004f1160 f   server.obj
 0001:000f0260       ?disconnect_client@@YAXHH@Z 004f1260 f   server.obj
 0001:000f0340       ?sendfile@@YAPAU_ENetPacket@@HHPAUstream@@PBDZZ 004f1340 f   server.obj
 0001:000f0580       ?sendf@@YAPAU_ENetPacket@@HHPBDZZ 004f1580 f   server.obj
 0001:000f0830       ?sendpacket@@YAXHHPAU_ENetPacket@@H@Z 004f1830 f   server.obj
 0001:000f0920       ?getclientip@@YAIH@Z       004f1920 f   server.obj
 0001:000f0950       ?getclientpeer@@YAPAU_ENetPeer@@H@Z 004f1950 f   server.obj
 0001:000f0970       ?getclientinfo@@YAPAXH@Z   004f1970 f   server.obj
 0001:000f09a0       ?getservermtu@@YAHXZ       004f19a0 f   server.obj
 0001:000f09c0       ?cleanupserver@@YAXXZ      004f19c0 f   server.obj
 0001:000f0a20       ?delclient@@YAXPAUclient@@@Z 004f1a20 f   server.obj
 0001:000f0a90       ?addclient@@YAAAUclient@@H@Z 004f1a90 f   server.obj
 0001:000f0c30       ?logoutf@@YAXPBDZZ         004f1c30 f   server.obj
 0001:000f0c40       ?setlogfile@@YAXPBD@Z      004f1c40 f   server.obj
 0001:000f0cb0       ?getlogfile@@YAPAU_iobuf@@XZ 004f1cb0 f   server.obj
 0001:000f0cc0       ?closelogfile@@YAXXZ       004f1cc0 f   server.obj
 0001:000f0ce0       ?hasnonlocalclients@@YA_NXZ 004f1ce0 f   server.obj
 0001:000f0cf0       ?localdisconnect@@YAX_N@Z  004f1cf0 f   server.obj
 0001:000f0de0       ?localconnect@@YAXXZ       004f1de0 f   server.obj
 0001:000f0e40       ?localclienttoserver@@YAXHPAU_ENetPacket@@@Z 004f1e40 f   server.obj
 0001:000f0f50       ?disconnectreason@@YAPBDH@Z 004f1f50 f   server.obj
 0001:000f0fd0       ?haslocalclients@@YA_NXZ   004f1fd0 f   server.obj
 0001:000f12d0       ?writeservercfg@@YAXXZ     004f22d0 f   serverbrowser.obj
 0001:000f14e0       ?run@?$_icmd_clearservers@$0CKG@@@SAXPAH@Z 004f24e0 f   serverbrowser.obj
 0001:000f14f0       ?run@?$_icmd_keepserver@$0CKF@@@SAXPBDPAH0@Z 004f24f0 f   serverbrowser.obj
 0001:000f1520       ?run@?$_icmd_addserver@$0CKE@@@SAXPBDPAH0@Z 004f2520 f   serverbrowser.obj
 0001:000f1550       ?initservers@@YAXXZ        004f2550 f   serverbrowser.obj
 0001:000f1580       ?updatefrommaster@@YAXXZ   004f2580 f   serverbrowser.obj
 0001:000f1630       ?retrieveservers@@YAXAAU?$vector@D@@@Z 004f2630 f   serverbrowser.obj
 0001:000f1850       ?clearservers@@YAX_N@Z     004f2850 f   serverbrowser.obj
 0001:000f18f0       ?connectselected@@YAXXZ    004f28f0 f   serverbrowser.obj
 0001:000f1920       ?showservers@@YAPBDPAUg3d_gui@@PAIHH@Z 004f2920 f   serverbrowser.obj
 0001:000f1b50       ?refreshservers@@YAXXZ     004f2b50 f   serverbrowser.obj
 0001:000f1c30       ?sortservers@@YAXXZ        004f2c30 f   serverbrowser.obj
 0001:000f1c50       ?checkpings@@YAXXZ         004f2c50 f   serverbrowser.obj
 0001:000f1ef0       ?checkresolver@@YAXXZ      004f2ef0 f   serverbrowser.obj
 0001:000f1fe0       ?pingservers@@YAXXZ        004f2fe0 f   serverbrowser.obj
 0001:000f2310       ?connectthread@@YAHPAX@Z   004f3310 f   serverbrowser.obj
 0001:000f2410       ?resolvercheck@@YA_NPAPBDPAU_ENetAddress@@@Z 004f3410 f   serverbrowser.obj
 0001:000f2510       ?resolverquery@@YAXPBD@Z   004f3510 f   serverbrowser.obj
 0001:000f2590       ?resolverclear@@YAXXZ      004f3590 f   serverbrowser.obj
 0001:000f2650       ?resolverstop@@YAXAAUresolverthread@@@Z 004f3650 f   serverbrowser.obj
 0001:000f26a0       ?resolverinit@@YAXXZ       004f36a0 f   serverbrowser.obj
 0001:000f2740       ?resolverloop@@YAHPAX@Z    004f3740 f   serverbrowser.obj
 0001:000f28c0       ?connectwithtimeout@@YAHIPBDABU_ENetAddress@@@Z 004f38c0 f   serverbrowser.obj
 0001:000f2a40       ?addserver@@YAXPBDH0_N@Z   004f3a40 f   serverbrowser.obj
 0001:000f2be0       ?resolverwait@@YA_NPBDPAU_ENetAddress@@@Z 004f3be0 f   serverbrowser.obj
 0001:000f3920       ?consolebox@@YAXHHHH@Z     004f4920 f   3dgui.obj
 0001:000f3a90       ?g3d_render@@YAXXZ         004f4a90 f   3dgui.obj
 0001:000f3e70       ?g3d_limitscale@@YAXM@Z    004f4e70 f   3dgui.obj
 0001:000f3e80       ?g3d_movecursor@@YA_NHH@Z  004f4e80 f   3dgui.obj
 0001:000f3f50       ?g3d_resetcursor@@YAXXZ    004f4f50 f   3dgui.obj
 0001:000f3f70       ?g3d_cursorpos@@YAXAAM0@Z  004f4f70 f   3dgui.obj
 0001:000f3fa0       ?menukey@@YA_NH_NH@Z       004f4fa0 f   3dgui.obj
 0001:000f4660       ?run@?$_icmd_textexec@$0CPN@@@SAXPAH@Z 004f5660 f   3dgui.obj
 0001:000f46b0       ?run@?$_icmd_textcurrentline@$0CPH@@@SAXXZ 004f56b0 f   3dgui.obj
 0001:000f46e0       ?run@?$_icmd_textclear@$0CPG@@@SAXXZ 004f56e0 f   3dgui.obj
 0001:000f4710       ?run@?$_icmd_textselectall@$0CPF@@@SAXXZ 004f5710 f   3dgui.obj
 0001:000f4750       ?run@?$_icmd_textmark@$0CPE@@@SAXPAH@Z 004f5750 f   3dgui.obj
 0001:000f47e0       ?run@?$_icmd_textpaste@$0CPA@@@SAXXZ 004f57e0 f   3dgui.obj
 0001:000f4830       ?run@?$_icmd_textcopy@$0COP@@@SAXXZ 004f5830 f   3dgui.obj
 0001:000f4880       ?run@?$_icmd_textinit@$0COL@@@SAXPAD00@Z 004f5880 f   3dgui.obj
 0001:000f4970       ?run@?$_icmd_textload@$0COB@@@SAXPAD@Z 004f5970 f   3dgui.obj
 0001:000f49f0       ?run@?$_icmd_textsave@$0CNJ@@@SAXPAD@Z 004f59f0 f   3dgui.obj
 0001:000f4a60       ?run@?$_icmd_textmode@$0CNF@@@SAXPAH@Z 004f5a60 f   3dgui.obj
 0001:000f4aa0       ?run@?$_icmd_textprev@$0CNB@@@SAXXZ 004f5aa0 f   3dgui.obj
 0001:000f4ae0       ?run@?$_icmd_textfocus@$0CNA@@@SAXPADPAH@Z 004f5ae0 f   3dgui.obj
 0001:000f4b30       ?run@?$_icmd_textshow@$0CMM@@@SAXXZ 004f5b30 f   3dgui.obj
 0001:000f4ba0       ?run@?$_icmd_textlist@$0CMG@@@SAXXZ 004f5ba0 f   3dgui.obj
 0001:000f4fa0       ?g3d_windowhit@@YA_N_N0@Z  004f5fa0 f   3dgui.obj
 0001:000f5030       ?g3d_addgui@@YAXPAUg3d_callback@@AAUvec@@H@Z 004f6030 f   3dgui.obj
 0001:000f5220       ??0BIH@@QAE@PAU?$vector@Utri@BIH@@@@@Z 004f6220 f   bih.obj
 0001:000f56c0       ?build@BIH@@QAEXAAU?$vector@UBIHNode@@@@PAGHABUvec@@2H@Z 004f66c0 f   bih.obj
 0001:000f60e0       ?triintersect@BIH@@SA_NAAUtri@1@ABUvec@@1MAAMHPAU21@@Z 004f70e0 f   bih.obj
 0001:000f6440       ?mmintersect@@YA_NABUextentity@@ABUvec@@1MHAAM@Z 004f7440 f   bih.obj
 0001:000f6780       ?flushblobs@@YAXXZ         004f7780 f   blob.obj
 0001:000f67a0       ?renderblob@@YAXHABUvec@@MM@Z 004f77a0 f   blob.obj
 0001:000f6810       ?initblobs@@YAXH@Z         004f7810 f   blob.obj
 0001:000f6870       ?var_blobdyntris@@YAXXZ    004f7870 f   blob.obj
 0001:000f68a0       ?var_blobstattris@@YAXXZ   004f78a0 f   blob.obj
 0001:000f68d0       ?var_blobmargin@@YAXXZ     004f78d0 f   blob.obj
 0001:000f68e0       ?var_blobfadehigh@@YAXXZ   004f78e0 f   blob.obj
 0001:000f68f0       ?var_blobfadelow@@YAXXZ    004f78f0 f   blob.obj
 0001:000f6900       ?var_blobheight@@YAXXZ     004f7900 f   blob.obj
 0001:000f6910       ?var_blobintensity@@YAXXZ  004f7910 f   blob.obj
 0001:000f6920       ?resetblobs@@YAXXZ         004f7920 f   blob.obj
 0001:000f69e0       ?adddecal@@YAXHABUvec@@0MABUbvec@@H@Z 004f79e0 f   decal.obj
 0001:000f6aa0       ?renderdecals@@YAX_N@Z     004f7aa0 f   decal.obj
 0001:000f6c30       ?initdecals@@YAXXZ         004f7c30 f   decal.obj
 0001:000f6d70       ?var_maxdecaltris@@YAXXZ   004f7d70 f   decal.obj
 0001:000f6d80       ?cleardecals@@YAXXZ        004f7d80 f   decal.obj
 0001:000f6e80       ?setdynlights@@YAHPAUvtxarray@@@Z 004f7e80 f   dynlight.obj
 0001:000f73c0       ?calcdynlightmask@@YAXPAUvtxarray@@@Z 004f83c0 f   dynlight.obj
 0001:000f7500       ?dynlightreaching@@YAXABUvec@@AAU1@1_N@Z 004f8500 f   dynlight.obj
 0001:000f7630       ?getdynlight@@YA_NHAAUvec@@AAM0@Z 004f8630 f   dynlight.obj
 0001:000f7680       ?finddynlights@@YAHXZ      004f8680 f   dynlight.obj
 0001:000f79e0       ?updatedynlights@@YAXXZ    004f89e0 f   dynlight.obj
 0001:000f7b10       ?removetrackeddynlights@@YAXPAUphysent@@@Z 004f8b10 f   dynlight.obj
 0001:000f7b70       ?cleardynlights@@YAXXZ     004f8b70 f   dynlight.obj
 0001:000f7bc0       ?adddynlight@@YAXABUvec@@M0HHHM0PAUphysent@@@Z 004f8bc0 f   dynlight.obj
 0001:000f7db0       ?addglare@@YAXXZ           004f8db0 f   glare.obj
 0001:000f8070       ?drawglaretex@@YAXXZ       004f9070 f   glare.obj
 0001:000f80c0       ?viewglaretex@@YAXXZ       004f90c0 f   glare.obj
 0001:000f80e0       ?var_glaresize@@YAXXZ      004f90e0 f   glare.obj
 0001:000f80f0       ?cleanupglare@@YAXXZ       004f90f0 f   glare.obj
 0001:000f8720       ?rendergrass@@YAXXZ        004f9720 f   grass.obj
 0001:000f8ac0       ?generategrass@@YAXXZ      004f9ac0 f   grass.obj
 0001:000fa6d0       ?var_grasscolour@@YAXXZ    004fb6d0 f   grass.obj
 0001:000fb130       ?rendermaterials@@YAXXZ    004fc130 f   material.obj
 0001:000fc410       ?var_waterfallenv@@YAXXZ   004fd410 f   material.obj
 0001:000fea00       ?getglasscolor@@YAABUbvec@@H@Z 004ffa00 f   material.obj
 0001:000fea30       ?var_glass4colour@@YAXXZ   004ffa30 f   material.obj
 0001:000fea70       ?var_glass3colour@@YAXXZ   004ffa70 f   material.obj
 0001:000feab0       ?var_glass2colour@@YAXXZ   004ffab0 f   material.obj
 0001:000feaf0       ?var_glasscolour@@YAXXZ    004ffaf0 f   material.obj
 0001:000feb30       ?rendermatgrid@@YAXAAU?$vector@PAUmaterialsurface@@@@@Z 004ffb30 f   material.obj
 0001:000fed10       ?sortmaterials@@YAXAAU?$vector@PAUmaterialsurface@@@@@Z 004ffd10 f   material.obj
 0001:000ff220       ?var_optmats@@YAXXZ        00500220 f   material.obj
 0001:000ff610       ?visiblematerial@@YAHABUcube@@HHHHHG@Z 00500610 f   material.obj
 0001:000ff6f0       ?getmaterialdesc@@YAPBDHPBD@Z 005006f0 f   material.obj
 0001:000ff7f0       ?findmaterialname@@YAPBDH@Z 005007f0 f   material.obj
 0001:00100820       ?optimizematsurfs@@YAHPAUmaterialsurface@@H@Z 00501820 f   material.obj
 0001:00100af0       ?genmatsurfs@@YAXABUcube@@HHHHAAU?$vector@Umaterialsurface@@@@@Z 00501af0 f   material.obj
 0001:00100c30       ?setupmaterials@@YAXHH@Z   00501c30 f   material.obj
 0001:00101480       ?findmaterial@@YAHPBD@Z    00502480 f   material.obj
 0001:00101600       ?gl_drawhud@@YAXHH@Z       00502600 f   rendergl.obj
 0001:00102160       ?drawcrosshair@@YAXHH@Z    00503160 f   rendergl.obj
 0001:00102510       ?writecrosshairs@@YAXPAUstream@@@Z 00503510 f   rendergl.obj
 0001:001027e0       ?run@?$_icmd_getcrosshair@$0IPK@@@SAXPAH@Z 005037e0 f   rendergl.obj
 0001:00102880       ?loadcrosshair_@@YAXPBDPAH@Z 00503880 f   rendergl.obj
 0001:00102890       ?loadcrosshair@@YAXPBDH@Z  00503890 f   rendergl.obj
 0001:00102910       ?drawdamagescreen@@YAXHH@Z 00503910 f   rendergl.obj
 0001:00102b20       ?damageblend@@YAXH@Z       00503b20 f   rendergl.obj
 0001:00102b80       ?var_damagescreen@@YAXXZ   00503b80 f   rendergl.obj
 0001:00102ba0       ?drawdamagecompass@@YAXHH@Z 00503ba0 f   rendergl.obj
 0001:00102e50       ?damagecompass@@YAXHABUvec@@@Z 00503e50 f   rendergl.obj
 0001:00102fc0       ?gl_drawmainmenu@@YAXHH@Z  00503fc0 f   rendergl.obj
 0001:001030c0       ?gl_drawframe@@YAXHH@Z     005040c0 f   rendergl.obj
 0001:001039e0       ?addmotionblur@@YAXXZ      005049e0 f   rendergl.obj
 0001:00103d50       ?var_motionblur@@YAXXZ     00504d50 f   rendergl.obj
 0001:00103da0       ?drawminimap@@YAXXZ        00504da0 f   rendergl.obj
 0001:00104770       ?clipminimap@@YAXAAUivec@@0PAUcube@@HHHH@Z 00505770 f   rendergl.obj
 0001:00104880       ?bindminimap@@YAXXZ        00505880 f   rendergl.obj
 0001:001048a0       ?var_minimapsize@@YAXXZ    005058a0 f   rendergl.obj
 0001:001048b0       ?var_minimapcolour@@YAXXZ  005058b0 f   rendergl.obj
 0001:001048e0       ?drawcubemap@@YAXHABUvec@@MMABUcubemapside@@@Z 005058e0 f   rendergl.obj
 0001:00104bd0       ?drawreflection@@YAXM_NHABUbvec@@@Z 00505bd0 f   rendergl.obj
 0001:00105860       ?rendergame@@YAX_N@Z       00506860 f   rendergl.obj
 0001:00105890       ?drawfogoverlay@@YAXHMH@Z  00506890 f   rendergl.obj
 0001:00105fa0       ?var_fogcolour@@YAXXZ      00506fa0 f   rendergl.obj
 0001:00105fd0       ?setenvmatrix@@YAXXZ       00506fd0 f   rendergl.obj
 0001:001060d0       ?popscissor@@YAXXZ         005070d0 f   rendergl.obj
 0001:00106120       ?pushscissor@@YAHMMMM@Z    00507120 f   rendergl.obj
 0001:00106350       ?calcspherescissor@@YAXABUvec@@MAAM111@Z 00507350 f   rendergl.obj
 0001:001066e0       ?popprojection@@YAXXZ      005076e0 f   rendergl.obj
 0001:00106740       ?pushprojection@@YAXABUglmatrixf@@@Z 00507740 f   rendergl.obj
 0001:001067a0       ?calcavatarpos@@YA?AUvec@@ABU1@M@Z 005077a0 f   rendergl.obj
 0001:00106a40       ?project@@YAXMMH_N00M@Z    00507a40 f   rendergl.obj
 0001:00106ba0       ?readmatrices@@YAXXZ       00507ba0 f   rendergl.obj
 0001:00106c00       ?recomputecamera@@YAXXZ    00507c00 f   rendergl.obj
 0001:00107200       ?mousemove@@YAXHH@Z        00508200 f   rendergl.obj
 0001:00107410       ?fixcamerarange@@YAXXZ     00508410 f   rendergl.obj
 0001:00107480       ?isthirdperson@@YA_NXZ     00508480 f   rendergl.obj
 0001:001074b0       ?computezoom@@YAXXZ        005084b0 f   rendergl.obj
 0001:00107640       ?disablezoom@@YAXXZ        00508640 f   rendergl.obj
 0001:00107660       ?var_zoom@@YAXXZ           00508660 f   rendergl.obj
 0001:00107680       ?transplayer@@YAXXZ        00508680 f   rendergl.obj
 0001:00107760       ?findorientation@@YAXXZ    00508760 f   rendergl.obj
 0001:00107a70       ?run@?$_icmd_getcampos@$0DEF@@@SAXXZ 00508a70 f   rendergl.obj
 0001:00107c40       ?run@?$_icmd_getcamroll@$0DEA@@@SAXXZ 00508c40 f   rendergl.obj
 0001:00107c60       ?run@?$_icmd_getcampitch@$0DDP@@@SAXXZ 00508c60 f   rendergl.obj
 0001:00107c80       ?run@?$_icmd_getcamyaw@$0DDO@@@SAXXZ 00508c80 f   rendergl.obj
 0001:00107ed0       ?cleanupgl@@YAXXZ          00508ed0 f   rendergl.obj
 0001:00107f50       ?gl_init@@YAXHHHHH@Z       00508f50 f   rendergl.obj
 0001:00108180       ?glext@@YAXPAD@Z           00509180 f   rendergl.obj
 0001:001081b0       ?gl_checkextensions@@YAXXZ 005091b0 f   rendergl.obj
 0001:00109410       ?hasext@@YA_NPBD0@Z        0050a410 f   rendergl.obj
 0001:00109500       ?getprocaddress@@YAPAXPBD@Z 0050a500 f   rendergl.obj
 0001:00109510       ?cleanupmotionblur@@YAXXZ  0050a510 f   rendergl.obj
 0001:00109550       ?clearminimap@@YAXXZ       0050a550 f   rendergl.obj
 0001:00109580       ?defattrib@varray@@YAXHHI@Z 0050a580 f   rendergl.obj
 0001:00109680       ?begin@varray@@YAXI@Z      0050a680 f   rendergl.obj
 0001:00109690       ?end@varray@@YAHXZ         0050a690 f   rendergl.obj
 0001:00109830       ?enable@varray@@YAXXZ      0050a830 f   rendergl.obj
 0001:00109870       ?disable@varray@@YAXXZ     0050a870 f   rendergl.obj
 0001:001098f0       ?drawglare@@YAXXZ          0050a8f0 f   rendergl.obj
 0001:00109c90       ?start@modelpreview@@YAX_N@Z 0050ac90 f   rendergl.obj
 0001:00109ed0       ?end@modelpreview@@YAXXZ   0050aed0 f   rendergl.obj
 0001:00109fd0       ?drawtextures@@YAXXZ       0050afd0 f   rendergl.obj
 0001:0010a000       ?enablepolygonoffset@@YAXI@Z 0050b000 f   rendergl.obj
 0001:0010a100       ?disablepolygonoffset@@YAXI@Z 0050b100 f   rendergl.obj
 0001:0010a180       ?invalidatepostfx@@YAXXZ   0050b180 f   rendergl.obj
 0001:0010b1f0       ?setbbfrommodel@@YAXPAUdynent@@PBD@Z 0050c1f0 f   rendermodel.obj
 0001:0010b2e0       ?renderclient@@YAXPAUdynent@@PBDPAUmodelattach@@HHHHHM_N@Z 0050c2e0 f   rendermodel.obj
 0001:0010b610       ?loadskin@@YAXPBD0AAPAUTexture@@1@Z 0050c610 f   rendermodel.obj
 0001:0010b7f0       ?run@?$_icmd_findanims@$0DPD@@@SAXPAD@Z 0050c7f0 f   rendermodel.obj
 0001:0010b9f0       ?findanims@@YAXPBDAAU?$vector@H@@@Z 0050c9f0 f   rendermodel.obj
 0001:0010ba40       ?matchanim@@YA_NPBD0@Z     0050ca40 f   rendermodel.obj
 0001:0010bac0       ?abovemodel@@YAXAAUvec@@PBD@Z 0050cac0 f   rendermodel.obj
 0001:0010baf0       ?rendermodelquery@@YAXPAUmodel@@PAUdynent@@ABUvec@@M@Z 0050caf0 f   rendermodel.obj
 0001:0010bcf0       ?endmodelquery@@YAXXZ      0050ccf0 f   rendermodel.obj
 0001:0010be20       ?startmodelquery@@YAXPAUoccludequery@@@Z 0050ce20 f   rendermodel.obj
 0001:0010be30       ?endmodelbatches@@YAXXZ    0050ce30 f   rendermodel.obj
 0001:0010c420       ?renderbatchedmodel@@YAXPAUmodel@@AAUbatchedmodel@@@Z 0050d420 f   rendermodel.obj
 0001:0010c590       ?addbatchedmodel@@YAAAUmodelbatch@@PAUmodel@@@Z 0050d590 f   rendermodel.obj
 0001:0010c690       ?startmodelbatches@@YAXXZ  0050d690 f   rendermodel.obj
 0001:0010c6b0       ?renderellipse@@YAXAAUvec@@MMM@Z 0050d6b0 f   rendermodel.obj
 0001:0010c810       ?render3dbox@@YAXAAUvec@@MMMM@Z 0050d810 f   rendermodel.obj
 0001:0010cc40       ?render2dbox@@YAXAAUvec@@MMM@Z 0050dc40 f   rendermodel.obj
 0001:0010cd30       ?modeloccluded@@YA_NABUvec@@M@Z 0050dd30 f   rendermodel.obj
 0001:0010cdf0       ?clearmodel@@YAXPAD@Z      0050ddf0 f   rendermodel.obj
 0001:0010ce90       ?cleanupmodels@@YAXXZ      0050de90 f   rendermodel.obj
 0001:0010ced0       ?clear_mdls@@YAXXZ         0050ded0 f   rendermodel.obj
 0001:0010cf20       ?preloadmodelshaders@@YAXXZ 0050df20 f   rendermodel.obj
 0001:0010cf70       ?preloadmodel@@YAXPBD@Z    0050df70 f   rendermodel.obj
 0001:0010cfe0       ?run@?$_icmd_nummapmodels@$0BGA@@@SAXXZ 0050dfe0 f   rendermodel.obj
 0001:0010d000       ?run@?$_icmd_mapmodelname@$0BFP@@@SAXPAH@Z 0050e000 f   rendermodel.obj
 0001:0010d080       ?mapmodelname@@YAPBDH@Z    0050e080 f   rendermodel.obj
 0001:0010d0a0       ?getmminfo@@YAPAUmapmodelinfo@@H@Z 0050e0a0 f   rendermodel.obj
 0001:0010d0c0       ?mapmodelreset@@YAXPAH@Z   0050e0c0 f   rendermodel.obj
 0001:0010d100       ?mapmodelcompat@@YAXPAH00PAD1@Z 0050e100 f   rendermodel.obj
 0001:0010d110       ?mmodel@@YAXPAD@Z          0050e110 f   rendermodel.obj
 0001:0010d170       ?rdanimjoints@@YAXPAH@Z    0050e170 f   rendermodel.obj
 0001:0010d230       ?rdlimitrot@@YAXPAH0PAM1111@Z 0050e230 f   rendermodel.obj
 0001:0010d3b0       ?rdlimitdist@@YAXPAH0PAM1@Z 0050e3b0 f   rendermodel.obj
 0001:0010d4c0       ?rdjoint@@YAXPAH0000@Z     0050e4c0 f   rendermodel.obj
 0001:0010d5e0       ?rdtri@@YAXPAH00@Z         0050e5e0 f   rendermodel.obj
 0001:0010d6d0       ?rdeye@@YAXPAH@Z           0050e6d0 f   rendermodel.obj
 0001:0010d790       ?rdvert@@YAXPAM000@Z       0050e790 f   rendermodel.obj
 0001:0010d8d0       ?mdlname@@YAXXZ            0050e8d0 f   rendermodel.obj
 0001:0010d900       ?mdlextendbb@@YAXPAM00@Z   0050e900 f   rendermodel.obj
 0001:0010d960       ?mdlbb@@YAXPAM00@Z         0050e960 f   rendermodel.obj
 0001:0010d9a0       ?mdlshadow@@YAXPAH@Z       0050e9a0 f   rendermodel.obj
 0001:0010d9d0       ?mdlpitch@@YAXPAM@Z        0050e9d0 f   rendermodel.obj
 0001:0010da00       ?mdlyaw@@YAXPAM@Z          0050ea00 f   rendermodel.obj
 0001:0010da30       ?mdltrans@@YAXPAM00@Z      0050ea30 f   rendermodel.obj
 0001:0010da90       ?mdlscale@@YAXPAH@Z        0050ea90 f   rendermodel.obj
 0001:0010dae0       ?mdlspin@@YAXPAM0@Z        0050eae0 f   rendermodel.obj
 0001:0010db20       ?mdlshader@@YAXPAD@Z       0050eb20 f   rendermodel.obj
 0001:0010db70       ?mdlfullbright@@YAXPAM@Z   0050eb70 f   rendermodel.obj
 0001:0010dba0       ?mdlenvmap@@YAXPAM0PAD@Z   0050eba0 f   rendermodel.obj
 0001:0010dc00       ?mdlglare@@YAXPAM0@Z       0050ec00 f   rendermodel.obj
 0001:0010dc50       ?mdlglow@@YAXPAH0PAM@Z     0050ec50 f   rendermodel.obj
 0001:0010dce0       ?mdldepthoffset@@YAXPAH@Z  0050ece0 f   rendermodel.obj
 0001:0010dd10       ?mdlalphadepth@@YAXPAH@Z   0050ed10 f   rendermodel.obj
 0001:0010dd40       ?mdlalphablend@@YAXPAH@Z   0050ed40 f   rendermodel.obj
 0001:0010dd70       ?mdlalphatest@@YAXPAM@Z    0050ed70 f   rendermodel.obj
 0001:0010ddc0       ?mdlambient@@YAXPAH@Z      0050edc0 f   rendermodel.obj
 0001:0010de20       ?mdlspec@@YAXPAH@Z         0050ee20 f   rendermodel.obj
 0001:0010de80       ?mdlellipsecollide@@YAXPAH@Z 0050ee80 f   rendermodel.obj
 0001:0010deb0       ?mdlcollide@@YAXPAH@Z      0050eeb0 f   rendermodel.obj
 0001:0010dee0       ?mdlcullface@@YAXPAH@Z     0050eee0 f   rendermodel.obj
 0001:0010e320       ?var_bumpmodels@@YAXXZ     0050f320 f   rendermodel.obj
 0001:0010e330       ?var_glowmodels@@YAXXZ     0050f330 f   rendermodel.obj
 0001:0010e340       ?var_envmapmodels@@YAXXZ   0050f340 f   rendermodel.obj
 0001:0010e350       ?var_lightmodels@@YAXXZ    0050f350 f   rendermodel.obj
 0001:0010e360       ?cleanragdoll@@YAXPAUdynent@@@Z 0050f360 f   rendermodel.obj
 0001:0010e380       ?moveragdoll@@YAXPAUdynent@@@Z 0050f380 f   rendermodel.obj
 0001:0010e520       ?move@ragdolldata@@QAEXPAUdynent@@M@Z 0050f520 f   rendermodel.obj
 0001:0010eb60       ?constrain@ragdolldata@@QAEXXZ 0050fb60 f   rendermodel.obj
 0001:0010eba0       ?updatepos@ragdolldata@@QAEXXZ 0050fba0 f   rendermodel.obj
 0001:0010ee00       ?tryunstick@ragdolldata@@QAEXM@Z 0050fe00 f   rendermodel.obj
 0001:0010f050       ?applyrotfriction@ragdolldata@@QAEXM@Z 00510050 f   rendermodel.obj
 0001:0010f250       ?calcrotfriction@ragdolldata@@QAEXXZ 00510250 f   rendermodel.obj
 0001:0010f480       ?constrainrot@ragdolldata@@QAEXXZ 00510480 f   rendermodel.obj
 0001:0010f580       ?constraindist@ragdolldata@@QAEXXZ 00510580 f   rendermodel.obj
 0001:0010f850       ?rendermodel@@YAXPAUentitylight@@PBDHABUvec@@MMHPAUdynent@@PAUmodelattach@@HHM@Z 00510850 f   rendermodel.obj
 0001:00110500       ?flushpreloadedmodels@@YAX_N@Z 00511500 f   rendermodel.obj
 0001:001105c0       ?preloadusedmapmodels@@YAX_N0@Z 005115c0 f   rendermodel.obj
 0001:00110770       ?loadmodel@@YAPAUmodel@@PBDH_N@Z 00511770 f   rendermodel.obj
 0001:00110df0       ?updateparticles@@YAXXZ    00511df0 f   renderparticles.obj
 0001:00111890       ?regular_particle_flame@@YAXHABUvec@@MMHHMMMH@Z 00512890 f   renderparticles.obj
 0001:00111aa0       ?regularshape@@YAXHHHHHHABUvec@@MHH@Z 00512aa0 f   renderparticles.obj
 0001:00112440       ?particle_fireball@@YAXABUvec@@MHHHM@Z 00513440 f   renderparticles.obj
 0001:001124c0       ?particle_flare@@YAXABUvec@@0HHHMPAUphysent@@@Z 005134c0 f   renderparticles.obj
 0001:00112500       ?particle_meter@@YAXABUvec@@MHHHHM@Z 00513500 f   renderparticles.obj
 0001:001125a0       ?particle_icon@@YAXABUvec@@HHHHHMH@Z 005135a0 f   renderparticles.obj
 0001:00112610       ?particle_textcopy@@YAXABUvec@@PBDHHHMH@Z 00513610 f   renderparticles.obj
 0001:00112700       ?particle_text@@YAXABUvec@@PBDHHHMH@Z 00513700 f   renderparticles.obj
 0001:001127d0       ?particle_trail@@YAXHHABUvec@@0HMH@Z 005137d0 f   renderparticles.obj
 0001:001129c0       ?particle_splash@@YAXHHHABUvec@@HMHH@Z 005139c0 f   renderparticles.obj
 0001:00112a00       ?regular_particle_splash@@YAXHHHABUvec@@HMHHH@Z 00513a00 f   renderparticles.obj
 0001:00112a60       ?canaddparticles@@YA_NXZ   00513a60 f   renderparticles.obj
 0001:00112dd0       ?removetrackedparticles@@YAXPAUphysent@@@Z 00513dd0 f   renderparticles.obj
 0001:00112e00       ?cleanupparticles@@YAXXZ   00513e00 f   renderparticles.obj
 0001:00112e20       ?particleinit@@YAXXZ       00513e20 f   renderparticles.obj
 0001:00112ed0       ?var_fewparticles@@YAXXZ   00513ed0 f   renderparticles.obj
 0001:00112ee0       ?var_maxparticles@@YAXXZ   00513ee0 f   renderparticles.obj
 0001:001152c0       ?binddepthfxparams@@YAXMM_NPAX@Z 005162c0 f   renderparticles.obj
 0001:00115600       ?binddepthfxtex@@YA_NXZ    00516600 f   renderparticles.obj
 0001:00115720       ?cleanupdepthfx@@YAXXZ     00516720 f   renderparticles.obj
 0001:001157c0       ?var_depthfxfilter@@YAXXZ  005167c0 f   renderparticles.obj
 0001:001157d0       ?var_depthfxrect@@YAXXZ    005167d0 f   renderparticles.obj
 0001:001157e0       ?var_depthfxsize@@YAXXZ    005167e0 f   renderparticles.obj
 0001:001157f0       ?var_fpdepthfx@@YAXXZ      005167f0 f   renderparticles.obj
 0001:00115800       ?addparticleemitters@@YAXXZ 00516800 f   renderparticles.obj
 0001:00115910       ?finddepthfxranges@@YAXXZ  00516910 f   renderparticles.obj
 0001:00115aa0       ?renderparticles@@YAX_N@Z  00516aa0 f   renderparticles.obj
 0001:00116330       ?drawdepthfxtex@@YAXXZ     00517330 f   renderparticles.obj
 0001:001163a0       ?viewdepthfxtex@@YAXXZ     005173a0 f   renderparticles.obj
 0001:001163c0       ?clearparticleemitters@@YAXXZ 005173c0 f   renderparticles.obj
 0001:001163e0       ?printparticles@@YA_NAAUextentity@@PAD@Z 005173e0 f   renderparticles.obj
 0001:00116510       ?clearparticles@@YAXXZ     00517510 f   renderparticles.obj
 0001:00116550       ?seedparticles@@YAXXZ      00517550 f   renderparticles.obj
 0001:00116c20       ?drawskyoutline@@YAXXZ     00517c20 f   rendersky.obj
 0001:00116d40       ?drawskylimits@@YA_N_N@Z   00517d40 f   rendersky.obj
 0001:00116db0       ?cleanupsky@@YAXXZ         00517db0 f   rendersky.obj
 0001:00117010       ?var_fogdomecolour@@YAXXZ  00518010 f   rendersky.obj
 0001:00117b60       ?draw_env_overlay@@YAXHPAUTexture@@MM@Z 00518b60 f   rendersky.obj
 0001:00117f50       ?draw_envbox@@YAXHMMHPAPAUTexture@@@Z 00518f50 f   rendersky.obj
 0001:001182c0       ?draw_envbox_face@@YAXMMHHHMMHHHMMHHHMMHHHI@Z 005192c0 f   rendersky.obj
 0001:00118440       ?var_cloudlayer@@YAXXZ     00519440 f   rendersky.obj
 0001:00118460       ?var_cloudbox@@YAXXZ       00519460 f   rendersky.obj
 0001:00118480       ?var_skybox@@YAXXZ         00519480 f   rendersky.obj
 0001:001184a0       ?loadskyoverlay@@YAPAUTexture@@PBD@Z 005194a0 f   rendersky.obj
 0001:00118590       ?loadsky@@YAXPBDQAPAUTexture@@@Z 00519590 f   rendersky.obj
 0001:00118790       ?drawskybox@@YAXH_N@Z      00519790 f   rendersky.obj
 0001:00119170       ?limitsky@@YA_NXZ          0051a170 f   rendersky.obj
 0001:00119270       ?reloadfonts@@YAXXZ        0051a270 f   rendertext.obj
 0001:00119880       ?tabify@@YAXPBDPAH@Z       0051a880 f   rendertext.obj
 0001:00119980       ?popfont@@YA_NXZ           0051a980 f   rendertext.obj
 0001:001199b0       ?pushfont@@YAXXZ           0051a9b0 f   rendertext.obj
 0001:001199f0       ?setfont@@YA_NPBD@Z        0051a9f0 f   rendertext.obj
 0001:00119a10       ?fontalias@@YAXPBD0@Z      0051aa10 f   rendertext.obj
 0001:00119a80       ?fontskip@@YAXPAH@Z        0051aa80 f   rendertext.obj
 0001:00119af0       ?fontchar@@YAXPAH000000@Z  0051aaf0 f   rendertext.obj
 0001:00119ba0       ?fonttex@@YAXPAD@Z         0051aba0 f   rendertext.obj
 0001:00119c20       ?fontscale@@YAXPAH@Z       0051ac20 f   rendertext.obj
 0001:00119c40       ?fontoffset@@YAXPAD@Z      0051ac40 f   rendertext.obj
 0001:00119c60       ?newfont@@YAXPAD0PAH1@Z    0051ac60 f   rendertext.obj
 0001:00119d80       ?gettextres@@YAXAAH0@Z     0051ad80 f   rendertext.obj
 0001:00119dd0       ?draw_textf@@YAXPBDHHZZ    0051add0 f   rendertext.obj
 0001:00119e40       ?text_posf@@YAXPBDHAAM1H@Z 0051ae40 f   rendertext.obj
 0001:0011a140       ?text_visible@@YAHPBDMMH@Z 0051b140 f   rendertext.obj
 0001:0011a3f0       ?text_boundsf@@YAXPBDAAM1H@Z 0051b3f0 f   rendertext.obj
 0001:0011a5e0       ?draw_text@@YAXPBDHHHHHHHH@Z 0051b5e0 f   rendertext.obj
 0001:0011abc0       ?text_widthf@@YAMPBD@Z     0051bbc0 f   rendertext.obj
 0001:0011ad50       ?renderreflectedskyvas@@YAXAAU?$vector@PAUvtxarray@@@@H@Z 0051bd50 f   renderva.obj
 0001:0011ae60       ?renderskyva@@YAXPAUvtxarray@@_N@Z 0051be60 f   renderva.obj
 0001:0011af50       ?findreflectedvas@@YAXAAU?$vector@PAUvtxarray@@@@H@Z 0051bf50 f   renderva.obj
 0001:0011b430       ?cleanupTMUs@@YAXAAUrenderstate@@M_N@Z 0051c430 f   renderva.obj
 0001:0011b610       ?setupTMUs@@YAXAAUrenderstate@@M_N@Z 0051c610 f   renderva.obj
 0001:0011bc80       ?setupcaustics@@YAXHMPAM@Z 0051cc80 f   renderva.obj
 0001:0011c270       ?var_caustics@@YAXXZ       0051d270 f   renderva.obj
 0001:0011c280       ?cleanupva@@YAXXZ          0051d280 f   renderva.obj
 0001:0011c690       ?renderva@@YAXAAUrenderstate@@PAUvtxarray@@H_N2@Z 0051d690 f   renderva.obj
 0001:0011cab0       ?rendershadowmappass@@YAXAAUrenderstate@@PAUvtxarray@@@Z 0051dab0 f   renderva.obj
 0001:0011cb90       ?renderfoggedvas@@YAXAAUrenderstate@@_N@Z 0051db90 f   renderva.obj
 0001:0011cd50       ?renderzpass@@YAXAAUrenderstate@@PAUvtxarray@@@Z 0051dd50 f   renderva.obj
 0001:0011f610       ?renderquery@@YAXAAUrenderstate@@PAUoccludequery@@PAUvtxarray@@_N@Z 00520610 f   renderva.obj
 0001:0011f760       ?rendershadowmapreceivers@@YAXXZ 00520760 f   renderva.obj
 0001:0011fb60       ?rendermapmodel@@YAXAAUextentity@@@Z 00520b60 f   renderva.obj
 0001:0011fc00       ?findvisiblemms@@YAXABU?$vector@PAUextentity@@@@@Z 00520c00 f   renderva.obj
 0001:0011fef0       ?clearqueries@@YAXXZ       00520ef0 f   renderva.obj
 0001:0011ff40       ?flipqueries@@YAXXZ        00520f40 f   renderva.obj
 0001:00120020       ?restorevfcP@@YAXXZ        00521020 f   renderva.obj
 0001:00120040       ?savevfcP@@YAXXZ           00521040 f   renderva.obj
 0001:00120060       ?setvfcP@@YAXMABUvec@@0@Z  00521060 f   renderva.obj
 0001:001206e0       ?calcvfcD@@YAXXZ           005216e0 f   renderva.obj
 0001:001207a0       ?findvisiblevas@@YAXAAU?$vector@PAUvtxarray@@@@_N@Z 005217a0 f   renderva.obj
 0001:00120880       ?sortvisiblevas@@YAXXZ     00521880 f   renderva.obj
 0001:001208c0       ?addvisibleva@@YAXPAUvtxarray@@@Z 005218c0 f   renderva.obj
 0001:001209f0       ?vadist@@YAMPAUvtxarray@@ABUvec@@@Z 005219f0 f   renderva.obj
 0001:00120ad0       ?isvisiblecube@@YAHABUivec@@H@Z 00521ad0 f   renderva.obj
 0001:00120d80       ?rendersky@@YA_N_N@Z       00521d80 f   renderva.obj
 0001:00120ec0       ?renderdepthobstacles@@YAXABUvec@@0MPAMH@Z 00521ec0 f   renderva.obj
 0001:00121700       ?bboccluded@@YA_NABUivec@@0@Z 00522700 f   renderva.obj
 0001:001218f0       ?newquery@@YAPAUoccludequery@@PAX@Z 005228f0 f   renderva.obj
 0001:00121950       ?drawbb@@YAXABUivec@@0ABUvec@@@Z 00522950 f   renderva.obj
 0001:00121ed0       ?checkquery@@YA_NPAUoccludequery@@_N@Z 00522ed0 f   renderva.obj
 0001:00121f30       ?rendergeom@@YAXM_N@Z      00522f30 f   renderva.obj
 0001:00123580       ?renderreflectedmapmodels@@YAXXZ 00524580 f   renderva.obj
 0001:00123700       ?renderalphageom@@YAX_N@Z  00524700 f   renderva.obj
 0001:00123e10       ?renderreflectedgeom@@YAX_N0@Z 00524e10 f   renderva.obj
 0001:00123e60       ?visiblecubes@@YAX_N@Z     00524e60 f   renderva.obj
 0001:00123f90       ?rendermapmodels@@YAXXZ    00524f90 f   renderva.obj
 0001:00124310       ?renderoutline@@YAXXZ      00525310 f   renderva.obj
 0001:00124610       ?getnumqueries@@YAHXZ      00525610 f   renderva.obj
 0001:00124630       ?loadcaustics@@YAX_N@Z     00525630 f   renderva.obj
 0001:00124700       ?isfoggedsphere@@YA_NMABUvec@@@Z 00525700 f   renderva.obj
 0001:001247a0       ?resetqueries@@YAXXZ       005257a0 f   renderva.obj
 0001:001247d0       ?isvisiblesphere@@YAHMABUvec@@@Z 005257d0 f   renderva.obj
 0001:00124860       ?renderblendbrush@@YAXIMMMM@Z 00525860 f   renderva.obj
 0001:001251e0       ?reloadshaders@@YAXXZ      005261e0 f   shader.obj
 0001:00125370       ?cleanupshaders@@YAXXZ     00526370 f   shader.obj
 0001:001255c0       ?committmufunc@@YAXI_NAAUtmufunc@@1@Z 005265c0 f   shader.obj
 0001:00125730       ?parsetmufunc@@YAXAAUtmu@@AAUtmufunc@@PBD@Z 00526730 f   shader.obj
 0001:00125970       ?run@?$_icmd_setpostfx@$0IAO@@@SAXPADPAM111@Z 00526970 f   shader.obj
 0001:001259f0       ?run@?$_icmd_addpostfx@$0IAI@@@SAXPADPAH10PAM222@Z 005269f0 f   shader.obj
 0001:00125ae0       ?clearpostfx@@YAXXZ        00526ae0 f   shader.obj
 0001:00125bb0       ?cleanuppostfx@@YAX_N@Z    00526bb0 f   shader.obj
 0001:00125de0       ?run@?$_icmd_defuniformparam@$0HEO@@@SAXPADPAM111@Z 00526de0 f   shader.obj
 0001:00125f40       ?run@?$_icmd_defpixelparam@$0HEN@@@SAXPADPAHPAM222@Z 00526f40 f   shader.obj
 0001:00125fa0       ?run@?$_icmd_defvertexparam@$0HEM@@@SAXPADPAHPAM222@Z 00526fa0 f   shader.obj
 0001:00126130       ?run@?$_icmd_setshaderparam@$0HEL@@@SAXPADPAM111@Z 00527130 f   shader.obj
 0001:00126290       ?run@?$_icmd_setuniformparam@$0HEK@@@SAXPADPAM111@Z 00527290 f   shader.obj
 0001:001263f0       ?run@?$_icmd_setpixelparam@$0HEJ@@@SAXPAHPAM111@Z 005273f0 f   shader.obj
 0001:00126440       ?run@?$_icmd_setvertexparam@$0HEI@@@SAXPAHPAM111@Z 00527440 f   shader.obj
 0001:00126580       ?addshaderparam@@YAXPBDHHMMMM@Z 00527580 f   shader.obj
 0001:001266f0       ?isshadernative@@YAXPAD@Z  005276f0 f   shader.obj
 0001:00126740       ?isshaderdefined@@YAXPAD@Z 00527740 f   shader.obj
 0001:00126780       ?run@?$_icmd_forceshader@$0HBE@@@SAXPBD@Z 00527780 f   shader.obj
 0001:001267c0       ?fastshader@@YAXPAD0PAH@Z  005277c0 f   shader.obj
 0001:00126830       ?altshader@@YAXPAD0@Z      00527830 f   shader.obj
 0001:00126860       ?linkvslotshader@@YAXAAUVSlot@@_N@Z 00527860 f   shader.obj
 0001:00126a20       ?linkslotshader@@YAXAAUSlot@@_N@Z 00527a20 f   shader.obj
 0001:00126b60       ?setslotshader@@YAXAAUSlot@@@Z 00527b60 f   shader.obj
 0001:00126bf0       ?resetslotshader@@YAXXZ    00527bf0 f   shader.obj
 0001:00126c10       ?findshaderparam@@YAPAUShaderParam@@AAUVSlot@@PBDHH@Z 00527c10 f   shader.obj
 0001:00126d50       ?findshaderparam@@YAPAUShaderParam@@AAUSlot@@PBDHH@Z 00527d50 f   shader.obj
 0001:00126e30       ?setshader@@YAXPAD@Z       00527e30 f   shader.obj
 0001:00126e80       ?variantshader@@YAXPAHPAD011@Z 00527e80 f   shader.obj
 0001:001271f0       ?shader@@YAXPAHPAD11@Z     005281f0 f   shader.obj
 0001:001275c0       ?fixdetailshader@Shader@@QAEX_N0@Z 005285c0 f   shader.obj
 0001:001276a0       ?var_shaderdetail@@YAXXZ   005286a0 f   shader.obj
 0001:001276b0       ?var_nativeshaders@@YAXXZ  005286b0 f   shader.obj
 0001:001276c0       ?fixshaderdetail@@YAXXZ    005286c0 f   shader.obj
 0001:00127760       ?useshader@@YAXPAUShader@@@Z 00528760 f   shader.obj
 0001:00127820       ?defershader@@YAXPAHPBD1@Z 00528820 f   shader.obj
 0001:00129d60       ?genemufog@@YAXAAU?$vector@D@@0HH@Z 0052ad60 f   shader.obj
 0001:0012a280       ?newshader@@YAPAUShader@@HPBD00PAU1@H@Z 0052b280 f   shader.obj
 0001:0012ab70       ?cleanup@Shader@@QAEX_N@Z  0052bb70 f   shader.obj
 0001:0012ad70       ?compile@Shader@@QAE_NXZ   0052bd70 f   shader.obj
 0001:0012af70       ?var_forceglsl@@YAXXZ      0052bf70 f   shader.obj
 0001:0012af90       ?var_shaderprecision@@YAXXZ 0052bf90 f   shader.obj
 0001:0012afb0       ?var_shaders@@YAXXZ        0052bfb0 f   shader.obj
 0001:0012b600       ?allocenvparams@Shader@@QAEXPAUSlot@@@Z 0052c600 f   shader.obj
 0001:0012c720       ?loadshaders@@YAXXZ        0052d720 f   shader.obj
 0001:0012c990       ?setslotparams@Shader@@QAEXAAUSlot@@AAUVSlot@@@Z 0052d990 f   shader.obj
 0001:0012c9d0       ?invalidateenvparams@@YAXHHH@Z 0052d9d0 f   shader.obj
 0001:0012ca00       ?setlocalparamfv@@YAXPBDHHPBM@Z 0052da00 f   shader.obj
 0001:0012ca30       ?scaletmu@@YAXHHH@Z        0052da30 f   shader.obj
 0001:0012ca70       ?uniformlocversion@Shader@@SAHXZ 0052da70 f   shader.obj
 0001:0012caf0       ?inittmus@@YAXXZ           0052daf0 f   shader.obj
 0001:0012cc40       ?renderpostfx@@YAXXZ       0052dc40 f   shader.obj
 0001:0012d440       ?setupshaders@@YAXXZ       0052e440 f   shader.obj
 0001:0012d620       ?checkglslsupport@@YA_NXZ  0052e620 f   shader.obj
 0001:0012d730       ?colortmu@@YAXHMMMM@Z      0052e730 f   shader.obj
 0001:0012d7d0       ?setupblurkernel@@YAXHMPAM0@Z 0052e7d0 f   shader.obj
 0001:0012dc00       ?setblurshader@@YAXHHHPAM0I@Z 0052ec00 f   shader.obj
 0001:0012e260       ?setlocalparamf@@YAXPBDHHMMMM@Z 0052f260 f   shader.obj
 0001:0012e330       ?setenvparamf@@YAXPBDHHMMMM@Z 0052f330 f   shader.obj
 0001:0012e400       ?setuptmu@@YAXHPBD0@Z      0052f400 f   shader.obj
 0001:0012e550       ?resettmu@@YAXH@Z          0052f550 f   shader.obj
 0001:0012e5d0       ?useshaderbyname@@YAPAUShader@@PBD@Z 0052f5d0 f   shader.obj
 0001:0012e610       ?flushenvparams@Shader@@QAEXPAUSlot@@@Z 0052f610 f   shader.obj
 0001:0012e720       ?bindprograms@Shader@@QAEXXZ 0052f720 f   shader.obj
 0001:0012e790       ?getshaderparamname@@YAPBDPBD@Z 0052f790 f   shader.obj
 0001:0012e800       ?lookupshaderbyname@@YAPAUShader@@PBD@Z 0052f800 f   shader.obj
 0001:0012e870       ?calcshadowmapbb@@YAXABUvec@@MMAAM111@Z 0052f870 f   shadowmap.obj
 0001:0012f210       ?cleanshadowmap@@YAXXZ     00530210 f   shadowmap.obj
 0001:0012f2b0       ?var_shadowmapangle@@YAXXZ 005302b0 f   shadowmap.obj
 0001:0012f2c0       ?setshadowdir@@YAXH@Z      005302c0 f   shadowmap.obj
 0001:0012f370       ?var_shadowmapambient@@YAXXZ 00530370 f   shadowmap.obj
 0001:0012f3c0       ?var_shadowmapprecision@@YAXXZ 005303c0 f   shadowmap.obj
 0001:0012f3d0       ?var_fpshadowmap@@YAXXZ    005303d0 f   shadowmap.obj
 0001:0012f3e0       ?var_shadowmapsize@@YAXXZ  005303e0 f   shadowmap.obj
 0001:0012f3f0       ?isshadowmapreceiver@@YA_NPAUvtxarray@@@Z 005303f0 f   shadowmap.obj
 0001:0012f580       ?pushshadowmap@@YAXXZ      00530580 f   shadowmap.obj
 0001:0012fa40       ?popshadowmap@@YAXXZ       00530a40 f   shadowmap.obj
 0001:0012fa80       ?isshadowmapcaster@@YA_NABUvec@@M@Z 00530a80 f   shadowmap.obj
 0001:0012fb70       ?addshadowmapcaster@@YA_NABUvec@@MM@Z 00530b70 f   shadowmap.obj
 0001:0012fc20       ?rendershadowmap@@YAXXZ    00530c20 f   shadowmap.obj
 0001:0012fca0       ?viewshadowmap@@YAXXZ      00530ca0 f   shadowmap.obj
 0001:0012fcc0       ?guessshadowdir@@YAXXZ     00530cc0 f   shadowmap.obj
 0001:00131530       ?mergenormalmaps@@YAXPAD0@Z 00532530 f   texture.obj
 0001:001319f0       ?flipnormalmapy@@YAXPAD0@Z 005329f0 f   texture.obj
 0001:00131c10       ?screenshot@@YAXPAD@Z      00532c10 f   texture.obj
 0001:00131f10       ?saveimage@@YAXPBDHAAUImageData@@_N@Z 00532f10 f   texture.obj
 0001:00132040       ?guessimageformat@@YAHPBDH@Z 00533040 f   texture.obj
 0001:001320b0       ?savetga@@YAXPBDAAUImageData@@_N@Z 005330b0 f   texture.obj
 0001:00132380       ?writepngchunk@@YAXPAUstream@@PBDPAEI@Z 00533380 f   texture.obj
 0001:00132440       ?gendds@@YAXPAD0@Z         00533440 f   texture.obj
 0001:00132930       ?loaddds@@YA_NPBDAAUImageData@@@Z 00533930 f   texture.obj
 0001:00132af0       ?reloadtextures@@YAXXZ     00533af0 f   texture.obj
 0001:00132ca0       ?reloadtex@@YAXPAD@Z       00533ca0 f   texture.obj
 0001:00132de0       ?reloadtexture@@YA_NPBD@Z  00533de0 f   texture.obj
 0001:00132e30       ?cleanuptextures@@YAXXZ    00533e30 f   texture.obj
 0001:00132f90       ?cleanuptexture@@YAXPAUTexture@@@Z 00533f90 f   texture.obj
 0001:00132fe0       ?genenvmap@@YAIABUvec@@HH@Z 00533fe0 f   texture.obj
 0001:001334c0       ?clearenvmaps@@YAXXZ       005344c0 f   texture.obj
 0001:00133530       ?cubemaploadwildcard@@YAPAUTexture@@PAU1@PBD_N22@Z 00534530 f   texture.obj
 0001:00133c70       ?var_envmapsize@@YAXXZ     00534c70 f   texture.obj
 0001:00133c80       ?forcecubemapload@@YAXI@Z  00534c80 f   texture.obj
 0001:001366f0       ?texffenv@@YAXPAH@Z        005376f0 f   texture.obj
 0001:00136720       ?texcolor@@YAXPAM00@Z      00537720 f   texture.obj
 0001:001367d0       ?texalpha@@YAXPAM0@Z       005377d0 f   texture.obj
 0001:00136840       ?texlayer@@YAXPAHPAD0PAM@Z 00537840 f   texture.obj
 0001:001368e0       ?texscale@@YAXPAM@Z        005378e0 f   texture.obj
 0001:00136930       ?texrotate_@@YAXPAH@Z      00537930 f   texture.obj
 0001:00136980       ?texoffset_@@YAXPAH0@Z     00537980 f   texture.obj
 0001:001369d0       ?texscroll@@YAXPAM0@Z      005379d0 f   texture.obj
 0001:00136a30       ?autograss@@YAXPAD@Z       00537a30 f   texture.obj
 0001:00136a90       ?texture@@YAXPAD0PAH11PAM@Z 00537a90 f   texture.obj
 0001:00136cb0       ?findslottex@@YAHPBD@Z     00537cb0 f   texture.obj
 0001:00136d10       ?run@?$_icmd_fixinsidefaces@$0GIF@@@SAXPAH@Z 00537d10 f   texture.obj
 0001:00137020       ?findvslot@@YAPAUVSlot@@AAUSlot@@ABU1@1@Z 00538020 f   texture.obj
 0001:00137a10       ?run@?$_icmd_compactvslots@$0FLB@@@SAXXZ 00538a10 f   texture.obj
 0001:00137b40       ?materialreset@@YAXXZ      00538b40 f   texture.obj
 0001:00137b80       ?texturereset@@YAXPAH@Z    00538b80 f   texture.obj
 0001:00137c90       ?settexture@@YA_NPBDH@Z    00538c90 f   texture.obj
 0001:00138810       ?loadsurface@@YAPAUSDL_Surface@@PBD@Z 00539810 f   texture.obj
 0001:001388a0       ?canloadsurface@@YA_NPBD@Z 005398a0 f   texture.obj
 0001:001388e0       ?forcergbimage@@YAXAAUImageData@@@Z 005398e0 f   texture.obj
 0001:00138a70       ?scaleimage@@YAXAAUImageData@@HH@Z 00539a70 f   texture.obj
 0001:00138b80       ?texblur@@YAXAAUImageData@@HH@Z 00539b80 f   texture.obj
 0001:00138cc0       ?texnormal@@YAXAAUImageData@@H@Z 00539cc0 f   texture.obj
 0001:00138f60       ?texflip@@YAXAAUImageData@@@Z 00539f60 f   texture.obj
 0001:00139090       ?fixsurfaceformat@@YAPAUSDL_Surface@@PAU1@@Z 0053a090 f   texture.obj
 0001:00139160       ?checkgrayscale@@YA_NPAUSDL_Surface@@@Z 0053a160 f   texture.obj
 0001:001391b0       ?creatergbasurface@@YAPAUSDL_Surface@@PAU1@@Z 0053a1b0 f   texture.obj
 0001:00139210       ?creatergbsurface@@YAPAUSDL_Surface@@PAU1@@Z 0053a210 f   texture.obj
 0001:00139260       ?wrapsurface@@YAPAUSDL_Surface@@PAXHHH@Z 0053a260 f   texture.obj
 0001:00139730       ?createcompressedtexture@@YAXHHHPAEHHHHHII@Z 0053a730 f   texture.obj
 0001:001397b0       ?uncompressedformat@@YAII@Z 0053a7b0 f   texture.obj
 0001:001398f0       ?textarget@@YAII@Z         0053a8f0 f   texture.obj
 0001:00139910       ?uploadcompressedtexture@@YAXIIIHHPAEHHH_N@Z 0053a910 f   texture.obj
 0001:00139a30       ?uploadtexture@@YAXIIHHIIPAXHHH_N@Z 0053aa30 f   texture.obj
 0001:00139d90       ?resizetexture@@YAXHH_N0IHAAH1@Z 0053ad90 f   texture.obj
 0001:00139f00       ?var_usenp2@@YAXXZ         0053af00 f   texture.obj
 0001:00139f20       ?var_hwmipmap@@YAXXZ       0053af20 f   texture.obj
 0001:00139f40       ?formatsize@@YAHI@Z        0053af40 f   texture.obj
 0001:00139f80       ?compressedformat@@YAIIHHH@Z 0053af80 f   texture.obj
 0001:0013a020       ?var_aniso@@YAXXZ          0053b020 f   texture.obj
 0001:0013a040       ?var_bilinear@@YAXXZ       0053b040 f   texture.obj
 0001:0013a060       ?var_trilinear@@YAXXZ      0053b060 f   texture.obj
 0001:0013a080       ?var_texcompressquality@@YAXXZ 0053b080 f   texture.obj
 0001:0013a0d0       ?var_texcompress@@YAXXZ    0053b0d0 f   texture.obj
 0001:0013a0f0       ?var_texreduce@@YAXXZ      0053b0f0 f   texture.obj
 0001:0013a110       ?var_reducefilter@@YAXXZ   0053b110 f   texture.obj
 0001:0013a130       ?var_maxtexsize@@YAXXZ     0053b130 f   texture.obj
 0001:0013a150       ?texagrad@@YAXAAUImageData@@MMMM@Z 0053b150 f   texture.obj
 0001:0013a300       ?texpremul@@YAXAAUImageData@@@Z 0053b300 f   texture.obj
 0001:0013a400       ?texgrey@@YAXAAUImageData@@@Z 0053b400 f   texture.obj
 0001:0013a5d0       ?texmix@@YAXAAUImageData@@HHHH@Z 0053b5d0 f   texture.obj
 0001:0013a7c0       ?texdecal@@YAXAAUImageData@@@Z 0053b7c0 f   texture.obj
 0001:0013a940       ?texdup@@YAXAAUImageData@@HH@Z 0053b940 f   texture.obj
 0001:0013a9b0       ?texffmask@@YAXAAUImageData@@MM@Z 0053b9b0 f   texture.obj
 0001:0013abf0       ?texcolormask@@YAXAAUImageData@@ABUvec@@1@Z 0053bbf0 f   texture.obj
 0001:0013ae20       ?texcolorify@@YAXAAUImageData@@ABUvec@@U2@@Z 0053be20 f   texture.obj
 0001:0013af60       ?texmad@@YAXAAUImageData@@ABUvec@@1@Z 0053bf60 f   texture.obj
 0001:0013b040       ?texoffset@@YAXAAUImageData@@HH@Z 0053c040 f   texture.obj
 0001:0013b1d0       ?texrotate@@YAXAAUImageData@@HH@Z 0053c1d0 f   texture.obj
 0001:0013b220       ?texreorient@@YAXAAUImageData@@_N11H@Z 0053c220 f   texture.obj
 0001:0013dbc0       ?linkslotshaders@@YAXXZ    0053ebc0 f   texture.obj
 0001:0013dca0       ?reloadtexture@@YA_NAAUTexture@@@Z 0053eca0 f   texture.obj
 0001:0013ddc0       ?cubemapload@@YAPAUTexture@@PBD_N11@Z 0053edc0 f   texture.obj
 0001:0013df00       ?setuptexcompress@@YAXXZ   0053ef00 f   texture.obj
 0001:0013df50       ?setuptexparameters@@YAXHPAXHHII@Z 0053ef50 f   texture.obj
 0001:0013e090       ?genenvmaps@@YAXXZ         0053f090 f   texture.obj
 0001:0013e170       ?closestenvmap@@YAGABUvec@@@Z 0053f170 f   texture.obj
 0001:0013e240       ?lookupmaterialslot@@YAAAUMSlot@@H_N@Z 0053f240 f   texture.obj
 0001:0013e280       ?lookupenvmap@@YAIAAUSlot@@@Z 0053f280 f   texture.obj
 0001:0013e2c0       ?lookupenvmap@@YAIG@Z      0053f2c0 f   texture.obj
 0001:0013e310       ?loadalphamask@@YAXPAUTexture@@@Z 0053f310 f   texture.obj
 0001:0013e490       ?compactvslots@@YAHXZ      0053f490 f   texture.obj
 0001:0013e7b0       ?textureload@@YAPAUTexture@@PBDH_N1@Z 0053f7b0 f   texture.obj
 0001:0013e8d0       ?clearslots@@YAXXZ         0053f8d0 f   texture.obj
 0001:0013e930       ?closestenvmap@@YAGHHHHH@Z 0053f930 f   texture.obj
 0001:0013e9d0       ?initenvmaps@@YAXXZ        0053f9d0 f   texture.obj
 0001:0013eb30       ?compactvslot@@YAXAAH@Z    0053fb30 f   texture.obj
 0001:0013eb80       ?compactvslots@@YAXPAUcube@@H@Z 0053fb80 f   texture.obj
 0001:0013ec80       ?mergevslot@@YAXAAUVSlot@@ABU1@1@Z 0053fc80 f   texture.obj
 0001:0013ed70       ?editvslot@@YAPAUVSlot@@ABU1@0@Z 0053fd70 f   texture.obj
 0001:0013ee80       ?lookupslot@@YAAAUSlot@@H_N@Z 0053fe80 f   texture.obj
 0001:0013eeb0       ?loadthumbnail@@YAPAUTexture@@AAUSlot@@@Z 0053feb0 f   texture.obj
 0001:0013f640       ?texalign@@YAHPAXHH@Z      00540640 f   texture.obj
 0001:0013f660       ?blurtexture@@YAXHHHHPAEPBEH@Z 00540660 f   texture.obj
 0001:0013f730       ?blurnormals@@YAXHHHPAUbvec@@PBU1@H@Z 00540730 f   texture.obj
 0001:0013f790       ?lookupvslot@@YAAAUVSlot@@H_N@Z 00540790 f   texture.obj
 0001:0013f800       ?loadlayermasks@@YAXXZ     00540800 f   texture.obj
 0001:0013f8e0       ?savepng@@YAXPBDAAUImageData@@_N@Z 005408e0 f   texture.obj
 0001:0013fcf0       ?createtexture@@YAXHHHPAXHHIIHHH_NI@Z 00540cf0 f   texture.obj
 0001:0013ff20       ?loadimage@@YA_NPBDAAUImageData@@@Z 00540f20 f   texture.obj
 0001:00140960       ?maskreflection@@YAXAAUReflection@@M_N1@Z 00541960 f   water.obj
 0001:00140d80       ?queryreflection@@YAXAAUReflection@@_N@Z 00541d80 f   water.obj
 0001:00141370       ?addreflection@@YAXAAUmaterialsurface@@@Z 00542370 f   water.obj
 0001:001414e0       ?addwaterfallrefraction@@YAXAAUmaterialsurface@@@Z 005424e0 f   water.obj
 0001:00141570       ?genwatertex@@YAXAAI00_N@Z 00542570 f   water.obj
 0001:001418e0       ?var_reflectsize@@YAXXZ    005428e0 f   water.obj
 0001:001418f0       ?cleanreflection@@YAXAAUReflection@@@Z 005428f0 f   water.obj
 0001:00141950       ?var_waterfade@@YAXXZ      00542950 f   water.obj
 0001:00141960       ?renderwaterff@@YAXXZ      00542960 f   water.obj
 0001:00141fd0       ?cleanupwaterTMUs@@YAX_N@Z 00542fd0 f   water.obj
 0001:00142050       ?setupreflectTMUs@@YAXXZ   00543050 f   water.obj
 0001:001420f0       ?setuprefractTMUs@@YAXXZ   005430f0 f   water.obj
 0001:001421c0       ?setprojtexmatrix@@YAXAAUReflection@@_N@Z 005431c0 f   water.obj
 0001:001422b0       ?var_lava4colour@@YAXXZ    005432b0 f   water.obj
 0001:001422f0       ?var_lava3colour@@YAXXZ    005432f0 f   water.obj
 0001:00142330       ?var_lava2colour@@YAXXZ    00543330 f   water.obj
 0001:00142370       ?var_lavacolour@@YAXXZ     00543370 f   water.obj
 0001:001423b0       ?getwaterspec@@YAHH@Z      005433b0 f   water.obj
 0001:001423e0       ?var_water4fallcolour@@YAXXZ 005433e0 f   water.obj
 0001:00142410       ?var_water4colour@@YAXXZ   00543410 f   water.obj
 0001:00142450       ?var_water3fallcolour@@YAXXZ 00543450 f   water.obj
 0001:00142480       ?var_water3colour@@YAXXZ   00543480 f   water.obj
 0001:001424c0       ?var_water2fallcolour@@YAXXZ 005434c0 f   water.obj
 0001:001424f0       ?var_water2colour@@YAXXZ   005434f0 f   water.obj
 0001:00142530       ?var_waterfallcolour@@YAXXZ 00543530 f   water.obj
 0001:00142560       ?var_watercolour@@YAXXZ    00543560 f   water.obj
 0001:00142620       ?var_vertwater@@YAXXZ      00543620 f   water.obj
 0001:001426c0       ?renderflatwater@@YAXHHHIIH@Z 005436c0 f   water.obj
 0001:00142ef0       ?renderwaterlod@@YAIHHHIH@Z 00543ef0 f   water.obj
 0001:001430d0       ?calcwatersubdiv@@YAIHHHI@Z 005440d0 f   water.obj
 0001:00143280       ?rendervertwater@@YAXIHHHIH@Z 00544280 f   water.obj
 0001:00145f90       ?var_waterfallrefract@@YAXXZ 00546f90 f   water.obj
 0001:00145fa0       ?var_waterenvmap@@YAXXZ    00546fa0 f   water.obj
 0001:00145fb0       ?var_waterrefract@@YAXXZ   00546fb0 f   water.obj
 0001:00145fc0       ?var_waterreflect@@YAXXZ   00546fc0 f   water.obj
 0001:00145fd0       ?getlavacolor@@YAABUbvec@@H@Z 00546fd0 f   water.obj
 0001:00146000       ?getlavafog@@YAHH@Z        00547000 f   water.obj
 0001:00146030       ?renderwater@@YAXXZ        00547030 f   water.obj
 0001:00147230       ?queryreflections@@YAXXZ   00548230 f   water.obj
 0001:00147610       ?drawreflections@@YAXXZ    00548610 f   water.obj
 0001:00147f50       ?preloadwatershaders@@YAX_N@Z 00548f50 f   water.obj
 0001:00148160       ?getwatercolor@@YAABUbvec@@H@Z 00549160 f   water.obj
 0001:00148190       ?getwaterfallcolor@@YAABUbvec@@H@Z 00549190 f   water.obj
 0001:001481c0       ?getwaterfog@@YAHH@Z       005491c0 f   water.obj
 0001:001481f0       ?renderlava@@YAXABUmaterialsurface@@PAUTexture@@M@Z 005491f0 f   water.obj
 0001:00148260       ?setupwaterfallrefract@@YAXII@Z 00549260 f   water.obj
 0001:001482c0       ?cleanreflections@@YAXXZ   005492c0 f   water.obj
 0001:00148e30       ?clearsleep_@@YAXPAH@Z     00549e30 f   command.obj
 0001:00148e50       ?checksleep@@YAXH@Z        00549e50 f   command.obj
 0001:00148f00       ?addsleep@@YAXPAHPAD@Z     00549f00 f   command.obj
 0001:00148fa0       ?run@?$_stdcmd@$0LGE@@@SAXPAH@Z 00549fa0 f   command.obj
 0001:00148fd0       ?run@?$_stdcmd@$0LGB@@@SAXPAD00@Z 00549fd0 f   command.obj
 0001:00149000       ?strreplace@@YAPADPBD00@Z  0054a000 f   command.obj
 0001:00149200       ?run@?$_stdcmd@$0LEH@@@SAXPAD@Z 0054a200 f   command.obj
 0001:00149220       ?run@?$_stdcmd@$0LEG@@@SAXPAD0@Z 0054a220 f   command.obj
 0001:00149260       ?run@?$_stdcmd@$0LEF@@@SAXPAD@Z 0054a260 f   command.obj
 0001:00149280       ?run@?$_stdcmd@$0LEE@@@SAXPAD@Z 0054a280 f   command.obj
 0001:001492a0       ?run@?$_stdcmd@$0LED@@@SAXPAD0@Z 0054a2a0 f   command.obj
 0001:001492f0       ?run@?$_stdcmd@$0LEC@@@SAXPAD0@Z 0054a2f0 f   command.obj
 0001:00149340       ?run@?$_stdcmd@$0LEB@@@SAXPAD0@Z 0054a340 f   command.obj
 0001:00149390       ?run@?$_stdcmd@$0LEA@@@SAXPAD0@Z 0054a390 f   command.obj
 0001:001493e0       ?run@?$_stdcmd@$0LDP@@@SAXPAD0@Z 0054a3e0 f   command.obj
 0001:00149430       ?run@?$_stdcmd@$0LDO@@@SAXPAD0@Z 0054a430 f   command.obj
 0001:00149480       ?run@?$_stdcmd@$0LDN@@@SAXPAD0@Z 0054a480 f   command.obj
 0001:001494d0       ?run@?$_stdcmd@$0LDM@@@SAXPAH0@Z 0054a4d0 f   command.obj
 0001:00149520       ?run@?$_stdcmd@$0LDK@@@SAXPAUtagval@@H@Z 0054a520 f   command.obj
 0001:00149620       ?run@?$_stdcmd@$0LDJ@@@SAXPAUtagval@@H@Z 0054a620 f   command.obj
 0001:001497a0       ?run@?$_stdcmd@$0LDI@@@SAXPAUtagval@@H@Z 0054a7a0 f   command.obj
 0001:00149880       ?run@?$_stdcmd@$0LCJ@@@SAXPAUtagval@@H@Z 0054a880 f   command.obj
 0001:00149970       ?run@?$_stdcmd@$0LBF@@@SAXPAM@Z 0054a970 f   command.obj
 0001:00149990       ?run@?$_stdcmd@$0LBE@@@SAXPAH@Z 0054a990 f   command.obj
 0001:001499b0       ?run@?$_stdcmd@$0LBD@@@SAXPAUtagval@@H@Z 0054a9b0 f   command.obj
 0001:00149b10       ?run@?$_stdcmd@$0LAN@@@SAXPAUtagval@@H@Z 0054ab10 f   command.obj
 0001:00149c60       ?run@?$_stdcmd@$0LAH@@@SAXPAUtagval@@H@Z 0054ac60 f   command.obj
 0001:00149d30       ?run@?$_stdcmd@$0LAB@@@SAXPAUtagval@@H@Z 0054ad30 f   command.obj
 0001:00149e00       ?run@?$_stdcmd@$0KPL@@@SAXPAM@Z 0054ae00 f   command.obj
 0001:00149e20       ?run@?$_stdcmd@$0KPK@@@SAXPAM@Z 0054ae20 f   command.obj
 0001:00149e40       ?run@?$_stdcmd@$0KPJ@@@SAXPAM@Z 0054ae40 f   command.obj
 0001:00149e80       ?run@?$_stdcmd@$0KPI@@@SAXPAM@Z 0054ae80 f   command.obj
 0001:00149eb0       ?run@?$_stdcmd@$0KPH@@@SAXPAM0@Z 0054aeb0 f   command.obj
 0001:00149ee0       ?run@?$_stdcmd@$0KPG@@@SAXPAM@Z 0054aee0 f   command.obj
 0001:00149f10       ?run@?$_stdcmd@$0KPF@@@SAXPAM@Z 0054af10 f   command.obj
 0001:00149f40       ?run@?$_stdcmd@$0KPE@@@SAXPAM@Z 0054af40 f   command.obj
 0001:00149f70       ?run@?$_stdcmd@$0KPD@@@SAXPAM@Z 0054af70 f   command.obj
 0001:00149fa0       ?run@?$_stdcmd@$0KPC@@@SAXPAM@Z 0054afa0 f   command.obj
 0001:00149fd0       ?run@?$_stdcmd@$0KPB@@@SAXPAM@Z 0054afd0 f   command.obj
 0001:0014a000       ?run@?$_stdcmd@$0KPA@@@SAXPAM@Z 0054b000 f   command.obj
 0001:0014a030       ?run@?$_stdcmd@$0KOP@@@SAXPAM0@Z 0054b030 f   command.obj
 0001:0014a070       ?run@?$_stdcmd@$0KOO@@@SAXPAM0@Z 0054b070 f   command.obj
 0001:0014a0b0       ?run@?$_stdcmd@$0KON@@@SAXPAH0@Z 0054b0b0 f   command.obj
 0001:0014a0f0       ?run@?$_stdcmd@$0KOM@@@SAXPAH0@Z 0054b0f0 f   command.obj
 0001:0014a130       ?run@?$_stdcmd@$0KOK@@@SAXPAUtagval@@H@Z 0054b130 f   command.obj
 0001:0014a200       ?run@?$_stdcmd@$0KOA@@@SAXPAUtagval@@H@Z 0054b200 f   command.obj
 0001:0014a2d0       ?run@?$_stdcmd@$0KNG@@@SAXPAH0@Z 0054b2d0 f   command.obj
 0001:0014a2f0       ?run@?$_stdcmd@$0KNF@@@SAXPAH0@Z 0054b2f0 f   command.obj
 0001:0014a310       ?run@?$_stdcmd@$0KNE@@@SAXPAH0@Z 0054b310 f   command.obj
 0001:0014a330       ?run@?$_stdcmd@$0KND@@@SAXPAH0@Z 0054b330 f   command.obj
 0001:0014a350       ?run@?$_stdcmd@$0KNC@@@SAXPAH0@Z 0054b350 f   command.obj
 0001:0014a370       ?run@?$_stdcmd@$0KNB@@@SAXPAH@Z 0054b370 f   command.obj
 0001:0014a390       ?run@?$_stdcmd@$0KNA@@@SAXPAH0@Z 0054b390 f   command.obj
 0001:0014a3b0       ?run@?$_stdcmd@$0KMP@@@SAXPAH0@Z 0054b3b0 f   command.obj
 0001:0014a3d0       ?run@?$_stdcmd@$0KMO@@@SAXPAUtagval@@@Z 0054b3d0 f   command.obj
 0001:0014a440       ?run@?$_stdcmd@$0KMN@@@SAXPAH0@Z 0054b440 f   command.obj
 0001:0014a460       ?run@?$_stdcmd@$0KMM@@@SAXPAM0@Z 0054b460 f   command.obj
 0001:0014a490       ?run@?$_stdcmd@$0KML@@@SAXPAM0@Z 0054b490 f   command.obj
 0001:0014a4c0       ?run@?$_stdcmd@$0KMK@@@SAXPAM0@Z 0054b4c0 f   command.obj
 0001:0014a4f0       ?run@?$_stdcmd@$0KMJ@@@SAXPAM0@Z 0054b4f0 f   command.obj
 0001:0014a520       ?run@?$_stdcmd@$0KMI@@@SAXPAM0@Z 0054b520 f   command.obj
 0001:0014a550       ?run@?$_stdcmd@$0KMH@@@SAXPAM0@Z 0054b550 f   command.obj
 0001:0014a580       ?run@?$_stdcmd@$0KMG@@@SAXPAH0@Z 0054b580 f   command.obj
 0001:0014a5a0       ?run@?$_stdcmd@$0KMF@@@SAXPAH0@Z 0054b5a0 f   command.obj
 0001:0014a5c0       ?run@?$_stdcmd@$0KME@@@SAXPAH0@Z 0054b5c0 f   command.obj
 0001:0014a5e0       ?run@?$_stdcmd@$0KMD@@@SAXPAH0@Z 0054b5e0 f   command.obj
 0001:0014a600       ?run@?$_stdcmd@$0KMC@@@SAXPAH0@Z 0054b600 f   command.obj
 0001:0014a620       ?run@?$_stdcmd@$0KMB@@@SAXPAH0@Z 0054b620 f   command.obj
 0001:0014a640       ?run@?$_stdcmd@$0KMA@@@SAXPAM0@Z 0054b640 f   command.obj
 0001:0014a670       ?run@?$_stdcmd@$0KLP@@@SAXPAM0@Z 0054b670 f   command.obj
 0001:0014a6a0       ?run@?$_stdcmd@$0KLO@@@SAXPAM0@Z 0054b6a0 f   command.obj
 0001:0014a6d0       ?run@?$_stdcmd@$0KLN@@@SAXPAH0@Z 0054b6d0 f   command.obj
 0001:0014a6f0       ?run@?$_stdcmd@$0KLM@@@SAXPAH0@Z 0054b6f0 f   command.obj
 0001:0014a710       ?run@?$_stdcmd@$0KLL@@@SAXPAH0@Z 0054b710 f   command.obj
 0001:0014a730       ?sortlist@@YAXPADPAUident@@1PAI@Z 0054b730 f   command.obj
 0001:0014a9f0       ?run@?$_stdcmd@$0KHC@@@SAXPAUident@@PAD1PAI@Z 0054b9f0 f   command.obj
 0001:0014abb0       ?run@?$_stdcmd@$0KFF@@@SAXPAUident@@PADPAI@Z 0054bbb0 f   command.obj
 0001:0014abd0       ?run@?$_stdcmd@$0KFE@@@SAXPAUident@@PADPAI@Z 0054bbd0 f   command.obj
 0001:0014abf0       ?run@?$_stdcmd@$0KFD@@@SAXPAD0@Z 0054bbf0 f   command.obj
 0001:0014ac30       ?run@?$_stdcmd@$0KFC@@@SAXPAD0@Z 0054bc30 f   command.obj
 0001:0014ac50       ?listsplice@@YAXPBD0PAH11@Z 0054bc50 f   command.obj
 0001:0014af10       ?listdel@@YAPADPBD0@Z      0054bf10 f   command.obj
 0001:0014b0b0       ?listincludes@@YAHPBD0H@Z  0054c0b0 f   command.obj
 0001:0014b310       ?prettylist@@YAXPBD0@Z     0054c310 f   command.obj
 0001:0014b590       ?looplist@@YAXPAUident@@PBDPBI_N@Z 0054c590 f   command.obj
 0001:0014b760       ?run@?$_stdcmd@$0JOH@@@SAXPAD@Z 0054c760 f   command.obj
 0001:0014b7b0       ?run@?$_stdcmd@$0JOG@@@SAXPAD@Z 0054c7b0 f   command.obj
 0001:0014b800       ?run@?$_stdcmd@$0JOF@@@SAXPAD@Z 0054c800 f   command.obj
 0001:0014b840       ?run@?$_stdcmd@$0JOE@@@SAXPAD@Z 0054c840 f   command.obj
 0001:0014b880       ?run@?$_stdcmd@$0JOC@@@SAXPAD@Z 0054c880 f   command.obj
 0001:0014b8a0       ?run@?$_stdcmd@$0JNP@@@SAXPAD@Z 0054c8a0 f   command.obj
 0001:0014b900       ?run@?$_stdcmd@$0JNI@@@SAXPAD@Z 0054c900 f   command.obj
 0001:0014b960       ?run@?$_stdcmd@$0JNB@@@SAXPAD@Z 0054c960 f   command.obj
 0001:0014b9c0       ?run@?$_stdcmd@$0JML@@@SAXPAUtagval@@@Z 0054c9c0 f   command.obj
 0001:0014b9e0       ?run@?$_stdcmd@$0JMG@@@SAXPAD@Z 0054c9e0 f   command.obj
 0001:0014b9f0       ?getalias_@@YAXPAD@Z       0054c9f0 f   command.obj
 0001:0014ba90       ?sublist@@YAXPBDPAH11@Z    0054ca90 f   command.obj
 0001:0014bc00       ?substr@@YAXPADPAH11@Z     0054cc00 f   command.obj
 0001:0014bc90       ?at@@YAXPAUtagval@@H@Z     0054cc90 f   command.obj
 0001:0014be30       ?listlen@@YAHPBD@Z         0054ce30 f   command.obj
 0001:0014c080       ?indexlist@@YAPADPBDH@Z    0054d080 f   command.obj
 0001:0014c3d0       ?format@@YAXPAUtagval@@H@Z 0054d3d0 f   command.obj
 0001:0014c600       ?result@@YAXAAUtagval@@@Z  0054d600 f   command.obj
 0001:0014c620       ?concatword@@YAXPAUtagval@@H@Z 0054d620 f   command.obj
 0001:0014c650       ?concat@@YAXPAUtagval@@H@Z 0054d650 f   command.obj
 0001:0014c680       ?run@?$_stdcmd@$0JCL@@@SAXPAUident@@PAHPAI@Z 0054d680 f   command.obj
 0001:0014c6c0       ?run@?$_stdcmd@$0JCG@@@SAXPAUident@@PAHPAI@Z 0054d6c0 f   command.obj
 0001:0014c700       ?loopconc@@YAPADPAUident@@HPAI_N@Z 0054d700 f   command.obj
 0001:0014c9c0       ?run@?$_stdcmd@$0JAN@@@SAXPAI0@Z 0054d9c0 f   command.obj
 0001:0014ca00       ?run@?$_stdcmd@$0JAM@@@SAXPAUident@@PAHPAI2@Z 0054da00 f   command.obj
 0001:0014cac0       ?run@?$_stdcmd@$0JAA@@@SAXPAUident@@PAHPAI@Z 0054dac0 f   command.obj
 0001:0014cbd0       ?run@?$_stdcmd@$0IOA@@@SAXPAUtagval@@00@Z 0054dbd0 f   command.obj
 0001:0014cc50       ?run@?$_stdcmd@$0INP@@@SAXPAUtagval@@PAI1@Z 0054dc50 f   command.obj
 0001:0014cd00       ?run@?$_stdcmd@$0INO@@@SAXPAI@Z 0054dd00 f   command.obj
 0001:0014cd10       ?writecfg@@YAXPBD@Z        0054dd10 f   command.obj
 0001:0014d220       ?validateblock@@YA_NPBD@Z  0054e220 f   command.obj
 0001:0014d480       ?executeret@@YAXPBDAAUtagval@@@Z 0054e480 f   command.obj
 0001:0014d5c0       ?executeret@@YAXPBIAAUtagval@@@Z 0054e5c0 f   command.obj
 0001:0014ff50       ?printvar@@YAXPAUident@@@Z 00550f50 f   command.obj
 0001:0014ffb0       ?printsvar@@YAXPAUident@@PBD@Z 00550fb0 f   command.obj
 0001:0014ffe0       ?printfvar@@YAXPAUident@@M@Z 00550fe0 f   command.obj
 0001:00150070       ?printvar@@YAXPAUident@@H@Z 00551070 f   command.obj
 0001:001500f0       ?freecode@@YAXPAI@Z        005510f0 f   command.obj
 0001:00150170       ?compilecode@@YAPAIPBD@Z   00551170 f   command.obj
 0001:00152930       ?conc@@YAPADPAUtagval@@H_NPBD@Z 00553930 f   command.obj
 0001:00152d30       ?unescapestring@@YAHPADPBD1@Z 00553d30 f   command.obj
 0001:00152d80       ?parsestring@@YAPBDPBD@Z   00553d80 f   command.obj
 0001:00152e20       ?addkeyword@@YA_NHPBD@Z    00553e20 f   command.obj
 0001:00152e60       ?setsvarchecked@@YAXPAUident@@PBD@Z 00553e60 f   command.obj
 0001:00152f40       ?setfvarchecked@@YAXPAUident@@M@Z 00553f40 f   command.obj
 0001:00153070       ?clampfvar@@YAMPAUident@@MMM@Z 00554070 f   command.obj
 0001:001530e0       ?setvarchecked@@YAXPAUident@@H@Z 005540e0 f   command.obj
 0001:001531b0       ?clampvar@@YAHPAUident@@HHH@Z 005541b0 f   command.obj
 0001:00153210       ?getalias@@YAPBDPBD@Z      00554210 f   command.obj
 0001:00153260       ?getfvarmax@@YAMPBD@Z      00554260 f   command.obj
 0001:00153290       ?getfvarmin@@YAMPBD@Z      00554290 f   command.obj
 0001:001532c0       ?getvarmax@@YAHPBD@Z       005542c0 f   command.obj
 0001:001532e0       ?getvarmin@@YAHPBD@Z       005542e0 f   command.obj
 0001:00153300       ?run@?$_icmd_alias@$0BNN@@@SAXPBDPAUtagval@@@Z 00554300 f   command.obj
 0001:00153320       ?alias@@YAXPBD0@Z          00554320 f   command.obj
 0001:00153580       ?resetvar@@YAXPAD@Z        00554580 f   command.obj
 0001:001535b0       ?readident@@YAPAUident@@PBD@Z 005545b0 f   command.obj
 0001:001535f0       ?writeident@@YAPAUident@@PBDH@Z 005545f0 f   command.obj
 0001:00153650       ?newident@@YAPAUident@@PBDH@Z 00554650 f   command.obj
 0001:00153790       ?run@?$_icmd_push@$0BFD@@@SAXPAUident@@PAUtagval@@PAI@Z 00554790 f   command.obj
 0001:001538b0       ?run@?$_icmd_nodebug@$0BCP@@@SAXPAI@Z 005548b0 f   command.obj
 0001:00153dd0       ?clearoverride@@YAXAAUident@@@Z 00554dd0 f   command.obj
 0001:00153e60       ?clear_command@@YAXXZ      00554e60 f   command.obj
 0001:001542b0       ?stringret@@YAXPAD@Z       005552b0 f   command.obj
 0001:001542c0       ?explodelist@@YAXPBDAAU?$vector@PAD@@H@Z 005552c0 f   command.obj
 0001:00154350       ?floatret@@YAXM@Z          00555350 f   command.obj
 0001:00154370       ?floatstr@@YAPBDM@Z        00555370 f   command.obj
 0001:001543f0       ?executestr@@YAPADPBD@Z    005553f0 f   command.obj
 0001:00154400       ?identexists@@YA_NPBD@Z    00555400 f   command.obj
 0001:00154420       ?intstr@@YAPBDH@Z          00555420 f   command.obj
 0001:00154470       ?escapestring@@YAPBDPBD@Z  00555470 f   command.obj
 0001:001546e0       ?escapeid@@YAPBDPBD@Z      005556e0 f   command.obj
 0001:00154710       ?setsvar@@YAXPBD0_N@Z      00555710 f   command.obj
 0001:001547c0       ?getident@@YAPAUident@@PBD@Z 005557c0 f   command.obj
 0001:001547d0       ?setfvar@@YAXPBDM_N1@Z     005557d0 f   command.obj
 0001:00154870       ?svariable@@YAPADPBD0PAPADP6AXXZH@Z 00555870 f   command.obj
 0001:001548f0       ?executebool@@YA_NPBI@Z    005558f0 f   command.obj
 0001:00154990       ?execute@@YAHPBI@Z         00555990 f   command.obj
 0001:00154a30       ?clearoverrides@@YAXXZ     00555a30 f   command.obj
 0001:00154b50       ?clearsleep@@YAX_N@Z       00555b50 f   command.obj
 0001:00154bd0       ?setvar@@YAXPBDH_N1@Z      00555bd0 f   command.obj
 0001:00154c70       ?execute@@YAHPBD@Z         00555c70 f   command.obj
 0001:00154e30       ?fvariable@@YAMPBDMMMPAMP6AXXZH@Z 00555e30 f   command.obj
 0001:00154e90       ?execfile@@YA_NPBD_N@Z     00555e90 f   command.obj
 0001:00154f40       ?variable@@YAHPBDHHHPAHP6AXXZH@Z 00555f40 f   command.obj
 0001:00154fa0       ?result@@YAXPBD@Z          00555fa0 f   command.obj
 0001:00155000       ?intret@@YAXH@Z            00556000 f   command.obj
 0001:00155010       ?addcommand@@YA_NPBDP6AXXZ0@Z 00556010 f   command.obj
 0001:00155860       ?complete@@YAXPADPBD@Z     00556860 f   console.obj
 0001:00155c10       ?addlistcomplete@@YAXPAD0@Z 00556c10 f   console.obj
 0001:00155c30       ?addfilecomplete@@YAXPAD00@Z 00556c30 f   console.obj
 0001:00155c50       ?addcomplete@@YAXPADH00@Z  00556c50 f   console.obj
 0001:00155e00       ?resetcomplete@@YAXXZ      00556e00 f   console.obj
 0001:00155f20       ?clear_console@@YAXXZ      00556f20 f   console.obj
 0001:00155f30       ?keypress@@YAXH_NH@Z       00556f30 f   console.obj
 0001:00155fd0       ?consolekey@@YAXH_NH@Z     00556fd0 f   console.obj
 0001:001566b0       ?execbind@@YAXAAUkeym@@_N@Z 005576b0 f   console.obj
 0001:001567d0       ?onrelease@@YAXPBD@Z       005577d0 f   console.obj
 0001:00156860       ?history_@@YAXPAH@Z        00557860 f   console.obj
 0001:001568a0       ?pasteconsole@@YAXXZ       005578a0 f   console.obj
 0001:001569b0       ?run@?$_icmd_saycommand@$0BBE@@@SAXPAD@Z 005579b0 f   console.obj
 0001:001569d0       ?inputcommand@@YAXPAD000@Z 005579d0 f   console.obj
 0001:00156b10       ?run@?$_icmd_searcheditbinds@$0PN@@@SAXPAD@Z 00557b10 f   console.obj
 0001:00156b20       ?run@?$_icmd_searchspecbinds@$0PM@@@SAXPAD@Z 00557b20 f   console.obj
 0001:00156b30       ?run@?$_icmd_searchbinds@$0PL@@@SAXPAD@Z 00557b30 f   console.obj
 0001:00156b40       ?run@?$_icmd_geteditbind@$0PK@@@SAXPAD@Z 00557b40 f   console.obj
 0001:00156b50       ?run@?$_icmd_getspecbind@$0PJ@@@SAXPAD@Z 00557b50 f   console.obj
 0001:00156b60       ?run@?$_icmd_getbind@$0PI@@@SAXPAD@Z 00557b60 f   console.obj
 0001:00156b70       ?run@?$_icmd_editbind@$0PH@@@SAXPAD0@Z 00557b70 f   console.obj
 0001:00156bb0       ?run@?$_icmd_specbind@$0PG@@@SAXPAD0@Z 00557bb0 f   console.obj
 0001:00156bf0       ?run@?$_icmd_bind@$0PF@@@SAXPAD0@Z 00557bf0 f   console.obj
 0001:00156c30       ?bindkey@@YAXPAD0HPBD@Z    00557c30 f   console.obj
 0001:00156d00       ?getbind@@YAXPADH@Z        00557d00 f   console.obj
 0001:00156d70       ?findbind@@YAPAUkeym@@PAD@Z 00557d70 f   console.obj
 0001:00156dd0       ?searchbinds@@YAXPADH@Z    00557dd0 f   console.obj
 0001:00156fb0       ?keymap@@YAXPAHPAD@Z       00557fb0 f   console.obj
 0001:00157070       ?drawconlines@@YAHHHHHHHHH@Z 00558070 f   console.obj
 0001:00157240       ?run@?$_icmd_clearconsole@$0GD@@@SAXXZ 00558240 f   console.obj
 0001:00157280       ?run@?$_icmd_miniconskip@$0GB@@@SAXPAH@Z 00558280 f   console.obj
 0001:001572a0       ?run@?$_icmd_conskip@$0GA@@@SAXPAH@Z 005582a0 f   console.obj
 0001:001572d0       ?setconskip@@YAXAAHHH@Z    005582d0 f   console.obj
 0001:00157350       ?run@?$_icmd_toggleconsole@$0DG@@@SAXXZ 00558350 f   console.obj
 0001:00157360       ?conline@@YAXHPBD@Z        00558360 f   console.obj
 0001:00157400       ?var_maxcon@@YAXXZ         00558400 f   console.obj
 0001:00157450       ?conoutfv@@YAXHPBDPAD@Z    00558450 f   console.obj
 0001:001574a0       ?addreleaseaction@@YAPBDPAD@Z 005584a0 f   console.obj
 0001:001574f0       ?writebinds@@YAXPAUstream@@@Z 005584f0 f   console.obj
 0001:001576a0       ?writecompletions@@YAXPAUstream@@@Z 005586a0 f   console.obj
 0001:001578c0       ?rendercommand@@YAHHHH@Z   005588c0 f   console.obj
 0001:001579d0       ?renderconsole@@YAHHHH@Z   005589d0 f   console.obj
 0001:00157b80       ?getkeyname@@YAPBDH@Z      00558b80 f   console.obj
 0001:00157bb0       ?conoutf@@YAXPBDZZ         00558bb0 f   console.obj
 0001:00157c00       ?conoutf@@YAXHPBDZZ        00558c00 f   console.obj
 0001:00157d70       ?getclockmillis@@YAHXZ     00558d70 f   main.obj
 0001:00157dc0       ?var_clockfix@@YAXXZ       00558dc0 f   main.obj
 0001:00157de0       ?var_clockerror@@YAXXZ     00558de0 f   main.obj
 0001:00157e60       ?getfps_@@YAXPAH@Z         00558e60 f   main.obj
 0001:00157ed0       ?updatefpshistory@@YAXH@Z  00558ed0 f   main.obj
 0001:00157f00       ?resetfpshistory@@YAXXZ    00558f00 f   main.obj
 0001:00157f20       ?stackdumper@@YAXIPAU_EXCEPTION_POINTERS@@@Z 00558f20 f   main.obj
 0001:00158150       ?limitfps@@YAXAAHH@Z       00559150 f   main.obj
 0001:001581e0       ?swapbuffers@@YAXXZ        005591e0 f   main.obj
 0001:00158200       ?checkinput@@YAXXZ         00559200 f   main.obj
 0001:00158520       ?pushevent@@YAXABTSDL_Event@@@Z 00559520 f   main.obj
 0001:00158530       ?resetgl@@YAXXZ            00559530 f   main.obj
 0001:00158710       ?setupscreen@@YAXAAH00@Z   00559710 f   main.obj
 0001:00158d60       ?cleargamma@@YAXXZ         00559d60 f   main.obj
 0001:00158d90       ?restoregamma@@YAXXZ       00559d90 f   main.obj
 0001:00158e00       ?var_gamma@@YAXXZ          00559e00 f   main.obj
 0001:00158e60       ?screenres@@YAXPAH0@Z      00559e60 f   main.obj
 0001:00158ec0       ?var_fullscreen@@YAXXZ     00559ec0 f   main.obj
 0001:00158f00       ?setfullscreen@@YAX_N@Z    00559f00 f   main.obj
 0001:00158f30       ?inputgrab@@YAX_N@Z        00559f30 f   main.obj
 0001:00158f60       ?restorebackground@@YAXXZ  00559f60 f   main.obj
 0001:00159050       ?var_vsync@@YAXXZ          0055a050 f   main.obj
 0001:00159070       ?var_fsaa@@YAXXZ           0055a070 f   main.obj
 0001:00159090       ?var_stencilbits@@YAXXZ    0055a090 f   main.obj
 0001:001590b0       ?var_depthbits@@YAXXZ      0055a0b0 f   main.obj
 0001:001590d0       ?var_colorbits@@YAXXZ      0055a0d0 f   main.obj
 0001:001590f0       ?var_scr_h@@YAXXZ          0055a0f0 f   main.obj
 0001:00159110       ?var_scr_w@@YAXXZ          0055a110 f   main.obj
 0001:00159130       ?quit@@YAXXZ               0055a130 f   main.obj
 0001:00159170       ?cleanup@@YAXXZ            0055a170 f   main.obj
 0001:00159200       ?writeinitcfg@@YAXXZ       0055a200 f   main.obj
 0001:00159330       ?initwarning@@YA_NPBDHH@Z  0055a330 f   main.obj
 0001:00159340       ?getfps@@YAXAAH00@Z        0055a340 f   main.obj
 0001:001593b0       _SDL_main                  0055a3b0 f   main.obj
 0001:00159d70       ?keyrepeat@@YAX_N@Z        0055ad70 f   main.obj
 0001:00159d90       ?interceptkey@@YA_NH@Z     0055ad90 f   main.obj
 0001:00159e70       ?renderprogress@@YAXMPBDI_N@Z 0055ae70 f   main.obj
 0001:0015a8e0       ?renderbackground@@YAXPBDPAUTexture@@00_N2@Z 0055b8e0 f   main.obj
 0001:0015bcc0       ?fatal@@YAXPBDZZ           0055ccc0 f   main.obj
 0001:0015c130       ?guimodelpreview@@YAXPAD00PAMPAH@Z 0055d130 f   menus.obj
 0001:0015c280       ?guiplayerpreview@@YAXPAH00PADPAM0@Z 0055d280 f   menus.obj
 0001:0015c300       ?run@?$_icmd_cleargui@$0CDL@@@SAXPAH@Z 0055d300 f   menus.obj
 0001:0015c320       ?notifywelcome@@YAXXZ      0055d320 f   menus.obj
 0001:0015c360       ?guiservers@@YAXPAIPAH1@Z  0055d360 f   menus.obj
 0001:0015c3e0       ?newgui@@YAXPAD000@Z       0055d3e0 f   menus.obj
 0001:0015c500       ?guialign@@YAXPAHPAI@Z     0055d500 f   menus.obj
 0001:0015c550       ?guilist@@YAXPAI@Z         0055d550 f   menus.obj
 0001:0015c580       ?guikeyfield@@YAXPADPAH0@Z 0055d580 f   menus.obj
 0001:0015c5e0       ?guieditor@@YAXPADPAH11@Z  0055d5e0 f   menus.obj
 0001:0015c630       ?guifield@@YAXPADPAH0@Z    0055d630 f   menus.obj
 0001:0015c690       ?guibitfield@@YAXPAD0PAH0@Z 0055d690 f   menus.obj
 0001:0015c710       ?guiradio@@YAXPAD0PAM0@Z   0055d710 f   menus.obj
 0001:0015c780       ?guicheckbox@@YAXPAD0PAM10@Z 0055d780 f   menus.obj
 0001:0015c820       ?guinameslider@@YAXPAD000@Z 0055d820 f   menus.obj
 0001:0015c9b0       ?guilistslider@@YAXPAD00@Z 0055d9b0 f   menus.obj
 0001:0015cb60       ?guislider@@YAXPADPAH10@Z  0055db60 f   menus.obj
 0001:0015cdd0       ?guicolumn@@YAXPAH@Z       0055ddd0 f   menus.obj
 0001:0015cdf0       ?guispring@@YAXPAH@Z       0055ddf0 f   menus.obj
 0001:0015ce20       ?guistrut@@YAXPAMPAH@Z     0055de20 f   menus.obj
 0001:0015ce50       ?guibar@@YAXXZ             0055de50 f   menus.obj
 0001:0015ce60       ?guitab@@YAXPAD@Z          0055de60 f   menus.obj
 0001:0015ce80       ?guititle@@YAXPAD@Z        0055de80 f   menus.obj
 0001:0015cea0       ?guitext@@YAXPAD0@Z        0055dea0 f   menus.obj
 0001:0015cf30       ?guitextbox@@YAXPADPAH11@Z 0055df30 f   menus.obj
 0001:0015cf90       ?guicolor@@YAXPAH@Z        0055df90 f   menus.obj
 0001:0015cfe0       ?guiimage@@YAXPAD0PAMPAH0@Z 0055dfe0 f   menus.obj
 0001:0015d0b0       ?guibutton@@YAXPAD00@Z     0055e0b0 f   menus.obj
 0001:0015d190       ?guinoautotab@@YAXPAI@Z    0055e190 f   menus.obj
 0001:0015d1c0       ?guistayopen@@YAXPAI@Z     0055e1c0 f   menus.obj
 0001:0015d1e0       ?guionclear@@YAXPAD@Z      0055e1e0 f   menus.obj
 0001:0015d220       ?clearguis@@YAXH@Z         0055e220 f   menus.obj
 0001:0015d270       ?hidegui@@YAXPBD@Z         0055e270 f   menus.obj
 0001:0015d290       ?showgui@@YAXPBD@Z         0055e290 f   menus.obj
 0001:0015d2e0       ?restoregui@@YAXH@Z        0055e2e0 f   menus.obj
 0001:0015d330       ?pushgui@@YAXPAUmenu@@H@Z  0055e330 f   menus.obj
 0001:0015d490       ?removegui@@YAXPAUmenu@@@Z 0055e490 f   menus.obj
 0001:0015d4f0       ?popgui@@YAXXZ             0055e4f0 f   menus.obj
 0001:0015d510       ?addchange@@YAXPBDH@Z      0055e510 f   menus.obj
 0001:0015d620       ?clearchanges@@YAXH@Z      0055e620 f   menus.obj
 0001:0015d6e0       ?menuprocess@@YAXXZ        0055e6e0 f   menus.obj
 0001:0015d800       ?cleargui@@YAHH@Z          0055e800 f   menus.obj
 0001:0015d8f0       ?g3d_mainmenu@@YAXXZ       0055e8f0 f   menus.obj
 0001:0015d9b0       ?clearmainmenu@@YAXXZ      0055e9b0 f   menus.obj
 0001:0015d9f0       ?menuinfrontofplayer@@YA?AUvec@@XZ 0055e9f0 f   menus.obj
 0001:0015dae0       ?run@?$_icmd_movierecording@$0EKH@@@SAXXZ 0055eae0 f   movie.obj
 0001:0015db00       ?movie@@YAXPAD@Z           0055eb00 f   movie.obj
 0001:0015db60       ?drawhud@recorder@@YAXXZ   0055eb60 f   movie.obj
 0001:0015ddc0       ?readbuffer@recorder@@YA_NXZ 0055edc0 f   movie.obj
 0001:0015dee0       ?readbuffer@recorder@@YAXAAUvideobuffer@1@I@Z 0055eee0 f   movie.obj
 0001:0015ecb0       ?drawquad@recorder@@YAXMMMMMM@Z 0055fcb0 f   movie.obj
 0001:0015ede0       ?start@recorder@@YAXPBDHHH_N@Z 0055fde0 f   movie.obj
 0001:0015f180       ?soundencoder@recorder@@YAXPAXPAEH@Z 00560180 f   movie.obj
 0001:0015f240       ?videoencoder@recorder@@YAHPAX@Z 00560240 f   movie.obj
 0001:0015f510       ?gettime@recorder@@YAHXZ   00560510 f   movie.obj
 0001:0015f570       ?calcquality@recorder@@YAMXZ 00560570 f   movie.obj
 0001:0015f5d0       ?isrecording@recorder@@YA_NXZ 005605d0 f   movie.obj
 0001:0015f5e0       ?stop@recorder@@YAXXZ      005605e0 f   movie.obj
 0001:0015f770       ?cleanup@recorder@@YAXXZ   00560770 f   movie.obj
 0001:0015f810       ?capture@recorder@@YAXXZ   00560810 f   movie.obj
 0001:0015f960       ?updatemumble@@YAXXZ       00560960 f   sound.obj
 0001:0015fb00       ?closemumble@@YAXXZ        00560b00 f   sound.obj
 0001:0015fb40       ?var_mumble@@YAXXZ         00560b40 f   sound.obj
 0001:0015fb90       ?resetsound@@YAXXZ         00560b90 f   sound.obj
 0001:0015fd90       ?sound@@YAXPAH@Z           00560d90 f   sound.obj
 0001:00160000       ?stopsound@@YA_NHHH@Z      00561000 f   sound.obj
 0001:001600c0       ?playsound@@YAHHPBUvec@@PAUextentity@@HHHHHH@Z 005610c0 f   sound.obj
 0001:00160540       ?preloadmapsound@@YAXH@Z   00561540 f   sound.obj
 0001:00160580       ?preloadsound@@YAXH@Z      00561580 f   sound.obj
 0001:00160750       ?updatechannel@@YA_NAAUsoundchannel@@@Z 00561750 f   sound.obj
 0001:001609a0       ?checkmapsounds@@YAXXZ     005619a0 f   sound.obj
 0001:00160ce0       ?stopmapsound@@YAXPAUextentity@@@Z 00561ce0 f   sound.obj
 0001:00160d60       ?stopmapsounds@@YAXXZ      00561d60 f   sound.obj
 0001:00160de0       ?resetchannels@@YAXXZ      00561de0 f   sound.obj
 0001:00160e40       ?altmapsound@@YAXPADPAH@Z  00561e40 f   sound.obj
 0001:00160e80       ?altsound@@YAXPADPAH@Z     00561e80 f   sound.obj
 0001:00160ec0       ?mapsound@@YAXPADPAH1@Z    00561ec0 f   sound.obj
 0001:00160f50       ?registersound@@YAXPADPAH@Z 00561f50 f   sound.obj
 0001:00161160       ?startmusic@@YAXPAD0@Z     00562160 f   sound.obj
 0001:001612c0       ?loadmusic@@YAPAU_Mix_Music@@PBD@Z 005622c0 f   sound.obj
 0001:001613b0       ?musicdone@@YAXXZ          005623b0 f   sound.obj
 0001:00161460       ?var_soundbufferlen@@YAXXZ 00562460 f   sound.obj
 0001:00161480       ?var_soundfreq@@YAXXZ      00562480 f   sound.obj
 0001:001614a0       ?var_soundchans@@YAXXZ     005624a0 f   sound.obj
 0001:001614c0       ?stopmusic@@YAXXZ          005624c0 f   sound.obj
 0001:00161570       ?setmusicvol@@YAXH@Z       00562570 f   sound.obj
 0001:001615b0       ?var_musicvol@@YAXXZ       005625b0 f   sound.obj
 0001:001615f0       ?var_soundvol@@YAXXZ       005625f0 f   sound.obj
 0001:00161620       ?stopchannels@@YAXXZ       00562620 f   sound.obj
 0001:00161690       ?syncchannel@@YAXAAUsoundchannel@@@Z 00562690 f   sound.obj
 0001:001616e0       ?freechannel@@YAXH@Z       005626e0 f   sound.obj
 0001:00161720       ?newchannel@@YAAAUsoundchannel@@HPAUsoundslot@@PBUvec@@PAUextentity@@HH@Z 00562720 f   sound.obj
 0001:00161870       ?stopsounds@@YAXXZ         00562870 f   sound.obj
 0001:001618e0       ?initsound@@YAXXZ          005628e0 f   sound.obj
 0001:00161950       ?initmumble@@YAXXZ         00562950 f   sound.obj
 0001:00161a10       ?updatesounds@@YAXXZ       00562a10 f   sound.obj
 0001:00161b50       ?clear_sound@@YAXXZ        00562b50 f   sound.obj
 0001:00161c30       ?preloadmapsounds@@YAXXZ   00562c30 f   sound.obj
 0001:00161ca0       ?clearmapsounds@@YAXXZ     00562ca0 f   sound.obj
 0001:00161cf0       ?checkchallenge@@YA_NPBDPAX@Z 00562cf0 f   crypto.obj
 0001:00161d50       ?freechallenge@@YAXPAX@Z   00562d50 f   crypto.obj
 0001:00161d60       ?genchallenge@@YAPAXPAXPBXHAAU?$vector@D@@@Z 00562d60 f   crypto.obj
 0001:00161f70       ?freepubkey@@YAXPAX@Z      00562f70 f   crypto.obj
 0001:00161f80       ?parsepubkey@@YAPAXPBD@Z   00562f80 f   crypto.obj
 0001:00161fe0       ?answerchallenge@@YAXPBD0AAU?$vector@D@@@Z 00562fe0 f   crypto.obj
 0001:001620c0       ?hashstring@@YA_NPBDPADH@Z 005630c0 f   crypto.obj
 0001:001621d0       ?genprivkey@@YAXPBDAAU?$vector@D@@1@Z 005631d0 f   crypto.obj
 0001:001623a0       ?hash@tiger@@YAXPBEHAAThashval@1@@Z 005633a0 f   crypto.obj
 0001:001624c0       ?gensboxes@tiger@@YAXXZ    005634c0 f   crypto.obj
 0001:001626b0       ?compress@tiger@@YAXPB_KQA_K@Z 005636b0 f   crypto.obj
 0001:00163230       ?linecylinderintersect@@YA_NABUvec@@000MAAM@Z 00564230 f   geom.obj
 0001:00163630       ?adjoint@glmatrixf@@QAEXABU1@@Z 00564630 f   geom.obj
 0001:00163bc0       ?invert@glmatrixf@@QAE_NABU1@M@Z 00564bc0 f   geom.obj
 0001:00163cf0       ?rayrectintersect@@YA_NABUvec@@000AAMAAH@Z 00564cf0 f   geom.obj
 0001:00163ef0       ?opentempfile@@YAPAUstream@@PBD0@Z 00564ef0 f   stream.obj
 0001:00163fb0       ?openrawfile@@YAPAUstream@@PBD0@Z 00564fb0 f   stream.obj
 0001:00164080       ?printf@stream@@UAAHPBDZZ  00565080 f   stream.obj
 0001:00164120       ?getline@stream@@UAE_NPADH@Z 00565120 f   stream.obj
 0001:001641a0       ?size@stream@@UAE_JXZ      005651a0 f   stream.obj
 0001:001642c0       ?listdir@@YA_NPBD_N0AAU?$vector@PAD@@@Z 005652c0 f   stream.obj
 0001:00164430       ?subhomedir@@YA_NPADHPBD@Z 00565430 f   stream.obj
 0001:001644e0       ?fixpackagedir@@YAIPAD@Z   005654e0 f   stream.obj
 0001:00164510       ?decodeutf8@@YAHPAEH0HPAH@Z 00565510 f   stream.obj
 0001:00164720       ?sethomedir@@YAPBDPBD@Z    00565720 f   stream.obj
 0001:001647b0       ?addpackagedir@@YAPBDPBD@Z 005657b0 f   stream.obj
 0001:00164990       ?loadfile@@YAPADPBDPAH_N@Z 00565990 f   stream.obj
 0001:00164a90       ?listfiles@@YAHPBD0AAU?$vector@PAD@@@Z 00565a90 f   stream.obj
 0001:00164c20       ?rwops@stream@@QAEPAUSDL_RWops@@XZ 00565c20 f   stream.obj
 0001:00164c50       ?fileexists@@YA_NPBD0@Z    00565c50 f   stream.obj
 0001:00164c80       ?createdir@@YA_NPBD@Z      00565c80 f   stream.obj
 0001:00164cd0       ?parentdir@@YAPBDPBD@Z     00565cd0 f   stream.obj
 0001:00164d20       ?openutf8file@@YAPAUstream@@PBD0PAU1@@Z 00565d20 f   stream.obj
 0001:00164dd0       ?path@@YAPADPBD_N@Z        00565dd0 f   stream.obj
 0001:00164e00       ?encodeutf8@@YAHPAEH0HPAH@Z 00565e00 f   stream.obj
 0001:00164f70       ?findfile@@YAPBDPBD0@Z     00565f70 f   stream.obj
 0001:00165170       ?openfile@@YAPAUstream@@PBD0@Z 00566170 f   stream.obj
 0001:00165190       ?makerelpath@@YAPADPBD000@Z 00566190 f   stream.obj
 0001:00165300       ?opengzfile@@YAPAUstream@@PBD0PAU1@H@Z 00566300 f   stream.obj
 0001:001653c0       ?path@@YAPADPAD@Z          005663c0 f   stream.obj
 0001:00165ad0       ?sendstring@@YAXPBDAAU?$vector@E@@@Z 00566ad0 f   tools.obj
 0001:00165b00       ?sendstring@@YAXPBDAAU?$databuf@E@@@Z 00566b00 f   tools.obj
 0001:00165b30       ?getfloat@@YAMAAU?$databuf@E@@@Z 00566b30 f   tools.obj
 0001:00165b80       ?putfloat@@YAXAAU?$databuf@E@@M@Z 00566b80 f   tools.obj
 0001:00165bd0       ?getuint@@YAHAAU?$databuf@E@@@Z 00566bd0 f   tools.obj
 0001:00165ca0       ?putuint@@YAXAAUpacketbuf@@H@Z 00566ca0 f   tools.obj
 0001:00165cb0       ?putuint@@YAXAAU?$databuf@E@@H@Z 00566cb0 f   tools.obj
 0001:00165cc0       ?putint@@YAXAAU?$vector@E@@H@Z 00566cc0 f   tools.obj
 0001:00165cd0       ?seedMT@@YAXI@Z            00566cd0 f   tools.obj
 0001:00165d10       ?guessnumcpus@@YAHXZ       00566d10 f   tools.obj
 0001:00165d30       ?putint@@YAXAAU?$databuf@E@@H@Z 00566d30 f   tools.obj
 0001:00165d40       ?getint@@YAHAAU?$databuf@E@@@Z 00566d40 f   tools.obj
 0001:00165e50       ?filtertext@@YAXPADPBD_NH@Z 00566e50 f   tools.obj
 0001:00165ea0       ?getstring@@YAXPADAAU?$databuf@E@@H@Z 00566ea0 f   tools.obj
 0001:00165ff0       ?putint@@YAXAAUpacketbuf@@H@Z 00566ff0 f   tools.obj
 0001:00166000       ?putfloat@@YAXAAUpacketbuf@@M@Z 00567000 f   tools.obj
 0001:00166020       ?sendstring@@YAXPBDAAUpacketbuf@@@Z 00567020 f   tools.obj
 0001:00166050       ?randomMT@@YAIXZ           00567050 f   tools.obj
 0001:00166270       ?run@?$_icmd_removezip@$0CDH@@@SAXPBD@Z 00567270 f   zip.obj
 0001:00166280       ?run@?$_icmd_addzip@$0CDG@@@SAXPBD00@Z 00567280 f   zip.obj
 0001:001662b0       ?removezip@@YA_NPBD@Z      005672b0 f   zip.obj
 0001:001663d0       ?addzip@@YA_NPBD00@Z       005673d0 f   zip.obj
 0001:00166960       ?findzip@@YAPAUziparchive@@PBD@Z 00567960 f   zip.obj
 0001:00166e00       ?listzipfiles@@YAHPBD0AAU?$vector@PAD@@@Z 00567e00 f   zip.obj
 0001:00166fc0       ?openzipfile@@YAPAUstream@@PBD0@Z 00567fc0 f   zip.obj
 0001:001671c0       ?render@ai@@YAXXZ          005681c0 f   ai.obj
 0001:00167930       ?drawroute@ai@@YAXPAUfpsent@@M@Z 00568930 f   ai.obj
 0001:00167c40       ?think@ai@@YAXPAUfpsent@@_N@Z 00568c40 f   ai.obj
 0001:00167e00       ?avoid@ai@@YAXXZ           00568e00 f   ai.obj
 0001:00167ee0       ?logic@ai@@YAXPAUfpsent@@AAUaistate@1@_N@Z 00568ee0 f   ai.obj
 0001:00168130       ?timeouts@ai@@YAXPAUfpsent@@AAUaistate@1@@Z 00569130 f   ai.obj
 0001:001683f0       ?request@ai@@YA_NPAUfpsent@@AAUaistate@1@@Z 005693f0 f   ai.obj
 0001:00168560       ?hasrange@ai@@YA_NPAUfpsent@@0H@Z 00569560 f   ai.obj
 0001:00168650       ?process@ai@@YAHPAUfpsent@@AAUaistate@1@@Z 00569650 f   ai.obj
 0001:00169450       ?lockon@ai@@YA_NPAUfpsent@@0M@Z 0056a450 f   ai.obj
 0001:00169500       ?scaleyawpitch@ai@@YAXAAM0MMMM@Z 0056a500 f   ai.obj
 0001:00169660       ?getyawpitch@ai@@YAXABUvec@@0AAM1@Z 0056a660 f   ai.obj
 0001:00169740       ?fixrange@ai@@YAXAAM0@Z    0056a740 f   ai.obj
 0001:001697b0       ?fixfullrange@ai@@YAXAAM00_N@Z 0056a7b0 f   ai.obj
 0001:00169840       ?jumpto@ai@@YAXPAUfpsent@@AAUaistate@1@ABUvec@@@Z 0056a840 f   ai.obj
 0001:00169a70       ?hunt@ai@@YA_NPAUfpsent@@AAUaistate@1@@Z 0056aa70 f   ai.obj
 0001:00169b50       ?checkroute@ai@@YA_NPAUfpsent@@H@Z 0056ab50 f   ai.obj
 0001:00169dc0       ?anynode@ai@@YA_NPAUfpsent@@AAUaistate@1@H@Z 0056adc0 f   ai.obj
 0001:00169f20       ?randomlink@ai@@YAHPAUfpsent@@H@Z 0056af20 f   ai.obj
 0001:0016a090       ?wpspot@ai@@YAHPAUfpsent@@H_N@Z 0056b090 f   ai.obj
 0001:0016a1e0       ?closenode@ai@@YAHPAUfpsent@@@Z 0056b1e0 f   ai.obj
 0001:0016a3c0       ?dopursue@ai@@YAHPAUfpsent@@AAUaistate@1@@Z 0056b3c0 f   ai.obj
 0001:0016a540       ?dointerest@ai@@YAHPAUfpsent@@AAUaistate@1@@Z 0056b540 f   ai.obj
 0001:0016a6c0       ?dodefend@ai@@YAHPAUfpsent@@AAUaistate@1@@Z 0056b6c0 f   ai.obj
 0001:0016a810       ?dowait@ai@@YAHPAUfpsent@@AAUaistate@1@@Z 0056b810 f   ai.obj
 0001:0016a8e0       ?check@ai@@YA_NPAUfpsent@@AAUaistate@1@@Z 0056b8e0 f   ai.obj
 0001:0016a910       ?itemspawned@ai@@YAXH@Z    0056b910 f   ai.obj
 0001:0016ab30       ?killed@ai@@YAXPAUfpsent@@0@Z 0056bb30 f   ai.obj
 0001:0016ab80       ?spawned@ai@@YAXPAUfpsent@@@Z 0056bb80 f   ai.obj
 0001:0016aba0       ?setup@ai@@YAXPAUfpsent@@@Z 0056bba0 f   ai.obj
 0001:0016acb0       ?findorientation@ai@@YAXAAUvec@@MM0@Z 0056bcb0 f   ai.obj
 0001:0016ae60       ?damaged@ai@@YAXPAUfpsent@@0@Z 0056be60 f   ai.obj
 0001:0016afb0       ?find@ai@@YA_NPAUfpsent@@AAUaistate@1@_N@Z 0056bfb0 f   ai.obj
 0001:0016b230       ?parseinterests@ai@@YA_NPAUfpsent@@AAUaistate@1@AAU?$vector@Uinterest@ai@@@@_N3@Z 0056c230 f   ai.obj
 0001:0016b480       ?items@ai@@YAXPAUfpsent@@AAUaistate@1@AAU?$vector@Uinterest@ai@@@@_N@Z 0056c480 f   ai.obj
 0001:0016b6a0       ?assist@ai@@YAXPAUfpsent@@AAUaistate@1@AAU?$vector@Uinterest@ai@@@@_N3@Z 0056c6a0 f   ai.obj
 0001:0016b7f0       ?hasgoodammo@ai@@YA_NPAUfpsent@@@Z 0056c7f0 f   ai.obj
 0001:0016b810       ?isgoodammo@ai@@YAHH@Z     0056c810 f   ai.obj
 0001:0016b820       ?target@ai@@YA_NPAUfpsent@@AAUaistate@1@H_NM@Z 0056c820 f   ai.obj
 0001:0016baf0       ?violence@ai@@YA_NPAUfpsent@@AAUaistate@1@0H@Z 0056caf0 f   ai.obj
 0001:0016bc10       ?defend@ai@@YA_NPAUfpsent@@AAUaistate@1@ABUvec@@MMH@Z 0056cc10 f   ai.obj
 0001:0016bd10       ?patrol@ai@@YA_NPAUfpsent@@AAUaistate@1@ABUvec@@MMH_N@Z 0056cd10 f   ai.obj
 0001:0016bec0       ?enemy@ai@@YA_NPAUfpsent@@AAUaistate@1@ABUvec@@MH@Z 0056cec0 f   ai.obj
 0001:0016c070       ?badhealth@ai@@YA_NPAUfpsent@@@Z 0056d070 f   ai.obj
 0001:0016c0a0       ?randomnode@ai@@YA_NPAUfpsent@@AAUaistate@1@MM@Z 0056d0a0 f   ai.obj
 0001:0016c100       ?randomnode@ai@@YA_NPAUfpsent@@AAUaistate@1@ABUvec@@MM@Z 0056d100 f   ai.obj
 0001:0016c2b0       ?makeroute@ai@@YA_NPAUfpsent@@AAUaistate@1@ABUvec@@_NH@Z 0056d2b0 f   ai.obj
 0001:0016c2e0       ?makeroute@ai@@YA_NPAUfpsent@@AAUaistate@1@H_NH@Z 0056d2e0 f   ai.obj
 0001:0016c360       ?checkothers@ai@@YA_NAAU?$vector@H@@PAUfpsent@@HHH_NPAH@Z 0056d360 f   ai.obj
 0001:0016c4c0       ?update@ai@@YAXXZ          0056d4c0 f   ai.obj
 0001:0016c5e0       ?init@ai@@YAXPAUfpsent@@HHHHHPBD1@Z 0056d5e0 f   ai.obj
 0001:0016c920       ?destroy@ai@@YAXPAUfpsent@@@Z 0056d920 f   ai.obj
 0001:0016c950       ?create@ai@@YAXPAUfpsent@@@Z 0056d950 f   ai.obj
 0001:0016c9c0       ?getaimpos@ai@@YA?AUvec@@PAUfpsent@@0@Z 0056d9c0 f   ai.obj
 0001:0016cbf0       ?hastarget@ai@@YA_NPAUfpsent@@AAUaistate@1@0MMM@Z 0056dbf0 f   ai.obj
 0001:0016cd90       ?canshoot@ai@@YA_NPAUfpsent@@0@Z 0056dd90 f   ai.obj
 0001:0016ce80       ?cansee@ai@@YA_NPAUfpsent@@AAUvec@@11@Z 0056de80 f   ai.obj
 0001:0016cf00       ?getsight@ai@@YA_NAAUvec@@MM00MMM@Z 0056df00 f   ai.obj
 0001:0016d050       ?targetable@ai@@YA_NPAUfpsent@@0@Z 0056e050 f   ai.obj
 0001:0016d0d0       ?weaprange@ai@@YA_NPAUfpsent@@HM@Z 0056e0d0 f   ai.obj
 0001:0016d120       ?weapmaxdist@ai@@YAMH@Z    0056e120 f   ai.obj
 0001:0016d140       ?weapmindist@ai@@YAMH@Z    0056e140 f   ai.obj
 0001:0016d170       ?canmove@ai@@YA_NPAUfpsent@@@Z 0056e170 f   ai.obj
 0001:0016d180       ?viewfieldy@ai@@YAMH@Z     0056e180 f   ai.obj
 0001:0016d1e0       ?viewfieldx@ai@@YAMH@Z     0056e1e0 f   ai.obj
 0001:0016d220       ?viewdist@ai@@YAMH@Z       0056e220 f   ai.obj
 0001:0016d270       ?run@?$_icmd_botbalance@$0BD@@ai@@SAXPAH@Z 0056e270 f   ai.obj
 0001:0016d290       ?run@?$_icmd_botlimit@$0BC@@ai@@SAXPAH@Z 0056e290 f   ai.obj
 0001:0016d2b0       ?run@?$_icmd_delbot@$0BB@@ai@@SAXXZ 0056e2b0 f   ai.obj
 0001:0016d2c0       ?run@?$_icmd_addbot@$0BA@@ai@@SAXPAD@Z 0056e2c0 f   ai.obj
 0001:0016d320       ?checktriggers@entities@@YAXXZ 0056e320 f   entities.obj
 0001:0016d7a0       ?doleveltrigger@entities@@YAXHH@Z 0056e7a0 f   entities.obj
 0001:0016d800       ?run@?$_icmd_trigger@$0BPA@@entities@@SAXPAH0@Z 0056e800 f   entities.obj
 0001:0016d830       ?unlocktriggers@entities@@YAXHHH@Z 0056e830 f   entities.obj
 0001:0016d8f0       ?resettriggers@entities@@YAXXZ 0056e8f0 f   entities.obj
 0001:0016d9d0       ?setspawn@entities@@YAXH_N@Z 0056e9d0 f   entities.obj
 0001:0016d9f0       ?spawnitems@entities@@YAX_N@Z 0056e9f0 f   entities.obj
 0001:0016daa0       ?resetspawns@entities@@YAXXZ 0056eaa0 f   entities.obj
 0001:0016dad0       ?putitems@entities@@YAXAAUpacketbuf@@@Z 0056ead0 f   entities.obj
 0001:0016db60       ?trypickup@entities@@YAXHPAUfpsent@@@Z 0056eb60 f   entities.obj
 0001:0016dfe0       ?teleport@entities@@YAXHPAUfpsent@@@Z 0056efe0 f   entities.obj
 0001:0016e190       ?jumppadeffects@entities@@YAXPAUfpsent@@H_N@Z 0056f190 f   entities.obj
 0001:0016e5f0       ?teleporteffects@entities@@YAXPAUfpsent@@HH_N@Z 0056f5f0 f   entities.obj
 0001:0016eaa0       ?pickupeffects@entities@@YAXHPAUfpsent@@@Z 0056faa0 f   entities.obj
 0001:0016f070       ?repammo@entities@@YAXPAUfpsent@@H_N@Z 00570070 f   entities.obj
 0001:0016f0c0       ?addammo@entities@@YAXHAAH_N@Z 005700c0 f   entities.obj
 0001:0016f0f0       ?renderentities@entities@@YAXXZ 005700f0 f   entities.obj
 0001:0016f280       ?preloadentities@entities@@YAXXZ 00570280 f   entities.obj
 0001:0016f510       ?entmdlname@entities@@YAPBDH@Z 00570510 f   entities.obj
 0001:0016f520       ?itemicon@entities@@YAHH@Z 00570520 f   entities.obj
 0001:0016f550       ?checkquad@entities@@YAXHPAUfpsent@@@Z 00570550 f   entities.obj
 0001:0016f5c0       ?checkitems@entities@@YAXPAUfpsent@@@Z 005705c0 f   entities.obj
 0001:0016f6d0       ?animatemapmodel@entities@@YAXABUextentity@@AAH1@Z 005706d0 f   entities.obj
 0001:0016f730       ?readent@entities@@YAXAAUentity@@PADH@Z 00570730 f   entities.obj
 0001:0016f7d0       ?extraentinfosize@entities@@YAHXZ 005707d0 f   entities.obj
 0001:0016f7e0       ?writeent@entities@@YAXAAUentity@@PAD@Z 005707e0 f   entities.obj
 0001:0016f7f0       ?entname@entities@@YAPBDH@Z 005707f0 f   entities.obj
 0001:0016f810       ?entnameinfo@entities@@YAPBDAAUentity@@@Z 00570810 f   entities.obj
 0001:0016f820       ?mayattach@entities@@YA_NAAUextentity@@@Z 00570820 f   entities.obj
 0001:0016f830       ?attachent@entities@@YA_NAAUextentity@@0@Z 00570830 f   entities.obj
 0001:0016f840       ?editent@entities@@YAXH_N@Z 00570840 f   entities.obj
 0001:0016f8f0       ?entmodel@entities@@YAPBDABUentity@@@Z 005708f0 f   entities.obj
 0001:0016f930       ?entradius@entities@@YAXAAUextentity@@_N@Z 00570930 f   entities.obj
 0001:0016fc20       ?fixentity@entities@@YAXAAUextentity@@@Z 00570c20 f   entities.obj
 0001:0016fc90       ?deleteentity@entities@@YAXPAUextentity@@@Z 00570c90 f   entities.obj
 0001:0016fca0       ?printent@entities@@YA_NAAUextentity@@PAD@Z 00570ca0 f   entities.obj
 0001:0016fcb0       ?clearents@entities@@YAXXZ 00570cb0 f   entities.obj
 0001:0016fcf0       ?dropheight@entities@@YAMAAUentity@@@Z 00570cf0 f   entities.obj
 0001:0016fd10       ?newentity@entities@@YAPAUextentity@@XZ 00570d10 f   entities.obj
 0001:0016fdb0       ?getents@entities@@YAAAU?$vector@PAUextentity@@@@XZ 00570db0 f   entities.obj
 0001:0016fe50       ?mastermodeicon@game@@YAPBDHPBD@Z 00570e50 f   fps.obj
 0001:0016fe70       ?mastermodecolor@game@@YAPBDHPBD@Z 00570e70 f   fps.obj
 0001:0016fe90       ?drawhudicons@game@@YAXPAUfpsent@@@Z 00570e90 f   fps.obj
 0001:0016ffd0       ?drawammohud@game@@YAXPAUfpsent@@@Z 00570fd0 f   fps.obj
 0001:00170260       ?run@?$_icmd_ammohudcycle@$0DEG@@game@@SAXPAUtagval@@H@Z 00571260 f   fps.obj
 0001:001702f0       ?run@?$_icmd_ammohuddown@$0DEB@@game@@SAXPAUtagval@@H@Z 005712f0 f   fps.obj
 0001:00170380       ?run@?$_icmd_ammohudup@$0DDM@@game@@SAXPAUtagval@@H@Z 00571380 f   fps.obj
 0001:00170410       ?drawicon@game@@YAXHMMM@Z  00571410 f   fps.obj
 0001:001705c0       ?run@?$_icmd_kill@$0DBJ@@game@@SAXXZ 005715c0 f   fps.obj
 0001:001705d0       ?teamcolor@game@@YAPBDPBD00@Z 005715d0 f   fps.obj
 0001:00170650       ?teamcolor@game@@YAPBDPBD_N0@Z 00571650 f   fps.obj
 0001:001706f0       ?teamcolorname@game@@YAPBDPAUfpsent@@PBD@Z 005716f0 f   fps.obj
 0001:001707a0       ?duplicatename@game@@YA_NPAUfpsent@@PBD1@Z 005717a0 f   fps.obj
 0001:00170850       ?startgame@game@@YAXXZ     00571850 f   fps.obj
 0001:00170b30       ?clearclients@game@@YAX_N@Z 00571b30 f   fps.obj
 0001:00170c90       ?clientdisconnected@game@@YAXH_N@Z 00571c90 f   fps.obj
 0001:00170dc0       ?drawimage@game@@YAXPBDMMMM@Z 00571dc0 f   fps.obj
 0001:00170ee0       ?run@?$_icmd_getteamkills@$0CBB@@game@@SAXXZ 00571ee0 f   fps.obj
 0001:00170f00       ?run@?$_icmd_getsuicides@$0CBA@@game@@SAXXZ 00571f00 f   fps.obj
 0001:00170f20       ?run@?$_icmd_gettotalshots@$0CAP@@game@@SAXXZ 00571f20 f   fps.obj
 0001:00170f40       ?run@?$_icmd_gettotaldamage@$0CAO@@game@@SAXXZ 00571f40 f   fps.obj
 0001:00170f60       ?run@?$_icmd_getaccuracy@$0CAN@@game@@SAXXZ 00571f60 f   fps.obj
 0001:00170fa0       ?run@?$_icmd_getdeaths@$0CAM@@game@@SAXXZ 00571fa0 f   fps.obj
 0001:00170fc0       ?run@?$_icmd_getflags@$0CAL@@game@@SAXXZ 00571fc0 f   fps.obj
 0001:00170fe0       ?run@?$_icmd_getfrags@$0CAK@@game@@SAXXZ 00571fe0 f   fps.obj
 0001:00171000       ?timeupdate@game@@YAXH@Z   00572000 f   fps.obj
 0001:00171230       ?run@?$_icmd_getteamscore@$0BOL@@game@@SAXPBD@Z 00572230 f   fps.obj
 0001:00171250       ?getteamscore@game@@YAHPBD@Z 00572250 f   fps.obj
 0001:00171460       ?killed@game@@YAXPAUfpsent@@0@Z 00572460 f   fps.obj
 0001:00171790       ?deathstate@game@@YAXPAUfpsent@@_N@Z 00572790 f   fps.obj
 0001:00171b80       ?damaged@game@@YAXHPAUfpsent@@0_N@Z 00572b80 f   fps.obj
 0001:001721f0       ?respawn@game@@YAXXZ       005731f0 f   fps.obj
 0001:00172310       ?spawnplayer@game@@YAXPAUfpsent@@@Z 00573310 f   fps.obj
 0001:00172390       ?checkslowmo@game@@YAXXZ   00573390 f   fps.obj
 0001:00172450       ?var_slowmosp@game@@YAXXZ  00573450 f   fps.obj
 0001:001724b0       ?otherplayers@game@@YAXH@Z 005734b0 f   fps.obj
 0001:001726e0       ?predictplayer@game@@YAXPAUfpsent@@_N@Z 005736e0 f   fps.obj
 0001:00172860       ?hudplayer@game@@YAPAUfpsent@@XZ 00573860 f   fps.obj
 0001:001728c0       ?followingplayer@game@@YAPAUfpsent@@XZ 005738c0 f   fps.obj
 0001:00172900       ?stopfollowing@game@@YAXXZ 00573900 f   fps.obj
 0001:00172930       ?respawnself@game@@YAXXZ   00573930 f   fps.obj
 0001:001729f0       ?spawnstate@game@@YAPAUfpsent@@PAU2@@Z 005739f0 f   fps.obj
 0001:00172a10       ?run@?$_icmd_nextfollow@$0EK@@game@@SAXPAH@Z 00573a10 f   fps.obj
 0001:00172a30       ?nextfollow@game@@YAXH@Z   00573a30 f   fps.obj
 0001:00172b10       ?follow@game@@YAXPAD@Z     00573b10 f   fps.obj
 0001:00172b90       ?run@?$_icmd_getfollow@$0CH@@game@@SAXXZ 00573b90 f   fps.obj
 0001:00172bf0       ?taunt@game@@YAXXZ         00573bf0 f   fps.obj
 0001:00172c40       ?clientoption@game@@YA_NPBD@Z 00573c40 f   fps.obj
 0001:00172c50       ?msgsound@game@@YAXHPAUphysent@@@Z 00573c50 f   fps.obj
 0001:00172f30       ?newclient@game@@YAPAUfpsent@@H@Z 00573f30 f   fps.obj
 0001:00173050       ?colorname@game@@YAPBDPAUfpsent@@PBD111@Z 00574050 f   fps.obj
 0001:00173140       ?getclient@game@@YAPAUfpsent@@H@Z 00574140 f   fps.obj
 0001:00173170       ?initclient@game@@YAXXZ    00574170 f   fps.obj
 0001:00173230       ?restoreconfig@game@@YAPBDXZ 00574230 f   fps.obj
 0001:00173240       ?loadconfigs@game@@YAXXZ   00574240 f   fps.obj
 0001:001732d0       ?updateworld@game@@YAXXZ   005742d0 f   fps.obj
 0001:001735d0       ?clipconsole@game@@YAHHH@Z 005745d0 f   fps.obj
 0001:001735f0       ?savedconfig@game@@YAPBDXZ 005745f0 f   fps.obj
 0001:00173600       ?autoexec@game@@YAPBDXZ    00574600 f   fps.obj
 0001:00173610       ?defaultconfig@game@@YAPBDXZ 00574610 f   fps.obj
 0001:00173620       ?lighteffects@game@@YAXPAUdynent@@AAUvec@@1@Z 00574620 f   fps.obj
 0001:00173630       ?setupcamera@game@@YAXXZ   00574630 f   fps.obj
 0001:00173700       ?detachcamera@game@@YA_NXZ 00574700 f   fps.obj
 0001:00173710       ?collidecamera@game@@YA_NXZ 00574710 f   fps.obj
 0001:00173770       ?needminimap@game@@YA_NXZ  00574770 f   fps.obj
 0001:001737c0       ?defaultcrosshair@game@@YAPBDH@Z 005747c0 f   fps.obj
 0001:001737e0       ?selectcrosshair@game@@YAHAAM00@Z 005747e0 f   fps.obj
 0001:001739a0       ?gameplayhud@game@@YAXHH@Z 005749a0 f   fps.obj
 0001:001743b0       ?abovegameplayhud@game@@YAMHH@Z 005753b0 f   fps.obj
 0001:001743d0       ?serverinfostartcolumn@game@@YA_NPAUg3d_gui@@H@Z 005753d0 f   fps.obj
 0001:00174440       ?serverinfoentry@game@@YA_NPAUg3d_gui@@HPBDH11HABU?$vector@H@@H@Z 00575440 f   fps.obj
 0001:00174730       ?serverinfoendcolumn@game@@YAXPAUg3d_gui@@H@Z 00575730 f   fps.obj
 0001:00174750       ?savedservers@game@@YAPBDXZ 00575750 f   fps.obj
 0001:00174760       ?writegamedata@game@@YAXAAU?$vector@D@@@Z 00575760 f   fps.obj
 0001:00174770       ?getmapinfo@game@@YAPBDXZ  00575770 f   fps.obj
 0001:001747a0       ?readgamedata@game@@YAXAAU?$vector@D@@@Z 005757a0 f   fps.obj
 0001:001747b0       ?startmap@game@@YAXPBD@Z   005757b0 f   fps.obj
 0001:00174b00       ?numdynents@game@@YAHXZ    00575b00 f   fps.obj
 0001:00174b20       ?iterdynents@game@@YAPAUdynent@@H@Z 00575b20 f   fps.obj
 0001:00174b60       ?dynentcollide@game@@YAXPAUphysent@@0ABUvec@@@Z 00575b60 f   fps.obj
 0001:00174bd0       ?allowmove@game@@YA_NPAUphysent@@@Z 00575bd0 f   fps.obj
 0001:00174c00       ?physicstrigger@game@@YAXPAUphysent@@_NHHH@Z 00575c00 f   fps.obj
 0001:00174cb0       ?suicide@game@@YAXPAUphysent@@@Z 00575cb0 f   fps.obj
 0001:00174d70       ?canjump@game@@YA_NXZ      00575d70 f   fps.obj
 0001:00174da0       ?doattack@game@@YAX_N@Z    00575da0 f   fps.obj
 0001:00174dc0       ?resetgamestate@game@@YAXXZ 00575dc0 f   fps.obj
 0001:00174e10       ?getclientmap@game@@YAPBDXZ 00575e10 f   fps.obj
 0001:00174ea0       ?hitmonster@game@@YAXHPAUmonster@1@PAUfpsent@@ABUvec@@H@Z 00575ea0 f   monster.obj
 0001:00174eb0       ?rendermonsters@game@@YAXXZ 00575eb0 f   monster.obj
 0001:00175030       ?monsterkilled@game@@YAXXZ 00576030 f   monster.obj
 0001:00175080       ?run@?$_icmd_endsp@$0BFM@@game@@SAXXZ 00576080 f   monster.obj
 0001:001750b0       ?spawnmonster@game@@YAXXZ  005760b0 f   monster.obj
 0001:00175190       ?preloadmonsters@game@@YAXXZ 00576190 f   monster.obj
 0001:00175370       ?run@?$_icmd_nummonsters@$0BBK@@game@@SAXPAH0@Z 00576370 f   monster.obj
 0001:001753a0       ?nummonsters@game@@YAHHH@Z 005763a0 f   monster.obj
 0001:00175400       ?clearmonsters@game@@YAXXZ 00576400 f   monster.obj
 0001:00175700       ?updatemonsters@game@@YAXH@Z 00576700 f   monster.obj
 0001:00175b80       ?spsummary@game@@YAXH@Z    00576b80 f   monster.obj
 0001:00175da0       ?stackmonster@game@@YAXPAUmonster@1@PAUphysent@@@Z 00576da0 f   monster.obj
 0001:00175dc0       ?suicidemonster@game@@YAXPAUmonster@1@@Z 00576dc0 f   monster.obj
 0001:00175de0       ?endsp@game@@YAX_N@Z       00576de0 f   monster.obj
 0001:00175e40       ?hitmovable@game@@YAXHPAUmovable@1@PAUfpsent@@ABUvec@@H@Z 00576e40 f   movable.obj
 0001:00175f20       ?rendermovables@game@@YAXXZ 00576f20 f   movable.obj
 0001:00176000       ?run@?$_icmd_platform@$0HK@@game@@SAXPAH0@Z 00577000 f   movable.obj
 0001:00176020       ?triggerplatform@game@@YAXHH@Z 00577020 f   movable.obj
 0001:001761d0       ?clearmovables@game@@YAXXZ 005771d0 f   movable.obj
 0001:00176310       ?updatemovables@game@@YAXH@Z 00577310 f   movable.obj
 0001:001766f0       ?stackmovable@game@@YAXPAUmovable@1@PAUphysent@@@Z 005776f0 f   movable.obj
 0001:00176710       ?suicidemovable@game@@YAXPAUmovable@1@@Z 00577710 f   movable.obj
 0001:00176810       ?preloadsounds@game@@YAXXZ 00577810 f   render.obj
 0001:00176960       ?preloadweapons@game@@YAXXZ 00577960 f   render.obj
 0001:00176b20       ?hudgunorigin@game@@YA?AUvec@@HABU2@0PAUfpsent@@@Z 00577b20 f   render.obj
 0001:00176e50       ?drawhudgun@game@@YAXXZ    00577e50 f   render.obj
 0001:00176f50       ?drawhudmodel@game@@YAXPAUfpsent@@HMH@Z 00577f50 f   render.obj
 0001:00177360       ?renderplayer@game@@YAXPAUfpsent@@ABUplayermodelinfo@1@HM_N@Z 00578360 f   render.obj
 0001:001778b0       ?preloadplayermodel@game@@YAXXZ 005788b0 f   render.obj
 0001:00177a50       ?changedplayermodel@game@@YAXXZ 00578a50 f   render.obj
 0001:00177bb0       ?getplayermodelinfo@game@@YAABUplayermodelinfo@1@PAUfpsent@@@Z 00578bb0 f   render.obj
 0001:00177c00       ?getplayermodelinfo@game@@YAPBUplayermodelinfo@1@H@Z 00578c00 f   render.obj
 0001:00177c20       ?saveragdoll@game@@YAXPAUfpsent@@@Z 00578c20 f   render.obj
 0001:00177d50       ?var_playermodel@game@@YAXXZ 00578d50 f   render.obj
 0001:00177d60       ?moveragdolls@game@@YAXXZ  00578d60 f   render.obj
 0001:00177de0       ?swayhudgun@game@@YAXH@Z   00578de0 f   render.obj
 0001:00178080       ?clearragdolls@game@@YAXXZ 00579080 f   render.obj
 0001:00178090       ?chooserandomplayermodel@game@@YAHH@Z 00579090 f   render.obj
 0001:001780a0       ?rendergame@game@@YAX_N@Z  005790a0 f   render.obj
 0001:001785d0       ?renderavatar@game@@YAXXZ  005795d0 f   render.obj
 0001:001785e0       ?renderplayerpreview@game@@YAXHHH@Z 005795e0 f   render.obj
 0001:001787f0       ?preload@game@@YAXXZ       005797f0 f   render.obj
 0001:00179130       ?run@?$_icmd_showscores@$0BNP@@game@@SAXPAH@Z 0057a130 f   scoreboard.obj
 0001:00179160       ?var_scoreboard@game@@YAXXZ 0057a160 f   scoreboard.obj
 0001:00179180       ?renderscoreboard@game@@YAXAAUg3d_gui@@_N@Z 0057a180 f   scoreboard.obj
 0001:0017a8e0       ?setteaminfo@game@@YAXPBDH@Z 0057b8e0 f   scoreboard.obj
 0001:0017a930       ?getbestteams@game@@YAXAAU?$vector@PBD@@@Z 0057b930 f   scoreboard.obj
 0001:0017abe0       ?getbestplayers@game@@YAXAAU?$vector@PAUfpsent@@@@@Z 0057bbe0 f   scoreboard.obj
 0001:0017aca0       ?showscores@game@@YAX_N@Z  0057bca0 f   scoreboard.obj
 0001:0017acc0       ?clearteaminfo@game@@YAXXZ 0057bcc0 f   scoreboard.obj
 0001:0017acd0       ?g3d_gamemenus@game@@YAXXZ 0057bcd0 f   scoreboard.obj
 0001:0017ade0       ?run@?$_icmd_movewaypoints@$0DBH@@ai@@SAXPAH00@Z 0057bde0 f   waypoint.obj
 0001:0017ae30       ?movewaypoints@ai@@YAXABUvec@@@Z 0057be30 f   waypoint.obj
 0001:0017af50       ?delselwaypoints@ai@@YAXXZ 0057bf50 f   waypoint.obj
 0001:0017b090       ?run@?$_icmd_savewaypoints@$0COG@@ai@@SAXPAD@Z 0057c090 f   waypoint.obj
 0001:0017b0a0       ?run@?$_icmd_loadwaypoints@$0CMJ@@ai@@SAXPAD@Z 0057c0a0 f   waypoint.obj
 0001:0017b0b0       ?getwaypointfile@ai@@YA_NPBDPAD@Z 0057c0b0 f   waypoint.obj
 0001:0017b130       ?cleanwaypoints@ai@@YA_NXZ 0057c130 f   waypoint.obj
 0001:0017b200       ?remapwaypoints@ai@@YAXXZ  0057c200 f   waypoint.obj
 0001:0017b3e0       ?seedwaypoints@ai@@YAXXZ   0057c3e0 f   waypoint.obj
 0001:0017b500       ?run@?$_icmd_clearwaypoints@$0CFC@@ai@@SAXXZ 0057c500 f   waypoint.obj
 0001:0017b520       ?navigate@ai@@YAXPAUfpsent@@@Z 0057c520 f   waypoint.obj
 0001:0017b7b0       ?linkwaypoint@ai@@YAXAAUwaypoint@1@H@Z 0057c7b0 f   waypoint.obj
 0001:0017b8b0       ?addwaypoint@ai@@YAHABUvec@@H@Z 0057c8b0 f   waypoint.obj
 0001:0017b920       ?var_dropwaypoints@ai@@YAXXZ 0057c920 f   waypoint.obj
 0001:0017b950       ?buildwpcache@ai@@YAXXZ    0057c950 f   waypoint.obj
 0001:0017ba20       ?run@?$_icmd_clearwpcache@$0LG@@ai@@SAXXZ 0057ca20 f   waypoint.obj
 0001:0017ba30       ?clearwpcache@ai@@YAX_N@Z  0057ca30 f   waypoint.obj
 0001:0017bbb0       ?getweight@ai@@YAHABUvec@@@Z 0057cbb0 f   waypoint.obj
 0001:0017bd10       ?clipped@ai@@YA_NABUvec@@@Z 0057cd10 f   waypoint.obj
 0001:0017bd40       ?navigate@ai@@YAXXZ        0057cd40 f   waypoint.obj
 0001:0017bdb0       ?savewaypoints@ai@@YAX_NPBD@Z 0057cdb0 f   waypoint.obj
 0001:0017bfc0       ?clearwaypoints@ai@@YAX_N@Z 0057cfc0 f   waypoint.obj
 0001:0017bff0       ?inferwaypoints@ai@@YAXPAUfpsent@@ABUvec@@1M@Z 0057cff0 f   waypoint.obj
 0001:0017c150       ?loadwaypoints@ai@@YAX_NPBD@Z 0057d150 f   waypoint.obj
 0001:0017c480       ?route@ai@@YA_NPAUfpsent@@HHAAU?$vector@H@@ABUavoidset@1@H@Z 0057d480 f   waypoint.obj
 0001:0017cab0       ?closestwaypoint@ai@@YAHABUvec@@M_NPAUfpsent@@@Z 0057dab0 f   waypoint.obj
 0001:0017ced0       ?findwaypointswithin@ai@@YAXABUvec@@MMAAU?$vector@H@@@Z 0057ded0 f   waypoint.obj
 0001:0017d380       ?remap@avoidset@ai@@QAEHPAUfpsent@@HAAUvec@@_N@Z 0057e380 f   waypoint.obj
 0001:0017d550       ?avoidnear@avoidset@ai@@QAEXPAXMABUvec@@M@Z 0057e550 f   waypoint.obj
 0001:0017da00       ?checkidlesound@game@@YAXPAUfpsent@@_N@Z 0057ea00 f   weapon.obj
 0001:0017db10       ?checkattacksound@game@@YAXPAUfpsent@@_N@Z 0057eb10 f   weapon.obj
 0001:0017dbd0       ?raydamage@game@@YAXAAUvec@@0PAUfpsent@@@Z 0057ebd0 f   weapon.obj
 0001:0017e250       ?shorten@game@@YAXAAUvec@@0M@Z 0057f250 f   weapon.obj
 0001:0017e2b0       ?shoteffects@game@@YAXHABUvec@@0PAUfpsent@@_NHH@Z 0057f2b0 f   weapon.obj
 0001:0017ef50       ?updateprojectiles@game@@YAXH@Z 0057ff50 f   weapon.obj
 0001:0017f530       ?projdamage@game@@YA_NPAUdynent@@AAUprojectile@1@AAUvec@@H@Z 00580530 f   weapon.obj
 0001:0017f6c0       ?explodeeffects@game@@YAXHPAUfpsent@@_NH@Z 005806c0 f   weapon.obj
 0001:0017fb30       ?projsplash@game@@YAXAAUprojectile@1@AAUvec@@PAUdynent@@H@Z 00580b30 f   weapon.obj
 0001:0017fcd0       ?radialeffect@game@@YAXPAUdynent@@ABUvec@@HPAUfpsent@@H@Z 00580cd0 f   weapon.obj
 0001:0017fe30       ?projdist@game@@YAMPAUdynent@@AAUvec@@ABU3@@Z 00580e30 f   weapon.obj
 0001:0017ff00       ?hitpush@game@@YAXHPAUdynent@@PAUfpsent@@AAUvec@@2HH@Z 00580f00 f   weapon.obj
 0001:00180050       ?hit@game@@YAXHPAUdynent@@PAUfpsent@@ABUvec@@HMH@Z 00581050 f   weapon.obj
 0001:00180780       ?spawnbouncer@game@@YAXABUvec@@0PAUfpsent@@HPAUentitylight@@@Z 00581780 f   weapon.obj
 0001:001808e0       ?removeprojectiles@game@@YAXPAUfpsent@@@Z 005818e0 f   weapon.obj
 0001:00180990       ?newprojectile@game@@YAXABUvec@@0M_NHPAUfpsent@@H@Z 00581990 f   weapon.obj
 0001:00180b30       ?removebouncers@game@@YAXPAUfpsent@@@Z 00581b30 f   weapon.obj
 0001:00180ba0       ?updatebouncers@game@@YAXH@Z 00581ba0 f   weapon.obj
 0001:00180fc0       ?newbouncer@game@@YAXABUvec@@0_NHPAUfpsent@@HHHPAUentitylight@@@Z 00581fc0 f   weapon.obj
 0001:00181490       ?createrays@game@@YAXHABUvec@@0@Z 00582490 f   weapon.obj
 0001:00181810       ?offsetray@game@@YAXABUvec@@0HMAAU2@@Z 00582810 f   weapon.obj
 0001:00181b30       ?run@?$_icmd_weapon@$0HE@@game@@SAXPAUtagval@@H@Z 00582b30 f   weapon.obj
 0001:00181eb0       ?weaponswitch@game@@YAXPAUfpsent@@@Z 00582eb0 f   weapon.obj
 0001:00181f80       ?run@?$_icmd_cycleweapon@$0FG@@game@@SAXPAUtagval@@H@Z 00582f80 f   weapon.obj
 0001:00182060       ?cycleweapon@game@@YAXHPAH_N@Z 00583060 f   weapon.obj
 0001:001823e0       ?run@?$_icmd_setweapon@$0DO@@game@@SAXPADPAH@Z 005833e0 f   weapon.obj
 0001:00182400       ?setweapon@game@@YAXPBD_N@Z 00583400 f   weapon.obj
 0001:001826a0       ?run@?$_icmd_nextweapon@$0CN@@game@@SAXPAH0@Z 005836a0 f   weapon.obj
 0001:001826c0       ?nextweapon@game@@YAXH_N@Z 005836c0 f   weapon.obj
 0001:00182a60       ?run@?$_icmd_getweapon@$0BE@@game@@SAXXZ 00583a60 f   weapon.obj
 0001:00182a80       ?renderbouncers@game@@YAXXZ 00583a80 f   weapon.obj
 0001:00182c90       ?renderprojectiles@game@@YAXXZ 00583c90 f   weapon.obj
 0001:00182fa0       ?preloadbouncers@game@@YAXXZ 00583fa0 f   weapon.obj
 0001:00183270       ?explode@game@@YAX_NPAUfpsent@@ABUvec@@PAUdynent@@HH@Z 00584270 f   weapon.obj
 0001:001837a0       ?clearprojectiles@game@@YAXXZ 005847a0 f   weapon.obj
 0001:001837c0       ?clearbouncers@game@@YAXXZ 005847c0 f   weapon.obj
 0001:001837d0       ?intersect@game@@YA_NPAUdynent@@ABUvec@@1AAM@Z 005847d0 f   weapon.obj
 0001:00183850       ?updateweapons@game@@YAXH@Z 00584850 f   weapon.obj
 0001:00183900       ?damageeffect@game@@YAXHPAUfpsent@@_N@Z 00584900 f   weapon.obj
 0001:00183a20       ?gibeffect@game@@YAXHABUvec@@PAUfpsent@@@Z 00584a20 f   weapon.obj
 0001:00183ab0       ?getweapon@game@@YAHPBD@Z  00584ab0 f   weapon.obj
 0001:00183b40       ?removeweapons@game@@YAXPAUfpsent@@@Z 00584b40 f   weapon.obj
 0001:00183b50       ?intersectclosest@game@@YAPAUdynent@@ABUvec@@0PAUfpsent@@AAM@Z 00584b50 f   weapon.obj
 0001:00183ca0       ?gunselect@game@@YAXHPAUfpsent@@@Z 00584ca0 f   weapon.obj
 0001:00183cf0       ?shoot@game@@YAXPAUfpsent@@ABUvec@@@Z 00584cf0 f   weapon.obj
 0001:001841e0       ?avoidweapons@game@@YAXAAUavoidset@ai@@M@Z 005851e0 f   weapon.obj
 0001:001842e0       ?particletrack@game@@YAXPAUphysent@@AAUvec@@1@Z 005852e0 f   weapon.obj
 0001:001844d0       ?adddynlights@game@@YAXXZ  005854d0 f   weapon.obj
 0001:00184730       ?dynlighttrack@game@@YAXPAUphysent@@AAUvec@@1@Z 00585730 f   weapon.obj
 0001:001847c0       ?bounced@game@@YAXPAUphysent@@ABUvec@@@Z 005857c0 f   weapon.obj
 0001:00184a70       ?gotosel@game@@YAXXZ       00585a70 f   client1.obj
 0001:00184bd0       ?gotoplayer@game@@YAXPBD@Z 00585bd0 f   client1.obj
 0001:00184d40       ?sendmap@game@@YAXXZ       00585d40 f   client1.obj
 0001:00184ed0       ?listdemos@game@@YAXXZ     00585ed0 f   client1.obj
 0001:00184ef0       ?run@?$_icmd_getdemo@$0HIL@@game@@SAXPAH@Z 00585ef0 f   client1.obj
 0001:00184f40       ?getdemo@game@@YAXH@Z      00585f40 f   client1.obj
 0001:00184f90       ?run@?$_icmd_cleardemos@$0HID@@game@@SAXPAH@Z 00585f90 f   client1.obj
 0001:00184fc0       ?cleardemos@game@@YAXH@Z   00585fc0 f   client1.obj
 0001:00184ff0       ?run@?$_icmd_recorddemo@$0HHM@@game@@SAXPAH@Z 00585ff0 f   client1.obj
 0001:00185020       ?recorddemo@game@@YAXH@Z   00586020 f   client1.obj
 0001:00185050       ?stopdemo@game@@YAXXZ      00586050 f   client1.obj
 0001:001850a0       ?getmap@game@@YAXXZ        005860a0 f   client1.obj
 0001:001850f0       ?receivefile@game@@YAXAAUpacketbuf@@@Z 005860f0 f   client1.obj
 0001:00185360       ?parsemessages@game@@YAXHPAUfpsent@@AAU?$databuf@E@@@Z 00586360 f   client1.obj
 0001:001881f0       ?parsestate@game@@YAXPAUfpsent@@AAU?$databuf@E@@_N@Z 005891f0 f   client1.obj
 0001:00188360       ?parsepositions@game@@YAXAAU?$databuf@E@@@Z 00589360 f   client1.obj
 0001:00188d50       ?updatepos@game@@YAXPAUfpsent@@@Z 00589d50 f   client1.obj
 0001:00188eb0       ?sendintro@game@@YAXXZ     00589eb0 f   client1.obj
 0001:00189140       ?sendmessages@game@@YAXXZ  0058a140 f   client1.obj
 0001:001893b0       ?sendpositions@game@@YAXXZ 0058a3b0 f   client1.obj
 0001:00189e30       ?run@?$_icmd_servcmd@$0DEN@@game@@SAXPAD@Z 0058ae30 f   client1.obj
 0001:00189e50       ?sayteam@game@@YAXPAD@Z    0058ae50 f   client1.obj
 0001:00189ea0       ?run@?$_icmd_gamespeed@$0CNE@@game@@SAXPAH0PAUident@@@Z 0058aea0 f   client1.obj
 0001:00189f20       ?changegamespeed@game@@YAXH@Z 0058af20 f   client1.obj
 0001:00189f80       ?run@?$_icmd_paused@$0CMD@@game@@SAXPAH0PAUident@@@Z 0058af80 f   client1.obj
 0001:0018a010       ?run@?$_icmd_pausegame@$0CLN@@game@@SAXPAH@Z 0058b010 f   client1.obj
 0001:0018a020       ?pausegame@game@@YAX_N@Z   0058b020 f   client1.obj
 0001:0018a080       ?printvar@game@@YAXPAUfpsent@@PAUident@@@Z 0058b080 f   client1.obj
 0001:0018a1b0       ?sendclipboard@game@@YAXXZ 0058b1b0 f   client1.obj
 0001:0018a330       ?run@?$_icmd_map@$0CCN@@game@@SAXPAD@Z 0058b330 f   client1.obj
 0001:0018a340       ?run@?$_icmds_@$0CBO@@game@@SAXPAH@Z 0058b340 f   client1.obj
 0001:0018a390       ?run@?$_icmds_@$0CBN@@game@@SAXPAH@Z 0058b390 f   client1.obj
 0001:0018a3e0       ?run@?$_icmds_@$0CBM@@game@@SAXPAH@Z 0058b3e0 f   client1.obj
 0001:0018a430       ?run@?$_icmds_@$0CBL@@game@@SAXPAH@Z 0058b430 f   client1.obj
 0001:0018a480       ?run@?$_icmds_@$0CBK@@game@@SAXPAH@Z 0058b480 f   client1.obj
 0001:0018a4d0       ?run@?$_icmds_@$0CBJ@@game@@SAXPAH@Z 0058b4d0 f   client1.obj
 0001:0018a520       ?run@?$_icmds_@$0CBI@@game@@SAXPAH@Z 0058b520 f   client1.obj
 0001:0018a570       ?run@?$_icmds_@$0CBH@@game@@SAXPAH@Z 0058b570 f   client1.obj
 0001:0018a5c0       ?run@?$_icmds_@$0CBG@@game@@SAXPAH@Z 0058b5c0 f   client1.obj
 0001:0018a610       ?run@?$_icmds_@$0CBF@@game@@SAXPAH@Z 0058b610 f   client1.obj
 0001:0018a660       ?run@?$_icmds_@$0CBE@@game@@SAXPAH@Z 0058b660 f   client1.obj
 0001:0018a6b0       ?run@?$_icmds_@$0CBD@@game@@SAXPAH@Z 0058b6b0 f   client1.obj
 0001:0018a700       ?run@?$_icmds_@$0CBC@@game@@SAXPAH@Z 0058b700 f   client1.obj
 0001:0018a750       ?run@?$_icmds_@$0CBB@@game@@SAXPAH@Z 0058b750 f   client1.obj
 0001:0018a7a0       ?run@?$_icmds_@$0CBA@@game@@SAXPAH@Z 0058b7a0 f   client1.obj
 0001:0018a7f0       ?run@?$_icmds_@$0CAP@@game@@SAXPAH@Z 0058b7f0 f   client1.obj
 0001:0018a840       ?run@?$_icmds_@$0CAO@@game@@SAXPAH@Z 0058b840 f   client1.obj
 0001:0018a890       ?run@?$_icmds_@$0CAN@@game@@SAXPAH@Z 0058b890 f   client1.obj
 0001:0018a8e0       ?run@?$_icmd_timeremaining@$0CAM@@game@@SAXPAH@Z 0058b8e0 f   client1.obj
 0001:0018a980       ?run@?$_icmd_getmode@$0CAC@@game@@SAXXZ 0058b980 f   client1.obj
 0001:0018a9a0       ?run@?$_icmd_mode@$0CAB@@game@@SAXPAH@Z 0058b9a0 f   client1.obj
 0001:0018a9b0       ?setmode@game@@YAXH@Z      0058b9b0 f   client1.obj
 0001:0018aa30       ?changemapserv@game@@YAXPBDH@Z 0058ba30 f   client1.obj
 0001:0018ab60       ?run@?$_icmd_checkmaps@$0BNN@@game@@SAXXZ 0058bb60 f   client1.obj
 0001:0018ab70       ?run@?$_icmd_spectator@$0BNL@@game@@SAXPAHPAD@Z 0058bb70 f   client1.obj
 0001:0018abb0       ?togglespectator@game@@YAXHPBD@Z 0058bbb0 f   client1.obj
 0001:0018abf0       ?run@?$_icmd_dauth@$0BNE@@game@@SAXPAD@Z 0058bbf0 f   client1.obj
 0001:0018ac20       ?run@?$_icmd_sauth@$0BND@@game@@SAXXZ 0058bc20 f   client1.obj
 0001:0018ac60       ?run@?$_icmd_auth@$0BNC@@game@@SAXPAD@Z 0058bc60 f   client1.obj
 0001:0018ac90       ?tryauth@game@@YA_NPBD@Z   0058bc90 f   client1.obj
 0001:0018acc0       ?run@?$_icmd_mastermode@$0BMI@@game@@SAXPAH@Z 0058bcc0 f   client1.obj
 0001:0018ace0       ?setmaster@game@@YAXPBD0@Z 0058bce0 f   client1.obj
 0001:0018adb0       ?hashpwd@game@@YAXPBD@Z    0058bdb0 f   client1.obj
 0001:0018adf0       ?setteam@game@@YAXPBD0@Z   0058bdf0 f   client1.obj
 0001:0018ae20       ?run@?$_icmd_isignored@$0BKD@@game@@SAXPAD@Z 0058be20 f   client1.obj
 0001:0018ae70       ?run@?$_icmd_unignore@$0BKC@@game@@SAXPAD@Z 0058be70 f   client1.obj
 0001:0018ae80       ?run@?$_icmd_ignore@$0BKB@@game@@SAXPAD@Z 0058be80 f   client1.obj
 0001:0018ae90       ?isignored@game@@YA_NH@Z   0058be90 f   client1.obj
 0001:0018aec0       ?ignore@game@@YAXH@Z       0058bec0 f   client1.obj
 0001:0018af70       ?run@?$_icmd_dauthkick@$0BIL@@game@@SAXPBD00@Z 0058bf70 f   client1.obj
 0001:0018afd0       ?run@?$_icmd_sauthkick@$0BIK@@game@@SAXPBD0@Z 0058bfd0 f   client1.obj
 0001:0018b030       ?run@?$_icmd_authkick@$0BIJ@@game@@SAXPBD0@Z 0058c030 f   client1.obj
 0001:0018b090       ?authkick@game@@YAXPBD00@Z 0058c090 f   client1.obj
 0001:0018b0e0       ?kick@game@@YAXPBD0@Z      0058c0e0 f   client1.obj
 0001:0018b110       ?clearbans@game@@YAXXZ     0058c110 f   client1.obj
 0001:0018b120       ?run@?$_icmd_listclients@$0BHA@@game@@SAXPAH0@Z 0058c120 f   client1.obj
 0001:0018b140       ?listclients@game@@YAX_N0@Z 0058c140 f   client1.obj
 0001:0018b3b0       ?run@?$_icmd_getclientnum@$0BFK@@game@@SAXPAD@Z 0058c3b0 f   client1.obj
 0001:0018b3f0       ?run@?$_icmd_isai@$0BEB@@game@@SAXPAH0@Z 0058c3f0 f   client1.obj
 0001:0018b460       ?isai@game@@YA_NHH@Z       0058c460 f   client1.obj
 0001:0018b4b0       ?run@?$_icmd_isspectator@$0BDJ@@game@@SAXPAH@Z 0058c4b0 f   client1.obj
 0001:0018b510       ?isspectator@game@@YA_NH@Z 0058c510 f   client1.obj
 0001:0018b550       ?run@?$_icmd_mastermodename@$0BDC@@game@@SAXPAH@Z 0058c550 f   client1.obj
 0001:0018b5d0       ?run@?$_icmd_getmastermode@$0BDB@@game@@SAXXZ 0058c5d0 f   client1.obj
 0001:0018b5f0       ?run@?$_icmd_isadmin@$0BCP@@game@@SAXPAH@Z 0058c5f0 f   client1.obj
 0001:0018b650       ?isadmin@game@@YA_NH@Z     0058c650 f   client1.obj
 0001:0018b690       ?run@?$_icmd_isauth@$0BCI@@game@@SAXPAH@Z 0058c690 f   client1.obj
 0001:0018b6f0       ?isauth@game@@YA_NH@Z      0058c6f0 f   client1.obj
 0001:0018b730       ?run@?$_icmd_ismaster@$0BCB@@game@@SAXPAH@Z 0058c730 f   client1.obj
 0001:0018b790       ?ismaster@game@@YA_NH@Z    0058c790 f   client1.obj
 0001:0018b7d0       ?run@?$_icmd_getclienticon@$0BBK@@game@@SAXPAH@Z 0058c7d0 f   client1.obj
 0001:0018b830       ?getclienticon@game@@YAPBDH@Z 0058c830 f   client1.obj
 0001:0018b8f0       ?run@?$_icmd_getclientmodel@$0BBB@@game@@SAXPAH@Z 0058c8f0 f   client1.obj
 0001:0018b950       ?getclientmodel@game@@YAHH@Z 0058c950 f   client1.obj
 0001:0018b980       ?run@?$_icmd_getclientteam@$0BAK@@game@@SAXPAH@Z 0058c980 f   client1.obj
 0001:0018ba10       ?getclientteam@game@@YAPBDH@Z 0058ca10 f   client1.obj
 0001:0018ba50       ?run@?$_icmd_getclientname@$0BAD@@game@@SAXPAH@Z 0058ca50 f   client1.obj
 0001:0018bae0       ?getclientname@game@@YAPBDH@Z 0058cae0 f   client1.obj
 0001:0018bb20       ?saveauthkeys@game@@YAXXZ  0058cb20 f   client1.obj
 0001:0018bbd0       ?genauthkey@game@@YAXPBD@Z 0058cbd0 f   client1.obj
 0001:0018bcd0       ?run@?$_icmd_hasauthkey@$0MC@@game@@SAXPAD0@Z 0058ccd0 f   client1.obj
 0001:0018bd00       ?hasauthkey@game@@YA_NPBD0@Z 0058cd00 f   client1.obj
 0001:0018bdb0       ?run@?$_icmd_authkey@$0LJ@@game@@SAXPAD00@Z 0058cdb0 f   client1.obj
 0001:0018bdd0       ?addauthkey@game@@YAXPBD00@Z 0058cdd0 f   client1.obj
 0001:0018bf40       ?findauthkey@game@@YAPAUauthkey@1@PBD@Z 0058cf40 f   client1.obj
 0001:0018c020       ?run@?$_icmd_getteam@$0IP@@game@@SAXXZ 0058d020 f   client1.obj
 0001:0018c080       ?run@?$_icmd_team@$0IO@@game@@SAXPAD@Z 0058d080 f   client1.obj
 0001:0018c090       ?switchteam@game@@YAXPBD@Z 0058d090 f   client1.obj
 0001:0018c0f0       ?run@?$_icmd_getname@$0ID@@game@@SAXXZ 0058d0f0 f   client1.obj
 0001:0018c150       ?run@?$_icmd_name@$0IC@@game@@SAXPAD@Z 0058d150 f   client1.obj
 0001:0018c160       ?switchname@game@@YAXPBD@Z 0058d160 f   client1.obj
 0001:0018c210       ?run@?$_icmd_dropflag@$0ENA@@game@@SAXXZ 0058d210 f   client1.obj
 0001:0018c220       ?run@?$_icmd_insidebases@$0DAJ@@game@@SAXXZ 0058d220 f   client1.obj
 0001:0018c460       ?run@?$_icmd_repammo@$0CPJ@@game@@SAXXZ 0058d460 f   client1.obj
 0001:0018c470       ?drawteammates@game@@YAXPAUfpsent@@MMM@Z 0058d470 f   client1.obj
 0001:0018c790       ?drawteammate@game@@YAXPAUfpsent@@MMM0M@Z 0058d790 f   client1.obj
 0001:0018ca70       ?drawradar@game@@YAXMMM@Z  0058da70 f   client1.obj
 0001:0018cb80       ?drawminimap@game@@YAXPAUfpsent@@MMM@Z 0058db80 f   client1.obj
 0001:0018cdf0       ?calcradarscale@game@@YAMXZ 0058ddf0 f   client1.obj
 0001:0018ce40       ?parseplayer@game@@YAHPBD@Z 0058de40 f   client1.obj
 0001:0018cf40       ?c2sinfo@game@@YAX_N@Z     0058df40 f   client1.obj
 0001:0018cf90       ?changemap@game@@YAXPBDH@Z 0058df90 f   client1.obj
 0001:0018cfe0       ?unignore@game@@YAXH@Z     0058dfe0 f   client1.obj
 0001:0018d060       ?setclientmode@game@@YAXXZ 0058e060 f   client1.obj
 0001:0018d0c0       ?switchplayermodel@game@@YAXH@Z 0058e0c0 f   client1.obj
 0001:0018d0f0       ?sendmapinfo@game@@YAXXZ   0058e0f0 f   client1.obj
 0001:0018d130       ?sendposition@game@@YAXPAUfpsent@@_N@Z 0058e130 f   client1.obj
 0001:0018d250       ?addmsg@game@@YAXHPBDZZ    0058e250 f   client1.obj
 0001:0018d5f0       ?changemap@game@@YAXPBD@Z  0058e5f0 f   client1.obj
 0001:0018d650       ?toserver@game@@YAXPAD@Z   0058e650 f   client1.obj
 0001:0018d6a0       ?vartrigger@game@@YAXPAUident@@@Z 0058e6a0 f   client1.obj
 0001:0018d740       ?writeclientinfo@game@@YAXPAUstream@@@Z 0058e740 f   client1.obj
 0001:0018d770       ?allowmouselook@game@@YA_NXZ 0058e770 f   client1.obj
 0001:0018d7b0       ?ispaused@game@@YA_NXZ     0058e7b0 f   client1.obj
 0001:0018d7c0       ?connectfail@game@@YAXXZ   0058e7c0 f   client1.obj
 0001:0018d7e0       ?connectattempt@game@@YAXPBD0ABU_ENetAddress@@@Z 0058e7e0 f   client1.obj
 0001:0018d800       ?gamedisconnect@game@@YAX_N@Z 0058e800 f   client1.obj
 0001:0018d910       ?parsepacketclient@game@@YAXHAAUpacketbuf@@@Z 0058e910 f   client1.obj
 0001:0018d950       ?gameconnect@game@@YAX_N@Z 0058e950 f   client1.obj
 0001:0018d960       ?newmap@game@@YAXH@Z       0058e960 f   client1.obj
 0001:0018d980       ?scaletime@game@@YAHH@Z    0058e980 f   client1.obj
 0001:0018d990       ?allowedittoggle@game@@YA_NXZ 0058e990 f   client1.obj
 0001:0018da10       ?edittoggled@game@@YAX_N@Z 0058ea10 f   client1.obj
 0001:0018daa0       ?edittrigger@game@@YAXABUselinfo@@HHHH@Z 0058eaa0 f   client1.obj
 0001:0018dc70       ?forceedit@game@@YAXPBD@Z  0058ec70 f   client1.obj
 0001:0018e1f0       ?changeteam@aiman@server@@YAXPAUclientinfo@2@@Z 0058f1f0 f   server1.obj
 0001:0018e210       ?addclient@aiman@server@@YAXPAUclientinfo@2@@Z 0058f210 f   server1.obj
 0001:0018e230       ?changemap@aiman@server@@YAXXZ 0058f230 f   server1.obj
 0001:0018e2c0       ?setbotbalance@aiman@server@@YAXPAUclientinfo@2@_N@Z 0058f2c0 f   server1.obj
 0001:0018e340       ?setbotlimit@aiman@server@@YAXPAUclientinfo@2@H@Z 0058f340 f   server1.obj
 0001:0018e3b0       ?reqdel@aiman@server@@YAXPAUclientinfo@2@@Z 0058f3b0 f   server1.obj
 0001:0018e3f0       ?reqadd@aiman@server@@YAXPAUclientinfo@2@H@Z 0058f3f0 f   server1.obj
 0001:0018e450       ?checkai@aiman@server@@YAXXZ 0058f450 f   server1.obj
 0001:0018e4d0       ?clearai@aiman@server@@YAXXZ 0058f4d0 f   server1.obj
 0001:0018e5c0       ?checksetup@aiman@server@@YAXXZ 0058f5c0 f   server1.obj
 0001:0018e610       ?reassignai@aiman@server@@YA_NXZ 0058f610 f   server1.obj
 0001:0018e6d0       ?removeai@aiman@server@@YAXPAUclientinfo@2@@Z 0058f6d0 f   server1.obj
 0001:0018e700       ?shiftai@aiman@server@@YAXPAUclientinfo@2@0@Z 0058f700 f   server1.obj
 0001:0018e7b0       ?reinitai@aiman@server@@YAXPAUclientinfo@2@@Z 0058f7b0 f   server1.obj
 0001:0018e840       ?deleteai@aiman@server@@YA_NXZ 0058f840 f   server1.obj
 0001:0018e930       ?deleteai@aiman@server@@YAXPAUclientinfo@2@@Z 0058f930 f   server1.obj
 0001:0018ea00       ?addai@aiman@server@@YA_NHH@Z 0058fa00 f   server1.obj
 0001:0018ecf0       ?findaiclient@aiman@server@@YAPAUclientinfo@2@PAU32@@Z 0058fcf0 f   server1.obj
 0001:0018ed90       ?chooseteam@aiman@server@@YAPBDXZ 0058fd90 f   server1.obj
 0001:0018ee20       ?balanceteams@aiman@server@@YAXXZ 0058fe20 f   server1.obj
 0001:0018f0a0       ?calcteams@aiman@server@@YAXAAU?$vector@Uteamscore@@@@@Z 005900a0 f   server1.obj
 0001:0018f200       ?extserverinforeply@server@@YAXAAU?$databuf@E@@0@Z 00590200 f   server1.obj
 0001:0018f3a0       ?extinfoteams@server@@YAXAAU?$databuf@E@@@Z 005903a0 f   server1.obj
 0001:0018f650       ?extinfoplayer@server@@YAXAAU?$databuf@E@@PAUclientinfo@1@@Z 00590650 f   server1.obj
 0001:0018f830       ?connected@server@@YAXPAUclientinfo@1@@Z 00590830 f   server1.obj
 0001:0018fa10       ?sendclipboard@server@@YAXPAUclientinfo@1@@Z 00590a10 f   server1.obj
 0001:0018fb20       ?receivefile@server@@YAXHPAEH@Z 00590b20 f   server1.obj
 0001:0018fc00       ?answerchallenge@server@@YAXPAUclientinfo@1@IPADPBD@Z 00590c00 f   server1.obj
 0001:0018fe90       ?tryauth@server@@YA_NPAUclientinfo@1@PBD1@Z 00590e90 f   server1.obj
 0001:00190160       ?authchallenged@server@@YAXIPBD0@Z 00591160 f   server1.obj
 0001:001901c0       ?authsucceeded@server@@YAXI@Z 005911c0 f   server1.obj
 0001:001902c0       ?authfailed@server@@YAXI@Z 005912c0 f   server1.obj
 0001:00190360       ?findauth@server@@YAPAUclientinfo@1@I@Z 00591360 f   server1.obj
 0001:001903a0       ?allowconnect@server@@YAHPAUclientinfo@1@PBD@Z 005913a0 f   server1.obj
 0001:001904f0       ?addgban@server@@YAXPBD@Z  005914f0 f   server1.obj
 0001:00190620       ?checkgban@server@@YA_NI@Z 00591620 f   server1.obj
 0001:00190650       ?cleargbans@server@@YAXXZ  00591650 f   server1.obj
 0001:00190670       ?noclients@server@@YAXXZ   00591670 f   server1.obj
 0001:00190690       ?sendservinfo@server@@YAXPAUclientinfo@1@@Z 00591690 f   server1.obj
 0001:001906d0       ?checkmaps@server@@YAXH@Z  005916d0 f   server1.obj
 0001:00190a70       ?cleartimedevents@server@@YAXPAUclientinfo@1@@Z 00591a70 f   server1.obj
 0001:00190b50       ?processevents@server@@YAXXZ 00591b50 f   server1.obj
 0001:00190c20       ?flushevents@server@@YAXPAUclientinfo@1@H@Z 00591c20 f   server1.obj
 0001:00190ca0       ?clearevent@server@@YAXPAUclientinfo@1@@Z 00591ca0 f   server1.obj
 0001:00190cf0       ?flush@timedevent@server@@UAE_NPAUclientinfo@2@H@Z 00591cf0 f   server1.obj
 0001:00190d20       ?flush@gameevent@server@@UAE_NPAUclientinfo@2@H@Z 00591d20 f   server1.obj
 0001:00190d30       ?process@pickupevent@server@@UAEXPAUclientinfo@2@@Z 00591d30 f   server1.obj
 0001:00190d90       ?process@shotevent@server@@UAEXPAUclientinfo@2@@Z 00591d90 f   server1.obj
 0001:00191090       ?process@explodeevent@server@@UAEXPAUclientinfo@2@@Z 00592090 f   server1.obj
 0001:001912c0       ?process@suicideevent@server@@UAEXPAUclientinfo@2@@Z 005922c0 f   server1.obj
 0001:001912d0       ?suicide@server@@YAXPAUclientinfo@1@@Z 005922d0 f   server1.obj
 0001:001913a0       ?dodamage@server@@YAXPAUclientinfo@1@0HHABUvec@@@Z 005923a0 f   server1.obj
 0001:00191800       ?startintermission@server@@YAXXZ 00592800 f   server1.obj
 0001:00191820       ?checkintermission@server@@YAXXZ 00592820 f   server1.obj
 0001:001918a0       ?vote@server@@YAXPBDHH@Z   005928a0 f   server1.obj
 0001:00191af0       ?checkvotes@server@@YAX_N@Z 00592af0 f   server1.obj
 0001:00191e30       ?rotatemap@server@@YAX_N@Z 00592e30 f   server1.obj
 0001:00191ed0       ?changemap@server@@YAXPBDH@Z 00592ed0 f   server1.obj
 0001:001922d0       ?loaditems@server@@YAXXZ   005932d0 f   server1.obj
 0001:001924a0       ?sendinitclient@server@@YAXPAUclientinfo@1@@Z 005934a0 f   server1.obj
 0001:001925a0       ?sendresume@server@@YAXPAUclientinfo@1@@Z 005935a0 f   server1.obj
 0001:00192600       ?restorescore@server@@YA_NPAUclientinfo@1@@Z 00593600 f   server1.obj
 0001:00192630       ?welcomepacket@server@@YAHAAUpacketbuf@@PAUclientinfo@1@@Z 00593630 f   server1.obj
 0001:00192bd0       ?hasmap@server@@YA_NPAUclientinfo@1@@Z 00593bd0 f   server1.obj
 0001:00192cb0       ?welcomeinitclient@server@@YAXAAUpacketbuf@@H@Z 00593cb0 f   server1.obj
 0001:00192e30       ?putinitclient@server@@YAXPAUclientinfo@1@AAUpacketbuf@@@Z 00593e30 f   server1.obj
 0001:00192f60       ?sendwelcome@server@@YAXPAUclientinfo@1@@Z 00593f60 f   server1.obj
 0001:00193060       ?sendspawn@server@@YAXPAUclientinfo@1@@Z 00594060 f   server1.obj
 0001:001930c0       ?spawnstate@server@@YAXPAUclientinfo@1@@Z 005940c0 f   server1.obj
 0001:001930e0       ?buildworldstate@server@@YA_NXZ 005940e0 f   server1.obj
 0001:00193770       ?flushclientposition@server@@YAXAAUclientinfo@1@@Z 00594770 f   server1.obj
 0001:001938a0       ?cleanworldstate@server@@YAXPAU_ENetPacket@@@Z 005948a0 f   server1.obj
 0001:00193940       ?checktype@server@@YAHHPAUclientinfo@1@@Z 00594940 f   server1.obj
 0001:00193a00       ?savescore@server@@YAXPAUclientinfo@1@@Z 00594a00 f   server1.obj
 0001:00193a20       ?findscore@server@@YAPAUsavedscore@1@PAUclientinfo@1@_N@Z 00594a20 f   server1.obj
 0001:00193c30       ?trykick@server@@YA_NPAUclientinfo@1@HPBD11H_N@Z 00594c30 f   server1.obj
 0001:00193e00       ?setmaster@server@@YA_NPAUclientinfo@1@_NPBD22H11@Z 00594e00 f   server1.obj
 0001:00194270       ?revokemaster@server@@YAXPAUclientinfo@1@@Z 00595270 f   server1.obj
 0001:001942a0       ?checkpassword@server@@YA_NPAUclientinfo@1@PBD1@Z 005952a0 f   server1.obj
 0001:00194310       ?clearusers@server@@YAXXZ  00595310 f   server1.obj
 0001:00194320       ?adduser@server@@YAXPAD000@Z 00595320 f   server1.obj
 0001:00194510       ?changegamespeed@server@@YAXHPAUclientinfo@1@@Z 00595510 f   server1.obj
 0001:00194560       ?checkpausegame@server@@YAXXZ 00595560 f   server1.obj
 0001:001945e0       ?pausegame@server@@YAX_NPAUclientinfo@1@@Z 005955e0 f   server1.obj
 0001:00194620       ?readdemo@server@@YAXXZ    00595620 f   server1.obj
 0001:00194720       ?setupdemoplayback@server@@YAXXZ 00595720 f   server1.obj
 0001:001949a0       ?enddemoplayback@server@@YAXXZ 005959a0 f   server1.obj
 0001:00194a40       ?senddemo@server@@YAXPAUclientinfo@1@H@Z 00595a40 f   server1.obj
 0001:00194b20       ?cleardemos@server@@YAXH@Z 00595b20 f   server1.obj
 0001:00194bf0       ?listdemos@server@@YAXH@Z  00595bf0 f   server1.obj
 0001:00194d50       ?setupdemorecord@server@@YAXXZ 00595d50 f   server1.obj
 0001:00194e90       ?writedemo@server@@YAXHPAXH@Z 00595e90 f   server1.obj
 0001:00194f00       ?enddemorecord@server@@YAXXZ 00595f00 f   server1.obj
 0001:00194f60       ?adddemo@server@@YAXXZ     00595f60 f   server1.obj
 0001:00195110       ?prunedemos@server@@YAXH@Z 00596110 f   server1.obj
 0001:00195170       ?chooseworstteam@server@@YAPBDPBDPAUclientinfo@1@@Z 00596170 f   server1.obj
 0001:00195320       ?autoteam@server@@YAXXZ    00596320 f   server1.obj
 0001:001955b0       ?choosebestclient@server@@YAPAUclientinfo@1@AAM@Z 005965b0 f   server1.obj
 0001:00195640       ?addteaminfo@server@@YAPAUteaminfo@@PBD@Z 00596640 f   server1.obj
 0001:001956b0       ?pruneteaminfo@server@@YA_NXZ 005966b0 f   server1.obj
 0001:00195730       ?teamhasplayers@server@@YA_NPBD@Z 00596730 f   server1.obj
 0001:001957a0       ?clearteaminfo@server@@YAXXZ 005967a0 f   server1.obj
 0001:001957b0       ?pickup@server@@YA_NHH@Z   005967b0 f   server1.obj
 0001:00195890       ?spawntime@server@@YAHH@Z  00596890 f   server1.obj
 0001:00195990       ?canspawnitem@server@@YA_NH@Z 00596990 f   server1.obj
 0001:001959e0       ?colorname@server@@YAPBDPAUclientinfo@1@PAD@Z 005969e0 f   server1.obj
 0001:00195a70       ?duplicatename@server@@YA_NPAUclientinfo@1@PAD@Z 00596a70 f   server1.obj
 0001:00195ae0       ?numclients@server@@YAHH_N00@Z 00596ae0 f   server1.obj
 0001:00195b50       ?serveroption@server@@YA_NPBD@Z 00596b50 f   server1.obj
 0001:00195bf0       ?resetitems@server@@YAXXZ  00596bf0 f   server1.obj
 0001:00195c10       ?sendservmsgf@server@@YAXPBDZZ 00596c10 f   server1.obj
 0001:00195c60       ?privname@server@@YAPBDH@Z 00596c60 f   server1.obj
 0001:00195c90       ?getinfo@server@@YAPAUclientinfo@1@H@Z 00596c90 f   server1.obj
 0001:00195ce0       ?checkteamkills@server@@YAXXZ 00596ce0 f   server1.obj
 0001:00195dc0       ?addteamkill@server@@YAXPAUclientinfo@1@0H@Z 00596dc0 f   server1.obj
 0001:00195e50       ?addteamkillkick@server@@YAXPADPAH1@Z 00596e50 f   server1.obj
 0001:00195f60       ?teamkillkickreset@server@@YAXXZ 00596f60 f   server1.obj
 0001:00195f70       ?var_publicserver@server@@YAXXZ 00596f70 f   server1.obj
 0001:00195fa0       ?addmaprotations@server@@YAXPAUtagval@@H@Z 00596fa0 f   server1.obj
 0001:00196270       ?addmaprotation@server@@YA_NHPBD@Z 00597270 f   server1.obj
 0001:00196320       ?genmodemask@server@@YAHAAU?$vector@PAD@@@Z 00597320 f   server1.obj
 0001:00196480       ?searchmodename@server@@YA_NPBD0@Z 00597480 f   server1.obj
 0001:00196500       ?findmaprotation@server@@YAHHPBD@Z 00597500 f   server1.obj
 0001:00196720       ?nextmaprotation@server@@YAXXZ 00597720 f   server1.obj
 0001:00196770       ?maprotationreset@server@@YAXXZ 00597770 f   server1.obj
 0001:00196790       ?kickclients@server@@YAXIPAUclientinfo@1@@Z 00597790 f   server1.obj
 0001:00196820       ?addban@server@@YAXIH@Z    00597820 f   server1.obj
 0001:001968d0       ?hashpassword@server@@YAXHHPBDPADH@Z 005978d0 f   server1.obj
 0001:00196950       ?forcemap@server@@YAXPBDH@Z 00597950 f   server1.obj
 0001:00196a30       ?forcepaused@server@@YAX_N@Z 00597a30 f   server1.obj
 0001:00196a60       ?msgsizelookup@server@@YAHH@Z 00597a60 f   server1.obj
 0001:00196ac0       ?stopdemo@server@@YAXXZ    00597ac0 f   server1.obj
 0001:00196af0       ?forcegamespeed@server@@YAXH@Z 00597af0 f   server1.obj
 0001:00196b30       ?modename@server@@YAPBDHPBD@Z 00597b30 f   server1.obj
 0001:00196b50       ?mastermodename@server@@YAPBDHPBD@Z 00597b50 f   server1.obj
 0001:00196b70       ?delayspawn@server@@YA_NH@Z 00597b70 f   server1.obj
 0001:00196bc0       ?parseoptions@game@@YAXAAU?$vector@PBD@@@Z 00597bc0 f   server1.obj
 0001:00196c90       ?servercompatible@server@@YA_NPAD00HABU?$vector@H@@H@Z 00597c90 f   server1.obj
 0001:00196ca0       ?newclientinfo@server@@YAPAXXZ 00597ca0 f   server1.obj
 0001:00196d00       ?deleteclientinfo@server@@YAXPAX@Z 00597d00 f   server1.obj
 0001:00196d20       ?recordpacket@server@@YAXHPAXH@Z 00597d20 f   server1.obj
 0001:00196d30       ?allowbroadcast@server@@YA_NH@Z 00597d30 f   server1.obj
 0001:00196d90       ?clientdisconnect@server@@YAXH@Z 00597d90 f   server1.obj
 0001:00196f80       ?sendservmsg@server@@YAXPBD@Z 00597f80 f   server1.obj
 0001:00196fa0       ?parsepacket@server@@YAXHHAAUpacketbuf@@@Z 00597fa0 f   server1.obj
 0001:00199bf0       ?defaultmaster@server@@YAPBDXZ 0059abf0 f   server1.obj
 0001:00199c00       ?masterport@server@@YAHXZ  0059ac00 f   server1.obj
 0001:00199c10       ?processmasterinput@server@@YAXPBDH0@Z 0059ac10 f   server1.obj
 0001:00199d00       ?serverinforeply@server@@YAXAAU?$databuf@E@@0@Z 0059ad00 f   server1.obj
 0001:00199ee0       ?serverupdate@server@@YAXXZ 0059aee0 f   server1.obj
 0001:0019a260       ?sendpackets@server@@YA_N_N@Z 0059b260 f   server1.obj
 0001:0019a2d0       ?scaletime@server@@YAHH@Z  0059b2d0 f   server1.obj
 0001:0019a2e0       ?ispaused@server@@YA_NXZ   0059b2e0 f   server1.obj
 0001:0019a2f0       ?clientconnect@server@@YAHHI@Z 0059b2f0 f   server1.obj
 0001:0019a400       ?localdisconnect@server@@YAXH@Z 0059b400 f   server1.obj
 0001:0019a430       ?localconnect@server@@YAXH@Z 0059b430 f   server1.obj
 0001:0019a550       ?reserveclients@server@@YAHXZ 0059b550 f   server1.obj
 0001:0019a560       ?serverinfoport@server@@YAHH@Z 0059b560 f   server1.obj
 0001:0019a570       ?laninfoport@server@@YAHXZ 0059b570 f   server1.obj
 0001:0019a580       ?serverinit@server@@YAXXZ  0059b580 f   server1.obj
 0001:0019a5b0       ?serverport@server@@YAHH@Z 0059b5b0 f   server1.obj
 0001:0019a5c0       ?numchannels@server@@YAHXZ 0059b5c0 f   server1.obj
 0001:0019a5d0       ?gameident@game@@YAPBDXZ   0059b5d0 f   server1.obj
 0001:0019a5e0       _fmod                      0059b5e0 f   LIBCMT:87fmod.obj
 0001:0019a5ea       __CIfmod                   0059b5ea f   LIBCMT:87fmod.obj
 0001:0019a6d0       ?_CallCatchBlock2@@YAPAXPAUEHRegistrationNode@@PBU_s_FuncInfo@@PAXHK@Z 0059b6d0 f   LIBCMT:_trnsctrl_.obj
 0001:0019a72e       ?_CallMemberFunction2@@YGXPAX00H@Z 0059b72e f   LIBCMT:_trnsctrl_.obj
 0001:0019a72e       ?_CallMemberFunction1@@YGXPAX00@Z 0059b72e f   LIBCMT:_trnsctrl_.obj
 0001:0019a72e       ?_CallMemberFunction0@@YGXPAX0@Z 0059b72e f   LIBCMT:_trnsctrl_.obj
 0001:0019a735       ?_CallSETranslator@@YAHPAUEHExceptionRecord@@PAUEHRegistrationNode@@PAX2PBU_s_FuncInfo@@H1@Z 0059b735 f   LIBCMT:_trnsctrl_.obj
 0001:0019a80a       ?_GetRangeOfTrysToCheck@@YAPBU_s_TryBlockMapEntry@@PBU_s_FuncInfo@@HHPAI1@Z 0059b80a f   LIBCMT:_trnsctrl_.obj
 0001:0019a889       ?_JumpToContinuation@@YGXPAXPAUEHRegistrationNode@@@Z 0059b889 f   LIBCMT:_trnsctrl_.obj
 0001:0019a8b9       ?_UnwindNestedFrames@@YGXPAUEHRegistrationNode@@PAUEHExceptionRecord@@@Z 0059b8b9 f   LIBCMT:_trnsctrl_.obj
 0001:0019a90c       __CreateFrameInfo          0059b90c f   LIBCMT:_trnsctrl_.obj
 0001:0019a936       __FindAndUnlinkFrame       0059b936 f   LIBCMT:_trnsctrl_.obj
 0001:0019a986       __IsExceptionObjectToBeDestroyed 0059b986 f   LIBCMT:_trnsctrl_.obj
 0001:0019a9af       ___CxxFrameHandler3        0059b9af f   LIBCMT:_trnsctrl_.obj
 0001:0019a9e5       ___libm_sse2_acosf         0059b9e5 f   LIBCMT:acosf_sse2.obj
 0001:0019adc2       ___libm_sse2_asinf         0059bdc2 f   LIBCMT:asinf_sse2.obj
 0001:0019b17f       ___libm_sse2_atan2         0059c17f f   LIBCMT:atan2_sse2.obj
 0001:0019b695       ___libm_sse2_atanf         0059c695 f   LIBCMT:atanf_sse2.obj
 0001:0019b835       ___libm_sse2_cos           0059c835 f   LIBCMT:cos_sse2.obj
 0001:0019b9d6       ___libm_sse2_cosf          0059c9d6 f   LIBCMT:cosf_sse2.obj
 0001:0019bb23       ___libm_sse2_expf          0059cb23 f   LIBCMT:expf_sse2.obj
 0001:0019bc7a       ___libm_sse2_log           0059cc7a f   LIBCMT:log_sse2.obj
 0001:0019bea1       ___libm_sse2_log10f        0059cea1 f   LIBCMT:log10f_sse2.obj
 0001:0019c01a       ___libm_sse2_logf          0059d01a f   LIBCMT:logf_sse2.obj
 0001:0019c193       ___libm_sse2_powf          0059d193 f   LIBCMT:powf_sse2.obj
 0001:0019c846       ___libm_sse2_sin           0059d846 f   LIBCMT:sin_sse2.obj
 0001:0019c9f4       ___libm_sse2_sinf          0059d9f4 f   LIBCMT:sinf_sse2.obj
 0001:0019cb39       ___libm_sse2_tan           0059db39 f   LIBCMT:tan_sse2.obj
 0001:0019cd84       ___libm_sse2_tanf          0059dd84 f   LIBCMT:tanf_sse2.obj
 0001:0019cf20       ___vdecl_expf4             0059df20 f   LIBCMT:svml_sexpf4_dispatch.obj
 0001:0019cf40       __allshl                   0059df40 f   LIBCMT:llshl.obj
 0001:0019cf60       __allshr                   0059df60 f   LIBCMT:llshr.obj
 0001:0019cf98       __except_handler3          0059df98 f   LIBCMT:exsup3.obj
 0001:0019d096       __seh_longjmp_unwind@4     0059e096 f   LIBCMT:exsup3.obj
 0001:0019d0c0       __cintrindisp2             0059e0c0 f   LIBCMT:87cdisp.obj
 0001:0019d0fe       __cintrindisp1             0059e0fe f   LIBCMT:87cdisp.obj
 0001:0019d13b       __ctrandisp2               0059e13b f   LIBCMT:87cdisp.obj
 0001:0019d2ca       __ctrandisp1               0059e2ca f   LIBCMT:87cdisp.obj
 0001:0019d2fd       __fload                    0059e2fd f   LIBCMT:87cdisp.obj
 0001:0019d340       __trandisp1                0059e340 f   LIBCMT:87disp.obj
 0001:0019d3a7       __trandisp2                0059e3a7 f   LIBCMT:87disp.obj
 0001:0019d433       __rttospopde               0059e433     LIBCMT:87disp.obj
 0001:0019d438       __rttospop                 0059e438     LIBCMT:87disp.obj
 0001:0019d43a       __rtnospop                 0059e43a     LIBCMT:87disp.obj
 0001:0019d43c       __rttosnpop                0059e43c     LIBCMT:87disp.obj
 0001:0019d43d       __rtnospopde               0059e43d     LIBCMT:87disp.obj
 0001:0019d444       __rtzeropop                0059e444     LIBCMT:87disp.obj
 0001:0019d446       __rtzeronpop               0059e446     LIBCMT:87disp.obj
 0001:0019d44b       __rtonepop                 0059e44b     LIBCMT:87disp.obj
 0001:0019d44d       __rtonenpop                0059e44d     LIBCMT:87disp.obj
 0001:0019d452       __tosnan1                  0059e452     LIBCMT:87disp.obj
 0001:0019d47d       __nosnan2                  0059e47d     LIBCMT:87disp.obj
 0001:0019d47f       __tosnan2                  0059e47f     LIBCMT:87disp.obj
 0001:0019d4a7       __nan2                     0059e4a7     LIBCMT:87disp.obj
 0001:0019d4e6       __rtindfpop                0059e4e6     LIBCMT:87disp.obj
 0001:0019d4e8       __rtindfnpop               0059e4e8     LIBCMT:87disp.obj
 0001:0019d4f9       __rttosnpopde              0059e4f9     LIBCMT:87disp.obj
 0001:0019d503       __rtchsifneg               0059e503     LIBCMT:87disp.obj
 0001:0019d510       __CallSettingFrame@12      0059e510 f   LIBCMT:lowhelpr.obj
 0001:0019d537       __NLG_Return               0059e537     LIBCMT:lowhelpr.obj
 0001:0019d55c       ___DestructExceptionObject 0059e55c f   LIBCMT:frame.obj
 0001:0019d5e7       ??0bad_exception@std@@QAE@ABV01@@Z 0059e5e7 f i LIBCMT:frame.obj
 0001:0019d602       ??1bad_exception@std@@UAE@XZ 0059e602 f i LIBCMT:frame.obj
 0001:0019d60d       ??_Ebad_exception@std@@UAEPAXI@Z 0059e60d f i LIBCMT:frame.obj
 0001:0019d60d       ??_Gbad_exception@std@@UAEPAXI@Z 0059e60d f i LIBCMT:frame.obj
 0001:0019de43       ___AdjustPointer           0059ee43 f   LIBCMT:frame.obj
 0001:0019de68       ___BuildCatchObject        0059ee68 f   LIBCMT:frame.obj
 0001:0019def6       ___BuildCatchObjectHelper  0059eef6 f   LIBCMT:frame.obj
 0001:0019e07b       ___FrameUnwindFilter       0059f07b f   LIBCMT:frame.obj
 0001:0019e0c9       ___FrameUnwindToState      0059f0c9 f   LIBCMT:frame.obj
 0001:0019e1a2       ___InternalCxxFrameHandler 0059f1a2 f   LIBCMT:frame.obj
 0001:0019e281       ___TypeMatch               0059f281 f   LIBCMT:frame.obj
 0001:0019e2e0       _cos                       0059f2e0 f   LIBCMT:cos.obj
 0001:0019e320       __CIcos                    0059f320 f   LIBCMT:cos.obj
 0001:0019e35b       __CIcos_default            0059f35b f   LIBCMT:cos.obj
 0001:0019e36f       __cos_default              0059f36f     LIBCMT:cos.obj
 0001:0019e410       _sin                       0059f410 f   LIBCMT:sin.obj
 0001:0019e450       __CIsin                    0059f450 f   LIBCMT:sin.obj
 0001:0019e48b       __CIsin_default            0059f48b f   LIBCMT:sin.obj
 0001:0019e49f       __sin_default              0059f49f     LIBCMT:sin.obj
 0001:0019e540       _tan                       0059f540 f   LIBCMT:tan.obj
 0001:0019e580       __CItan                    0059f580 f   LIBCMT:tan.obj
 0001:0019e5bb       __CItan_default            0059f5bb f   LIBCMT:tan.obj
 0001:0019e5cf       __tan_default              0059f5cf     LIBCMT:tan.obj
 0001:0019e670       ___sse2_expf4              0059f670 f   LIBCMT:svml_sexpf4_sse2.obj
 0001:0019e890       ___sse4_expf4              0059f890 f   LIBCMT:svml_sexpf4_sse4.obj
 0001:0019eb50       _CallDestructExceptionObject 0059fb50 f   LIBCMT:calldtor.obj
 0001:0019ec50       __ValidateEH3RN            0059fc50 f   LIBCMT:eh3valid.obj
 0001:0019efb2       __87except                 0059ffb2 f   LIBCMT:87except.obj
 0001:0019f0bb       ?_ValidateWrite@@YAHPAXI@Z 005a00bb f   LIBCMT:validate.obj
 0001:0019f0bb       ?_ValidateExecute@@YAHP6GHXZ@Z 005a00bb f   LIBCMT:validate.obj
 0001:0019f0bb       ?_ValidateRead@@YAHPBXI@Z  005a00bb f   LIBCMT:validate.obj
 0001:0019f0ca       ??0exception@std@@QAE@ABQBD@Z 005a00ca f   LIBCMT:stdexcpt.obj
 0001:0019f0ef       ??0exception@std@@QAE@ABV01@@Z 005a00ef f   LIBCMT:stdexcpt.obj
 0001:0019f112       ??1exception@std@@UAE@XZ   005a0112 f   LIBCMT:stdexcpt.obj
 0001:0019f11d       ??4exception@std@@QAEAAV01@ABV01@@Z 005a011d f   LIBCMT:stdexcpt.obj
 0001:0019f150       ??_Gexception@std@@UAEPAXI@Z 005a0150 f i LIBCMT:stdexcpt.obj
 0001:0019f150       ??_Eexception@std@@UAEPAXI@Z 005a0150 f i LIBCMT:stdexcpt.obj
 0001:0019f175       ?_Copy_str@exception@std@@AAEXPBD@Z 005a0175 f   LIBCMT:stdexcpt.obj
 0001:0019f1b3       ?_Tidy@exception@std@@AAEXXZ 005a01b3 f   LIBCMT:stdexcpt.obj
 0001:0019f1cf       ?what@exception@std@@UBEPBDXZ 005a01cf f   LIBCMT:stdexcpt.obj
 0001:0019f1dc       __CxxThrowException@8      005a01dc f   LIBCMT:throw.obj
 0001:0019f237       __EH_prolog3_catch         005a0237 f   LIBCMT:ehprolg3.obj
 0001:0019f270       __CIcos_pentium4           005a0270 f   LIBCMT:cos_pentium4.obj
 0001:0019f288       __cos_pentium4             005a0288     LIBCMT:cos_pentium4.obj
 0001:0019f420       __twoToTOS                 005a0420 f   LIBCMT:common.obj
 0001:0019f435       __load_CW                  005a0435 f   LIBCMT:common.obj
 0001:0019f44c       __convertTOStoQNaN         005a044c f   LIBCMT:common.obj
 0001:0019f465       __fload_withFB             005a0465 f   LIBCMT:common.obj
 0001:0019f4a8       __checkTOS_withFB          005a04a8 f   LIBCMT:common.obj
 0001:0019f4be       __fast_exit                005a04be f   LIBCMT:common.obj
 0001:0019f4cb       __math_exit                005a04cb f   LIBCMT:common.obj
 0001:0019f4f5       __check_overflow_exit      005a04f5 f   LIBCMT:common.obj
 0001:0019f509       __check_range_exit         005a0509 f   LIBCMT:common.obj
 0001:0019f5b0       __startTwoArgErrorHandling 005a05b0 f   LIBCMT:genexcep.obj
 0001:0019f5c7       __startOneArgErrorHandling 005a05c7 f   LIBCMT:genexcep.obj
 0001:0019f610       __CIsin_pentium4           005a0610 f   LIBCMT:sin_pentium4.obj
 0001:0019f628       __sin_pentium4             005a0628     LIBCMT:sin_pentium4.obj
 0001:0019f7e0       __CItan_pentium4           005a07e0 f   LIBCMT:tan_pentium4.obj
 0001:0019f7f8       __tan_pentium4             005a07f8     LIBCMT:tan_pentium4.obj
 0001:001ba420       ??__Fmeshgroups@?1??sharemeshes@animmodel@@QAAPAUmeshgroup@1@PBDZZ@YAXXZ 005bb420 f i rendermodel.obj
 0001:001ba450       ??__Fskeletons@?4??shareskeleton@skelmeshgroup@skelmodel@@QAEXPAD@Z@YAXXZ 005bb450 f i rendermodel.obj
 0001:001bb610       ??__Ftargets@?O@??aidefend@captureclientmode@game@@UAE_NPAUfpsent@@AAUaistate@ai@@@Z@YAXXZ 005bc610 f i client1.obj
 0001:001bb630       ??__Ftargets@?5??aifind@captureclientmode@game@@UAEXPAUfpsent@@AAUaistate@ai@@AAU?$vector@Uinterest@ai@@@@@Z@YAXXZ 005bc630 f i client1.obj
 0001:001bb650       ??__Ftargets@?BA@??aidefend@ctfclientmode@game@@UAE_NPAUfpsent@@AAUaistate@ai@@@Z@YAXXZ 005bc650 f i client1.obj
 0001:001bb670       ??__Ftargets@?6??aifind@ctfclientmode@game@@UAEXPAUfpsent@@AAUaistate@ai@@AAU?$vector@Uinterest@ai@@@@@Z@YAXXZ 005bc670 f i client1.obj
 0001:001bb690       ??__Ftakenflags@?1??aicheck@ctfclientmode@game@@UAE_NPAUfpsent@@AAUaistate@ai@@@Z@YAXXZ 005bc690 f i client1.obj
 0001:001bb6b0       ??__Finterests@?4??aihomerun@ctfclientmode@game@@QAE_NPAUfpsent@@AAUaistate@ai@@@Z@YAXXZ 005bc6b0 f i client1.obj
 0002:00000000       __imp__VirtualQuery@12     005bd000     kernel32:KERNEL32.dll
 0002:00000004       __imp__SetEnvironmentVariableA@8 005bd004     kernel32:KERNEL32.dll
 0002:00000008       __imp__SetEndOfFile@4      005bd008     kernel32:KERNEL32.dll
 0002:0000000c       __imp__CreateFileW@28      005bd00c     kernel32:KERNEL32.dll
 0002:00000010       __imp__GetStringTypeW@16   005bd010     kernel32:KERNEL32.dll
 0002:00000014       __imp__WriteConsoleW@20    005bd014     kernel32:KERNEL32.dll
 0002:00000018       __imp__FlushFileBuffers@4  005bd018     kernel32:KERNEL32.dll
 0002:0000001c       __imp__LCMapStringW@24     005bd01c     kernel32:KERNEL32.dll
 0002:00000020       __imp__CompareStringW@24   005bd020     kernel32:KERNEL32.dll
 0002:00000024       __imp__GetTimeFormatW@24   005bd024     kernel32:KERNEL32.dll
 0002:00000028       __imp__GetCurrentProcessId@0 005bd028     kernel32:KERNEL32.dll
 0002:0000002c       __imp__QueryPerformanceCounter@4 005bd02c     kernel32:KERNEL32.dll
 0002:00000030       __imp__GetModuleFileNameA@12 005bd030     kernel32:KERNEL32.dll
 0002:00000034       __imp__SetFilePointer@16   005bd034     kernel32:KERNEL32.dll
 0002:00000038       __imp__ReadConsoleW@20     005bd038     kernel32:KERNEL32.dll
 0002:0000003c       __imp__SetFilePointerEx@20 005bd03c     kernel32:KERNEL32.dll
 0002:00000040       __imp__GetFileType@4       005bd040     kernel32:KERNEL32.dll
 0002:00000044       __imp__GetTimeZoneInformation@4 005bd044     kernel32:KERNEL32.dll
 0002:00000048       __imp__LoadLibraryExW@12   005bd048     kernel32:KERNEL32.dll
 0002:0000004c       __imp__DeleteCriticalSection@4 005bd04c     kernel32:KERNEL32.dll
 0002:00000050       __imp__GetCurrentThreadId@0 005bd050     kernel32:KERNEL32.dll
 0002:00000054       __imp__GetCPInfo@8         005bd054     kernel32:KERNEL32.dll
 0002:00000058       __imp__GetOEMCP@0          005bd058     kernel32:KERNEL32.dll
 0002:0000005c       __imp__GetACP@0            005bd05c     kernel32:KERNEL32.dll
 0002:00000060       __imp__IsValidCodePage@4   005bd060     kernel32:KERNEL32.dll
 0002:00000064       __imp__InterlockedIncrement@4 005bd064     kernel32:KERNEL32.dll
 0002:00000068       __imp__GetConsoleMode@8    005bd068     kernel32:KERNEL32.dll
 0002:0000006c       __imp__GetConsoleCP@0      005bd06c     kernel32:KERNEL32.dll
 0002:00000070       __imp__RtlUnwind@16        005bd070     kernel32:KERNEL32.dll
 0002:00000074       __imp__GetModuleHandleW@4  005bd074     kernel32:KERNEL32.dll
 0002:00000078       __imp__GetStartupInfoW@4   005bd078     kernel32:KERNEL32.dll
 0002:0000007c       __imp__TlsFree@4           005bd07c     kernel32:KERNEL32.dll
 0002:00000080       __imp__TlsSetValue@8       005bd080     kernel32:KERNEL32.dll
 0002:00000084       __imp__TlsGetValue@4       005bd084     kernel32:KERNEL32.dll
 0002:00000088       __imp__TlsAlloc@0          005bd088     kernel32:KERNEL32.dll
 0002:0000008c       __imp__TerminateProcess@8  005bd08c     kernel32:KERNEL32.dll
 0002:00000090       __imp__InitializeCriticalSectionAndSpinCount@8 005bd090     kernel32:KERNEL32.dll
 0002:00000094       __imp__SetLastError@4      005bd094     kernel32:KERNEL32.dll
 0002:00000098       __imp__SetUnhandledExceptionFilter@4 005bd098     kernel32:KERNEL32.dll
 0002:0000009c       __imp__UnhandledExceptionFilter@4 005bd09c     kernel32:KERNEL32.dll
 0002:000000a0       __imp__MoveFileExW@12      005bd0a0     kernel32:KERNEL32.dll
 0002:000000a4       __imp__DeleteFileW@4       005bd0a4     kernel32:KERNEL32.dll
 0002:000000a8       __imp__LeaveCriticalSection@4 005bd0a8     kernel32:KERNEL32.dll
 0002:000000ac       __imp__EnterCriticalSection@4 005bd0ac     kernel32:KERNEL32.dll
 0002:000000b0       __imp__Sleep@4             005bd0b0     kernel32:KERNEL32.dll
 0002:000000b4       __imp__HeapSize@12         005bd0b4     kernel32:KERNEL32.dll
 0002:000000b8       __imp__GetModuleFileNameW@12 005bd0b8     kernel32:KERNEL32.dll
 0002:000000bc       __imp__WriteFile@20        005bd0bc     kernel32:KERNEL32.dll
 0002:000000c0       __imp__IsDebuggerPresent@0 005bd0c0     kernel32:KERNEL32.dll
 0002:000000c4       __imp__GetProcessHeap@0    005bd0c4     kernel32:KERNEL32.dll
 0002:000000c8       __imp__ReadFile@20         005bd0c8     kernel32:KERNEL32.dll
 0002:000000cc       __imp__WideCharToMultiByte@32 005bd0cc     kernel32:KERNEL32.dll
 0002:000000d0       __imp__GetSystemTimeAsFileTime@4 005bd0d0     kernel32:KERNEL32.dll
 0002:000000d4       __imp__GetProcAddress@8    005bd0d4     kernel32:KERNEL32.dll
 0002:000000d8       __imp__GetModuleHandleExW@12 005bd0d8     kernel32:KERNEL32.dll
 0002:000000dc       __imp__ExitProcess@4       005bd0dc     kernel32:KERNEL32.dll
 0002:000000e0       __imp__InterlockedDecrement@4 005bd0e0     kernel32:KERNEL32.dll
 0002:000000e4       __imp__MultiByteToWideChar@24 005bd0e4     kernel32:KERNEL32.dll
 0002:000000e8       __imp__AreFileApisANSI@0   005bd0e8     kernel32:KERNEL32.dll
 0002:000000ec       __imp__DecodePointer@4     005bd0ec     kernel32:KERNEL32.dll
 0002:000000f0       __imp__EncodePointer@4     005bd0f0     kernel32:KERNEL32.dll
 0002:000000f4       __imp__HeapAlloc@12        005bd0f4     kernel32:KERNEL32.dll
 0002:000000f8       __imp__IsProcessorFeaturePresent@4 005bd0f8     kernel32:KERNEL32.dll
 0002:000000fc       __imp__HeapFree@12         005bd0fc     kernel32:KERNEL32.dll
 0002:00000100       __imp__GetLastError@0      005bd100     kernel32:KERNEL32.dll
 0002:00000104       __imp__GetSystemInfo@4     005bd104     kernel32:KERNEL32.dll
 0002:00000108       __imp__FindClose@4         005bd108     kernel32:KERNEL32.dll
 0002:0000010c       __imp__FindNextFileA@8     005bd10c     kernel32:KERNEL32.dll
 0002:00000110       __imp__FindFirstFileA@8    005bd110     kernel32:KERNEL32.dll
 0002:00000114       __imp__CreateDirectoryA@8  005bd114     kernel32:KERNEL32.dll
 0002:00000118       __imp__GetFileAttributesA@4 005bd118     kernel32:KERNEL32.dll
 0002:0000011c       __imp__CloseHandle@4       005bd11c     kernel32:KERNEL32.dll
 0002:00000120       __imp__UnmapViewOfFile@4   005bd120     kernel32:KERNEL32.dll
 0002:00000124       __imp__MapViewOfFile@20    005bd124     kernel32:KERNEL32.dll
 0002:00000128       __imp__OpenFileMappingA@12 005bd128     kernel32:KERNEL32.dll
 0002:0000012c       __imp__GetCurrentThread@0  005bd12c     kernel32:KERNEL32.dll
 0002:00000130       __imp__GlobalUnlock@4      005bd130     kernel32:KERNEL32.dll
 0002:00000134       __imp__GlobalLock@4        005bd134     kernel32:KERNEL32.dll
 0002:00000138       __imp__GlobalSize@4        005bd138     kernel32:KERNEL32.dll
 0002:0000013c       __imp__GetCurrentProcess@0 005bd13c     kernel32:KERNEL32.dll
 0002:00000140       __imp__SetPriorityClass@8  005bd140     kernel32:KERNEL32.dll
 0002:00000144       __imp__GetCommandLineA@0   005bd144     kernel32:KERNEL32.dll
 0002:00000148       __imp__SetConsoleOutputCP@4 005bd148     kernel32:KERNEL32.dll
 0002:0000014c       __imp__SetConsoleCP@4      005bd14c     kernel32:KERNEL32.dll
 0002:00000150       __imp__SetConsoleScreenBufferSize@8 005bd150     kernel32:KERNEL32.dll
 0002:00000154       __imp__GetConsoleScreenBufferInfo@8 005bd154     kernel32:KERNEL32.dll
 0002:00000158       __imp__GetStdHandle@4      005bd158     kernel32:KERNEL32.dll
 0002:0000015c       __imp__SetConsoleTitleA@4  005bd15c     kernel32:KERNEL32.dll
 0002:00000160       __imp__GetConsoleWindow@0  005bd160     kernel32:KERNEL32.dll
 0002:00000164       __imp__SetConsoleCtrlHandler@8 005bd164     kernel32:KERNEL32.dll
 0002:00000168       __imp__AllocConsole@0      005bd168     kernel32:KERNEL32.dll
 0002:0000016c       __imp__WriteConsoleA@20    005bd16c     kernel32:KERNEL32.dll
 0002:00000170       __imp__FreeEnvironmentStringsW@4 005bd170     kernel32:KERNEL32.dll
 0002:00000174       __imp__SetStdHandle@8      005bd174     kernel32:KERNEL32.dll
 0002:00000178       __imp__OutputDebugStringW@4 005bd178     kernel32:KERNEL32.dll
 0002:0000017c       __imp__LoadLibraryW@4      005bd17c     kernel32:KERNEL32.dll
 0002:00000180       __imp__HeapReAlloc@16      005bd180     kernel32:KERNEL32.dll
 0002:00000184       __imp__RaiseException@16   005bd184     kernel32:KERNEL32.dll
 0002:00000188       __imp__GetDateFormatW@24   005bd188     kernel32:KERNEL32.dll
 0002:0000018c       __imp__GetEnvironmentStringsW@0 005bd18c     kernel32:KERNEL32.dll
 0002:00000190       \177KERNEL32_NULL_THUNK_DATA 005bd190     kernel32:KERNEL32.dll
 0002:00000194       __imp__glTexCoord3f@12     005bd194     opengl32:OPENGL32.dll
 0002:00000198       __imp__glFrontFace@4       005bd198     opengl32:OPENGL32.dll
 0002:0000019c       __imp__glNormalPointer@12  005bd19c     opengl32:OPENGL32.dll
 0002:000001a0       __imp__glLoadMatrixf@4     005bd1a0     opengl32:OPENGL32.dll
 0002:000001a4       __imp__glFrustum@48        005bd1a4     opengl32:OPENGL32.dll
 0002:000001a8       __imp__glMultMatrixf@4     005bd1a8     opengl32:OPENGL32.dll
 0002:000001ac       __imp__glPolygonOffset@8   005bd1ac     opengl32:OPENGL32.dll
 0002:000001b0       __imp__glIsEnabled@4       005bd1b0     opengl32:OPENGL32.dll
 0002:000001b4       __imp__glFogf@8            005bd1b4     opengl32:OPENGL32.dll
 0002:000001b8       __imp__glClear@4           005bd1b8     opengl32:OPENGL32.dll
 0002:000001bc       __imp__glColorMask@16      005bd1bc     opengl32:OPENGL32.dll
 0002:000001c0       __imp__glCopyTexImage2D@32 005bd1c0     opengl32:OPENGL32.dll
 0002:000001c4       __imp__glMaterialfv@12     005bd1c4     opengl32:OPENGL32.dll
 0002:000001c8       __imp__glLightfv@12        005bd1c8     opengl32:OPENGL32.dll
 0002:000001cc       __imp__glAlphaFunc@8       005bd1cc     opengl32:OPENGL32.dll
 0002:000001d0       __imp__glTexGeni@12        005bd1d0     opengl32:OPENGL32.dll
 0002:000001d4       __imp__glLightModelfv@8    005bd1d4     opengl32:OPENGL32.dll
 0002:000001d8       __imp__glColor4ubv@4       005bd1d8     opengl32:OPENGL32.dll
 0002:000001dc       __imp__glDepthRange@16     005bd1dc     opengl32:OPENGL32.dll
 0002:000001e0       __imp__glTexGenfv@12       005bd1e0     opengl32:OPENGL32.dll
 0002:000001e4       __imp__glColor4fv@4        005bd1e4     opengl32:OPENGL32.dll
 0002:000001e8       __imp__glTexEnvi@12        005bd1e8     opengl32:OPENGL32.dll
 0002:000001ec       __imp__glTexEnvfv@12       005bd1ec     opengl32:OPENGL32.dll
 0002:000001f0       __imp__glTexCoord4f@16     005bd1f0     opengl32:OPENGL32.dll
 0002:000001f4       __imp__glHint@8            005bd1f4     opengl32:OPENGL32.dll
 0002:000001f8       __imp__glTexImage1D@32     005bd1f8     opengl32:OPENGL32.dll
 0002:000001fc       __imp__glTexImage2D@36     005bd1fc     opengl32:OPENGL32.dll
 0002:00000200       __imp__glReadPixels@28     005bd200     opengl32:OPENGL32.dll
 0002:00000204       __imp__glGetTexLevelParameteriv@16 005bd204     opengl32:OPENGL32.dll
 0002:00000208       __imp__glFogi@8            005bd208     opengl32:OPENGL32.dll
 0002:0000020c       __imp__glShadeModel@4      005bd20c     opengl32:OPENGL32.dll
 0002:00000210       __imp__glClearDepth@8      005bd210     opengl32:OPENGL32.dll
 0002:00000214       __imp__glClearColor@16     005bd214     opengl32:OPENGL32.dll
 0002:00000218       __imp__glGetIntegerv@8     005bd218     opengl32:OPENGL32.dll
 0002:0000021c       __imp__glGetString@4       005bd21c     opengl32:OPENGL32.dll
 0002:00000220       __imp__glColor3ubv@4       005bd220     opengl32:OPENGL32.dll
 0002:00000224       __imp__glPolygonMode@8     005bd224     opengl32:OPENGL32.dll
 0002:00000228       __imp__glVertex3f@12       005bd228     opengl32:OPENGL32.dll
 0002:0000022c       __imp__glVertex2i@8        005bd22c     opengl32:OPENGL32.dll
 0002:00000230       __imp__glCopyTexSubImage2D@32 005bd230     opengl32:OPENGL32.dll
 0002:00000234       __imp__glReadBuffer@4      005bd234     opengl32:OPENGL32.dll
 0002:00000238       __imp__glDrawBuffer@4      005bd238     opengl32:OPENGL32.dll
 0002:0000023c       __imp__glFlush@0           005bd23c     opengl32:OPENGL32.dll
 0002:00000240       __imp__glDrawArrays@12     005bd240     opengl32:OPENGL32.dll
 0002:00000244       __imp__glFogfv@8           005bd244     opengl32:OPENGL32.dll
 0002:00000248       __imp__glGetFloatv@8       005bd248     opengl32:OPENGL32.dll
 0002:0000024c       __imp__glDeleteTextures@8  005bd24c     opengl32:OPENGL32.dll
 0002:00000250       __imp__glGenTextures@8     005bd250     opengl32:OPENGL32.dll
 0002:00000254       __imp__glTexParameteri@12  005bd254     opengl32:OPENGL32.dll
 0002:00000258       __imp__glTexParameterfv@12 005bd258     opengl32:OPENGL32.dll
 0002:0000025c       __imp__glBindTexture@8     005bd25c     opengl32:OPENGL32.dll
 0002:00000260       __imp__glPixelStorei@8     005bd260     opengl32:OPENGL32.dll
 0002:00000264       __imp__glTexSubImage2D@36  005bd264     opengl32:OPENGL32.dll
 0002:00000268       __imp__glBegin@4           005bd268     opengl32:OPENGL32.dll
 0002:0000026c       __imp__glVertex3fv@4       005bd26c     opengl32:OPENGL32.dll
 0002:00000270       __imp__glEnd@0             005bd270     opengl32:OPENGL32.dll
 0002:00000274       __imp__glEnable@4          005bd274     opengl32:OPENGL32.dll
 0002:00000278       __imp__glBlendFunc@8       005bd278     opengl32:OPENGL32.dll
 0002:0000027c       __imp__glDrawElements@16   005bd27c     opengl32:OPENGL32.dll
 0002:00000280       __imp__glColor3ub@12       005bd280     opengl32:OPENGL32.dll
 0002:00000284       __imp__glDisable@4         005bd284     opengl32:OPENGL32.dll
 0002:00000288       __imp__glPushMatrix@0      005bd288     opengl32:OPENGL32.dll
 0002:0000028c       __imp__glScalef@12         005bd28c     opengl32:OPENGL32.dll
 0002:00000290       __imp__glColor4f@16        005bd290     opengl32:OPENGL32.dll
 0002:00000294       __imp__glTexCoord2fv@4     005bd294     opengl32:OPENGL32.dll
 0002:00000298       __imp__glVertex2f@8        005bd298     opengl32:OPENGL32.dll
 0002:0000029c       __imp__glPopMatrix@0       005bd29c     opengl32:OPENGL32.dll
 0002:000002a0       __imp__glColor3f@12        005bd2a0     opengl32:OPENGL32.dll
 0002:000002a4       __imp__glLineWidth@4       005bd2a4     opengl32:OPENGL32.dll
 0002:000002a8       __imp__glDepthFunc@4       005bd2a8     opengl32:OPENGL32.dll
 0002:000002ac       __imp__glViewport@16       005bd2ac     opengl32:OPENGL32.dll
 0002:000002b0       __imp__glScissor@16        005bd2b0     opengl32:OPENGL32.dll
 0002:000002b4       __imp__glColor3fv@4        005bd2b4     opengl32:OPENGL32.dll
 0002:000002b8       __imp__glColor4ub@16       005bd2b8     opengl32:OPENGL32.dll
 0002:000002bc       __imp__glTexCoord2f@8      005bd2bc     opengl32:OPENGL32.dll
 0002:000002c0       __imp__glTranslatef@12     005bd2c0     opengl32:OPENGL32.dll
 0002:000002c4       __imp__glRotatef@16        005bd2c4     opengl32:OPENGL32.dll
 0002:000002c8       __imp__glDepthMask@4       005bd2c8     opengl32:OPENGL32.dll
 0002:000002cc       __imp__glMatrixMode@4      005bd2cc     opengl32:OPENGL32.dll
 0002:000002d0       __imp__glLoadIdentity@0    005bd2d0     opengl32:OPENGL32.dll
 0002:000002d4       __imp__glOrtho@48          005bd2d4     opengl32:OPENGL32.dll
 0002:000002d8       __imp__glEnableClientState@4 005bd2d8     opengl32:OPENGL32.dll
 0002:000002dc       __imp__glDisableClientState@4 005bd2dc     opengl32:OPENGL32.dll
 0002:000002e0       __imp__glVertexPointer@16  005bd2e0     opengl32:OPENGL32.dll
 0002:000002e4       __imp__glTexCoordPointer@16 005bd2e4     opengl32:OPENGL32.dll
 0002:000002e8       __imp__glColorPointer@16   005bd2e8     opengl32:OPENGL32.dll
 0002:000002ec       __imp__glCullFace@4        005bd2ec     opengl32:OPENGL32.dll
 0002:000002f0       \177OPENGL32_NULL_THUNK_DATA 005bd2f0     opengl32:OPENGL32.dll
 0002:000002f4       __imp__SDL_AllocRW         005bd2f4     SDL:SDL.dll
 0002:000002f8       __imp__SDL_RWFromFile      005bd2f8     SDL:SDL.dll
 0002:000002fc       __imp__SDL_UnlockAudio     005bd2fc     SDL:SDL.dll
 0002:00000300       __imp__SDL_LockAudio       005bd300     SDL:SDL.dll
 0002:00000304       __imp__SDL_WM_SetCaption   005bd304     SDL:SDL.dll
 0002:00000308       __imp__SDL_GetVideoInfo    005bd308     SDL:SDL.dll
 0002:0000030c       __imp__SDL_Linked_Version  005bd30c     SDL:SDL.dll
 0002:00000310       __imp__SDL_Init            005bd310     SDL:SDL.dll
 0002:00000314       __imp__SDL_GL_SwapBuffers  005bd314     SDL:SDL.dll
 0002:00000318       __imp__SDL_PeepEvents      005bd318     SDL:SDL.dll
 0002:0000031c       __imp__SDL_PumpEvents      005bd31c     SDL:SDL.dll
 0002:00000320       __imp__SDL_PollEvent       005bd320     SDL:SDL.dll
 0002:00000324       __imp__SDL_SetVideoMode    005bd324     SDL:SDL.dll
 0002:00000328       __imp__SDL_GL_SetAttribute 005bd328     SDL:SDL.dll
 0002:0000032c       __imp__SDL_VideoModeOK     005bd32c     SDL:SDL.dll
 0002:00000330       __imp__SDL_ListModes       005bd330     SDL:SDL.dll
 0002:00000334       __imp__SDL_CondBroadcast   005bd334     SDL:SDL.dll
 0002:00000338       __imp__SDL_CondWait        005bd338     SDL:SDL.dll
 0002:0000033c       __imp__SDL_CondSignal      005bd33c     SDL:SDL.dll
 0002:00000340       __imp__SDL_mutexV          005bd340     SDL:SDL.dll
 0002:00000344       __imp__SDL_mutexP          005bd344     SDL:SDL.dll
 0002:00000348       __imp__SDL_GetTicks        005bd348     SDL:SDL.dll
 0002:0000034c       __imp__SDL_GetError        005bd34c     SDL:SDL.dll
 0002:00000350       __imp__SDL_SetGamma        005bd350     SDL:SDL.dll
 0002:00000354       __imp__SDL_EnableKeyRepeat 005bd354     SDL:SDL.dll
 0002:00000358       __imp__SDL_DestroyCond     005bd358     SDL:SDL.dll
 0002:0000035c       __imp__SDL_WasInit         005bd35c     SDL:SDL.dll
 0002:00000360       __imp__SDL_Quit            005bd360     SDL:SDL.dll
 0002:00000364       __imp__SDL_WM_GrabInput    005bd364     SDL:SDL.dll
 0002:00000368       __imp__SDL_ShowCursor      005bd368     SDL:SDL.dll
 0002:0000036c       __imp__SDL_GetModState     005bd36c     SDL:SDL.dll
 0002:00000370       __imp__SDL_SaveBMP_RW      005bd370     SDL:SDL.dll
 0002:00000374       __imp__SDL_FreeRW          005bd374     SDL:SDL.dll
 0002:00000378       __imp__SDL_SetAlpha        005bd378     SDL:SDL.dll
 0002:0000037c       __imp__SDL_FreeSurface     005bd37c     SDL:SDL.dll
 0002:00000380       __imp__SDL_UpperBlit       005bd380     SDL:SDL.dll
 0002:00000384       __imp__SDL_CreateRGBSurface 005bd384     SDL:SDL.dll
 0002:00000388       __imp__SDL_CreateRGBSurfaceFrom 005bd388     SDL:SDL.dll
 0002:0000038c       __imp__SDL_GL_GetProcAddress 005bd38c     SDL:SDL.dll
 0002:00000390       __imp__SDL_EnableUNICODE   005bd390     SDL:SDL.dll
 0002:00000394       __imp__SDL_KillThread      005bd394     SDL:SDL.dll
 0002:00000398       __imp__SDL_ThreadID        005bd398     SDL:SDL.dll
 0002:0000039c       __imp__SDL_GetThreadID     005bd39c     SDL:SDL.dll
 0002:000003a0       __imp__SDL_SetModuleHandle 005bd3a0     SDL:SDL.dll
 0002:000003a4       __imp__SDL_Delay           005bd3a4     SDL:SDL.dll
 0002:000003a8       __imp__SDL_RemoveTimer     005bd3a8     SDL:SDL.dll
 0002:000003ac       __imp__SDL_AddTimer        005bd3ac     SDL:SDL.dll
 0002:000003b0       __imp__SDL_WaitThread      005bd3b0     SDL:SDL.dll
 0002:000003b4       __imp__SDL_CreateMutex     005bd3b4     SDL:SDL.dll
 0002:000003b8       __imp__SDL_DestroyMutex    005bd3b8     SDL:SDL.dll
 0002:000003bc       __imp__SDL_CreateThread    005bd3bc     SDL:SDL.dll
 0002:000003c0       __imp__SDL_CreateCond      005bd3c0     SDL:SDL.dll
 0002:000003c4       __imp__SDL_CondWaitTimeout 005bd3c4     SDL:SDL.dll
 0002:000003c8       \177SDL_NULL_THUNK_DATA    005bd3c8     SDL:SDL.dll
 0002:000003cc       __imp__IMG_Load_RW         005bd3cc     SDL_image:SDL_image.dll
 0002:000003d0       __imp__IMG_Load            005bd3d0     SDL_image:SDL_image.dll
 0002:000003d4       \177SDL_image_NULL_THUNK_DATA 005bd3d4     SDL_image:SDL_image.dll
 0002:000003d8       __imp__Mix_Volume          005bd3d8     SDL_mixer:SDL_mixer.dll
 0002:000003dc       __imp__Mix_SetPanning      005bd3dc     SDL_mixer:SDL_mixer.dll
 0002:000003e0       __imp__Mix_HaltChannel     005bd3e0     SDL_mixer:SDL_mixer.dll
 0002:000003e4       __imp__Mix_VolumeMusic     005bd3e4     SDL_mixer:SDL_mixer.dll
 0002:000003e8       __imp__Mix_HaltMusic       005bd3e8     SDL_mixer:SDL_mixer.dll
 0002:000003ec       __imp__Mix_FreeMusic       005bd3ec     SDL_mixer:SDL_mixer.dll
 0002:000003f0       __imp__Mix_OpenAudio       005bd3f0     SDL_mixer:SDL_mixer.dll
 0002:000003f4       __imp__Mix_AllocateChannels 005bd3f4     SDL_mixer:SDL_mixer.dll
 0002:000003f8       __imp__Mix_ChannelFinished 005bd3f8     SDL_mixer:SDL_mixer.dll
 0002:000003fc       __imp__Mix_LoadMUS_RW      005bd3fc     SDL_mixer:SDL_mixer.dll
 0002:00000400       __imp__Mix_FadingChannel   005bd400     SDL_mixer:SDL_mixer.dll
 0002:00000404       __imp__Mix_CloseAudio      005bd404     SDL_mixer:SDL_mixer.dll
 0002:00000408       __imp__Mix_PlayingMusic    005bd408     SDL_mixer:SDL_mixer.dll
 0002:0000040c       __imp__Mix_PausedMusic     005bd40c     SDL_mixer:SDL_mixer.dll
 0002:00000410       __imp__Mix_ResumeMusic     005bd410     SDL_mixer:SDL_mixer.dll
 0002:00000414       __imp__Mix_LoadWAV_RW      005bd414     SDL_mixer:SDL_mixer.dll
 0002:00000418       __imp__Mix_FadeInChannelTimed 005bd418     SDL_mixer:SDL_mixer.dll
 0002:0000041c       __imp__Mix_PlayChannelTimed 005bd41c     SDL_mixer:SDL_mixer.dll
 0002:00000420       __imp__Mix_FadeOutChannel  005bd420     SDL_mixer:SDL_mixer.dll
 0002:00000424       __imp__Mix_Linked_Version  005bd424     SDL_mixer:SDL_mixer.dll
 0002:00000428       __imp__Mix_QuerySpec       005bd428     SDL_mixer:SDL_mixer.dll
 0002:0000042c       __imp__Mix_FreeChunk       005bd42c     SDL_mixer:SDL_mixer.dll
 0002:00000430       __imp__Mix_PlayMusic       005bd430     SDL_mixer:SDL_mixer.dll
 0002:00000434       __imp__Mix_LoadMUS         005bd434     SDL_mixer:SDL_mixer.dll
 0002:00000438       __imp__Mix_SetPostMix      005bd438     SDL_mixer:SDL_mixer.dll
 0002:0000043c       \177SDL_mixer_NULL_THUNK_DATA 005bd43c     SDL_mixer:SDL_mixer.dll
 0002:00000440       __imp__SHGetFolderPathA@20 005bd440     shell32:SHELL32.dll
 0002:00000444       __imp__Shell_NotifyIconA@8 005bd444     shell32:SHELL32.dll
 0002:00000448       \177SHELL32_NULL_THUNK_DATA 005bd448     shell32:SHELL32.dll
 0002:0000044c       __imp__UnregisterClassA@8  005bd44c     user32:USER32.dll
 0002:00000450       __imp__MessageBoxA@16      005bd450     user32:USER32.dll
 0002:00000454       __imp__CloseClipboard@0    005bd454     user32:USER32.dll
 0002:00000458       __imp__GetClipboardData@4  005bd458     user32:USER32.dll
 0002:0000045c       __imp__OpenClipboard@4     005bd45c     user32:USER32.dll
 0002:00000460       __imp__IsClipboardFormatAvailable@4 005bd460     user32:USER32.dll
 0002:00000464       __imp__DispatchMessageA@4  005bd464     user32:USER32.dll
 0002:00000468       __imp__TranslateMessage@4  005bd468     user32:USER32.dll
 0002:0000046c       __imp__PeekMessageA@20     005bd46c     user32:USER32.dll
 0002:00000470       __imp__CreateWindowExA@48  005bd470     user32:USER32.dll
 0002:00000474       __imp__SendMessageA@16     005bd474     user32:USER32.dll
 0002:00000478       __imp__RegisterClassA@4    005bd478     user32:USER32.dll
 0002:0000047c       __imp__AppendMenuA@16      005bd47c     user32:USER32.dll
 0002:00000480       __imp__CreatePopupMenu@0   005bd480     user32:USER32.dll
 0002:00000484       __imp__LoadIconA@8         005bd484     user32:USER32.dll
 0002:00000488       __imp__DefWindowProcA@16   005bd488     user32:USER32.dll
 0002:0000048c       __imp__PostQuitMessage@4   005bd48c     user32:USER32.dll
 0002:00000490       __imp__ShowWindow@8        005bd490     user32:USER32.dll
 0002:00000494       __imp__ModifyMenuA@20      005bd494     user32:USER32.dll
 0002:00000498       __imp__PostMessageA@16     005bd498     user32:USER32.dll
 0002:0000049c       __imp__TrackPopupMenu@28   005bd49c     user32:USER32.dll
 0002:000004a0       __imp__GetCursorPos@4      005bd4a0     user32:USER32.dll
 0002:000004a4       __imp__SetForegroundWindow@4 005bd4a4     user32:USER32.dll
 0002:000004a8       __imp__DestroyMenu@4       005bd4a8     user32:USER32.dll
 0002:000004ac       \177USER32_NULL_THUNK_DATA 005bd4ac     user32:USER32.dll
 0002:000004b0       __imp__timeGetTime@0       005bd4b0     winmm:WINMM.dll
 0002:000004b4       __imp__timeEndPeriod@4     005bd4b4     winmm:WINMM.dll
 0002:000004b8       __imp__timeBeginPeriod@4   005bd4b8     winmm:WINMM.dll
 0002:000004bc       \177WINMM_NULL_THUNK_DATA  005bd4bc     winmm:WINMM.dll
 0002:000004c0       __imp__WSAGetLastError@0   005bd4c0     ws2_32:WS2_32.dll
 0002:000004c4       __imp__WSACleanup@0        005bd4c4     ws2_32:WS2_32.dll
 0002:000004c8       __imp__WSAStartup@8        005bd4c8     ws2_32:WS2_32.dll
 0002:000004cc       __imp__gethostbyname@4     005bd4cc     ws2_32:WS2_32.dll
 0002:000004d0       __imp__socket@12           005bd4d0     ws2_32:WS2_32.dll
 0002:000004d4       __imp__setsockopt@20       005bd4d4     ws2_32:WS2_32.dll
 0002:000004d8       __imp__select@20           005bd4d8     ws2_32:WS2_32.dll
 0002:000004dc       __imp__WSARecvFrom@36      005bd4dc     ws2_32:WS2_32.dll
 0002:000004e0       __imp__inet_addr@4         005bd4e0     ws2_32:WS2_32.dll
 0002:000004e4       __imp__connect@12          005bd4e4     ws2_32:WS2_32.dll
 0002:000004e8       __imp__closesocket@4       005bd4e8     ws2_32:WS2_32.dll
 0002:000004ec       __imp__bind@12             005bd4ec     ws2_32:WS2_32.dll
 0002:000004f0       __imp__ntohs@4             005bd4f0     ws2_32:WS2_32.dll
 0002:000004f4       __imp__ntohl@4             005bd4f4     ws2_32:WS2_32.dll
 0002:000004f8       __imp__htons@4             005bd4f8     ws2_32:WS2_32.dll
 0002:000004fc       __imp__htonl@4             005bd4fc     ws2_32:WS2_32.dll
 0002:00000500       __imp____WSAFDIsSet@8      005bd500     ws2_32:WS2_32.dll
 0002:00000504       __imp__WSASendTo@36        005bd504     ws2_32:WS2_32.dll
 0002:00000508       __imp__inet_ntoa@4         005bd508     ws2_32:WS2_32.dll
 0002:0000050c       __imp__ioctlsocket@12      005bd50c     ws2_32:WS2_32.dll
 0002:00000510       \177WS2_32_NULL_THUNK_DATA 005bd510     ws2_32:WS2_32.dll
 0002:00000514       __imp__SymGetLineFromAddr@16 005bd514     dbghelp:dbghelp.dll
 0002:00000518       __imp__SymGetSymFromAddr@16 005bd518     dbghelp:dbghelp.dll
 0002:0000051c       __imp__SymFunctionTableAccess@8 005bd51c     dbghelp:dbghelp.dll
 0002:00000520       __imp__SymGetModuleBase@8  005bd520     dbghelp:dbghelp.dll
 0002:00000524       __imp__StackWalk@36        005bd524     dbghelp:dbghelp.dll
 0002:00000528       __imp__SymInitialize@12    005bd528     dbghelp:dbghelp.dll
 0002:0000052c       \177dbghelp_NULL_THUNK_DATA 005bd52c     dbghelp:dbghelp.dll
 0002:00000530       __imp__zError              005bd530     zdll:zlib1.dll
 0002:00000534       __imp__inflate             005bd534     zdll:zlib1.dll
 0002:00000538       __imp__inflateReset        005bd538     zdll:zlib1.dll
 0002:0000053c       __imp__inflateEnd          005bd53c     zdll:zlib1.dll
 0002:00000540       __imp__deflateInit2_       005bd540     zdll:zlib1.dll
 0002:00000544       __imp__inflateInit2_       005bd544     zdll:zlib1.dll
 0002:00000548       __imp__deflateEnd          005bd548     zdll:zlib1.dll
 0002:0000054c       __imp__deflate             005bd54c     zdll:zlib1.dll
 0002:00000550       __imp__deflateInit_        005bd550     zdll:zlib1.dll
 0002:00000554       __imp__crc32               005bd554     zdll:zlib1.dll
 0002:00000558       __imp__uncompress          005bd558     zdll:zlib1.dll
 0002:0000055c       __imp__compress2           005bd55c     zdll:zlib1.dll
 0002:00000560       __imp__compressBound       005bd560     zdll:zlib1.dll
 0002:00000564       \177zlib1_NULL_THUNK_DATA  005bd564     zdll:zlib1.dll
 0002:00000568       ___xc_a                    005bd568     LIBCMT:crt0init.obj
 0002:00001aa4       ___xc_z                    005beaa4     LIBCMT:crt0init.obj
 0002:00001aa8       ___xi_a                    005beaa8     LIBCMT:crt0init.obj
 0002:00001ac4       ___xi_z                    005beac4     LIBCMT:crt0init.obj
 0002:00001ac8       ___xp_a                    005beac8     LIBCMT:crt0init.obj
 0002:00001ad8       ___xp_z                    005bead8     LIBCMT:crt0init.obj
 0002:00001adc       ___xt_a                    005beadc     LIBCMT:crt0init.obj
 0002:00001ae0       ___xt_z                    005beae0     LIBCMT:crt0init.obj
 0002:00001b28       ??_C@_0CD@FLEKKJFF@Error?5dispatching?5incoming?5packe@ 005beb28     enet:protocol.obj
 0002:00001b4c       ??_C@_0BP@CMCNMCMC@Error?5sending?5outgoing?5packets?$AA@ 005beb4c     enet:protocol.obj
 0002:00001b6c       ??_C@_0CB@HOPEGIPO@Error?5receiving?5incoming?5packets@ 005beb6c     enet:protocol.obj
 0002:00001bdc       ??_7type_info@@6B@         005bebdc     LIBCMT:typinfo.obj
 0002:00001be0       ??_C@_1BI@BGOHAHKC@?$AAm?$AAs?$AAc?$AAo?$AAr?$AAe?$AAe?$AA?4?$AAd?$AAl?$AAl?$AA?$AA@ 005bebe0     LIBCMT:crt0dat.obj
 0002:00001bf8       ??_C@_0P@MIGLKIOC@CorExitProcess?$AA@ 005bebf8     LIBCMT:crt0dat.obj
 0002:00001c08       ??_C@_1FE@LLNEDJMD@?$AAR?$AA6?$AA0?$AA0?$AA8?$AA?$AN?$AA?6?$AA?9?$AA?5?$AAn?$AAo?$AAt?$AA?5?$AAe?$AAn?$AAo?$AAu?$AAg?$AAh?$AA?5?$AAs?$AAp?$AAa?$AAc?$AAe?$AA?5?$AAf?$AAo?$AAr?$AA?5?$AAa?$AAr@ 005bec08     LIBCMT:crt0msg.obj
 0002:00001c60       ??_C@_1FI@HONFMGBI@?$AAR?$AA6?$AA0?$AA0?$AA9?$AA?$AN?$AA?6?$AA?9?$AA?5?$AAn?$AAo?$AAt?$AA?5?$AAe?$AAn?$AAo?$AAu?$AAg?$AAh?$AA?5?$AAs?$AAp?$AAa?$AAc?$AAe?$AA?5?$AAf?$AAo?$AAr?$AA?5?$AAe?$AAn@ 005bec60     LIBCMT:crt0msg.obj
 0002:00001cb8       ??_C@_1EG@BEHAGFJD@?$AAR?$AA6?$AA0?$AA1?$AA0?$AA?$AN?$AA?6?$AA?9?$AA?5?$AAa?$AAb?$AAo?$AAr?$AAt?$AA?$CI?$AA?$CJ?$AA?5?$AAh?$AAa?$AAs?$AA?5?$AAb?$AAe?$AAe?$AAn?$AA?5?$AAc?$AAa?$AAl?$AAl?$AAe?$AAd@ 005becb8     LIBCMT:crt0msg.obj
 0002:00001d00       ??_C@_1FI@LOGNIKDM@?$AAR?$AA6?$AA0?$AA1?$AA6?$AA?$AN?$AA?6?$AA?9?$AA?5?$AAn?$AAo?$AAt?$AA?5?$AAe?$AAn?$AAo?$AAu?$AAg?$AAh?$AA?5?$AAs?$AAp?$AAa?$AAc?$AAe?$AA?5?$AAf?$AAo?$AAr?$AA?5?$AAt?$AAh@ 005bed00     LIBCMT:crt0msg.obj
 0002:00001d58       ??_C@_1FK@BEOGODMC@?$AAR?$AA6?$AA0?$AA1?$AA7?$AA?$AN?$AA?6?$AA?9?$AA?5?$AAu?$AAn?$AAe?$AAx?$AAp?$AAe?$AAc?$AAt?$AAe?$AAd?$AA?5?$AAm?$AAu?$AAl?$AAt?$AAi?$AAt?$AAh?$AAr?$AAe?$AAa?$AAd?$AA?5@ 005bed58     LIBCMT:crt0msg.obj
 0002:00001db8       ??_C@_1EC@JIBHAOPH@?$AAR?$AA6?$AA0?$AA1?$AA8?$AA?$AN?$AA?6?$AA?9?$AA?5?$AAu?$AAn?$AAe?$AAx?$AAp?$AAe?$AAc?$AAt?$AAe?$AAd?$AA?5?$AAh?$AAe?$AAa?$AAp?$AA?5?$AAe?$AAr?$AAr?$AAo?$AAr?$AA?$AN?$AA?6@ 005bedb8     LIBCMT:crt0msg.obj
 0002:00001e00       ??_C@_1FC@ECHBIFBC@?$AAR?$AA6?$AA0?$AA1?$AA9?$AA?$AN?$AA?6?$AA?9?$AA?5?$AAu?$AAn?$AAa?$AAb?$AAl?$AAe?$AA?5?$AAt?$AAo?$AA?5?$AAo?$AAp?$AAe?$AAn?$AA?5?$AAc?$AAo?$AAn?$AAs?$AAo?$AAl?$AAe?$AA?5@ 005bee00     LIBCMT:crt0msg.obj
 0002:00001e58       ??_C@_1GK@FHCKBEFA@?$AAR?$AA6?$AA0?$AA2?$AA4?$AA?$AN?$AA?6?$AA?9?$AA?5?$AAn?$AAo?$AAt?$AA?5?$AAe?$AAn?$AAo?$AAu?$AAg?$AAh?$AA?5?$AAs?$AAp?$AAa?$AAc?$AAe?$AA?5?$AAf?$AAo?$AAr?$AA?5?$AA_?$AAo@ 005bee58     LIBCMT:crt0msg.obj
 0002:00001ec8       ??_C@_1EM@MAADIHMB@?$AAR?$AA6?$AA0?$AA2?$AA5?$AA?$AN?$AA?6?$AA?9?$AA?5?$AAp?$AAu?$AAr?$AAe?$AA?5?$AAv?$AAi?$AAr?$AAt?$AAu?$AAa?$AAl?$AA?5?$AAf?$AAu?$AAn?$AAc?$AAt?$AAi?$AAo?$AAn?$AA?5?$AAc@ 005beec8     LIBCMT:crt0msg.obj
 0002:00001f18       ??_C@_1GK@MCAAGJMO@?$AAR?$AA6?$AA0?$AA2?$AA6?$AA?$AN?$AA?6?$AA?9?$AA?5?$AAn?$AAo?$AAt?$AA?5?$AAe?$AAn?$AAo?$AAu?$AAg?$AAh?$AA?5?$AAs?$AAp?$AAa?$AAc?$AAe?$AA?5?$AAf?$AAo?$AAr?$AA?5?$AAs?$AAt@ 005bef18     LIBCMT:crt0msg.obj
 0002:00001f88       ??_C@_1GK@MFGOKLAG@?$AAR?$AA6?$AA0?$AA2?$AA7?$AA?$AN?$AA?6?$AA?9?$AA?5?$AAn?$AAo?$AAt?$AA?5?$AAe?$AAn?$AAo?$AAu?$AAg?$AAh?$AA?5?$AAs?$AAp?$AAa?$AAc?$AAe?$AA?5?$AAf?$AAo?$AAr?$AA?5?$AAl?$AAo@ 005bef88     LIBCMT:crt0msg.obj
 0002:00001ff8       ??_C@_1EK@HHFLMAOL@?$AAR?$AA6?$AA0?$AA2?$AA8?$AA?$AN?$AA?6?$AA?9?$AA?5?$AAu?$AAn?$AAa?$AAb?$AAl?$AAe?$AA?5?$AAt?$AAo?$AA?5?$AAi?$AAn?$AAi?$AAt?$AAi?$AAa?$AAl?$AAi?$AAz?$AAe?$AA?5?$AAh?$AAe@ 005beff8     LIBCMT:crt0msg.obj
 0002:00002044       ??_C@_1DO@BMFCDCD@?$AAR?$AA6?$AA0?$AA3?$AA0?$AA?$AN?$AA?6?$AA?9?$AA?5?$AAC?$AAR?$AAT?$AA?5?$AAn?$AAo?$AAt?$AA?5?$AAi?$AAn?$AAi?$AAt?$AAi?$AAa?$AAl?$AAi?$AAz?$AAe?$AAd?$AA?$AN?$AA?6?$AA?$AA@ 005bf044     LIBCMT:crt0msg.obj
 0002:00002088       ??_C@_1MG@ENCOOIDF@?$AAR?$AA6?$AA0?$AA3?$AA1?$AA?$AN?$AA?6?$AA?9?$AA?5?$AAA?$AAt?$AAt?$AAe?$AAm?$AAp?$AAt?$AA?5?$AAt?$AAo?$AA?5?$AAi?$AAn?$AAi?$AAt?$AAi?$AAa?$AAl?$AAi?$AAz?$AAe?$AA?5?$AAt@ 005bf088     LIBCMT:crt0msg.obj
 0002:00002150       ??_C@_1GG@GOPILAJP@?$AAR?$AA6?$AA0?$AA3?$AA2?$AA?$AN?$AA?6?$AA?9?$AA?5?$AAn?$AAo?$AAt?$AA?5?$AAe?$AAn?$AAo?$AAu?$AAg?$AAh?$AA?5?$AAs?$AAp?$AAa?$AAc?$AAe?$AA?5?$AAf?$AAo?$AAr?$AA?5?$AAl?$AAo@ 005bf150     LIBCMT:crt0msg.obj
 0002:000021b8       ??_C@_1BOO@KGEDBGAJ@?$AAR?$AA6?$AA0?$AA3?$AA3?$AA?$AN?$AA?6?$AA?9?$AA?5?$AAA?$AAt?$AAt?$AAe?$AAm?$AAp?$AAt?$AA?5?$AAt?$AAo?$AA?5?$AAu?$AAs?$AAe?$AA?5?$AAM?$AAS?$AAI?$AAL?$AA?5?$AAc?$AAo?$AAd@ 005bf1b8     LIBCMT:crt0msg.obj
 0002:000023a8       ??_C@_1GG@MKFPEKFO@?$AAR?$AA6?$AA0?$AA3?$AA4?$AA?$AN?$AA?6?$AA?9?$AA?5?$AAi?$AAn?$AAc?$AAo?$AAn?$AAs?$AAi?$AAs?$AAt?$AAe?$AAn?$AAt?$AA?5?$AAo?$AAn?$AAe?$AAx?$AAi?$AAt?$AA?5?$AAb?$AAe?$AAg@ 005bf3a8     LIBCMT:crt0msg.obj
 0002:00002410       ??_C@_1BO@BFCDCGC@?$AAD?$AAO?$AAM?$AAA?$AAI?$AAN?$AA?5?$AAe?$AAr?$AAr?$AAo?$AAr?$AA?$AN?$AA?6?$AA?$AA@ 005bf410     LIBCMT:crt0msg.obj
 0002:00002430       ??_C@_1BK@KMOMNAAI@?$AAS?$AAI?$AAN?$AAG?$AA?5?$AAe?$AAr?$AAr?$AAo?$AAr?$AA?$AN?$AA?6?$AA?$AA@ 005bf430     LIBCMT:crt0msg.obj
 0002:0000244c       ??_C@_1BM@JBBEPPHI@?$AAT?$AAL?$AAO?$AAS?$AAS?$AA?5?$AAe?$AAr?$AAr?$AAo?$AAr?$AA?$AN?$AA?6?$AA?$AA@ 005bf44c     LIBCMT:crt0msg.obj
 0002:00002468       ??_C@_15JNBOKNOG@?$AA?$AN?$AA?6?$AA?$AA@ 005bf468     LIBCMT:crt0msg.obj
 0002:00002470       ??_C@_1BO@BKOMIGKJ@?$AAr?$AAu?$AAn?$AAt?$AAi?$AAm?$AAe?$AA?5?$AAe?$AAr?$AAr?$AAo?$AAr?$AA?5?$AA?$AA@ 005bf470     LIBCMT:crt0msg.obj
 0002:00002548       ??_C@_1FK@PGACCAFB@?$AAR?$AA6?$AA0?$AA0?$AA2?$AA?$AN?$AA?6?$AA?9?$AA?5?$AAf?$AAl?$AAo?$AAa?$AAt?$AAi?$AAn?$AAg?$AA?5?$AAp?$AAo?$AAi?$AAn?$AAt?$AA?5?$AAs?$AAu?$AAp?$AAp?$AAo?$AAr?$AAt?$AA?5@ 005bf548     LIBCMT:crt0msg.obj
 0002:000025a4       ??_C@_1DE@JNGNBFGO@?$AAR?$AAu?$AAn?$AAt?$AAi?$AAm?$AAe?$AA?5?$AAE?$AAr?$AAr?$AAo?$AAr?$AA?$CB?$AA?6?$AA?6?$AAP?$AAr?$AAo?$AAg?$AAr?$AAa?$AAm?$AA?3?$AA?5?$AA?$AA@ 005bf5a4     LIBCMT:crt0msg.obj
 0002:000025d8       ??_C@_1CO@EAEJAADC@?$AA?$DM?$AAp?$AAr?$AAo?$AAg?$AAr?$AAa?$AAm?$AA?5?$AAn?$AAa?$AAm?$AAe?$AA?5?$AAu?$AAn?$AAk?$AAn?$AAo?$AAw?$AAn?$AA?$DO?$AA?$AA@ 005bf5d8     LIBCMT:crt0msg.obj
 0002:00002608       ??_C@_17LGKOMLJ@?$AA?4?$AA?4?$AA?4?$AA?$AA@ 005bf608     LIBCMT:crt0msg.obj
 0002:00002610       ??_C@_15IABLJNFO@?$AA?6?$AA?6?$AA?$AA@ 005bf610     LIBCMT:crt0msg.obj
 0002:00002618       ??_C@_1EK@MBDPDCGA@?$AAM?$AAi?$AAc?$AAr?$AAo?$AAs?$AAo?$AAf?$AAt?$AA?5?$AAV?$AAi?$AAs?$AAu?$AAa?$AAl?$AA?5?$AAC?$AA?$CL?$AA?$CL?$AA?5?$AAR?$AAu?$AAn?$AAt?$AAi?$AAm?$AAe?$AA?5?$AAL?$AAi?$AAb@ 005bf618     LIBCMT:crt0msg.obj
 0002:00002664       ??_C@_06OJHGLDPL@?$CInull?$CJ?$AA@ 005bf664     LIBCMT:output.obj
 0002:0000266c       ??_C@_1O@CEDCILHN@?$AA?$CI?$AAn?$AAu?$AAl?$AAl?$AA?$CJ?$AA?$AA@ 005bf66c     LIBCMT:output.obj
 0002:00002680       ___lookuptable             005bf680     LIBCMT:output.obj
 0002:00002748       ??_C@_03MGHMBJCF@log?$AA@  005bf748     LIBCMT:libm_error.obj
 0002:0000274c       ??_C@_05EOHGHCHD@exp10?$AA@ 005bf74c     LIBCMT:libm_error.obj
 0002:00002754       ??_C@_04GFPJNGEK@ceil?$AA@ 005bf754     LIBCMT:libm_error.obj
 0002:0000275c       ??_C@_1BK@MGMFAEKH@?$AAk?$AAe?$AAr?$AAn?$AAe?$AAl?$AA3?$AA2?$AA?4?$AAd?$AAl?$AAl?$AA?$AA@ 005bf75c     LIBCMT:winapisupp.obj
 0002:00002778       ??_C@_08KNHFBNJ@FlsAlloc?$AA@ 005bf778     LIBCMT:winapisupp.obj
 0002:00002784       ??_C@_07PEJMOBNF@FlsFree?$AA@ 005bf784     LIBCMT:winapisupp.obj
 0002:0000278c       ??_C@_0M@GDNOONDI@FlsGetValue?$AA@ 005bf78c     LIBCMT:winapisupp.obj
 0002:00002798       ??_C@_0M@JCPCPOEF@FlsSetValue?$AA@ 005bf798     LIBCMT:winapisupp.obj
 0002:000027a4       ??_C@_0BM@HCFOFFN@InitializeCriticalSectionEx?$AA@ 005bf7a4     LIBCMT:winapisupp.obj
 0002:000027c0       ??_C@_0BD@KIEEOEEH@CreateSemaphoreExW?$AA@ 005bf7c0     LIBCMT:winapisupp.obj
 0002:000027d4       ??_C@_0BI@BKLFFAPO@SetThreadStackGuarantee?$AA@ 005bf7d4     LIBCMT:winapisupp.obj
 0002:000027ec       ??_C@_0BG@OGFAJCKC@CreateThreadpoolTimer?$AA@ 005bf7ec     LIBCMT:winapisupp.obj
 0002:00002804       ??_C@_0BD@LPLEMMDI@SetThreadpoolTimer?$AA@ 005bf804     LIBCMT:winapisupp.obj
 0002:00002818       ??_C@_0CA@FMNJENH@WaitForThreadpoolTimerCallbacks?$AA@ 005bf818     LIBCMT:winapisupp.obj
 0002:00002838       ??_C@_0BF@DCFCCNOC@CloseThreadpoolTimer?$AA@ 005bf838     LIBCMT:winapisupp.obj
 0002:00002850       ??_C@_0BF@FLABGKKM@CreateThreadpoolWait?$AA@ 005bf850     LIBCMT:winapisupp.obj
 0002:00002868       ??_C@_0BC@MGCOHNA@SetThreadpoolWait?$AA@ 005bf868     LIBCMT:winapisupp.obj
 0002:0000287c       ??_C@_0BE@OCIOMIMP@CloseThreadpoolWait?$AA@ 005bf87c     LIBCMT:winapisupp.obj
 0002:00002890       ??_C@_0BJ@LKGHFHBO@FlushProcessWriteBuffers?$AA@ 005bf890     LIBCMT:winapisupp.obj
 0002:000028ac       ??_C@_0BP@KALKKPMO@FreeLibraryWhenCallbackReturns?$AA@ 005bf8ac     LIBCMT:winapisupp.obj
 0002:000028cc       ??_C@_0BK@DFNBACLA@GetCurrentProcessorNumber?$AA@ 005bf8cc     LIBCMT:winapisupp.obj
 0002:000028e8       ??_C@_0BP@KHGALBC@GetLogicalProcessorInformation?$AA@ 005bf8e8     LIBCMT:winapisupp.obj
 0002:00002908       ??_C@_0BE@FKKLLFLM@CreateSymbolicLinkW?$AA@ 005bf908     LIBCMT:winapisupp.obj
 0002:0000291c       ??_C@_0BJ@OHNKDLIJ@SetDefaultDllDirectories?$AA@ 005bf91c     LIBCMT:winapisupp.obj
 0002:00002938       ??_C@_0BE@LJANKFHF@EnumSystemLocalesEx?$AA@ 005bf938     LIBCMT:winapisupp.obj
 0002:0000294c       ??_C@_0BA@IHGNDAEB@CompareStringEx?$AA@ 005bf94c     LIBCMT:winapisupp.obj
 0002:0000295c       ??_C@_0BA@EPCJIIPD@GetDateFormatEx?$AA@ 005bf95c     LIBCMT:winapisupp.obj
 0002:0000296c       ??_C@_0BA@ONOKGCMP@GetLocaleInfoEx?$AA@ 005bf96c     LIBCMT:winapisupp.obj
 0002:0000297c       ??_C@_0BA@CIJJKCJJ@GetTimeFormatEx?$AA@ 005bf97c     LIBCMT:winapisupp.obj
 0002:0000298c       ??_C@_0BJ@PBCCBIPI@GetUserDefaultLocaleName?$AA@ 005bf98c     LIBCMT:winapisupp.obj
 0002:000029a8       ??_C@_0BC@CELBKLLA@IsValidLocaleName?$AA@ 005bf9a8     LIBCMT:winapisupp.obj
 0002:000029bc       ??_C@_0O@KKBNKAPF@LCMapStringEx?$AA@ 005bf9bc     LIBCMT:winapisupp.obj
 0002:000029cc       ??_C@_0BE@JOGNEJCI@GetCurrentPackageId?$AA@ 005bf9cc     LIBCMT:winapisupp.obj
 0002:00002a10       ??_C@_1M@HPNHIDJI@?$AAj?$AAa?$AA?9?$AAJ?$AAP?$AA?$AA@ 005bfa10     LIBCMT:mbctype.obj
 0002:00002a1c       ??_C@_1M@BIBDDEMK@?$AAz?$AAh?$AA?9?$AAC?$AAN?$AA?$AA@ 005bfa1c     LIBCMT:mbctype.obj
 0002:00002a28       ??_C@_1M@JLOOOEGK@?$AAk?$AAo?$AA?9?$AAK?$AAR?$AA?$AA@ 005bfa28     LIBCMT:mbctype.obj
 0002:00002a34       ??_C@_1M@CLNBBOPM@?$AAz?$AAh?$AA?9?$AAT?$AAW?$AA?$AA@ 005bfa34     LIBCMT:mbctype.obj
 0002:00002a40       ??_C@_03KOEHGMDN@Sun?$AA@  005bfa40     LIBCMT:nlsdata.obj
 0002:00002a44       ??_C@_03PDAGKDH@Mon?$AA@   005bfa44     LIBCMT:nlsdata.obj
 0002:00002a48       ??_C@_03NAGEINEP@Tue?$AA@  005bfa48     LIBCMT:nlsdata.obj
 0002:00002a4c       ??_C@_03MHOMLAJA@Wed?$AA@  005bfa4c     LIBCMT:nlsdata.obj
 0002:00002a50       ??_C@_03IOFIKPDN@Thu?$AA@  005bfa50     LIBCMT:nlsdata.obj
 0002:00002a54       ??_C@_03IDIOELNC@Fri?$AA@  005bfa54     LIBCMT:nlsdata.obj
 0002:00002a58       ??_C@_03FEFJNEK@Sat?$AA@   005bfa58     LIBCMT:nlsdata.obj
 0002:00002a5c       ??_C@_06OOPIFAJ@Sunday?$AA@ 005bfa5c     LIBCMT:nlsdata.obj
 0002:00002a64       ??_C@_06JLEDEDGH@Monday?$AA@ 005bfa64     LIBCMT:nlsdata.obj
 0002:00002a6c       ??_C@_07BAAGCFCM@Tuesday?$AA@ 005bfa6c     LIBCMT:nlsdata.obj
 0002:00002a74       ??_C@_09DLIGFAKA@Wednesday?$AA@ 005bfa74     LIBCMT:nlsdata.obj
 0002:00002a80       ??_C@_08HACCIKIA@Thursday?$AA@ 005bfa80     LIBCMT:nlsdata.obj
 0002:00002a8c       ??_C@_06JECMNKMI@Friday?$AA@ 005bfa8c     LIBCMT:nlsdata.obj
 0002:00002a94       ??_C@_08INBOOONO@Saturday?$AA@ 005bfa94     LIBCMT:nlsdata.obj
 0002:00002aa0       ??_C@_03JIHJHPIE@Jan?$AA@  005bfaa0     LIBCMT:nlsdata.obj
 0002:00002aa4       ??_C@_03HJBDCHOM@Feb?$AA@  005bfaa4     LIBCMT:nlsdata.obj
 0002:00002aa8       ??_C@_03ODNJBKGA@Mar?$AA@  005bfaa8     LIBCMT:nlsdata.obj
 0002:00002aac       ??_C@_03LEOLGMJP@Apr?$AA@  005bfaac     LIBCMT:nlsdata.obj
 0002:00002ab0       ??_C@_03CNMDKL@May?$AA@    005bfab0     LIBCMT:nlsdata.obj
 0002:00002ab4       ??_C@_03IDFGHECI@Jun?$AA@  005bfab4     LIBCMT:nlsdata.obj
 0002:00002ab8       ??_C@_03LBGABGKK@Jul?$AA@  005bfab8     LIBCMT:nlsdata.obj
 0002:00002abc       ??_C@_03IFJFEIGA@Aug?$AA@  005bfabc     LIBCMT:nlsdata.obj
 0002:00002ac0       ??_C@_03GGCAPAJC@Sep?$AA@  005bfac0     LIBCMT:nlsdata.obj
 0002:00002ac4       ??_C@_03BMAOKBAD@Oct?$AA@  005bfac4     LIBCMT:nlsdata.obj
 0002:00002ac8       ??_C@_03JPJOFNIA@Nov?$AA@  005bfac8     LIBCMT:nlsdata.obj
 0002:00002acc       ??_C@_03MKABNOCG@Dec?$AA@  005bfacc     LIBCMT:nlsdata.obj
 0002:00002ad0       ??_C@_07CGJPFGJA@January?$AA@ 005bfad0     LIBCMT:nlsdata.obj
 0002:00002ad8       ??_C@_08GNJGEPFN@February?$AA@ 005bfad8     LIBCMT:nlsdata.obj
 0002:00002ae4       ??_C@_05HPCKOFNC@March?$AA@ 005bfae4     LIBCMT:nlsdata.obj
 0002:00002aec       ??_C@_05DMJDNLEJ@April?$AA@ 005bfaec     LIBCMT:nlsdata.obj
 0002:00002af4       ??_C@_04CNLMGBGM@June?$AA@ 005bfaf4     LIBCMT:nlsdata.obj
 0002:00002afc       ??_C@_04MIEPOIFP@July?$AA@ 005bfafc     LIBCMT:nlsdata.obj
 0002:00002b04       ??_C@_06LBBHFDDG@August?$AA@ 005bfb04     LIBCMT:nlsdata.obj
 0002:00002b0c       ??_C@_09BHHEALKD@September?$AA@ 005bfb0c     LIBCMT:nlsdata.obj
 0002:00002b18       ??_C@_07JJNFCEND@October?$AA@ 005bfb18     LIBCMT:nlsdata.obj
 0002:00002b20       ??_C@_08HCHEGEOA@November?$AA@ 005bfb20     LIBCMT:nlsdata.obj
 0002:00002b2c       ??_C@_08EDHMEBNP@December?$AA@ 005bfb2c     LIBCMT:nlsdata.obj
 0002:00002b38       ??_C@_02DEDBPAFC@AM?$AA@   005bfb38     LIBCMT:nlsdata.obj
 0002:00002b3c       ??_C@_02CJNFDJBF@PM?$AA@   005bfb3c     LIBCMT:nlsdata.obj
 0002:00002b40       ??_C@_08BPBNCDIB@MM?1dd?1yy?$AA@ 005bfb40     LIBCMT:nlsdata.obj
 0002:00002b4c       ??_C@_0BE@CKGJFCPC@dddd?0?5MMMM?5dd?0?5yyyy?$AA@ 005bfb4c     LIBCMT:nlsdata.obj
 0002:00002b60       ??_C@_08JCCMCCIL@HH?3mm?3ss?$AA@ 005bfb60     LIBCMT:nlsdata.obj
 0002:00002b6c       ??_C@_17MBGCMIPB@?$AAS?$AAu?$AAn?$AA?$AA@ 005bfb6c     LIBCMT:nlsdata.obj
 0002:00002b74       ??_C@_17KBOMKBF@?$AAM?$AAo?$AAn?$AA?$AA@ 005bfb74     LIBCMT:nlsdata.obj
 0002:00002b7c       ??_C@_17BMKGEGOJ@?$AAT?$AAu?$AAe?$AA?$AA@ 005bfb7c     LIBCMT:nlsdata.obj
 0002:00002b84       ??_C@_17CJEDCEPE@?$AAW?$AAe?$AAd?$AA?$AA@ 005bfb84     LIBCMT:nlsdata.obj
 0002:00002b8c       ??_C@_17PDPHAADD@?$AAT?$AAh?$AAu?$AA?$AA@ 005bfb8c     LIBCMT:nlsdata.obj
 0002:00002b94       ??_C@_17HFOLPPLP@?$AAF?$AAr?$AAi?$AA?$AA@ 005bfb94     LIBCMT:nlsdata.obj
 0002:00002b9c       ??_C@_17GGIBDPIH@?$AAS?$AAa?$AAt?$AA?$AA@ 005bfb9c     LIBCMT:nlsdata.obj
 0002:00002ba4       ??_C@_1O@IHNHDHPB@?$AAS?$AAu?$AAn?$AAd?$AAa?$AAy?$AA?$AA@ 005bfba4     LIBCMT:nlsdata.obj
 0002:00002bb4       ??_C@_1O@MMNBFLIA@?$AAM?$AAo?$AAn?$AAd?$AAa?$AAy?$AA?$AA@ 005bfbb4     LIBCMT:nlsdata.obj
 0002:00002bc4       ??_C@_1BA@ENFBFFEK@?$AAT?$AAu?$AAe?$AAs?$AAd?$AAa?$AAy?$AA?$AA@ 005bfbc4     LIBCMT:nlsdata.obj
 0002:00002bd4       ??_C@_1BE@EBOGMDOH@?$AAW?$AAe?$AAd?$AAn?$AAe?$AAs?$AAd?$AAa?$AAy?$AA?$AA@ 005bfbd4     LIBCMT:nlsdata.obj
 0002:00002be8       ??_C@_1BC@HHMNLIHE@?$AAT?$AAh?$AAu?$AAr?$AAs?$AAd?$AAa?$AAy?$AA?$AA@ 005bfbe8     LIBCMT:nlsdata.obj
 0002:00002bfc       ??_C@_1O@PDICJHAG@?$AAF?$AAr?$AAi?$AAd?$AAa?$AAy?$AA?$AA@ 005bfbfc     LIBCMT:nlsdata.obj
 0002:00002c0c       ??_C@_1BC@ENMNNPAJ@?$AAS?$AAa?$AAt?$AAu?$AAr?$AAd?$AAa?$AAy?$AA?$AA@ 005bfc0c     LIBCMT:nlsdata.obj
 0002:00002c20       ??_C@_17DKNBKCHM@?$AAJ?$AAa?$AAn?$AA?$AA@ 005bfc20     LIBCMT:nlsdata.obj
 0002:00002c28       ??_C@_17LMDJEKJN@?$AAF?$AAe?$AAb?$AA?$AA@ 005bfc28     LIBCMT:nlsdata.obj
 0002:00002c30       ??_C@_17CKNLEDEC@?$AAM?$AAa?$AAr?$AA?$AA@ 005bfc30     LIBCMT:nlsdata.obj
 0002:00002c38       ??_C@_17LFPOIHDD@?$AAA?$AAp?$AAr?$AA?$AA@ 005bfc38     LIBCMT:nlsdata.obj
 0002:00002c40       ??_C@_17PNNKMEED@?$AAM?$AAa?$AAy?$AA?$AA@ 005bfc40     LIBCMT:nlsdata.obj
 0002:00002c48       ??_C@_17KCJGOCPB@?$AAJ?$AAu?$AAn?$AA?$AA@ 005bfc48     LIBCMT:nlsdata.obj
 0002:00002c50       ??_C@_17IJPCKHK@?$AAJ?$AAu?$AAl?$AA?$AA@ 005bfc50     LIBCMT:nlsdata.obj
 0002:00002c58       ??_C@_17ICPELBCN@?$AAA?$AAu?$AAg?$AA?$AA@ 005bfc58     LIBCMT:nlsdata.obj
 0002:00002c60       ??_C@_17HCHCOKMG@?$AAS?$AAe?$AAp?$AA?$AA@ 005bfc60     LIBCMT:nlsdata.obj
 0002:00002c68       ??_C@_17FNLKOI@?$AAO?$AAc?$AAt?$AA?$AA@ 005bfc68     LIBCMT:nlsdata.obj
 0002:00002c70       ??_C@_17BBDMLCIG@?$AAN?$AAo?$AAv?$AA?$AA@ 005bfc70     LIBCMT:nlsdata.obj
 0002:00002c78       ??_C@_17EGKACKIF@?$AAD?$AAe?$AAc?$AA?$AA@ 005bfc78     LIBCMT:nlsdata.obj
 0002:00002c80       ??_C@_1BA@EFMEIEBA@?$AAJ?$AAa?$AAn?$AAu?$AAa?$AAr?$AAy?$AA?$AA@ 005bfc80     LIBCMT:nlsdata.obj
 0002:00002c90       ??_C@_1BC@JGDDFFAM@?$AAF?$AAe?$AAb?$AAr?$AAu?$AAa?$AAr?$AAy?$AA?$AA@ 005bfc90     LIBCMT:nlsdata.obj
 0002:00002ca4       ??_C@_1M@IKEENEDF@?$AAM?$AAa?$AAr?$AAc?$AAh?$AA?$AA@ 005bfca4     LIBCMT:nlsdata.obj
 0002:00002cb0       ??_C@_1M@GJNLMHFD@?$AAA?$AAp?$AAr?$AAi?$AAl?$AA?$AA@ 005bfcb0     LIBCMT:nlsdata.obj
 0002:00002cbc       ??_C@_19EPFLPGAP@?$AAJ?$AAu?$AAn?$AAe?$AA?$AA@ 005bfcbc     LIBCMT:nlsdata.obj
 0002:00002cc8       ??_C@_19BIFMLPCD@?$AAJ?$AAu?$AAl?$AAy?$AA?$AA@ 005bfcc8     LIBCMT:nlsdata.obj
 0002:00002cd4       ??_C@_1O@PAHLKOAC@?$AAA?$AAu?$AAg?$AAu?$AAs?$AAt?$AA?$AA@ 005bfcd4     LIBCMT:nlsdata.obj
 0002:00002ce4       ??_C@_1BE@DKAAMBJL@?$AAS?$AAe?$AAp?$AAt?$AAe?$AAm?$AAb?$AAe?$AAr?$AA?$AA@ 005bfce4     LIBCMT:nlsdata.obj
 0002:00002cf8       ??_C@_1BA@EPANDLNG@?$AAO?$AAc?$AAt?$AAo?$AAb?$AAe?$AAr?$AA?$AA@ 005bfcf8     LIBCMT:nlsdata.obj
 0002:00002d08       ??_C@_1BC@BGLIFPF@?$AAN?$AAo?$AAv?$AAe?$AAm?$AAb?$AAe?$AAr?$AA?$AA@ 005bfd08     LIBCMT:nlsdata.obj
 0002:00002d1c       ??_C@_1BC@FEMKIFH@?$AAD?$AAe?$AAc?$AAe?$AAm?$AAb?$AAe?$AAr?$AA?$AA@ 005bfd1c     LIBCMT:nlsdata.obj
 0002:00002d30       ??_C@_15ODEHAHHF@?$AAA?$AAM?$AA?$AA@ 005bfd30     LIBCMT:nlsdata.obj
 0002:00002d38       ??_C@_15CLMNNGEL@?$AAP?$AAM?$AA?$AA@ 005bfd38     LIBCMT:nlsdata.obj
 0002:00002d40       ??_C@_1BC@IEBCMHCM@?$AAM?$AAM?$AA?1?$AAd?$AAd?$AA?1?$AAy?$AAy?$AA?$AA@ 005bfd40     LIBCMT:nlsdata.obj
 0002:00002d54       ??_C@_1CI@KNAKOEBC@?$AAd?$AAd?$AAd?$AAd?$AA?0?$AA?5?$AAM?$AAM?$AAM?$AAM?$AA?5?$AAd?$AAd?$AA?0?$AA?5?$AAy?$AAy?$AAy?$AAy?$AA?$AA@ 005bfd54     LIBCMT:nlsdata.obj
 0002:00002d7c       ??_C@_1BC@GDGBMEMK@?$AAH?$AAH?$AA?3?$AAm?$AAm?$AA?3?$AAs?$AAs?$AA?$AA@ 005bfd7c     LIBCMT:nlsdata.obj
 0002:00002d90       ??_C@_1M@BMHNFIME@?$AAe?$AAn?$AA?9?$AAU?$AAS?$AA?$AA@ 005bfd90     LIBCMT:nlsdata.obj
 0002:00002e20       ___dnames                  005bfe20     LIBCMT:timeset.obj
 0002:00002e38       ___mnames                  005bfe38     LIBCMT:timeset.obj
 0002:00002e60       ??_C@_02CLFPBFFP@TZ?$AA@   005bfe60     LIBCMT:tzset.obj
 0002:00002e64       ??_C@_1M@PBPMMENC@?$AAa?$AAm?$AA?1?$AAp?$AAm?$AA?$AA@ 005bfe64     LIBCMT:wcsftime.obj
 0002:00002e70       ??_C@_17BLFJJHMM@?$AAa?$AA?1?$AAp?$AA?$AA@ 005bfe70     LIBCMT:wcsftime.obj
 0002:00002e78       __FPinit                   005bfe78     LIBCMT:fpinit.obj
 0002:00002e80       ___lookuptable_s           005bfe80     LIBCMT:outputs.obj
 0002:00002ee0       __XcptActTab               005bfee0     LIBCMT:winxfltr.obj
 0002:00002f70       __XcptActTabCount          005bff70     LIBCMT:winxfltr.obj
 0002:00002f74       __XcptActTabSize           005bff74     LIBCMT:winxfltr.obj
 0002:00002f78       __First_FPE_Indx           005bff78     LIBCMT:winxfltr.obj
 0002:00002f7c       __Num_FPE                  005bff7c     LIBCMT:winxfltr.obj
 0002:00002f88       __sys_errlist              005bff88     LIBCMT:syserr.obj
 0002:00003038       ??_C@_08INEPGKHH@No?5error?$AA@ 005c0038     LIBCMT:syserr.obj
 0002:00003044       ??_C@_0BI@BJFCGOHL@Operation?5not?5permitted?$AA@ 005c0044     LIBCMT:syserr.obj
 0002:0000305c       ??_C@_0BK@FMDHKPNF@No?5such?5file?5or?5directory?$AA@ 005c005c     LIBCMT:syserr.obj
 0002:00003078       ??_C@_0BA@FKIAIBGA@No?5such?5process?$AA@ 005c0078     LIBCMT:syserr.obj
 0002:00003088       ??_C@_0BK@FJBOAFDK@Interrupted?5function?5call?$AA@ 005c0088     LIBCMT:syserr.obj
 0002:000030a4       ??_C@_0BD@KKNFOBBD@Input?1output?5error?$AA@ 005c00a4     LIBCMT:syserr.obj
 0002:000030b8       ??_C@_0BK@DPKMCKJ@No?5such?5device?5or?5address?$AA@ 005c00b8     LIBCMT:syserr.obj
 0002:000030d4       ??_C@_0BC@MFFGCDFL@Arg?5list?5too?5long?$AA@ 005c00d4     LIBCMT:syserr.obj
 0002:000030e8       ??_C@_0BC@HKPNECK@Exec?5format?5error?$AA@ 005c00e8     LIBCMT:syserr.obj
 0002:000030fc       ??_C@_0BE@NFGDDCEF@Bad?5file?5descriptor?$AA@ 005c00fc     LIBCMT:syserr.obj
 0002:00003110       ??_C@_0BD@LOHELEP@No?5child?5processes?$AA@ 005c0110     LIBCMT:syserr.obj
 0002:00003124       ??_C@_0CB@EPFKGNAK@Resource?5temporarily?5unavailable@ 005c0124     LIBCMT:syserr.obj
 0002:00003148       ??_C@_0BB@IMDKMPFB@Not?5enough?5space?$AA@ 005c0148     LIBCMT:syserr.obj
 0002:0000315c       ??_C@_0BC@HFNFNKAI@Permission?5denied?$AA@ 005c015c     LIBCMT:syserr.obj
 0002:00003170       ??_C@_0M@LOEHLCJD@Bad?5address?$AA@ 005c0170     LIBCMT:syserr.obj
 0002:0000317c       ??_C@_0O@NIPGCINC@Unknown?5error?$AA@ 005c017c     LIBCMT:syserr.obj
 0002:0000318c       ??_C@_0BA@BIBLIOEK@Resource?5device?$AA@ 005c018c     LIBCMT:syserr.obj
 0002:0000319c       ??_C@_0M@NAAJNNGH@File?5exists?$AA@ 005c019c     LIBCMT:syserr.obj
 0002:000031a8       ??_C@_0O@OAMDNOCP@Improper?5link?$AA@ 005c01a8     LIBCMT:syserr.obj
 0002:000031b8       ??_C@_0P@NLEIANHE@No?5such?5device?$AA@ 005c01b8     LIBCMT:syserr.obj
 0002:000031c8       ??_C@_0BA@CJBACOOL@Not?5a?5directory?$AA@ 005c01c8     LIBCMT:syserr.obj
 0002:000031d8       ??_C@_0P@NDHGCGKE@Is?5a?5directory?$AA@ 005c01d8     LIBCMT:syserr.obj
 0002:000031e8       ??_C@_0BB@HMGGCEBG@Invalid?5argument?$AA@ 005c01e8     LIBCMT:syserr.obj
 0002:000031fc       ??_C@_0BO@IIFBODJE@Too?5many?5open?5files?5in?5system?$AA@ 005c01fc     LIBCMT:syserr.obj
 0002:0000321c       ??_C@_0BE@INBJMKGG@Too?5many?5open?5files?$AA@ 005c021c     LIBCMT:syserr.obj
 0002:00003230       ??_C@_0CE@ONOKNLPF@Inappropriate?5I?1O?5control?5operat@ 005c0230     LIBCMT:syserr.obj
 0002:00003254       ??_C@_0P@LFMMIPAE@File?5too?5large?$AA@ 005c0254     LIBCMT:syserr.obj
 0002:00003264       ??_C@_0BI@FEALHKLD@No?5space?5left?5on?5device?$AA@ 005c0264     LIBCMT:syserr.obj
 0002:0000327c       ??_C@_0N@FEHLOILP@Invalid?5seek?$AA@ 005c027c     LIBCMT:syserr.obj
 0002:0000328c       ??_C@_0BG@DDBFNKBH@Read?9only?5file?5system?$AA@ 005c028c     LIBCMT:syserr.obj
 0002:000032a4       ??_C@_0P@PKCJJLLM@Too?5many?5links?$AA@ 005c02a4     LIBCMT:syserr.obj
 0002:000032b4       ??_C@_0M@LHEPIIOM@Broken?5pipe?$AA@ 005c02b4     LIBCMT:syserr.obj
 0002:000032c0       ??_C@_0N@MMJPGLJK@Domain?5error?$AA@ 005c02c0     LIBCMT:syserr.obj
 0002:000032d0       ??_C@_0BB@FCBJFCAJ@Result?5too?5large?$AA@ 005c02d0     LIBCMT:syserr.obj
 0002:000032e4       ??_C@_0BK@JAEBMJJM@Resource?5deadlock?5avoided?$AA@ 005c02e4     LIBCMT:syserr.obj
 0002:00003300       ??_C@_0BC@BEDIHIDK@Filename?5too?5long?$AA@ 005c0300     LIBCMT:syserr.obj
 0002:00003314       ??_C@_0BD@CLHBCGPB@No?5locks?5available?$AA@ 005c0314     LIBCMT:syserr.obj
 0002:00003328       ??_C@_0BJ@IHEHINLI@Function?5not?5implemented?$AA@ 005c0328     LIBCMT:syserr.obj
 0002:00003344       ??_C@_0BE@ICMCHPHH@Directory?5not?5empty?$AA@ 005c0344     LIBCMT:syserr.obj
 0002:00003358       ??_C@_0BG@KLEAJEFJ@Illegal?5byte?5sequence?$AA@ 005c0358     LIBCMT:syserr.obj
 0002:00003370       ??_C@_1BG@GOEBHBDC@?$AAU?$AAS?$AAE?$AAR?$AA3?$AA2?$AA?4?$AAD?$AAL?$AAL?$AA?$AA@ 005c0370     LIBCMT:crtmboxw.obj
 0002:00003388       ??_C@_0M@DLDCCGNP@MessageBoxW?$AA@ 005c0388     LIBCMT:crtmboxw.obj
 0002:00003394       ??_C@_0BA@HNOPNCHB@GetActiveWindow?$AA@ 005c0394     LIBCMT:crtmboxw.obj
 0002:000033a4       ??_C@_0BD@HHGDFDBJ@GetLastActivePopup?$AA@ 005c03a4     LIBCMT:crtmboxw.obj
 0002:000033b8       ??_C@_0BK@DEKFELLI@GetUserObjectInformationW?$AA@ 005c03b8     LIBCMT:crtmboxw.obj
 0002:000033d4       ??_C@_0BI@DFKBFLJE@GetProcessWindowStation?$AA@ 005c03d4     LIBCMT:crtmboxw.obj
 0002:000033ec       ??_C@_04COOMCNPB@sinh?$AA@ 005c03ec     LIBCMT:fpexcept.obj
 0002:000033f4       ??_C@_04HPJJNFIM@cosh?$AA@ 005c03f4     LIBCMT:fpexcept.obj
 0002:000033fc       ??_C@_04FJHINJAO@tanh?$AA@ 005c03fc     LIBCMT:fpexcept.obj
 0002:00003404       ??_C@_05KNGEOGJB@atan2?$AA@ 005c0404     LIBCMT:fpexcept.obj
 0002:0000340c       ??_C@_04ODHECPBC@fabs?$AA@ 005c040c     LIBCMT:fpexcept.obj
 0002:00003414       ??_C@_05CEJMAHNP@ldexp?$AA@ 005c0414     LIBCMT:fpexcept.obj
 0002:0000341c       ??_C@_05KBKMEMPO@_cabs?$AA@ 005c041c     LIBCMT:fpexcept.obj
 0002:00003424       ??_C@_06MEIMCGCF@_hypot?$AA@ 005c0424     LIBCMT:fpexcept.obj
 0002:0000342c       ??_C@_04KEPJIHGP@fmod?$AA@ 005c042c     LIBCMT:fpexcept.obj
 0002:00003434       ??_C@_05GKKHEGJL@frexp?$AA@ 005c0434     LIBCMT:fpexcept.obj
 0002:0000343c       ??_C@_03MJLDFKDL@_y0?$AA@  005c043c     LIBCMT:fpexcept.obj
 0002:00003440       ??_C@_03NAKIGLHK@_y1?$AA@  005c0440     LIBCMT:fpexcept.obj
 0002:00003444       ??_C@_03ONILCKOB@_yn?$AA@  005c0444     LIBCMT:fpexcept.obj
 0002:00003448       ??_C@_05JGDBENOH@_logb?$AA@ 005c0448     LIBCMT:fpexcept.obj
 0002:00003450       ??_C@_0L@KDOEJCKC@_nextafter?$AA@ 005c0450     LIBCMT:fpexcept.obj
 0002:00003460       _LcidToLocaleNameTable     005c0460     LIBCMT:winapinls.obj
 0002:00003b80       _LocaleNameToIndexTable    005c0b80     LIBCMT:winapinls.obj
 0002:000042a0       ??_C@_15EMKDOKLE@?$AAa?$AAr?$AA?$AA@ 005c12a0     LIBCMT:winapinls.obj
 0002:000042a8       ??_C@_15KNPADPLH@?$AAb?$AAg?$AA?$AA@ 005c12a8     LIBCMT:winapinls.obj
 0002:000042b0       ??_C@_15EDMHLDMO@?$AAc?$AAa?$AA?$AA@ 005c12b0     LIBCMT:winapinls.obj
 0002:000042b8       ??_C@_1O@BPEAJADD@?$AAz?$AAh?$AA?9?$AAC?$AAH?$AAS?$AA?$AA@ 005c12b8     LIBCMT:winapinls.obj
 0002:000042c8       ??_C@_15LJNHCMNK@?$AAc?$AAs?$AA?$AA@ 005c12c8     LIBCMT:winapinls.obj
 0002:000042d0       ??_C@_15FOMCIDHG@?$AAd?$AAa?$AA?$AA@ 005c12d0     LIBCMT:winapinls.obj
 0002:000042d8       ??_C@_15NBKABECB@?$AAd?$AAe?$AA?$AA@ 005c12d8     LIBCMT:winapinls.obj
 0002:000042e0       ??_C@_15GHPEIIAO@?$AAe?$AAl?$AA?$AA@ 005c12e0     LIBCMT:winapinls.obj
 0002:000042e8       ??_C@_15MNPNEAIF@?$AAe?$AAn?$AA?$AA@ 005c12e8     LIBCMT:winapinls.obj
 0002:000042f0       ??_C@_15GPIOMPMH@?$AAe?$AAs?$AA?$AA@ 005c12f0     LIBCMT:winapinls.obj
 0002:000042f8       ??_C@_15NGLOAKJC@?$AAf?$AAi?$AA?$AA@ 005c12f8     LIBCMT:winapinls.obj
 0002:00004300       ??_C@_15FBKGNKAM@?$AAf?$AAr?$AA?$AA@ 005c1300     LIBCMT:winapinls.obj
 0002:00004308       ??_C@_15KGGCNEFK@?$AAh?$AAe?$AA?$AA@ 005c1308     LIBCMT:winapinls.obj
 0002:00004310       ??_C@_15PGHLIDMF@?$AAh?$AAu?$AA?$AA@ 005c1310     LIBCMT:winapinls.obj
 0002:00004318       ??_C@_15BIEMAPLM@?$AAi?$AAs?$AA?$AA@ 005c1318     LIBCMT:winapinls.obj
 0002:00004320       ??_C@_15IFJLDHAF@?$AAi?$AAt?$AA?$AA@ 005c1320     LIBCMT:winapinls.obj
 0002:00004328       ??_C@_15GEMIOCAG@?$AAj?$AAa?$AA?$AA@ 005c1328     LIBCMT:winapinls.obj
 0002:00004330       ??_C@_15EPELEGJA@?$AAk?$AAo?$AA?$AA@ 005c1330     LIBCMT:winapinls.obj
 0002:00004338       ??_C@_15NDDHIMN@?$AAn?$AAl?$AA?$AA@ 005c1338     LIBCMT:winapinls.obj
 0002:00004340       ??_C@_15BPIGNHCD@?$AAn?$AAo?$AA?$AA@ 005c1340     LIBCMT:winapinls.obj
 0002:00004348       ??_C@_15DEOPBLCG@?$AAp?$AAl?$AA?$AA@ 005c1348     LIBCMT:winapinls.obj
 0002:00004350       ??_C@_15KBECGEFG@?$AAp?$AAt?$AA?$AA@ 005c1350     LIBCMT:winapinls.obj
 0002:00004358       ??_C@_15GLJCBFMD@?$AAr?$AAo?$AA?$AA@ 005c1358     LIBCMT:winapinls.obj
 0002:00004360       ??_C@_15FEDGKCDI@?$AAr?$AAu?$AA?$AA@ 005c1360     LIBCMT:winapinls.obj
 0002:00004368       ??_C@_15GLKMLLHM@?$AAh?$AAr?$AA?$AA@ 005c1368     LIBCMT:winapinls.obj
 0002:00004370       ??_C@_15CPKMFBDB@?$AAs?$AAk?$AA?$AA@ 005c1370     LIBCMT:winapinls.obj
 0002:00004378       ??_C@_15BAAIOGMK@?$AAs?$AAq?$AA?$AA@ 005c1378     LIBCMT:winapinls.obj
 0002:00004380       ??_C@_15INNPNOHD@?$AAs?$AAv?$AA?$AA@ 005c1380     LIBCMT:winapinls.obj
 0002:00004388       ??_C@_15CABMMOGH@?$AAt?$AAh?$AA?$AA@ 005c1388     LIBCMT:winapinls.obj
 0002:00004390       ??_C@_15BPLIHJJM@?$AAt?$AAr?$AA?$AA@ 005c1390     LIBCMT:winapinls.obj
 0002:00004398       ??_C@_15NEOEKKDJ@?$AAu?$AAr?$AA?$AA@ 005c1398     LIBCMT:winapinls.obj
 0002:000043a0       ??_C@_15NFICGAJK@?$AAi?$AAd?$AA?$AA@ 005c13a0     LIBCMT:winapinls.obj
 0002:000043a8       ??_C@_15PJPFLCCM@?$AAu?$AAk?$AA?$AA@ 005c13a8     LIBCMT:winapinls.obj
 0002:000043b0       ??_C@_15HPJPHDM@?$AAb?$AAe?$AA?$AA@ 005c13b0     LIBCMT:winapinls.obj
 0002:000043b8       ??_C@_15LCHLGJII@?$AAs?$AAl?$AA?$AA@ 005c13b8     LIBCMT:winapinls.obj
 0002:000043c0       ??_C@_15PCFJPHHO@?$AAe?$AAt?$AA?$AA@ 005c13c0     LIBCMT:winapinls.obj
 0002:000043c8       ??_C@_15HPFPGODN@?$AAl?$AAv?$AA?$AA@ 005c13c8     LIBCMT:winapinls.obj
 0002:000043d0       ??_C@_15NFFGKGLG@?$AAl?$AAt?$AA?$AA@ 005c13d0     LIBCMT:winapinls.obj
 0002:000043d8       ??_C@_15BDAKCCHN@?$AAf?$AAa?$AA?$AA@ 005c13d8     LIBCMT:winapinls.obj
 0002:000043e0       ??_C@_15NFGIAIAJ@?$AAv?$AAi?$AA?$AA@ 005c13e0     LIBCMT:winapinls.obj
 0002:000043e8       ??_C@_15LMKNDMHN@?$AAh?$AAy?$AA?$AA@ 005c13e8     LIBCMT:winapinls.obj
 0002:000043f0       ??_C@_15IJBHMCFL@?$AAa?$AAz?$AA?$AA@ 005c13f0     LIBCMT:winapinls.obj
 0002:000043f8       ??_C@_15EKOFJABL@?$AAe?$AAu?$AA?$AA@ 005c13f8     LIBCMT:winapinls.obj
 0002:00004400       ??_C@_15BGHADCNK@?$AAm?$AAk?$AA?$AA@ 005c1400     LIBCMT:winapinls.obj
 0002:00004408       ??_C@_15JDNICKHM@?$AAa?$AAf?$AA?$AA@ 005c1408     LIBCMT:winapinls.obj
 0002:00004410       ??_C@_15KPJEDBKD@?$AAk?$AAa?$AA?$AA@ 005c1410     LIBCMT:winapinls.obj
 0002:00004418       ??_C@_15PDNFFFEO@?$AAf?$AAo?$AA?$AA@ 005c1418     LIBCMT:winapinls.obj
 0002:00004420       ??_C@_15OMLEGLOC@?$AAh?$AAi?$AA?$AA@ 005c1420     LIBCMT:winapinls.obj
 0002:00004428       ??_C@_15IDNNENKK@?$AAm?$AAs?$AA?$AA@ 005c1428     LIBCMT:winapinls.obj
 0002:00004430       ??_C@_15MACJNBMH@?$AAk?$AAk?$AA?$AA@ 005c1430     LIBCMT:winapinls.obj
 0002:00004438       ??_C@_15DKDJEOND@?$AAk?$AAy?$AA?$AA@ 005c1438     LIBCMT:winapinls.obj
 0002:00004440       ??_C@_15DFGDLJBG@?$AAs?$AAw?$AA?$AA@ 005c1440     LIBCMT:winapinls.obj
 0002:00004448       ??_C@_15BBFAICNG@?$AAu?$AAz?$AA?$AA@ 005c1448     LIBCMT:winapinls.obj
 0002:00004450       ??_C@_15DKNDCGEA@?$AAt?$AAt?$AA?$AA@ 005c1450     LIBCMT:winapinls.obj
 0002:00004458       ??_C@_15MGIFMDPL@?$AAp?$AAa?$AA?$AA@ 005c1458     LIBCMT:winapinls.obj
 0002:00004460       ??_C@_15HCNDBBA@?$AAg?$AAu?$AA?$AA@ 005c1460     LIBCMT:winapinls.obj
 0002:00004468       ??_C@_15FNBEIBON@?$AAt?$AAa?$AA?$AA@ 005c1468     LIBCMT:winapinls.obj
 0002:00004470       ??_C@_15NCHGBGLK@?$AAt?$AAe?$AA?$AA@ 005c1470     LIBCMT:winapinls.obj
 0002:00004478       ??_C@_15PHPHCBPF@?$AAk?$AAn?$AA?$AA@ 005c1478     LIBCMT:winapinls.obj
 0002:00004480       ??_C@_15DLGBCKMP@?$AAm?$AAr?$AA?$AA@ 005c1480     LIBCMT:winapinls.obj
 0002:00004488       ??_C@_15EABBLBFF@?$AAs?$AAa?$AA?$AA@ 005c1488     LIBCMT:winapinls.obj
 0002:00004490       ??_C@_15CBKOMCOI@?$AAm?$AAn?$AA?$AA@ 005c1490     LIBCMT:winapinls.obj
 0002:00004498       ??_C@_15CKDMCJAF@?$AAg?$AAl?$AA?$AA@ 005c1498     LIBCMT:winapinls.obj
 0002:000044a0       ??_C@_17CNJFBPG@?$AAk?$AAo?$AAk?$AA?$AA@ 005c14a0     LIBCMT:winapinls.obj
 0002:000044a8       ??_C@_17FFBJICPL@?$AAs?$AAy?$AAr?$AA?$AA@ 005c14a8     LIBCMT:winapinls.obj
 0002:000044b0       ??_C@_17KPNDCPAF@?$AAd?$AAi?$AAv?$AA?$AA@ 005c14b0     LIBCMT:winapinls.obj
 0002:000044b8       ??_C@_11LOCGONAA@?$AA?$AA@ 005c14b8     LIBCMT:winapinls.obj
 0002:000044bc       ??_C@_1M@OKAHONE@?$AAa?$AAr?$AA?9?$AAS?$AAA?$AA?$AA@ 005c14bc     LIBCMT:winapinls.obj
 0002:000044c8       ??_C@_1M@FFFIGIGK@?$AAb?$AAg?$AA?9?$AAB?$AAG?$AA?$AA@ 005c14c8     LIBCMT:winapinls.obj
 0002:000044d4       ??_C@_1M@BJNKEDC@?$AAc?$AAa?$AA?9?$AAE?$AAS?$AA?$AA@ 005c14d4     LIBCMT:winapinls.obj
 0002:000044e0       ??_C@_1M@IJJHFJHA@?$AAc?$AAs?$AA?9?$AAC?$AAZ?$AA?$AA@ 005c14e0     LIBCMT:winapinls.obj
 0002:000044ec       ??_C@_1M@CLPEOBGI@?$AAd?$AAa?$AA?9?$AAD?$AAK?$AA?$AA@ 005c14ec     LIBCMT:winapinls.obj
 0002:000044f8       ??_C@_1M@MCMADGCB@?$AAd?$AAe?$AA?9?$AAD?$AAE?$AA?$AA@ 005c14f8     LIBCMT:winapinls.obj
 0002:00004504       ??_C@_1M@OOCKEMAM@?$AAe?$AAl?$AA?9?$AAG?$AAR?$AA?$AA@ 005c1504     LIBCMT:winapinls.obj
 0002:00004510       ??_C@_1M@DDNJFGID@?$AAf?$AAi?$AA?9?$AAF?$AAI?$AA?$AA@ 005c1510     LIBCMT:winapinls.obj
 0002:0000451c       ??_C@_1M@GLIPPMAC@?$AAf?$AAr?$AA?9?$AAF?$AAR?$AA?$AA@ 005c151c     LIBCMT:winapinls.obj
 0002:00004528       ??_C@_1M@GFMCHPE@?$AAh?$AAe?$AA?9?$AAI?$AAL?$AA?$AA@ 005c1528     LIBCMT:winapinls.obj
 0002:00004534       ??_C@_1M@MHLPGNKM@?$AAh?$AAu?$AA?9?$AAH?$AAU?$AA?$AA@ 005c1534     LIBCMT:winapinls.obj
 0002:00004540       ??_C@_1M@LPDDNNPN@?$AAi?$AAs?$AA?9?$AAI?$AAS?$AA?$AA@ 005c1540     LIBCMT:winapinls.obj
 0002:0000454c       ??_C@_1M@MADIPODN@?$AAi?$AAt?$AA?9?$AAI?$AAT?$AA?$AA@ 005c154c     LIBCMT:winapinls.obj
 0002:00004558       ??_C@_1M@IHBJJGG@?$AAn?$AAl?$AA?9?$AAN?$AAL?$AA?$AA@ 005c1558     LIBCMT:winapinls.obj
 0002:00004564       ??_C@_1M@EANAGDL@?$AAn?$AAb?$AA?9?$AAN?$AAO?$AA?$AA@ 005c1564     LIBCMT:winapinls.obj
 0002:00004570       ??_C@_1M@NEIEMEGP@?$AAp?$AAl?$AA?9?$AAP?$AAL?$AA?$AA@ 005c1570     LIBCMT:winapinls.obj
 0002:0000457c       ??_C@_1M@BOCFIGEP@?$AAp?$AAt?$AA?9?$AAB?$AAR?$AA?$AA@ 005c157c     LIBCMT:winapinls.obj
 0002:00004588       ??_C@_1M@IMPFOPBG@?$AAr?$AAo?$AA?9?$AAR?$AAO?$AA?$AA@ 005c1588     LIBCMT:winapinls.obj
 0002:00004594       ??_C@_1M@IDNNEJMM@?$AAr?$AAu?$AA?9?$AAR?$AAU?$AA?$AA@ 005c1594     LIBCMT:winapinls.obj
 0002:000045a0       ??_C@_1M@LILEEOGM@?$AAh?$AAr?$AA?9?$AAH?$AAR?$AA?$AA@ 005c15a0     LIBCMT:winapinls.obj
 0002:000045ac       ??_C@_1M@FKIFEHPB@?$AAs?$AAk?$AA?9?$AAS?$AAK?$AA?$AA@ 005c15ac     LIBCMT:winapinls.obj
 0002:000045b8       ??_C@_1M@LJMAMNPJ@?$AAs?$AAq?$AA?9?$AAA?$AAL?$AA?$AA@ 005c15b8     LIBCMT:winapinls.obj
 0002:000045c4       ??_C@_1M@GIAKDKJK@?$AAs?$AAv?$AA?9?$AAS?$AAE?$AA?$AA@ 005c15c4     LIBCMT:winapinls.obj
 0002:000045d0       ??_C@_1M@MKJKIKCL@?$AAt?$AAh?$AA?9?$AAT?$AAH?$AA?$AA@ 005c15d0     LIBCMT:winapinls.obj
 0002:000045dc       ??_C@_1M@MFLCCMPB@?$AAt?$AAr?$AA?9?$AAT?$AAR?$AA?$AA@ 005c15dc     LIBCMT:winapinls.obj
 0002:000045e8       ??_C@_1M@OIJHDKJN@?$AAu?$AAr?$AA?9?$AAP?$AAK?$AA?$AA@ 005c15e8     LIBCMT:winapinls.obj
 0002:000045f4       ??_C@_1M@LHIPCIEK@?$AAi?$AAd?$AA?9?$AAI?$AAD?$AA?$AA@ 005c15f4     LIBCMT:winapinls.obj
 0002:00004600       ??_C@_1M@MFMOBGI@?$AAu?$AAk?$AA?9?$AAU?$AAA?$AA?$AA@ 005c1600     LIBCMT:winapinls.obj
 0002:0000460c       ??_C@_1M@OBGLJIPL@?$AAb?$AAe?$AA?9?$AAB?$AAY?$AA?$AA@ 005c160c     LIBCMT:winapinls.obj
 0002:00004618       ??_C@_1M@BCFAJEAD@?$AAs?$AAl?$AA?9?$AAS?$AAI?$AA?$AA@ 005c1618     LIBCMT:winapinls.obj
 0002:00004624       ??_C@_1M@FKFFEDDN@?$AAe?$AAt?$AA?9?$AAE?$AAE?$AA?$AA@ 005c1624     LIBCMT:winapinls.obj
 0002:00004630       ??_C@_1M@KGKKAACI@?$AAl?$AAv?$AA?9?$AAL?$AAV?$AA?$AA@ 005c1630     LIBCMT:winapinls.obj
 0002:0000463c       ??_C@_1M@IFGBIJO@?$AAl?$AAt?$AA?9?$AAL?$AAT?$AA?$AA@ 005c163c     LIBCMT:winapinls.obj
 0002:00004648       ??_C@_1M@FGEAHEDM@?$AAf?$AAa?$AA?9?$AAI?$AAR?$AA?$AA@ 005c1648     LIBCMT:winapinls.obj
 0002:00004654       ??_C@_1M@KBMAIBFN@?$AAv?$AAi?$AA?9?$AAV?$AAN?$AA?$AA@ 005c1654     LIBCMT:winapinls.obj
 0002:00004660       ??_C@_1M@GPCBKDJK@?$AAh?$AAy?$AA?9?$AAA?$AAM?$AA?$AA@ 005c1660     LIBCMT:winapinls.obj
 0002:0000466c       ??_C@_1BG@BECMDDJB@?$AAa?$AAz?$AA?9?$AAA?$AAZ?$AA?9?$AAL?$AAa?$AAt?$AAn?$AA?$AA@ 005c166c     LIBCMT:winapinls.obj
 0002:00004684       ??_C@_1M@MAOFCAEA@?$AAe?$AAu?$AA?9?$AAE?$AAS?$AA?$AA@ 005c1684     LIBCMT:winapinls.obj
 0002:00004690       ??_C@_1M@IGHABKPI@?$AAm?$AAk?$AA?9?$AAM?$AAK?$AA?$AA@ 005c1690     LIBCMT:winapinls.obj
 0002:0000469c       ??_C@_1M@IAIGNEJG@?$AAt?$AAn?$AA?9?$AAZ?$AAA?$AA?$AA@ 005c169c     LIBCMT:winapinls.obj
 0002:000046a8       ??_C@_1M@IIJCOJFA@?$AAx?$AAh?$AA?9?$AAZ?$AAA?$AA?$AA@ 005c16a8     LIBCMT:winapinls.obj
 0002:000046b4       ??_C@_1M@LGPJHNJH@?$AAz?$AAu?$AA?9?$AAZ?$AAA?$AA?$AA@ 005c16b4     LIBCMT:winapinls.obj
 0002:000046c0       ??_C@_1M@HOKAOIO@?$AAa?$AAf?$AA?9?$AAZ?$AAA?$AA?$AA@ 005c16c0     LIBCMT:winapinls.obj
 0002:000046cc       ??_C@_1M@DPCLHLIE@?$AAk?$AAa?$AA?9?$AAG?$AAE?$AA?$AA@ 005c16cc     LIBCMT:winapinls.obj
 0002:000046d8       ??_C@_1M@BLKMHJBI@?$AAf?$AAo?$AA?9?$AAF?$AAO?$AA?$AA@ 005c16d8     LIBCMT:winapinls.obj
 0002:000046e4       ??_C@_1M@LGGJAPPB@?$AAh?$AAi?$AA?9?$AAI?$AAN?$AA?$AA@ 005c16e4     LIBCMT:winapinls.obj
 0002:000046f0       ??_C@_1M@FIKPIHFE@?$AAm?$AAt?$AA?9?$AAM?$AAT?$AA?$AA@ 005c16f0     LIBCMT:winapinls.obj
 0002:000046fc       ??_C@_1M@HEGGPBFA@?$AAs?$AAe?$AA?9?$AAN?$AAO?$AA?$AA@ 005c16fc     LIBCMT:winapinls.obj
 0002:00004708       ??_C@_1M@EIBJEEPA@?$AAm?$AAs?$AA?9?$AAM?$AAY?$AA?$AA@ 005c1708     LIBCMT:winapinls.obj
 0002:00004714       ??_C@_1M@FHLBGMPP@?$AAk?$AAk?$AA?9?$AAK?$AAZ?$AA?$AA@ 005c1714     LIBCMT:winapinls.obj
 0002:00004720       ??_C@_1M@NGJJLCGI@?$AAk?$AAy?$AA?9?$AAK?$AAG?$AA?$AA@ 005c1720     LIBCMT:winapinls.obj
 0002:0000472c       ??_C@_1M@GIENNBFC@?$AAs?$AAw?$AA?9?$AAK?$AAE?$AA?$AA@ 005c172c     LIBCMT:winapinls.obj
 0002:00004738       ??_C@_1BG@NDGMJIMJ@?$AAu?$AAz?$AA?9?$AAU?$AAZ?$AA?9?$AAL?$AAa?$AAt?$AAn?$AA?$AA@ 005c1738     LIBCMT:winapinls.obj
 0002:00004750       ??_C@_1M@IDCCIHBC@?$AAt?$AAt?$AA?9?$AAR?$AAU?$AA?$AA@ 005c1750     LIBCMT:winapinls.obj
 0002:0000475c       ??_C@_1M@LOICPMOJ@?$AAb?$AAn?$AA?9?$AAI?$AAN?$AA?$AA@ 005c175c     LIBCMT:winapinls.obj
 0002:00004768       ??_C@_1M@KPKKNEAH@?$AAp?$AAa?$AA?9?$AAI?$AAN?$AA?$AA@ 005c1768     LIBCMT:winapinls.obj
 0002:00004774       ??_C@_1M@PJGPPBOG@?$AAg?$AAu?$AA?9?$AAI?$AAN?$AA?$AA@ 005c1774     LIBCMT:winapinls.obj
 0002:00004780       ??_C@_1M@KMKMOPHI@?$AAt?$AAa?$AA?9?$AAI?$AAN?$AA?$AA@ 005c1780     LIBCMT:winapinls.obj
 0002:0000478c       ??_C@_1M@KFEHEPAC@?$AAt?$AAe?$AA?9?$AAI?$AAN?$AA?$AA@ 005c178c     LIBCMT:winapinls.obj
 0002:00004798       ??_C@_1M@CDCLMGHI@?$AAk?$AAn?$AA?9?$AAI?$AAN?$AA?$AA@ 005c1798     LIBCMT:winapinls.obj
 0002:000047a4       ??_C@_1M@MIODLDKF@?$AAm?$AAl?$AA?9?$AAI?$AAN?$AA?$AA@ 005c17a4     LIBCMT:winapinls.obj
 0002:000047b0       ??_C@_1M@PBIEACPO@?$AAm?$AAr?$AA?9?$AAI?$AAN?$AA?$AA@ 005c17b0     LIBCMT:winapinls.obj
 0002:000047bc       ??_C@_1M@NIDEAGPH@?$AAs?$AAa?$AA?9?$AAI?$AAN?$AA?$AA@ 005c17bc     LIBCMT:winapinls.obj
 0002:000047c8       ??_C@_1M@FHIHCBIO@?$AAm?$AAn?$AA?9?$AAM?$AAN?$AA?$AA@ 005c17c8     LIBCMT:winapinls.obj
 0002:000047d4       ??_C@_1M@JAIJPENP@?$AAc?$AAy?$AA?9?$AAG?$AAB?$AA?$AA@ 005c17d4     LIBCMT:winapinls.obj
 0002:000047e0       ??_C@_1M@PHGFBEPN@?$AAg?$AAl?$AA?9?$AAE?$AAS?$AA?$AA@ 005c17e0     LIBCMT:winapinls.obj
 0002:000047ec       ??_C@_1O@KPIPDNCP@?$AAk?$AAo?$AAk?$AA?9?$AAI?$AAN?$AA?$AA@ 005c17ec     LIBCMT:winapinls.obj
 0002:000047fc       ??_C@_1O@KNHJLDJA@?$AAs?$AAy?$AAr?$AA?9?$AAS?$AAY?$AA?$AA@ 005c17fc     LIBCMT:winapinls.obj
 0002:0000480c       ??_C@_1O@MKEKBLAH@?$AAd?$AAi?$AAv?$AA?9?$AAM?$AAV?$AA?$AA@ 005c180c     LIBCMT:winapinls.obj
 0002:0000481c       ??_C@_1O@OHDCKDDF@?$AAq?$AAu?$AAz?$AA?9?$AAB?$AAO?$AA?$AA@ 005c181c     LIBCMT:winapinls.obj
 0002:0000482c       ??_C@_1M@LEPJNLFD@?$AAn?$AAs?$AA?9?$AAZ?$AAA?$AA?$AA@ 005c182c     LIBCMT:winapinls.obj
 0002:00004838       ??_C@_1M@OMLEIIJB@?$AAm?$AAi?$AA?9?$AAN?$AAZ?$AA?$AA@ 005c1838     LIBCMT:winapinls.obj
 0002:00004844       ??_C@_1M@PMPEAILG@?$AAa?$AAr?$AA?9?$AAI?$AAQ?$AA?$AA@ 005c1844     LIBCMT:winapinls.obj
 0002:00004850       ??_C@_1M@CNKPNOEE@?$AAd?$AAe?$AA?9?$AAC?$AAH?$AA?$AA@ 005c1850     LIBCMT:winapinls.obj
 0002:0000485c       ??_C@_1M@LKMGMLKO@?$AAe?$AAn?$AA?9?$AAG?$AAB?$AA?$AA@ 005c185c     LIBCMT:winapinls.obj
