 rpg

 Timestamp is 510ab8ce (Thu Jan 31 19:32:46 2013)

 Preferred load address is 0000000140000000

 Start         Length     Name                   Class
 0001:00000000 0016e35bH .text                   CODE
 0001:0016e360 000049e3H .text$x                 CODE
 0001:00172d50 000167e9H .text$yc                CODE
 0001:00189540 000015bcH .text$yd                CODE
 0002:00000000 00000ac8H .idata$5                DATA
 0002:00000ac8 00000008H .CRT$XCA                DATA
 0002:00000ad0 00002698H .CRT$XCU                DATA
 0002:00003168 00000008H .CRT$XCZ                DATA
 0002:00003170 00000008H .CRT$XIA                DATA
 0002:00003178 00000020H .CRT$XIC                DATA
 0002:00003198 00000008H .CRT$XIY                DATA
 0002:000031a0 00000008H .CRT$XIZ                DATA
 0002:000031a8 00000008H .CRT$XPA                DATA
 0002:000031b0 00000010H .CRT$XPX                DATA
 0002:000031c0 00000008H .CRT$XPXA               DATA
 0002:000031c8 00000008H .CRT$XPZ                DATA
 0002:000031d0 00000008H .CRT$XTA                DATA
 0002:000031d8 00000008H .CRT$XTZ                DATA
 0002:000031e0 0001e7c0H .rdata                  DATA
 0002:000219a0 0000006cH .rdata$debug            DATA
 0002:00021a10 000023acH .rdata$r                DATA
 0002:00023dc0 00000008H .rtc$IAA                DATA
 0002:00023dc8 00000008H .rtc$IZZ                DATA
 0002:00023dd0 00000008H .rtc$TAA                DATA
 0002:00023dd8 00000008H .rtc$TZZ                DATA
 0002:00023de0 0001ea2cH .xdata                  DATA
 0002:00042810 00000084H .xdata$x                DATA
 0002:00042894 000000dcH .idata$2                DATA
 0002:00042970 00000014H .idata$3                DATA
 0002:00042988 00000ac8H .idata$4                DATA
 0002:00043450 00001572H .idata$6                DATA
 0002:000449c2 00000000H .edata                  DATA
 0003:00000000 000059e0H .data                   DATA
 0003:000059e0 000d45c8H .bss                    DATA
 0004:00000000 00014de4H .pdata                  DATA
 0005:00000000 000007b0H _RDATA                  DATA
 0006:00000000 000000e8H .rsrc$01                DATA
 0006:000000f0 00002868H .rsrc$02                DATA

  Address         Publics by Value              Rva+Base               Lib:Object

 0000:00000000       ___safe_se_handler_count   0000000000000000     <absolute>
 0000:00000000       ___safe_se_handler_table   0000000000000000     <absolute>
 0000:00000000       __ImageBase                0000000140000000     <linker-defined>
 0001:00000000       ?shrink@BlendMapRoot@@QEAAXH@Z 0000000140001000 f i blend.obj
 0001:000000c0       ?gentex@BlendBrush@@QEAAXXZ 00000001400010c0 f i blend.obj
 0001:00000350       ?reorient@BlendBrush@@QEAAX_N00@Z 0000000140001350 f i blend.obj
 0001:00000470       ?growbuf@?$vector@PEAUBlendBrush@@@@QEAAXH@Z 0000000140001470 f i blend.obj
 0001:00000510       ?cleanup@ImageData@@QEAAXXZ 0000000140001510 f i blend.obj
 0001:00000510       ??1ImageData@@QEAA@XZ      0000000140001510 f i blend.obj
 0001:00000560       ??0ImageData@@QEAA@XZ      0000000140001560 f i blend.obj
 0001:00000580       ??_V@YAXPEAX@Z             0000000140001580 f i blend.obj
 0001:00000580       ??3@YAXPEAX@Z              0000000140001580 f i blend.obj
 0001:00000590       ?newstring@@YAPEADPEBD_K@Z 0000000140001590 f i blend.obj
 0001:000005f0       ?newstring@@YAPEADPEBD@Z   00000001400015f0 f i blend.obj
 0001:00000660       ?create_ent@cubeloader@@QEAAXAEAUc_persistent_entity@1@@Z 0000000140001660 f i cubeloader.obj
 0001:00000900       ?preprocess_cubes@cubeloader@@QEAAXXZ 0000000140001900 f i cubeloader.obj
 0001:00000a20       ?getfloorceil@cubeloader@@QEAAHAEAUc_sqr@1@AEAH1@Z 0000000140001a20 f i cubeloader.obj
 0001:00000b80       ?boundingbox@cubeloader@@QEAAXXZ 0000000140001b80 f i cubeloader.obj
 0001:00000d50       ?create_cubes@cubeloader@@QEAAXXZ 0000000140001d50 f i cubeloader.obj
 0001:00001390       ?load_cube_world@cubeloader@@QEAAXPEAD@Z 0000000140002390 f i cubeloader.obj
 0001:00001a50       ?growbuf@?$vector@Uantipode@skelmodel@@@@QEAAXH@Z 0000000140002a50 f i rendermodel.obj
 0001:00001a50       ?growbuf@?$vector@PEAUextentity@@@@QEAAXH@Z 0000000140002a50 f i cubeloader.obj
 0001:00001a50       ?growbuf@?$vector@PEBUextentity@@@@QEAAXH@Z 0000000140002a50 f i lightmap.obj
 0001:00001a50       ?growbuf@?$vector@Uufval@unionfind@@@@QEAAXH@Z 0000000140002a50 f i material.obj
 0001:00001a50       ?growbuf@?$vector@Ufacebounds@@@@QEAAXH@Z 0000000140002a50 f i octarender.obj
 0001:00001a50       ?growbuf@?$vector@PEAUoctaentities@@@@QEAAXH@Z 0000000140002a50 f i octarender.obj
 0001:00001a50       ?growbuf@?$vector@PEAUrpgobj@game@@@@QEAAXH@Z 0000000140002a50 f i objset.obj
 0001:00001a50       ?growbuf@?$vector@PEAUShader@@@@QEAAXH@Z 0000000140002a50 f i shader.obj
 0001:00001a50       ?growbuf@?$vector@PEAUpart@animmodel@@@@QEAAXH@Z 0000000140002a50 f i rendermodel.obj
 0001:00001a50       ?growbuf@?$vector@Utcvert@vertmodel@@@@QEAAXH@Z 0000000140002a50 f i rendermodel.obj
 0001:00001a50       ?growbuf@?$vector@PEAUmesh@animmodel@@@@QEAAXH@Z 0000000140002a50 f i rendermodel.obj
 0001:00001a50       ?growbuf@?$vector@PEAD@@QEAAXH@Z 0000000140002a50 f i server.obj
 0001:00001a50       ?growbuf@?$vector@PEAUmaterialsurface@@@@QEAAXH@Z 0000000140002a50 f i pvs.obj
 0001:00001a50       ?growbuf@?$vector@PEAUphysent@@@@QEAAXH@Z 0000000140002a50 f i physics.obj
 0001:00001a50       ?growbuf@?$vector@PEAUskelmeshgroup@skelmodel@@@@QEAAXH@Z 0000000140002a50 f i rendermodel.obj
 0001:00001a50       ?growbuf@?$vector@PEAUTexture@@@@QEAAXH@Z 0000000140002a50 f i rendertext.obj
 0001:00001a50       ?growbuf@?$vector@PEAUvtxarray@@@@QEAAXH@Z 0000000140002a50 f i octarender.obj
 0001:00001af0       ??Rstringformatter@@QEAAXPEBDZZ 0000000140002af0 f i cubeloader.obj
 0001:00001b30       ??0lightcacheentry@@QEAA@XZ 0000000140002b30 f i lightmap.obj
 0001:00001b30       ??0<unnamed-type-waterplanes>@@QEAA@XZ 0000000140002b30 f i pvs.obj
 0001:00001b60       ??1<unnamed-type-waterplanes>@@QEAA@XZ 0000000140002b60 f i pvs.obj
 0001:00001b60       ??1lightcacheentry@@QEAA@XZ 0000000140002b60 f i lightmap.obj
 0001:00001b90       ?add@?$vector@ULightMap@@@@QEAAAEAULightMap@@XZ 0000000140002b90 f i lightmap.obj
 0001:00001c50       ?shrink@?$vector@ULightMap@@@@QEAAXH@Z 0000000140002c50 f i lightmap.obj
 0001:00001cc0       ?add@?$vector@ULightMapTexture@@@@QEAAAEAULightMapTexture@@XZ 0000000140002cc0 f i lightmap.obj
 0001:00001d50       ??1?$vector@PEAUTexture@@@@QEAA@XZ 0000000140002d50 f i rendertext.obj
 0001:00001d50       ??1?$vector@PEAUmaterialsurface@@@@QEAA@XZ 0000000140002d50 f i pvs.obj
 0001:00001d50       ??1?$vector@PEAUplink@@@@QEAA@XZ 0000000140002d50 f i octa.obj
 0001:00001d50       ??1?$vector@I@@QEAA@XZ     0000000140002d50 f i command.obj
 0001:00001d50       ??1?$vector@G@@QEAA@XZ     0000000140002d50 f i octaedit.obj
 0001:00001d50       ??1?$vector@PEAUShader@@@@QEAA@XZ 0000000140002d50 f i shader.obj
 0001:00001d50       ??1?$vector@PEAUpart@animmodel@@@@QEAA@XZ 0000000140002d50 f i rendermodel.obj
 0001:00001d50       ??1?$vector@PEAUident@@@@QEAA@XZ 0000000140002d50 f i command.obj
 0001:00001d50       ??1?$vector@D@@QEAA@XZ     0000000140002d50 f i worldio.obj
 0001:00001d50       ??1?$vector@PEBUextentity@@@@QEAA@XZ 0000000140002d50 f i lightmap.obj
 0001:00001d50       ??1?$vector@PEAUoctaentities@@@@QEAA@XZ 0000000140002d50 f i octarender.obj
 0001:00001d50       ??1?$vector@H@@QEAA@XZ     0000000140002d50 f i lightmap.obj
 0001:00001d50       ??1?$vector@PEAUkeym@@@@QEAA@XZ 0000000140002d50 f i console.obj
 0001:00001d50       ??1?$vector@PEAUphysent@@@@QEAA@XZ 0000000140002d50 f i physics.obj
 0001:00001d50       ??1?$vector@PEAD@@QEAA@XZ  0000000140002d50 f i server.obj
 0001:00001d50       ??1?$vector@E@@QEAA@XZ     0000000140002d50 f i octaedit.obj
 0001:00001d50       ??1?$vector@PEAUskelmeshgroup@skelmodel@@@@QEAA@XZ 0000000140002d50 f i rendermodel.obj
 0001:00001d50       ??1?$vector@PEAUvtxarray@@@@QEAA@XZ 0000000140002d50 f i octarender.obj
 0001:00001d50       ??1?$vector@PEAUmesh@animmodel@@@@QEAA@XZ 0000000140002d50 f i rendermodel.obj
 0001:00001d70       ??0?$vector@E@@QEAA@XZ     0000000140002d70 f i octaedit.obj
 0001:00001d70       ??0?$vector@Uvec@@@@QEAA@XZ 0000000140002d70 f i worldio.obj
 0001:00001d70       ??0?$vector@D@@QEAA@XZ     0000000140002d70 f i worldio.obj
 0001:00001d70       ??0?$vector@Ufacebounds@@@@QEAA@XZ 0000000140002d70 f i octarender.obj
 0001:00001d70       ??0?$vector@Ulightmaptask@@@@QEAA@XZ 0000000140002d70 f i lightmap.obj
 0001:00001d70       ??0?$vector@PEAUShader@@@@QEAA@XZ 0000000140002d70 f i shader.obj
 0001:00001d70       ??0?$vector@G@@QEAA@XZ     0000000140002d70 f i octaedit.obj
 0001:00001d70       ??0?$vector@Umergedface@@@@QEAA@XZ 0000000140002d70 f i octarender.obj
 0001:00001d70       ??0?$vector@PEAUvtxarray@@@@QEAA@XZ 0000000140002d70 f i octarender.obj
 0001:00001d70       ??0?$vector@Utri@BIH@@@@QEAA@XZ 0000000140002d70 f i rendermodel.obj
 0001:00001d70       ??0?$vector@Uanimspec@animmodel@@@@QEAA@XZ 0000000140002d70 f i rendermodel.obj
 0001:00001d80       ??1?$vector@Uufval@unionfind@@@@QEAA@XZ 0000000140002d80 f i material.obj
 0001:00001d80       ??1?$vector@Udualquat@@@@QEAA@XZ 0000000140002d80 f i rendermodel.obj
 0001:00001d80       ??1?$vector@Uvec@@@@QEAA@XZ 0000000140002d80 f i worldio.obj
 0001:00001d80       ??1?$vector@Upitchtarget@skelmodel@@@@QEAA@XZ 0000000140002d80 f i rendermodel.obj
 0001:00001d80       ??1?$vector@Uaviindexentry@@@@QEAA@XZ 0000000140002d80 f i movie.obj
 0001:00001d80       ??1?$vector@Uavisegmentinfo@@@@QEAA@XZ 0000000140002d80 f i movie.obj
 0001:00001d80       ??1?$vector@Umd5joint@@@@QEAA@XZ 0000000140002d80 f i rendermodel.obj
 0001:00001d80       ??1?$vector@Ufacebounds@@@@QEAA@XZ 0000000140002d80 f i octarender.obj
 0001:00001d80       ??1?$vector@Ujoint@ragdollskel@@@@QEAA@XZ 0000000140002d80 f i rendermodel.obj
 0001:00001d80       ??1?$vector@ULocalShaderParamState@@@@QEAA@XZ 0000000140002d80 f i shader.obj
 0001:00001d80       ??1?$vector@Upitchcorrect@skelmodel@@@@QEAA@XZ 0000000140002d80 f i rendermodel.obj
 0001:00001d80       ??1?$vector@Uskelcacheentry@skelmodel@@@@QEAA@XZ 0000000140002d80 f i rendermodel.obj
 0001:00001d80       ??1?$vector@Ubatchedmodel@@@@QEAA@XZ 0000000140002d80 f i rendermodel.obj
 0001:00001d80       ??1?$vector@UUniformLoc@@@@QEAA@XZ 0000000140002d80 f i shader.obj
 0001:00001d80       ??1?$vector@Usmdbone@@@@QEAA@XZ 0000000140002d80 f i rendermodel.obj
 0001:00001d80       ??1?$vector@Uvert@skelmodel@@@@QEAA@XZ 0000000140002d80 f i rendermodel.obj
 0001:00001d80       ??1?$vector@Utri@BIH@@@@QEAA@XZ 0000000140002d80 f i rendermodel.obj
 0001:00001d80       ??1?$vector@Utri@vertmodel@@@@QEAA@XZ 0000000140002d80 f i rendermodel.obj
 0001:00001d80       ??1?$vector@Upoly@@@@QEAA@XZ 0000000140002d80 f i octa.obj
 0001:00001d80       ??1?$vector@Usortkey@@@@QEAA@XZ 0000000140002d80 f i octarender.obj
 0001:00001d80       ??1?$vector@Ueditline@@@@QEAA@XZ 0000000140002d80 f i 3dgui.obj
 0001:00001d80       ??1?$vector@Uwaterinfo@@@@QEAA@XZ 0000000140002d80 f i material.obj
 0001:00001d80       ??1?$vector@Uantipode@skelmodel@@@@QEAA@XZ 0000000140002d80 f i rendermodel.obj
 0001:00001d80       ??1?$vector@Ugrasstri@@@@QEAA@XZ 0000000140002d80 f i octarender.obj
 0001:00001d80       ??1?$vector@Ublendcombo@skelmodel@@@@QEAA@XZ 0000000140002d80 f i rendermodel.obj
 0001:00001d80       ??1?$vector@Uskin@animmodel@@@@QEAA@XZ 0000000140002d80 f i rendermodel.obj
 0001:00001d80       ??1?$vector@Uvvert@skelmodel@@@@QEAA@XZ 0000000140002d80 f i rendermodel.obj
 0001:00001d80       ??1?$vector@Utri@ragdollskel@@@@QEAA@XZ 0000000140002d80 f i rendermodel.obj
 0001:00001d80       ??1?$vector@Uvert@ragdollskel@@@@QEAA@XZ 0000000140002d80 f i rendermodel.obj
 0001:00001d80       ??1?$vector@Utransparentmodel@@@@QEAA@XZ 0000000140002d80 f i rendermodel.obj
 0001:00001d80       ??1?$vector@Uvvertbump@skelmodel@@@@QEAA@XZ 0000000140002d80 f i rendermodel.obj
 0001:00001d80       ??1?$vector@Udistlimit@ragdollskel@@@@QEAA@XZ 0000000140002d80 f i rendermodel.obj
 0001:00001d80       ??1?$vector@Upitchdep@skelmodel@@@@QEAA@XZ 0000000140002d80 f i rendermodel.obj
 0001:00001d80       ??1?$vector@Uivec@@@@QEAA@XZ 0000000140002d80 f i worldio.obj
 0001:00001d80       ??1?$vector@Uvvertw@skelmodel@@@@QEAA@XZ 0000000140002d80 f i rendermodel.obj
 0001:00001d80       ??1?$vector@Umergedface@@@@QEAA@XZ 0000000140002d80 f i octarender.obj
 0001:00001d80       ??1?$vector@Usortitem@@@@QEAA@XZ 0000000140002d80 f i command.obj
 0001:00001d80       ??1?$vector@Uvvert@vertmodel@@@@QEAA@XZ 0000000140002d80 f i rendermodel.obj
 0001:00001d80       ??1?$vector@Uvvertff@vertmodel@@@@QEAA@XZ 0000000140002d80 f i rendermodel.obj
 0001:00001d80       ??1?$vector@Utri@skelmodel@@@@QEAA@XZ 0000000140002d80 f i rendermodel.obj
 0001:00001d80       ??1?$vector@Uvertex@@@@QEAA@XZ 0000000140002d80 f i octarender.obj
 0001:00001d80       ??1?$vector@Urotfriction@ragdollskel@@@@QEAA@XZ 0000000140002d80 f i rendermodel.obj
 0001:00001d80       ??1?$vector@Umaterialsurface@@@@QEAA@XZ 0000000140002d80 f i octarender.obj
 0001:00001d80       ??1?$vector@UBIHNode@@@@QEAA@XZ 0000000140002d80 f i bih.obj
 0001:00001d80       ??1?$vector@Urotlimit@ragdollskel@@@@QEAA@XZ 0000000140002d80 f i rendermodel.obj
 0001:00001d80       ??1?$vector@Uvvertn@skelmodel@@@@QEAA@XZ 0000000140002d80 f i rendermodel.obj
 0001:00001d80       ??1?$vector@UShaderParam@@@@QEAA@XZ 0000000140002d80 f i octaedit.obj
 0001:00001d80       ??1?$vector@Utcvert@vertmodel@@@@QEAA@XZ 0000000140002d80 f i rendermodel.obj
 0001:00001d80       ??1?$vector@Uvert@vertmodel@@@@QEAA@XZ 0000000140002d80 f i rendermodel.obj
 0001:00001d80       ??1?$vector@Uvvertbumpw@skelmodel@@@@QEAA@XZ 0000000140002d80 f i rendermodel.obj
 0001:00001d80       ??1?$vector@Ureljoint@ragdollskel@@@@QEAA@XZ 0000000140002d80 f i rendermodel.obj
 0001:00001d80       ??1?$vector@Ulinkedpart@animmodel@@@@QEAA@XZ 0000000140002d80 f i rendermodel.obj
 0001:00001d80       ??1?$vector@Uanimspec@animmodel@@@@QEAA@XZ 0000000140002d80 f i rendermodel.obj
 0001:00001d80       ??1?$vector@Uvvertbump@vertmodel@@@@QEAA@XZ 0000000140002d80 f i rendermodel.obj
 0001:00001d80       ??1?$vector@Ulightmaptask@@@@QEAA@XZ 0000000140002d80 f i lightmap.obj
 0001:00001d80       ??1?$vector@Ucharinfo@font@@@@QEAA@XZ 0000000140002d80 f i rendertext.obj
 0001:00001d80       ??1?$vector@Umd5hierarchy@@@@QEAA@XZ 0000000140002d80 f i rendermodel.obj
 0001:00001d80       ??1?$vector@Uvec2@@@@QEAA@XZ 0000000140002d80 f i worldio.obj
 0001:00001d80       ??1?$vector@UAttribLoc@@@@QEAA@XZ 0000000140002d80 f i shader.obj
 0001:00001d80       ??1?$vector@UTex@Slot@@@@QEAA@XZ 0000000140002d80 f i texture.obj
 0001:00001da0       ?move@?$vector@Ulightmaptask@@@@QEAAXAEAU1@@Z 0000000140002da0 f i lightmap.obj
 0001:00001e30       ??0?$hashset@Ulayoutinfo@@@@QEAA@H@Z 0000000140002e30 f i lightmap.obj
 0001:00001ec0       ?clear@?$hashset@Ulayoutinfo@@@@QEAAXXZ 0000000140002ec0 f i lightmap.obj
 0001:00001f50       ?growbuf@?$vector@I@@QEAAXH@Z 0000000140002f50 f i command.obj
 0001:00001f50       ?growbuf@?$vector@H@@QEAAXH@Z 0000000140002f50 f i lightmap.obj
 0001:00001ff0       ?growbuf@?$vector@ULightMap@@@@QEAAXH@Z 0000000140002ff0 f i lightmap.obj
 0001:00002090       ?growbuf@?$vector@ULightMapTexture@@@@QEAAXH@Z 0000000140003090 f i lightmap.obj
 0001:00002130       ?growbuf@?$vector@PEAUlightmapworker@@@@QEAAXH@Z 0000000140003130 f i lightmap.obj
 0001:000021d0       ?growbuf@?$vector@Ulightmaptask@@@@QEAAXH@Z 00000001400031d0 f i lightmap.obj
 0001:000021d0       ?growbuf@?$vector@Uvvertbumpw@skelmodel@@@@QEAAXH@Z 00000001400031d0 f i rendermodel.obj
 0001:00002270       ?growbuf@?$vector@Ulightmapext@@@@QEAAXH@Z 0000000140003270 f i lightmap.obj
 0001:00002310       ??$access@Ulightmapinfo@@@?$hashset@Ulayoutinfo@@@@QEAAPEAUlayoutinfo@@AEBUlightmapinfo@@@Z 0000000140003310 f i lightmap.obj
 0001:000023c0       ??$?AUlightmapinfo@@@?$hashset@Ulayoutinfo@@@@QEAAAEAUlayoutinfo@@AEBUlightmapinfo@@@Z 00000001400033c0 f i lightmap.obj
 0001:00002490       ?insert@?$hashset@Ulayoutinfo@@@@QEAAPEAUchain@1@I@Z 0000000140003490 f i lightmap.obj
 0001:00002550       ?dodebug@rendertarget@@UEAAXHH@Z 0000000140003550 f i glare.obj
 0001:00002550       ?killpart@listrenderer@@UEAAXPEAUlistparticle@@@Z 0000000140003550 f i renderparticles.obj
 0001:00002550       ?doclear@rendertarget@@UEAAXXZ 0000000140003550 f i glare.obj
 0001:00002550       ?setglare@model@@UEAAXMM@Z 0000000140003550 f i rendermodel.obj
 0001:00002550       ?render@meshgroup@animmodel@@UEAAXPEBUanimstate@2@MAEBUvec@@1PEAUdynent@@PEAUpart@2@@Z 0000000140003550 f i rendermodel.obj
 0001:00002550       ?setcullface@model@@UEAAX_N@Z 0000000140003550 f i rendermodel.obj
 0001:00002550       ?seedemitter@partrenderer@@UEAAXAEAUparticleemitter@@AEBUvec@@1HMH@Z 0000000140003550 f i renderparticles.obj
 0001:00002550       ?calcbb@mesh@animmodel@@UEAAXHAEAUvec@@0AEBUmatrix3x4@@@Z 0000000140003550 f i rendermodel.obj
 0001:00002550       ?preload@meshgroup@animmodel@@UEAAXPEAUpart@2@@Z 0000000140003550 f i rendermodel.obj
 0001:00002550       ?startrender@textrenderer@@UEAAXXZ 0000000140003550 f i renderparticles.obj
 0001:00002550       ?pushlist@g3d_gui@@UEAAXXZ 0000000140003550 f i 3dgui.obj
 0001:00002550       ?preloadmeshes@model@@UEAAXXZ 0000000140003550 f i rendermodel.obj
 0001:00002550       ?cleanup@meshgroup@animmodel@@UEAAXXZ 0000000140003550 f i rendermodel.obj
 0001:00002550       ?setshader@model@@UEAAXPEAUShader@@@Z 0000000140003550 f i rendermodel.obj
 0001:00002550       ?preloadshaders@model@@UEAAXXZ 0000000140003550 f i rendermodel.obj
 0001:00002550       ?init@partrenderer@@UEAAXH@Z 0000000140003550 f i renderparticles.obj
 0001:00002550       ?concattagtransform@meshgroup@animmodel@@UEAAXPEAUpart@2@HHAEBUmatrix3x4@@AEAU4@@Z 0000000140003550 f i rendermodel.obj
 0001:00002550       ?endrender@model@@UEAAXXZ  0000000140003550 f i rendermodel.obj
 0001:00002550       ?cleanup@model@@UEAAXXZ    0000000140003550 f i rendermodel.obj
 0001:00002550       ?setalphatest@model@@UEAAXM@Z 0000000140003550 f i rendermodel.obj
 0001:00002550       ?startrender@model@@UEAAXXZ 0000000140003550 f i rendermodel.obj
 0001:00002550       ?update@partrenderer@@UEAAXXZ 0000000140003550 f i renderparticles.obj
 0001:00002550       ?resettracked@partrenderer@@UEAAXPEAUphysent@@@Z 0000000140003550 f i renderparticles.obj
 0001:00002550       ??3@YAXPEAX0@Z             0000000140003550 f i lightmap.obj
 0001:00002550       ?setambient@model@@UEAAXM@Z 0000000140003550 f i rendermodel.obj
 0001:00002550       ?poplist@g3d_gui@@UEAAXXZ  0000000140003550 f i 3dgui.obj
 0001:00002550       ?setglow@model@@UEAAXMMM@Z 0000000140003550 f i rendermodel.obj
 0001:00002550       ?endrender@textrenderer@@UEAAXXZ 0000000140003550 f i renderparticles.obj
 0001:00002550       ?setenvmap@model@@UEAAXMMPEAUTexture@@@Z 0000000140003550 f i rendermodel.obj
 0001:00002550       ?setalphablend@model@@UEAAX_N@Z 0000000140003550 f i rendermodel.obj
 0001:00002550       ?setspec@model@@UEAAXM@Z   0000000140003550 f i rendermodel.obj
 0001:00002550       ?setfullbright@model@@UEAAXM@Z 0000000140003550 f i rendermodel.obj
 0001:00002550       ?gentris@mesh@animmodel@@UEAAXHPEAUTexture@@PEAU?$vector@Utri@BIH@@@@AEBUmatrix3x4@@@Z 0000000140003550 f i rendermodel.obj
 0001:00002550       ?cleanup@partrenderer@@UEAAXXZ 0000000140003550 f i renderparticles.obj
 0001:00002560       ?calcsize@ImageData@@QEBAHXZ 0000000140003560 f i lightmap.obj
 0001:00002610       ?boundbox@model@@QEAAXHAEAUvec@@0@Z 0000000140003610 f i lightmap.obj
 0001:000026c0       ?above@model@@QEAAMH@Z     00000001400036c0 f i lightmap.obj
 0001:00002740       ?toplane@plane@@QEAA_NAEBUvec@@00@Z 0000000140003740 f i lightmap.obj
 0001:00002880       ??0clipplanes@@QEAA@XZ     0000000140003880 f i octa.obj
 0001:00002880       ??0plane@@QEAA@XZ          0000000140003880 f i lightmap.obj
 0001:00002880       ??0entity@@QEAA@XZ         0000000140003880 f i lightmap.obj
 0001:00002890       ?orthonormalize@vec@@QEBAXAEAU1@0@Z 0000000140003890 f i lightmap.obj
 0001:00002a10       ?iszero@vec@@QEBA_NXZ      0000000140003a10 f i lightmap.obj
 0001:00002a30       ??1PackNode@@QEAA@XZ       0000000140003a30 f i lightmap.obj
 0001:00002a40       ?clear@PackNode@@QEAAXXZ   0000000140003a40 f i lightmap.obj
 0001:00002aa0       ??0?$hashset@Unormalgroup@@@@QEAA@H@Z 0000000140003aa0 f i normal.obj
 0001:00002b30       ?clear@?$hashset@Unormalgroup@@@@QEAAXXZ 0000000140003b30 f i normal.obj
 0001:00002bc0       ?growbuf@?$vector@Unormal@@@@QEAAXH@Z 0000000140003bc0 f i normal.obj
 0001:00002c60       ?growbuf@?$vector@Utnormal@@@@QEAAXH@Z 0000000140003c60 f i normal.obj
 0001:00002d00       ??$access@Uvec@@U1@@?$hashset@Unormalgroup@@@@QEAAAEAUnormalgroup@@AEBUvec@@0@Z 0000000140003d00 f i normal.obj
 0001:00002dc0       ??$access@Uvec@@@?$hashset@Unormalgroup@@@@QEAAPEAUnormalgroup@@AEBUvec@@@Z 0000000140003dc0 f i normal.obj
 0001:00002e30       ?insert@?$hashset@Unormalgroup@@@@QEAAPEAUchain@1@I@Z 0000000140003e30 f i normal.obj
 0001:00002f30       ?cross@vec@@QEAAAEAU1@AEBU1@00@Z 0000000140003f30 f i normal.obj
 0001:00002fe0       ??1?$hashset@U?$hashtableentry@Uivec@@H@@@@QEAA@XZ 0000000140003fe0 f i rendermodel.obj
 0001:00002fe0       ??1?$hashset@U?$hashtableentry@Uvec@@H@@@@QEAA@XZ 0000000140003fe0 f i worldio.obj
 0001:00002fe0       ??1?$hashset@U?$hashtableentry@Uvec2@@H@@@@QEAA@XZ 0000000140003fe0 f i worldio.obj
 0001:00002fe0       ??1?$hashset@Uplink@@@@QEAA@XZ 0000000140003fe0 f i octa.obj
 0001:00003040       ??1?$hashset@U?$hashtableentry@Ucfkey@@Ucfpolys@@@@@@QEAA@XZ 0000000140004040 f i octa.obj
 0001:00003070       ?growbuf@?$vector@Upoly@@@@QEAAXH@Z 0000000140004070 f i octa.obj
 0001:00003110       ??0?$hashset@U?$hashtableentry@Ucfkey@@Ucfpolys@@@@@@QEAA@H@Z 0000000140004110 f i octa.obj
 0001:000031a0       ?deletechunks@?$hashset@U?$hashtableentry@Ucfkey@@Ucfpolys@@@@@@QEAAXXZ 00000001400041a0 f i octa.obj
 0001:00003230       ??1chain@?$hashset@U?$hashtableentry@Ucfkey@@Ucfpolys@@@@@@QEAA@XZ 0000000140004230 f i octa.obj
 0001:00003280       ??1?$hashtableentry@Ucfkey@@Ucfpolys@@@@QEAA@XZ 0000000140004280 f i octa.obj
 0001:000032d0       ??1cfpolys@@QEAA@XZ        00000001400042d0 f i octa.obj
 0001:000032d0       ??1unionfind@@QEAA@XZ      00000001400042d0 f i material.obj
 0001:00003310       ?insert@?$hashset@U?$hashtableentry@Ucfkey@@Ucfpolys@@@@@@QEAAPEAUchain@1@I@Z 0000000140004310 f i octa.obj
 0001:00003410       ??0chain@?$hashset@U?$hashtableentry@Ucfkey@@Ucfpolys@@@@@@QEAA@XZ 0000000140004410 f i octa.obj
 0001:00003440       ?insert@?$hashset@Uplink@@@@QEAAPEAUchain@1@I@Z 0000000140004440 f i octa.obj
 0001:00003520       ??1octabrush@@QEAA@XZ      0000000140004520 f i octaedit.obj
 0001:00003560       ?gui@texturegui@@UEAAXAEAUg3d_gui@@_N@Z 0000000140004560 f i octaedit.obj
 0001:00003800       ?showtextures@texturegui@@QEAAX_N@Z 0000000140004800 f i octaedit.obj
 0001:00003950       ?show@texturegui@@QEAAXXZ  0000000140004950 f i octaedit.obj
 0001:00003a10       ??_Emenu@@UEAAPEAXI@Z      0000000140004a10 f i * CIL library *:* CIL module *
 0001:00003a10       ??_Grpgmenu@game@@UEAAPEAXI@Z 0000000140004a10 f i rpg.obj
 0001:00003a10       ??_Gtexturegui@@UEAAPEAXI@Z 0000000140004a10 f i octaedit.obj
 0001:00003a10       ??_Etexturegui@@UEAAPEAXI@Z 0000000140004a10 f i * CIL library *:* CIL module *
 0001:00003a10       ??_Erpgmenu@game@@UEAAPEAXI@Z 0000000140004a10 f i * CIL library *:* CIL module *
 0001:00003a10       ??_Gmenu@@UEAAPEAXI@Z      0000000140004a10 f i menus.obj
 0001:00003a50       ??0?$hashset@Uoctabrush@@@@QEAA@H@Z 0000000140004a50 f i octaedit.obj
 0001:00003ae0       ??1?$hashset@Uoctabrush@@@@QEAA@XZ 0000000140004ae0 f i octaedit.obj
 0001:00003b70       ?growbuf@?$vector@Uvvertw@skelmodel@@@@QEAAXH@Z 0000000140004b70 f i rendermodel.obj
 0001:00003b70       ?growbuf@?$vector@Upitchdep@skelmodel@@@@QEAAXH@Z 0000000140004b70 f i rendermodel.obj
 0001:00003b70       ?growbuf@?$vector@Uvert@skelmodel@@@@QEAAXH@Z 0000000140004b70 f i rendermodel.obj
 0001:00003b70       ?growbuf@?$vector@UShaderParam@@@@QEAAXH@Z 0000000140004b70 f i octaedit.obj
 0001:00003c10       ?growbuf@?$vector@G@@QEAAXH@Z 0000000140004c10 f i octaedit.obj
 0001:00003cb0       ?growbuf@?$vector@PEAUeditinfo@@@@QEAAXH@Z 0000000140004cb0 f i octaedit.obj
 0001:00003d50       ?growbuf@?$vector@Uvslotmap@@@@QEAAXH@Z 0000000140004d50 f i octaedit.obj
 0001:00003df0       ??1chain@?$hashset@Uoctabrush@@@@QEAA@XZ 0000000140004df0 f i octaedit.obj
 0001:00003e40       ??$remove@PEAD@?$hashset@Uoctabrush@@@@QEAA_NAEBQEAD@Z 0000000140004e40 f i octaedit.obj
 0001:00003f50       ??$access@PEAD@?$hashset@Uoctabrush@@@@QEAAPEAUoctabrush@@AEBQEAD@Z 0000000140004f50 f i octaedit.obj
 0001:00003fe0       ??$?APEAD@?$hashset@Uoctabrush@@@@QEAAAEAUoctabrush@@AEBQEAD@Z 0000000140004fe0 f i octaedit.obj
 0001:00004070       ?insert@?$hashset@Uoctabrush@@@@QEAAPEAUchain@1@I@Z 0000000140005070 f i octaedit.obj
 0001:00004170       ??0chain@?$hashset@Uoctabrush@@@@QEAA@XZ 0000000140005170 f i octaedit.obj
 0001:000041a0       ?growbuf@?$vector@D@@QEAAXH@Z 00000001400051a0 f i worldio.obj
 0001:000041a0       ?growbuf@?$vector@E@@QEAAXH@Z 00000001400051a0 f i octaedit.obj
 0001:00004230       ??_Gg3d_callback@@UEAAPEAXI@Z 0000000140005230 f i octaedit.obj
 0001:00004230       ??_Eg3d_callback@@UEAAPEAXI@Z 0000000140005230 f i * CIL library *:* CIL module *
 0001:00004260       ??1g3d_callback@@UEAA@XZ   0000000140005260 f i octaedit.obj
 0001:00004270       ??1VSlot@@QEAA@XZ          0000000140005270 f i octaedit.obj
 0001:000042b0       ?reset@VSlot@@QEAAXXZ      00000001400052b0 f i octaedit.obj
 0001:00004330       ??0VSlot@@QEAA@PEAUSlot@@H@Z 0000000140005330 f i octaedit.obj
 0001:000043b0       ?set@Shader@@QEAAXXZ       00000001400053b0 f i octaedit.obj
 0001:000043f0       ??1?$hashtable@IUvboinfo@@@@QEAA@XZ 00000001400053f0 f i octarender.obj
 0001:00004470       ?addvert@verthash@@QEAAHAEBUvertex@@@Z 0000000140005470 f i octarender.obj
 0001:00004640       ?remapunlit@vacollect@@QEAAXAEAU?$vector@Usortkey@@@@@Z 0000000140005640 f i octarender.obj
 0001:00004ec0       ?optimize@vacollect@@QEAAXXZ 0000000140005ec0 f i octarender.obj
 0001:000053e0       ?texsort@vacollect@@SA_NAEBUsortkey@@0@Z 00000001400063e0 f i octarender.obj
 0001:00005520       ?genverts@vacollect@@QEAAXPEAX@Z 0000000140006520 f i octarender.obj
 0001:00005670       ?setupdata@vacollect@@QEAAXPEAUvtxarray@@@Z 0000000140006670 f i octarender.obj
 0001:00005ed0       ??0vacollect@@QEAA@XZ      0000000140006ed0 f i octarender.obj
 0001:00005fd0       ??1vacollect@@QEAA@XZ      0000000140006fd0 f i octarender.obj
 0001:00006100       ??1verthash@@QEAA@XZ       0000000140007100 f i octarender.obj
 0001:00006170       ??1?$hashtable@Usortkey@@Usortval@@@@QEAA@XZ 0000000140007170 f i octarender.obj
 0001:000061b0       ??1?$hashtable@Uedgegroup@@H@@QEAA@XZ 00000001400071b0 f i octarender.obj
 0001:00006230       ??1vtxarray@@QEAA@XZ       0000000140007230 f i octarender.obj
 0001:000062b0       ?removeobj@?$vector@PEAUmesh@animmodel@@@@QEAAXAEBQEAUmesh@animmodel@@@Z 00000001400072b0 f i rendermodel.obj
 0001:000062b0       ?removeobj@?$vector@PEAUvtxarray@@@@QEAAXAEBQEAUvtxarray@@@Z 00000001400072b0 f i octarender.obj
 0001:00006350       ??1?$hashset@U?$hashtableentry@IUvboinfo@@@@@@QEAA@XZ 0000000140007350 f i octarender.obj
 0001:000063b0       ??A?$hashtable@Usortkey@@Usortval@@@@QEAAAEAUsortval@@AEBUsortkey@@@Z 00000001400073b0 f i octarender.obj
 0001:00006450       ??1?$hashset@U?$hashtableentry@Usortkey@@Usortval@@@@@@QEAA@XZ 0000000140007450 f i octarender.obj
 0001:00006480       ?clear@?$hashset@U?$hashtableentry@Usortkey@@Usortval@@@@@@QEAAXXZ 0000000140007480 f i octarender.obj
 0001:00006520       ??1?$hashset@U?$hashtableentry@Uedgegroup@@H@@@@QEAA@XZ 0000000140007520 f i octarender.obj
 0001:00006580       ?move@?$vector@Umergedface@@@@QEAAXAEAU1@@Z 0000000140007580 f i octarender.obj
 0001:00006610       ?growbuf@?$vector@Ugrasstri@@@@QEAAXH@Z 0000000140007610 f i octarender.obj
 0001:000066b0       ?growbuf@?$vector@Utjoint@@@@QEAAXH@Z 00000001400076b0 f i octarender.obj
 0001:00006750       ??0?$hashset@U?$hashtableentry@IUvboinfo@@@@@@QEAA@H@Z 0000000140007750 f i octarender.obj
 0001:000067e0       ?growbuf@?$vector@Udualquat@@@@QEAAXH@Z 00000001400077e0 f i rendermodel.obj
 0001:000067e0       ?growbuf@?$vector@Ublendcombo@skelmodel@@@@QEAAXH@Z 00000001400077e0 f i rendermodel.obj
 0001:000067e0       ?growbuf@?$vector@Upitchcorrect@skelmodel@@@@QEAAXH@Z 00000001400077e0 f i rendermodel.obj
 0001:000067e0       ?growbuf@?$vector@Uvertex@@@@QEAAXH@Z 00000001400077e0 f i octarender.obj
 0001:000067e0       ?growbuf@?$vector@Umaterialsurface@@@@QEAAXH@Z 00000001400077e0 f i material.obj
 0001:000067e0       ?growbuf@?$vector@Umergedface@@@@QEAAXH@Z 00000001400077e0 f i octarender.obj
 0001:00006880       ??0?$hashset@U?$hashtableentry@Usortkey@@Usortval@@@@@@QEAA@H@Z 0000000140007880 f i octarender.obj
 0001:00006910       ?deletechunks@?$hashset@U?$hashtableentry@Usortkey@@Usortval@@@@@@QEAAXXZ 0000000140007910 f i octarender.obj
 0001:00006990       ?growbuf@?$vector@Usortkey@@@@QEAAXH@Z 0000000140007990 f i octarender.obj
 0001:00006a30       ?growbuf@?$vector@Ucubeedge@@@@QEAAXH@Z 0000000140007a30 f i octarender.obj
 0001:00006ad0       ??0?$hashset@U?$hashtableentry@Uedgegroup@@H@@@@QEAA@H@Z 0000000140007ad0 f i octarender.obj
 0001:00006b60       ??1chain@?$hashset@U?$hashtableentry@Usortkey@@Usortval@@@@@@QEAA@XZ 0000000140007b60 f i octarender.obj
 0001:00006ba0       ??1?$hashtableentry@Usortkey@@Usortval@@@@QEAA@XZ 0000000140007ba0 f i octarender.obj
 0001:00006be0       ??1sortval@@QEAA@XZ        0000000140007be0 f i octarender.obj
 0001:00006c10       ?insert@?$hashset@U?$hashtableentry@IUvboinfo@@@@@@QEAAPEAUchain@1@I@Z 0000000140007c10 f i octarender.obj
 0001:00006ce0       ?insert@?$hashset@U?$hashtableentry@Usortkey@@Usortval@@@@@@QEAAPEAUchain@1@I@Z 0000000140007ce0 f i octarender.obj
 0001:00006de0       ?insert@?$hashset@U?$hashtableentry@Uedgegroup@@H@@@@QEAAPEAUchain@1@I@Z 0000000140007de0 f i octarender.obj
 0001:00006eb0       ??0chain@?$hashset@U?$hashtableentry@Usortkey@@Usortval@@@@@@QEAA@XZ 0000000140007eb0 f i octarender.obj
 0001:00006f10       ?supportpoint@CubePlanes@mpr@@QEBA?AUvec@@AEBU3@@Z 0000000140007f10 f i physics.obj
 0001:000070d0       ?contactface@EntOBB@mpr@@QEBA?AUvec@@AEBU3@0@Z 00000001400080d0 f i physics.obj
 0001:000072b0       ?supportpoint@EntOBB@mpr@@QEBA?AUvec@@AEBU3@@Z 00000001400082b0 f i physics.obj
 0001:000073b0       ?supportpoint@EntCapsule@mpr@@QEBA?AUvec@@AEBU3@@Z 00000001400083b0 f i physics.obj
 0001:00007480       ??0ModelOBB@mpr@@QEAA@AEBUvec@@00M@Z 0000000140008480 f i physics.obj
 0001:00007480       ??0ModelEllipse@mpr@@QEAA@AEBUvec@@00M@Z 0000000140008480 f i physics.obj
 0001:00007560       ?contactface@ModelOBB@mpr@@QEBA?AUvec@@AEBU3@0@Z 0000000140008560 f i physics.obj
 0001:00007720       ?supportpoint@ModelOBB@mpr@@QEBA?AUvec@@AEBU3@@Z 0000000140008720 f i physics.obj
 0001:00007800       ?contactface@ModelEllipse@mpr@@QEBA?AUvec@@AEBU3@0@Z 0000000140008800 f i physics.obj
 0001:000079a0       ?supportpoint@ModelEllipse@mpr@@QEBA?AUvec@@AEBU3@@Z 00000001400089a0 f i physics.obj
 0001:00007ac0       ??0dynentcacheentry@@QEAA@XZ 0000000140008ac0 f i physics.obj
 0001:00007af0       ??1dynentcacheentry@@QEAA@XZ 0000000140008af0 f i physics.obj
 0001:00007b20       ??$collide@UEntOBB@mpr@@UEntCylinder@2@@mpr@@YA_NAEBUEntOBB@0@AEBUEntCylinder@0@PEAUvec@@22@Z 0000000140008b20 f i physics.obj
 0001:00008cd0       ??$collide@UEntOBB@mpr@@U12@@mpr@@YA_NAEBUEntOBB@0@0PEAUvec@@11@Z 0000000140009cd0 f i physics.obj
 0001:00009cd0       ??$collide@UEntOBB@mpr@@UModelEllipse@2@@mpr@@YA_NAEBUEntOBB@0@AEBUModelEllipse@0@PEAUvec@@22@Z 000000014000acd0 f i physics.obj
 0001:0000acb0       ??$collide@UEntOBB@mpr@@UModelOBB@2@@mpr@@YA_NAEBUEntOBB@0@AEBUModelOBB@0@PEAUvec@@22@Z 000000014000bcb0 f i physics.obj
 0001:0000bf40       ??$collide@USolidCube@mpr@@UEntOBB@2@@mpr@@YA_NAEBUSolidCube@0@AEBUEntOBB@0@@Z 000000014000cf40 f i physics.obj
 0001:0000cae0       ??$collide@UCubePlanes@mpr@@UEntOBB@2@@mpr@@YA_NAEBUCubePlanes@0@AEBUEntOBB@0@@Z 000000014000dae0 f i physics.obj
 0001:0000d5a0       ??$collide@USolidCube@mpr@@UEntCapsule@2@@mpr@@YA_NAEBUSolidCube@0@AEBUEntCapsule@0@@Z 000000014000e5a0 f i physics.obj
 0001:0000e220       ??$collide@UCubePlanes@mpr@@UEntCapsule@2@@mpr@@YA_NAEBUCubePlanes@0@AEBUEntCapsule@0@@Z 000000014000f220 f i physics.obj
 0001:0000ee50       ?projectxy@vec@@QEAAAEAU1@AEBU1@@Z 000000014000fe50 f i physics.obj
 0001:0000ef60       ?projectxy@vec@@QEAAAEAU1@AEBU1@M@Z 000000014000ff60 f i physics.obj
 0001:0000f080       ?collisionbox@model@@QEAAXHAEAUvec@@0@Z 0000000140010080 f i physics.obj
 0001:0000f0f0       ?rotate@quat@@QEBA?AUvec@@AEBU2@@Z 00000001400100f0 f i physics.obj
 0001:0000f220       ?invertedrotate@quat@@QEBA?AUvec@@AEBU2@@Z 0000000140010220 f i physics.obj
 0001:0000f350       ?calcshaft@shaft@@QEAAXAEBUshaftbb@@0@Z 0000000140010350 f i pvs.obj
 0001:0000f600       ?inside@shaft@@QEBA_NAEBUshaftbb@@@Z 0000000140010600 f i pvs.obj
 0001:0000f6c0       ??1?$hashtable@Upvsdata@@H@@QEAA@XZ 00000001400106c0 f i pvs.obj
 0001:0000f740       ??0pvsworker@@QEAA@XZ      0000000140010740 f i pvs.obj
 0001:0000f7c0       ??1pvsworker@@QEAA@XZ      00000001400107c0 f i pvs.obj
 0001:0000f810       ?hasvoxel@pvsworker@@QEAAHAEBUivec@@HHHHPEAH@Z 0000000140010810 f i pvs.obj
 0001:0000fb50       ?hidepvs@pvsworker@@QEAAXAEAUpvsnode@@@Z 0000000140010b50 f i pvs.obj
 0001:0000fbd0       ?shaftcullpvs@pvsworker@@QEAAXAEAUshaft@@AEAUpvsnode@@AEBUivec@@H@Z 0000000140010bd0 f i pvs.obj
 0001:0000ff50       ?cullpvs@pvsworker@@QEAAXAEAUpvsnode@@AEBUivec@@H@Z 0000000140010f50 f i pvs.obj
 0001:000111e0       ?compresspvs@pvsworker@@QEAA_NAEAUpvsnode@@HH@Z 00000001400121e0 f i pvs.obj
 0001:00011360       ?serializepvs@pvsworker@@QEAA_NAEAUpvsnode@@H@Z 0000000140012360 f i pvs.obj
 0001:000115d0       ?materialoccluded@pvsworker@@QEAA_NAEAUpvsnode@@AEBUivec@@H11@Z 00000001400125d0 f i pvs.obj
 0001:000116f0       ?materialoccluded@pvsworker@@QEAA_NAEAU?$vector@PEAUmaterialsurface@@@@@Z 00000001400126f0 f i pvs.obj
 0001:00011910       ?calcpvs@pvsworker@@QEAAXAEBUivec@@H@Z 0000000140012910 f i pvs.obj
 0001:00011ae0       ?genviewcell@pvsworker@@QEAAHAEBUivec@@H@Z 0000000140012ae0 f i pvs.obj
 0001:00011e10       ?run@pvsworker@@SAHPEAX@Z  0000000140012e10 f i pvs.obj
 0001:00011ed0       ??_Gviewcellnode@@QEAAPEAXI@Z 0000000140012ed0 f i pvs.obj
 0001:00011f40       ?add@?$vector@Upvsnode@@@@QEAAAEAUpvsnode@@XZ 0000000140012f40 f i pvs.obj
 0001:00011fb0       ??A?$hashtable@Upvsdata@@H@@QEAAAEAHAEBUpvsdata@@@Z 0000000140012fb0 f i pvs.obj
 0001:00012080       ??1?$hashset@U?$hashtableentry@Upvsdata@@H@@@@QEAA@XZ 0000000140013080 f i pvs.obj
 0001:000120e0       ?add@?$vector@Uviewcellrequest@@@@QEAAAEAUviewcellrequest@@XZ 00000001400130e0 f i pvs.obj
 0001:00012160       ?deletecontents@?$vector@PEAUpvsworker@@@@QEAAXXZ 0000000140013160 f i pvs.obj
 0001:000121f0       ?growbuf@?$vector@Upvsnode@@@@QEAAXH@Z 00000001400131f0 f i pvs.obj
 0001:00012290       ??0?$hashset@U?$hashtableentry@Upvsdata@@H@@@@QEAA@H@Z 0000000140013290 f i pvs.obj
 0001:00012320       ?growbuf@?$vector@Upvsdata@@@@QEAAXH@Z 0000000140013320 f i pvs.obj
 0001:000123c0       ?growbuf@?$vector@Uviewcellrequest@@@@QEAAXH@Z 00000001400133c0 f i pvs.obj
 0001:00012460       ?growbuf@?$vector@PEAUpvsworker@@@@QEAAXH@Z 0000000140013460 f i pvs.obj
 0001:00012500       ?insert@?$hashset@U?$hashtableentry@Upvsdata@@H@@@@QEAAPEAUchain@1@I@Z 0000000140013500 f i pvs.obj
 0001:000125d0       ??$getlil@G@stream@@QEAAGXZ 00000001400135d0 f i pvs.obj
 0001:00012600       ?removeobj@?$vector@H@@QEAAXAEBH@Z 0000000140013600 f i world.obj
 0001:00012690       ?add@?$vector@Uentity@@@@QEAAAEAUentity@@AEBU2@@Z 0000000140013690 f i world.obj
 0001:00012720       ?growbuf@?$vector@Uentity@@@@QEAAXH@Z 0000000140013720 f i world.obj
 0001:000127c0       ?rotate@vec@@QEAAAEAU1@MMAEBU1@@Z 00000001400137c0 f i world.obj
 0001:00012940       ?orthogonal@vec@@QEAAXAEBU1@@Z 0000000140013940 f i world.obj
 0001:000129f0       ?concatstring@@YAPEADPEADPEBD_K@Z 00000001400139f0 f i world.obj
 0001:00012a30       ??1?$hashtable@Uvec2@@H@@QEAA@XZ 0000000140013a30 f i worldio.obj
 0001:00012a30       ??1?$hashtable@Uvec@@H@@QEAA@XZ 0000000140013a30 f i worldio.obj
 0001:00012a30       ??1?$hashtable@Uivec@@H@@QEAA@XZ 0000000140013a30 f i rendermodel.obj
 0001:00012aa0       ??1?$hashtable@HU?$vector@Uivec@@@@@@QEAA@XZ 0000000140013aa0 f i worldio.obj
 0001:00012ae0       ??1?$hashset@U?$hashtableentry@HU?$vector@Uivec@@@@@@@@QEAA@XZ 0000000140013ae0 f i worldio.obj
 0001:00012b10       ?growbuf@?$vector@PEAUVSlot@@@@QEAAXH@Z 0000000140013b10 f i worldio.obj
 0001:00012bb0       ?growbuf@?$vector@Uivec@@@@QEAAXH@Z 0000000140013bb0 f i worldio.obj
 0001:00012bb0       ?growbuf@?$vector@Usoundconfig@@@@QEAAXH@Z 0000000140013bb0 f i sound.obj
 0001:00012bb0       ?growbuf@?$vector@Utri@ragdollskel@@@@QEAAXH@Z 0000000140013bb0 f i rendermodel.obj
 0001:00012bb0       ?growbuf@?$vector@Uvec@@@@QEAAXH@Z 0000000140013bb0 f i worldio.obj
 0001:00012c50       ?deletechunks@?$hashset@U?$hashtableentry@HU?$vector@Uivec@@@@@@@@QEAAXXZ 0000000140013c50 f i worldio.obj
 0001:00012ce0       ??1chain@?$hashset@U?$hashtableentry@HU?$vector@Uivec@@@@@@@@QEAA@XZ 0000000140013ce0 f i worldio.obj
 0001:00012d20       ??1?$hashtableentry@HU?$vector@Uivec@@@@@@QEAA@XZ 0000000140013d20 f i worldio.obj
 0001:00012d60       ?insert@?$hashset@U?$hashtableentry@HU?$vector@Uivec@@@@@@@@QEAAPEAUchain@1@I@Z 0000000140013d60 f i worldio.obj
 0001:00012e60       ??0chain@?$hashset@U?$hashtableentry@HU?$vector@Uivec@@@@@@@@QEAA@XZ 0000000140013e60 f i worldio.obj
 0001:00012e90       ??$getlil@M@stream@@QEAAMXZ 0000000140013e90 f i worldio.obj
 0001:00012ec0       ??1packetbuf@@QEAA@XZ      0000000140013ec0 f i client.obj
 0001:00012f00       ?put@?$vector@D@@QEAAXPEBDH@Z 0000000140013f00 f i server.obj
 0001:00012f50       ?growbuf@?$vector@PEAUclient@@@@QEAAXH@Z 0000000140013f50 f i server.obj
 0001:00012ff0       ?addping@serverinfo@@QEAAXHH@Z 0000000140013ff0 f i serverbrowser.obj
 0001:000130a0       ?compare@serverinfo@@SA_NPEAU1@0@Z 00000001400140a0 f i serverbrowser.obj
 0001:00013130       ??_Gserverinfo@@QEAAPEAXI@Z 0000000140014130 f i serverbrowser.obj
 0001:00013190       ?deletecontents@?$vector@PEAUserverinfo@@@@QEAAXXZ 0000000140014190 f i serverbrowser.obj
 0001:00013220       ?growbuf@?$vector@Uresolverthread@@@@QEAAXH@Z 0000000140014220 f i serverbrowser.obj
 0001:000132c0       ?growbuf@?$vector@Uresolverresult@@@@QEAAXH@Z 00000001400142c0 f i serverbrowser.obj
 0001:00013360       ?growbuf@?$vector@PEAUserverinfo@@@@QEAAXH@Z 0000000140014360 f i serverbrowser.obj
 0001:00013400       ?grow@editline@@QEAA_NHPEBDZZ 0000000140014400 f i 3dgui.obj
 0001:000134b0       ?set@editline@@QEAAXPEBDH@Z 00000001400144b0 f i 3dgui.obj
 0001:00013550       ?prepend@editline@@QEAAXPEBD@Z 0000000140014550 f i 3dgui.obj
 0001:000135f0       ?append@editline@@QEAAXPEBD@Z 00000001400145f0 f i 3dgui.obj
 0001:00013670       ?read@editline@@QEAA_NPEAUstream@@H@Z 0000000140014670 f i 3dgui.obj
 0001:00013800       ?del@editline@@QEAAXHH@Z   0000000140014800 f i 3dgui.obj
 0001:00013870       ?insert@editline@@QEAAXPEADHH@Z 0000000140014870 f i 3dgui.obj
 0001:00013940       ?combinelines@editline@@QEAAXAEAU?$vector@Ueditline@@@@@Z 0000000140014940 f i 3dgui.obj
 0001:00013a60       ??0editor@@QEAA@PEBDH0@Z   0000000140014a60 f i 3dgui.obj
 0001:00013b70       ??1editor@@QEAA@XZ         0000000140014b70 f i 3dgui.obj
 0001:00013c50       ?clear@editor@@QEAAXPEBD@Z 0000000140014c50 f i 3dgui.obj
 0001:00013d70       ?setfile@editor@@QEAAXPEBD@Z 0000000140014d70 f i 3dgui.obj
 0001:00013dc0       ?load@editor@@QEAAXXZ      0000000140014dc0 f i 3dgui.obj
 0001:00013f50       ?save@editor@@QEAAXXZ      0000000140014f50 f i 3dgui.obj
 0001:00013fd0       ?region@editor@@QEAA_NXZ   0000000140014fd0 f i 3dgui.obj
 0001:000140c0       ?currentline@editor@@QEAAAEAUeditline@@XZ 00000001400150c0 f i 3dgui.obj
 0001:00014110       ?copyselectionto@editor@@QEAAXPEAU1@@Z 0000000140015110 f i 3dgui.obj
 0001:00014420       ?tostring@editor@@QEAAPEADXZ 0000000140015420 f i 3dgui.obj
 0001:000145a0       ?selectiontostring@editor@@QEAAPEADXZ 00000001400155a0 f i 3dgui.obj
 0001:000149a0       ?removelines@editor@@QEAAXHH@Z 00000001400159a0 f i 3dgui.obj
 0001:00014a80       ?del@editor@@QEAA_NXZ      0000000140015a80 f i 3dgui.obj
 0001:00014d30       ?insert@editor@@QEAAXD@Z   0000000140015d30 f i 3dgui.obj
 0001:00014f20       ?insert@editor@@QEAAXPEBD@Z 0000000140015f20 f i 3dgui.obj
 0001:000151d0       ?insertallfrom@editor@@QEAAXPEAU1@@Z 00000001400161d0 f i 3dgui.obj
 0001:000153f0       ?key@editor@@QEAAXHH@Z     00000001400163f0 f i 3dgui.obj
 0001:00015820       ?hit@editor@@QEAAXHH_N@Z   0000000140016820 f i 3dgui.obj
 0001:00015950       ?limitscrolly@editor@@QEAAHXZ 0000000140016950 f i 3dgui.obj
 0001:00015a20       ?draw@editor@@QEAAXHHH_N@Z 0000000140016a20 f i 3dgui.obj
 0001:000162d0       ?allowautotab@gui@@UEAAX_N@Z 00000001400172d0 f i 3dgui.obj
 0001:000162e0       ?autotab@gui@@QEAAXXZ      00000001400172e0 f i 3dgui.obj
 0001:00016360       ?shouldtab@gui@@UEAA_NXZ   0000000140017360 f i 3dgui.obj
 0001:00016420       ?tab@gui@@UEAAXPEBDH@Z     0000000140017420 f i 3dgui.obj
 0001:000166f0       ?pushlist@gui@@UEAAXXZ     00000001400176f0 f i 3dgui.obj
 0001:00016890       ?poplist@gui@@UEAAXXZ      0000000140017890 f i 3dgui.obj
 0001:000169c0       ?text@gui@@UEAAHPEBDH0@Z   00000001400179c0 f i 3dgui.obj
 0001:00016a20       ?button@gui@@UEAAHPEBDH0@Z 0000000140017a20 f i 3dgui.obj
 0001:00016a80       ?title@gui@@UEAAHPEBDH0@Z  0000000140017a80 f i 3dgui.obj
 0001:00016ae0       ?separator@gui@@UEAAXXZ    0000000140017ae0 f i 3dgui.obj
 0001:00016b20       ?progress@gui@@UEAAXM@Z    0000000140017b20 f i 3dgui.obj
 0001:00016b70       ?strut@gui@@UEAAXM@Z       0000000140017b70 f i 3dgui.obj
 0001:00016bc0       ?space@gui@@UEAAXM@Z       0000000140017bc0 f i 3dgui.obj
 0001:00016c10       ?spring@gui@@UEAAXH@Z      0000000140017c10 f i 3dgui.obj
 0001:00016cf0       ?column@gui@@UEAAXH@Z      0000000140017cf0 f i 3dgui.obj
 0001:00016d20       ?layout@gui@@QEAAHHH@Z     0000000140017d20 f i 3dgui.obj
 0001:00016e10       ?mergehits@gui@@UEAAX_N@Z  0000000140017e10 f i 3dgui.obj
 0001:00016e20       ?ishit@gui@@QEAA_NHHHH@Z   0000000140017e20 f i 3dgui.obj
 0001:00016f10       ?image@gui@@UEAAHPEAUTexture@@M_N@Z 0000000140017f10 f i 3dgui.obj
 0001:00017000       ?texture@gui@@UEAAHAEAUVSlot@@M_N@Z 0000000140018000 f i 3dgui.obj
 0001:000170e0       ?playerpreview@gui@@UEAAHHHHM_N@Z 00000001400180e0 f i 3dgui.obj
 0001:00017700       ?modelpreview@gui@@UEAAHPEBDHM_N@Z 0000000140018700 f i 3dgui.obj
 0001:00017f00       ?slider@gui@@UEAAXAEAHHHHPEBD@Z 0000000140018f00 f i 3dgui.obj
 0001:00018230       ?field@gui@@UEAAPEADPEBDHHH0H@Z 0000000140019230 f i 3dgui.obj
 0001:00018270       ?keyfield@gui@@UEAAPEADPEBDHHH0H@Z 0000000140019270 f i 3dgui.obj
 0001:000182b0       ?field_@gui@@QEAAPEADPEBDHHH0HH@Z 00000001400192b0 f i 3dgui.obj
 0001:000188a0       ?text_@gui@@QEAAXPEBDHHH_N1@Z 00000001400198a0 f i 3dgui.obj
 0001:00018960       ?background@gui@@UEAAXHHH@Z 0000000140019960 f i 3dgui.obj
 0001:00018b90       ?icon_@gui@@QEAAXPEAUTexture@@_NHHH1@Z 0000000140019b90 f i 3dgui.obj
 0001:00018f60       ?previewslot@gui@@QEAAXAEAUVSlot@@_NHHH1@Z 0000000140019f60 f i 3dgui.obj
 0001:00019ad0       ?line_@gui@@QEAAXHM@Z      000000014001aad0 f i 3dgui.obj
 0001:00019f60       ?textbox@gui@@UEAAXPEBDHHH@Z 000000014001af60 f i 3dgui.obj
 0001:0001a070       ?button_@gui@@QEAAHPEBDH0_N1@Z 000000014001b070 f i 3dgui.obj
 0001:0001a310       ?drawskin@gui@@SAXHHHHHHHAEBUvec@@M@Z 000000014001b310 f i 3dgui.obj
 0001:0001a870       ?adjustscale@gui@@QEAAXXZ  000000014001b870 f i 3dgui.obj
 0001:0001a9e0       ?start@gui@@UEAAXHMPEAH_N@Z 000000014001b9e0 f i 3dgui.obj
 0001:0001ae80       ?adjustcolumns@gui@@QEAAXXZ 000000014001be80 f i 3dgui.obj
 0001:0001b020       ?end@gui@@UEAAXXZ          000000014001c020 f i 3dgui.obj
 0001:0001b4d0       ?add@?$vector@Ueditline@@@@QEAAAEAUeditline@@XZ 000000014001c4d0 f i 3dgui.obj
 0001:0001b530       ?insert@?$vector@Ueditline@@@@QEAAAEAUeditline@@HAEBU2@@Z 000000014001c530 f i 3dgui.obj
 0001:0001b5f0       ?insert@?$vector@PEAUeditor@@@@QEAAAEAPEAUeditor@@HAEBQEAU2@@Z 000000014001c5f0 f i 3dgui.obj
 0001:0001b690       ??_Ggui@@UEAAPEAXI@Z       000000014001c690 f i 3dgui.obj
 0001:0001b690       ??_Egui@@UEAAPEAXI@Z       000000014001c690 f i * CIL library *:* CIL module *
 0001:0001b6d0       ??1gui@@UEAA@XZ            000000014001c6d0 f i 3dgui.obj
 0001:0001b6f0       ?growbuf@?$vector@Uaviindexentry@@@@QEAAXH@Z 000000014001c6f0 f i movie.obj
 0001:0001b6f0       ?growbuf@?$vector@Udistlimit@ragdollskel@@@@QEAAXH@Z 000000014001c6f0 f i rendermodel.obj
 0001:0001b6f0       ?growbuf@?$vector@UAttribLoc@@@@QEAAXH@Z 000000014001c6f0 f i shader.obj
 0001:0001b6f0       ?growbuf@?$vector@Usoundslot@@@@QEAAXH@Z 000000014001c6f0 f i sound.obj
 0001:0001b6f0       ?growbuf@?$vector@Uanimspec@animmodel@@@@QEAAXH@Z 000000014001c6f0 f i rendermodel.obj
 0001:0001b6f0       ?growbuf@?$vector@Uskelanimspec@skelmodel@@@@QEAAXH@Z 000000014001c6f0 f i rendermodel.obj
 0001:0001b6f0       ?growbuf@?$vector@Ucharinfo@font@@@@QEAAXH@Z 000000014001c6f0 f i rendertext.obj
 0001:0001b6f0       ?growbuf@?$vector@Ueditline@@@@QEAAXH@Z 000000014001c6f0 f i 3dgui.obj
 0001:0001b790       ?growbuf@?$vector@PEAUeditor@@@@QEAAXH@Z 000000014001c790 f i 3dgui.obj
 0001:0001b830       ?growbuf@?$vector@Ulist@gui@@@@QEAAXH@Z 000000014001c830 f i 3dgui.obj
 0001:0001b8d0       ?growbuf@?$vector@Ugui@@@@QEAAXH@Z 000000014001c8d0 f i 3dgui.obj
 0001:0001b970       ??4gui@@QEAAAEAU0@AEBU0@@Z 000000014001c970 f i 3dgui.obj
 0001:0001b9f0       ??_Gg3d_gui@@UEAAPEAXI@Z   000000014001c9f0 f i 3dgui.obj
 0001:0001b9f0       ??_Eg3d_gui@@UEAAPEAXI@Z   000000014001c9f0 f i * CIL library *:* CIL module *
 0001:0001ba20       ?shadowcompare@rendertarget@@UEBA_NXZ 000000014001ca20 f i glare.obj
 0001:0001ba20       ?swaptexs@rendertarget@@UEBA_NXZ 000000014001ca20 f i glare.obj
 0001:0001ba20       ?usesvertexarray@partrenderer@@UEAA_NXZ 000000014001ca20 f i renderparticles.obj
 0001:0001ba20       ?seek@stream@@UEAA_N_JH@Z  000000014001ca20 f i stream.obj
 0001:0001ba20       ?screenview@rendertarget@@UEBA_NXZ 000000014001ca20 f i glare.obj
 0001:0001ba20       ?flipdebug@shadowmaptexture@@UEBA_NXZ 000000014001ca20 f i shadowmap.obj
 0001:0001ba20       ?envmapped@model@@UEAA_NXZ 000000014001ca20 f i rendermodel.obj
 0001:0001ba20       ?texrect@rendertarget@@UEBA_NXZ 000000014001ca20 f i glare.obj
 0001:0001ba20       ?shouldtab@g3d_gui@@UEAA_NXZ 000000014001ca20 f i 3dgui.obj
 0001:0001ba20       ?skeletal@model@@UEBA_NXZ  000000014001ca20 f i rendermodel.obj
 0001:0001ba30       ?playerpreview@g3d_gui@@UEAAHHHHM_N@Z 000000014001ca30 f i 3dgui.obj
 0001:0001ba30       ?linktype@animmodel@@UEBAHPEAU1@@Z 000000014001ca30 f i rendermodel.obj
 0001:0001ba30       ?getcrc@stream@@UEAAIXZ    000000014001ca30 f i stream.obj
 0001:0001ba30       ?read@stream@@UEAAHPEAXH@Z 000000014001ca30 f i stream.obj
 0001:0001ba30       ?write@stream@@UEAAHPEBXH@Z 000000014001ca30 f i stream.obj
 0001:0001ba30       ?type@md2@@UEBAHXZ         000000014001ca30 f i rendermodel.obj
 0001:0001ba30       ?setBIH@model@@UEAAPEAUBIH@@XZ 000000014001ca30 f i rendermodel.obj
 0001:0001ba30       ?loadmeshes@animmodel@@UEAAPEAUmeshgroup@1@PEBDPEAD@Z 000000014001ca30 f i rendermodel.obj
 0001:0001ba30       ?loadanim@skelmeshgroup@skelmodel@@UEAAPEAUskelanimspec@2@PEBD@Z 000000014001ca30 f i rendermodel.obj
 0001:0001ba30       ?addpart@flarerenderer@@UEAAPEAUparticle@@AEBUvec@@0HHMH@Z 000000014001ca30 f i renderparticles.obj
 0001:0001ba30       ?modelpreview@g3d_gui@@UEAAHPEBDHM_N@Z 000000014001ca30 f i 3dgui.obj
 0001:0001ba30       ?adddepthfx@partrenderer@@UEAAHAEAUvec@@0@Z 000000014001ca30 f i renderparticles.obj
 0001:0001ba40       ??1g3d_gui@@UEAA@XZ        000000014001ca40 f i 3dgui.obj
 0001:0001ba50       ?traverse@BIH@@QEAA_NAEBUvec@@00MAEAMHPEAUBIHNode@@MM@Z 000000014001ca50 f i bih.obj
 0001:0001bf00       ?traverse@BIH@@QEAA_NAEBUvec@@0MAEAMH@Z 000000014001cf00 f i bih.obj
 0001:0001c0b0       ?init@blobrenderer@@QEAAXH@Z 000000014001d0b0 f i blob.obj
 0001:0001c270       ?freeblob@blobrenderer@@QEAA_NXZ 000000014001d270 f i blob.obj
 0001:0001c2e0       ?newblob@blobrenderer@@QEAAAEAUblobinfo@@AEBUvec@@M@Z 000000014001d2e0 f i blob.obj
 0001:0001c390       ?addvert@blobrenderer@@QEAAHAEBUvec@@@Z 000000014001d390 f i blob.obj
 0001:0001c4c0       ?addtris@blobrenderer@@QEAAXPEBUvec@@H@Z 000000014001d4c0 f i blob.obj
 0001:0001c890       ?gentris@blobrenderer@@QEAAXAEAUcube@@HAEBUivec@@HPEAUmaterialsurface@@H@Z 000000014001d890 f i blob.obj
 0001:0001d530       ?findmaterials@blobrenderer@@QEAAXPEAUvtxarray@@@Z 000000014001e530 f i blob.obj
 0001:0001d700       ?findescaped@blobrenderer@@QEAAXPEAUcube@@AEBUivec@@HH@Z 000000014001e700 f i blob.obj
 0001:0001d860       ?gentris@blobrenderer@@QEAAXPEAUcube@@AEBUivec@@HH@Z 000000014001e860 f i blob.obj
 0001:0001db60       ?addblob@blobrenderer@@QEAAPEAUblobinfo@@AEBUvec@@MM@Z 000000014001eb60 f i blob.obj
 0001:0001dda0       ?setuprenderstate@blobrenderer@@SAXXZ 000000014001eda0 f i blob.obj
 0001:0001de60       ?fadeblob@blobrenderer@@QEAAXPEAUblobinfo@@M@Z 000000014001ee60 f i blob.obj
 0001:0001e200       ?renderblob@blobrenderer@@QEAAXAEBUvec@@MM@Z 000000014001f200 f i blob.obj
 0001:0001e4b0       ??$clip@$0A@@blobrenderer@@SAHPEBUvec@@HMMPEAU1@@Z 000000014001f4b0 f i blob.obj
 0001:0001e790       ??$clip@$00@blobrenderer@@SAHPEBUvec@@HMMPEAU1@@Z 000000014001f790 f i blob.obj
 0001:0001ea80       ??$clip@$01@blobrenderer@@SAHPEBUvec@@HMMPEAU1@@Z 000000014001fa80 f i blob.obj
 0001:0001ed70       ??$split@$01@blobrenderer@@SAHPEBUvec@@HMMPEAU1@@Z 000000014001fd70 f i blob.obj
 0001:0001f060       ?freedecal@decalrenderer@@QEAAHXZ 0000000140020060 f i decal.obj
 0001:0001f0d0       ?fadedecal@decalrenderer@@QEAAXAEAUdecalinfo@@E@Z 00000001400200d0 f i decal.obj
 0001:0001f210       ?clearfadeddecals@decalrenderer@@QEAAXXZ 0000000140020210 f i decal.obj
 0001:0001f310       ?fadeindecals@decalrenderer@@QEAAXXZ 0000000140020310 f i decal.obj
 0001:0001f550       ?fadeoutdecals@decalrenderer@@QEAAXXZ 0000000140020550 f i decal.obj
 0001:0001f630       ?setuprenderstate@decalrenderer@@SAXXZ 0000000140020630 f i decal.obj
 0001:0001f6b0       ?render@decalrenderer@@QEAAXXZ 00000001400206b0 f i decal.obj
 0001:0001f980       ?adddecal@decalrenderer@@QEAAXAEBUvec@@0MAEBUbvec@@H@Z 0000000140020980 f i decal.obj
 0001:0001fd70       ?clip@decalrenderer@@SAHPEBUvec@@HAEBU2@MMPEAU2@@Z 0000000140020d70 f i decal.obj
 0001:000200b0       ?gentris@decalrenderer@@QEAAXAEAUcube@@HAEBUivec@@HPEAUmaterialsurface@@H@Z 00000001400210b0 f i decal.obj
 0001:00021b80       ?findmaterials@decalrenderer@@QEAAXPEAUvtxarray@@@Z 0000000140022b80 f i decal.obj
 0001:00021d50       ?findescaped@decalrenderer@@QEAAXPEAUcube@@AEBUivec@@HH@Z 0000000140022d50 f i decal.obj
 0001:00021eb0       ?gentris@decalrenderer@@QEAAXPEAUcube@@AEBUivec@@HH@Z 0000000140022eb0 f i decal.obj
 0001:000221a0       ?calcradius@dynlight@@QEAAXXZ 00000001400231a0 f i dynlight.obj
 0001:00022240       ?calccolor@dynlight@@QEAAXXZ 0000000140023240 f i dynlight.obj
 0001:000223b0       ?growbuf@?$vector@PEAUdynlight@@@@QEAAXH@Z 00000001400233b0 f i dynlight.obj
 0001:00022450       ??$dist_to_bb@Uivec@@@vec@@QEBAMAEBUivec@@0@Z 0000000140023450 f i dynlight.obj
 0001:00022500       ??1rendertarget@@UEAA@XZ   0000000140023500 f i glare.obj
 0001:00022510       ?attachment@rendertarget@@UEBAIXZ 0000000140023510 f i glare.obj
 0001:00022520       ?colorformats@rendertarget@@UEBAPEBIXZ 0000000140023520 f i glare.obj
 0001:00022530       ?depthformats@rendertarget@@UEBAPEBIXZ 0000000140023530 f i glare.obj
 0001:00022540       ?dorender@rendertarget@@UEAA_NXZ 0000000140023540 f i glare.obj
 0001:00022540       ?depthtest@rendertarget@@UEBA_NXZ 0000000140023540 f i glare.obj
 0001:00022540       ?skeletal@skelmodel@@UEBA_NXZ 0000000140023540 f i rendermodel.obj
 0001:00022540       ?usesvertexarray@?$varenderer@$00@@UEAA_NXZ 0000000140023540 f i renderparticles.obj
 0001:00022540       ?usesvertexarray@?$varenderer@$0A@@@UEAA_NXZ 0000000140023540 f i renderparticles.obj
 0001:00022540       ?shouldrender@rendertarget@@UEAA_NXZ 0000000140023540 f i glare.obj
 0001:00022540       ?filter@rendertarget@@UEBA_NXZ 0000000140023540 f i glare.obj
 0001:00022540       ?loaddefaultparts@animmodel@@UEAA_NXZ 0000000140023540 f i rendermodel.obj
 0001:00022540       ?flipdebug@rendertarget@@UEBA_NXZ 0000000140023540 f i glare.obj
 0001:00022540       ?usesvertexarray@?$varenderer@$01@@UEAA_NXZ 0000000140023540 f i renderparticles.obj
 0001:00022550       ?cleanupblur@rendertarget@@QEAAXXZ 0000000140023550 f i glare.obj
 0001:000225d0       ?setupblur@rendertarget@@QEAAXXZ 00000001400235d0 f i glare.obj
 0001:00022910       ?setup@rendertarget@@QEAAXHH@Z 0000000140023910 f i glare.obj
 0001:00022d50       ?rendertiles@rendertarget@@UEAAXXZ 0000000140023d50 f i glare.obj
 0001:000231c0       ?blur@rendertarget@@QEAAXHMHHHH_N@Z 00000001400241c0 f i glare.obj
 0001:00023420       ?doblur@rendertarget@@UEAAXHM@Z 0000000140024420 f i glare.obj
 0001:000234e0       ?scissorrender@rendertarget@@UEAA_NAEAH000@Z 00000001400244e0 f i glare.obj
 0001:000236f0       ?scissorblur@rendertarget@@UEAA_NAEAH000@Z 00000001400246f0 f i glare.obj
 0001:000238c0       ?render@rendertarget@@QEAAXHHHM@Z 00000001400248c0 f i glare.obj
 0001:00023e00       ?debug@rendertarget@@QEAAXXZ 0000000140024e00 f i glare.obj
 0001:00023fe0       ??_Grendertarget@@UEAAPEAXI@Z 0000000140024fe0 f i glare.obj
 0001:00023fe0       ??_Erendertarget@@UEAAPEAXI@Z 0000000140024fe0 f i * CIL library *:* CIL module *
 0001:00024010       ?dorender@glaretexture@@UEAA_NXZ 0000000140025010 f i glare.obj
 0001:00024020       ??_Gdepthfxtexture@@UEAAPEAXI@Z 0000000140025020 f i renderparticles.obj
 0001:00024020       ??_Eshadowmaptexture@@UEAAPEAXI@Z 0000000140025020 f i * CIL library *:* CIL module *
 0001:00024020       ??_Eglaretexture@@UEAAPEAXI@Z 0000000140025020 f i * CIL library *:* CIL module *
 0001:00024020       ??_Gshadowmaptexture@@UEAAPEAXI@Z 0000000140025020 f i shadowmap.obj
 0001:00024020       ??_Edepthfxtexture@@UEAAPEAXI@Z 0000000140025020 f i * CIL library *:* CIL module *
 0001:00024020       ??_Gglaretexture@@UEAAPEAXI@Z 0000000140025020 f i glare.obj
 0001:00024060       ??0grasswedge@@QEAA@H@Z    0000000140025060 f i grass.obj
 0001:000243d0       ?add@?$vector@Ugrassvert@@@@QEAAAEAUgrassvert@@XZ 00000001400253d0 f i grass.obj
 0001:00024440       ?growbuf@?$vector@Ugrassvert@@@@QEAAXH@Z 0000000140025440 f i grass.obj
 0001:000244e0       ?growbuf@?$vector@Ugrassgroup@@@@QEAAXH@Z 00000001400254e0 f i grass.obj
 0001:00024580       ?clear@QuadNode@@QEAAXXZ   0000000140025580 f i material.obj
 0001:00024580       ??1QuadNode@@QEAA@XZ       0000000140025580 f i material.obj
 0001:000245e0       ?insert@QuadNode@@QEAAXHHH@Z 00000001400255e0 f i material.obj
 0001:00024730       ?genmatsurfs@QuadNode@@QEAAXGEEHAEAPEAUmaterialsurface@@@Z 0000000140025730 f i material.obj
 0001:000248e0       ?compressfind@unionfind@@QEAAHH@Z 00000001400258e0 f i material.obj
 0001:00024930       ?unite@unionfind@@QEAAXHH@Z 0000000140025930 f i material.obj
 0001:00024a40       ?clip@glmatrixf@@QEAAXAEBUplane@@AEBU1@@Z 0000000140025a40 f i rendergl.obj
 0001:00024b80       ?transposedtransform@glmatrixf@@QEBAXAEBUplane@@AEAU2@@Z 0000000140025b80 f i rendergl.obj
 0001:00024ca0       ?transpose@glmatrixf@@QEAAXXZ 0000000140025ca0 f i rendergl.obj
 0001:00024d70       ?reflectz@glmatrixf@@QEAAXM@Z 0000000140025d70 f i rendergl.obj
 0001:00024e50       ??$mul@MM@glmatrixf@@QEAAXQEBM0@Z 0000000140025e50 f i rendergl.obj
 0001:00025220       ?setupjoints@ragdollskel@@QEAAXXZ 0000000140026220 f i rendermodel.obj
 0001:00025720       ?setuprotfrictions@ragdollskel@@QEAAXXZ 0000000140026720 f i rendermodel.obj
 0001:00025850       ??0ragdolldata@@QEAA@PEAUragdollskel@@M@Z 0000000140026850 f i rendermodel.obj
 0001:000259c0       ?calcanimjoint@ragdolldata@@QEAAXHAEBUmatrix3x4@@@Z 00000001400269c0 f i rendermodel.obj
 0001:00025d40       ?calctris@ragdolldata@@QEAAXXZ 0000000140026d40 f i rendermodel.obj
 0001:00025f70       ?calcboundsphere@ragdolldata@@QEAAXXZ 0000000140026f70 f i rendermodel.obj
 0001:00026080       ?init@ragdolldata@@QEAAXPEAUdynent@@@Z 0000000140027080 f i rendermodel.obj
 0001:000261f0       ??_Gragdolldata@@QEAAPEAXI@Z 00000001400271f0 f i rendermodel.obj
 0001:00026250       ?setframes@animpos@animmodel@@QEAAXAEBUaniminfo@@@Z 0000000140027250 f i rendermodel.obj
 0001:00026350       ?setuptmus@skin@animmodel@@QEAAXPEBUanimstate@2@_N@Z 0000000140027350 f i rendermodel.obj
 0001:00026880       ?setshaderparams@skin@animmodel@@QEAAXPEAUmesh@2@PEBUanimstate@2@_N@Z 0000000140027880 f i rendermodel.obj
 0001:00026fb0       ?loadshader@skin@animmodel@@QEAAPEAUShader@@_N0@Z 0000000140027fb0 f i rendermodel.obj
 0001:00027280       ?bind@skin@animmodel@@QEAAXPEAUmesh@2@PEBUanimstate@2@@Z 0000000140028280 f i rendermodel.obj
 0001:00027910       ??1mesh@animmodel@@UEAA@XZ 0000000140028910 f i rendermodel.obj
 0001:00027940       ?setshader@mesh@animmodel@@UEAAXPEAUShader@@@Z 0000000140028940 f i rendermodel.obj
 0001:000279c0       ??1meshgroup@animmodel@@UEAA@XZ 00000001400289c0 f i rendermodel.obj
 0001:00027a60       ?findtag@meshgroup@animmodel@@UEAAHPEBD@Z 0000000140028a60 f i rendermodel.obj
 0001:00027a70       ?type@md3@@UEBAHXZ         0000000140028a70 f i rendermodel.obj
 0001:00027a70       ?linktype@md2@@UEBAHPEAUanimmodel@@@Z 0000000140028a70 f i rendermodel.obj
 0001:00027a70       ?totalframes@meshgroup@animmodel@@UEBAHXZ 0000000140028a70 f i rendermodel.obj
 0001:00027a80       ?hasframes@meshgroup@animmodel@@QEBA_NHH@Z 0000000140028a80 f i rendermodel.obj
 0001:00027ac0       ?sharemeshes@animmodel@@QEAAPEAUmeshgroup@1@PEBDZZ 0000000140028ac0 f i rendermodel.obj
 0001:00027c60       ??1part@animmodel@@UEAA@XZ 0000000140028c60 f i rendermodel.obj
 0001:00027d30       ?cleanup@part@animmodel@@UEAAXXZ 0000000140028d30 f i rendermodel.obj
 0001:00027d50       ?calcbb@part@animmodel@@QEAAXHAEAUvec@@0AEBUmatrix3x4@@@Z 0000000140028d50 f i rendermodel.obj
 0001:000280b0       ?gentris@part@animmodel@@QEAAXHPEAU?$vector@Utri@BIH@@@@AEBUmatrix3x4@@@Z 00000001400290b0 f i rendermodel.obj
 0001:00028410       ?link@part@animmodel@@QEAA_NPEAU12@PEBDAEBUvec@@HHPEAU3@@Z 0000000140029410 f i rendermodel.obj
 0001:00028590       ?unlink@part@animmodel@@QEAA_NPEAU12@@Z 0000000140029590 f i rendermodel.obj
 0001:000286e0       ?initskins@part@animmodel@@QEAAXPEAUTexture@@0H@Z 00000001400296e0 f i rendermodel.obj
 0001:00028810       ?preloadshaders@part@animmodel@@QEAAXXZ 0000000140029810 f i rendermodel.obj
 0001:00028c20       ?getdefaultanim@part@animmodel@@UEAAXAEAUaniminfo@@HIPEAUdynent@@@Z 0000000140029c20 f i rendermodel.obj
 0001:00028c30       ?calcanim@part@animmodel@@QEAA_NHHHHPEAUdynent@@HAEAUaniminfo@@AEAH@Z 0000000140029c30 f i rendermodel.obj
 0001:00029130       ?render@part@animmodel@@QEAAXHHHMAEBUvec@@0PEAUdynent@@PEAUanimstate@2@@Z 000000014002a130 f i rendermodel.obj
 0001:00029c50       ?setanim@part@animmodel@@QEAAXHHHHMH@Z 000000014002ac50 f i rendermodel.obj
 0001:00029da0       ?render@animmodel@@QEAAXHHHMAEBUvec@@0PEAUdynent@@PEAUmodelattach@@@Z 000000014002ada0 f i rendermodel.obj
 0001:0002a130       ?render@animmodel@@UEAAXHHHAEBUvec@@MMPEAUdynent@@PEAUmodelattach@@00M@Z 000000014002b130 f i rendermodel.obj
 0001:0002a970       ??0animmodel@@QEAA@PEBD@Z  000000014002b970 f i rendermodel.obj
 0001:0002aa10       ??1animmodel@@UEAA@XZ      000000014002ba10 f i rendermodel.obj
 0001:0002aab0       ?name@animmodel@@UEBAPEBDXZ 000000014002bab0 f i rendermodel.obj
 0001:0002aac0       ?cleanup@animmodel@@UEAAXXZ 000000014002bac0 f i rendermodel.obj
 0001:0002ab30       ?gentris@animmodel@@QEAAXHPEAU?$vector@Utri@BIH@@@@@Z 000000014002bb30 f i rendermodel.obj
 0001:0002ad80       ?preloadBIH@animmodel@@UEAAXXZ 000000014002bd80 f i rendermodel.obj
 0001:0002ae50       ?setBIH@animmodel@@UEAAPEAUBIH@@XZ 000000014002be50 f i rendermodel.obj
 0001:0002af00       ?envmapped@animmodel@@UEAA_NXZ 000000014002bf00 f i rendermodel.obj
 0001:0002afc0       ?preloadshaders@animmodel@@UEAAXXZ 000000014002bfc0 f i rendermodel.obj
 0001:0002b010       ?preloadmeshes@animmodel@@UEAAXXZ 000000014002c010 f i rendermodel.obj
 0001:0002b070       ?setshader@animmodel@@UEAAXPEAUShader@@@Z 000000014002c070 f i rendermodel.obj
 0001:0002b100       ?setenvmap@animmodel@@UEAAXMMPEAUTexture@@@Z 000000014002c100 f i rendermodel.obj
 0001:0002b1d0       ?setspec@animmodel@@UEAAXM@Z 000000014002c1d0 f i rendermodel.obj
 0001:0002b260       ?setambient@animmodel@@UEAAXM@Z 000000014002c260 f i rendermodel.obj
 0001:0002b2f0       ?setglow@animmodel@@UEAAXMMM@Z 000000014002c2f0 f i rendermodel.obj
 0001:0002b3b0       ?setglare@animmodel@@UEAAXMM@Z 000000014002c3b0 f i rendermodel.obj
 0001:0002b450       ?setalphatest@animmodel@@UEAAXM@Z 000000014002c450 f i rendermodel.obj
 0001:0002b4e0       ?setalphablend@animmodel@@UEAAX_N@Z 000000014002c4e0 f i rendermodel.obj
 0001:0002b570       ?setfullbright@animmodel@@UEAAXM@Z 000000014002c570 f i rendermodel.obj
 0001:0002b600       ?setcullface@animmodel@@UEAAX_N@Z 000000014002c600 f i rendermodel.obj
 0001:0002b690       ?calcbb@animmodel@@UEAAXHAEAUvec@@0@Z 000000014002c690 f i rendermodel.obj
 0001:0002b9d0       ?startrender@animmodel@@UEAAXXZ 000000014002c9d0 f i rendermodel.obj
 0001:0002bb50       ?disabletc@animmodel@@SAXXZ 000000014002cb50 f i rendermodel.obj
 0001:0002bba0       ?disablevbo@animmodel@@SAXXZ 000000014002cba0 f i rendermodel.obj
 0001:0002bcc0       ?disableglow@animmodel@@SAXXZ 000000014002ccc0 f i rendermodel.obj
 0001:0002bd20       ?endrender@animmodel@@UEAAXXZ 000000014002cd20 f i rendermodel.obj
 0001:0002bed0       ??_Gmesh@animmodel@@UEAAPEAXI@Z 000000014002ced0 f i rendermodel.obj
 0001:0002bed0       ??_Emesh@animmodel@@UEAAPEAXI@Z 000000014002ced0 f i * CIL library *:* CIL module *
 0001:0002bf20       ??_Gmeshgroup@animmodel@@UEAAPEAXI@Z 000000014002cf20 f i rendermodel.obj
 0001:0002bf20       ??_Emeshgroup@animmodel@@UEAAPEAXI@Z 000000014002cf20 f i * CIL library *:* CIL module *
 0001:0002bf60       ??1?$hashtable@PEBDPEAUmeshgroup@animmodel@@@@QEAA@XZ 000000014002cf60 f i rendermodel.obj
 0001:0002bfe0       ??_Gpart@animmodel@@UEAAPEAXI@Z 000000014002cfe0 f i rendermodel.obj
 0001:0002bfe0       ??_Epart@animmodel@@UEAAPEAXI@Z 000000014002cfe0 f i * CIL library *:* CIL module *
 0001:0002c020       ??_Eanimmodel@@UEAAPEAXI@Z 000000014002d020 f i * CIL library *:* CIL module *
 0001:0002c020       ??_Ganimmodel@@UEAAPEAXI@Z 000000014002d020 f i rendermodel.obj
 0001:0002c060       ??1vertmesh@vertmodel@@UEAA@XZ 000000014002d060 f i rendermodel.obj
 0001:0002c100       ?buildnorms@vertmesh@vertmodel@@QEAAX_N@Z 000000014002d100 f i rendermodel.obj
 0001:0002c160       ?calctangents@vertmesh@vertmodel@@QEAAX_N@Z 000000014002d160 f i rendermodel.obj
 0001:0002c230       ?calcbb@vertmesh@vertmodel@@UEAAXHAEAUvec@@0AEBUmatrix3x4@@@Z 000000014002d230 f i rendermodel.obj
 0001:0002c380       ?gentris@vertmesh@vertmodel@@UEAAXHPEAUTexture@@PEAU?$vector@Utri@BIH@@@@AEBUmatrix3x4@@@Z 000000014002d380 f i rendermodel.obj
 0001:0002c690       ?comparevert@vertmesh@vertmodel@@QEAA_NAEAUvvertbump@2@HAEAUtcvert@2@AEAUvert@2@@Z 000000014002d690 f i rendermodel.obj
 0001:0002c740       ?genvbo@vertmesh@vertmodel@@QEAAHAEAU?$vector@G@@H@Z 000000014002d740 f i rendermodel.obj
 0001:0002c8b0       ?interpverts@vertmesh@vertmodel@@QEAAXAEBUanimstate@animmodel@@_N1PEIAXAEAUskin@4@@Z 000000014002d8b0 f i rendermodel.obj
 0001:0002da20       ?render@vertmesh@vertmodel@@QEAAXPEBUanimstate@animmodel@@AEAUskin@4@AEAUvbocacheentry@2@@Z 000000014002ea20 f i rendermodel.obj
 0001:0002dd90       ??0videobuffer@recorder@@QEAA@XZ 000000014002ed90 f i movie.obj
 0001:0002dd90       ??0tag@vertmodel@@QEAA@XZ  000000014002ed90 f i rendermodel.obj
 0001:0002dda0       ??1boneinfo@skelmodel@@QEAA@XZ 000000014002eda0 f i rendermodel.obj
 0001:0002dda0       ??1zipfile@@QEAA@XZ        000000014002eda0 f i zip.obj
 0001:0002dda0       ??1tag@vertmodel@@QEAA@XZ  000000014002eda0 f i rendermodel.obj
 0001:0002dda0       ??1videobuffer@recorder@@QEAA@XZ 000000014002eda0 f i movie.obj
 0001:0002dda0       ??1soundsample@@QEAA@XZ    000000014002eda0 f i sound.obj
 0001:0002ddd0       ??0vertmeshgroup@vertmodel@@QEAA@XZ 000000014002edd0 f i rendermodel.obj
 0001:0002de70       ??1vertmeshgroup@vertmodel@@UEAA@XZ 000000014002ee70 f i rendermodel.obj
 0001:0002df60       ?findtag@vertmeshgroup@vertmodel@@UEAAHPEBD@Z 000000014002ef60 f i rendermodel.obj
 0001:0002dfe0       ?totalframes@vertmeshgroup@vertmodel@@UEBAHXZ 000000014002efe0 f i rendermodel.obj
 0001:0002dff0       ?concattagtransform@vertmeshgroup@vertmodel@@UEAAXPEAUpart@animmodel@@HHAEBUmatrix3x4@@AEAU5@@Z 000000014002eff0 f i rendermodel.obj
 0001:0002e0f0       ?calctagmatrix@vertmeshgroup@vertmodel@@QEAAXPEAUpart@animmodel@@HAEBUanimstate@4@AEAUglmatrixf@@@Z 000000014002f0f0 f i rendermodel.obj
 0001:0002e450       ?genvbo@vertmeshgroup@vertmodel@@QEAAX_N0AEAUvbocacheentry@2@@Z 000000014002f450 f i rendermodel.obj
 0001:0002eb90       ?bindvbo@vertmeshgroup@vertmodel@@QEAAXPEBUanimstate@animmodel@@AEAUvbocacheentry@2@@Z 000000014002fb90 f i rendermodel.obj
 0001:0002edb0       ?cleanup@vertmeshgroup@vertmodel@@UEAAXXZ 000000014002fdb0 f i rendermodel.obj
 0001:0002ee60       ?preload@vertmeshgroup@vertmodel@@UEAAXPEAUpart@animmodel@@@Z 000000014002fe60 f i rendermodel.obj
 0001:0002ef80       ?render@vertmeshgroup@vertmodel@@UEAAXPEBUanimstate@animmodel@@MAEBUvec@@1PEAUdynent@@PEAUpart@4@@Z 000000014002ff80 f i rendermodel.obj
 0001:0002f490       ??_Evertmesh@vertmodel@@UEAAPEAXI@Z 0000000140030490 f i * CIL library *:* CIL module *
 0001:0002f490       ??_Gvertmesh@vertmodel@@UEAAPEAXI@Z 0000000140030490 f i rendermodel.obj
 0001:0002f4d0       ??_Gvertmeshgroup@vertmodel@@UEAAPEAXI@Z 00000001400304d0 f i rendermodel.obj
 0001:0002f4d0       ??_Evertmeshgroup@vertmodel@@UEAAPEAXI@Z 00000001400304d0 f i * CIL library *:* CIL module *
 0001:0002f510       ??_Eskelmodel@@UEAAPEAXI@Z 0000000140030510 f i * CIL library *:* CIL module *
 0001:0002f510       ??_Gskelmodel@@UEAAPEAXI@Z 0000000140030510 f i rendermodel.obj
 0001:0002f510       ??_Gvertmodel@@UEAAPEAXI@Z 0000000140030510 f i rendermodel.obj
 0001:0002f510       ??_Evertmodel@@UEAAPEAXI@Z 0000000140030510 f i * CIL library *:* CIL module *
 0001:0002f560       ??1vertmodel@@UEAA@XZ      0000000140030560 f i rendermodel.obj
 0001:0002f560       ??1skelmodel@@UEAA@XZ      0000000140030560 f i rendermodel.obj
 0001:0002f580       ?sortcmp@blendcombo@skelmodel@@SA_NAEBU12@0@Z 0000000140030580 f i rendermodel.obj
 0001:0002f5c0       ?addweight@blendcombo@skelmodel@@QEAAHHMH@Z 00000001400305c0 f i rendermodel.obj
 0001:0002f710       ?finalize@blendcombo@skelmodel@@QEAAXH@Z 0000000140030710 f i rendermodel.obj
 0001:0002f860       ?serialize@blendcombo@skelmodel@@QEAAXAEAUvvertw@2@@Z 0000000140030860 f i rendermodel.obj
 0001:0002fa40       ??1skelmesh@skelmodel@@UEAA@XZ 0000000140030a40 f i rendermodel.obj
 0001:0002fad0       ?calctangents@skelmesh@skelmodel@@QEAAX_N@Z 0000000140030ad0 f i rendermodel.obj
 0001:0002fb50       ?calcbb@skelmesh@skelmodel@@UEAAXHAEAUvec@@0AEBUmatrix3x4@@@Z 0000000140030b50 f i rendermodel.obj
 0001:0002fc90       ?gentris@skelmesh@skelmodel@@UEAAXHPEAUTexture@@PEAU?$vector@Utri@BIH@@@@AEBUmatrix3x4@@@Z 0000000140030c90 f i rendermodel.obj
 0001:0002ff70       ?comparevert@skelmesh@skelmodel@@QEAA_NAEAUvvertbump@2@HAEAUvert@2@@Z 0000000140030f70 f i rendermodel.obj
 0001:00030020       ?assignvert@skelmesh@skelmodel@@QEAAXAEAUvvertbumpw@2@HAEAUvert@2@AEAUblendcombo@2@@Z 0000000140031020 f i rendermodel.obj
 0001:000300c0       ?genvbo@skelmesh@skelmodel@@QEAAHAEAU?$vector@G@@H@Z 00000001400310c0 f i rendermodel.obj
 0001:00030270       ?setshader@skelmesh@skelmodel@@UEAAXPEAUShader@@@Z 0000000140031270 f i rendermodel.obj
 0001:00030400       ?render@skelmesh@skelmodel@@QEAAXPEBUanimstate@animmodel@@AEAUskin@4@AEAUvbocacheentry@2@@Z 0000000140031400 f i rendermodel.obj
 0001:000307a0       ??0boneinfo@skelmodel@@QEAA@XZ 00000001400317a0 f i rendermodel.obj
 0001:000307e0       ??0skeleton@skelmodel@@QEAA@XZ 00000001400317e0 f i rendermodel.obj
 0001:00030890       ??1skeleton@skelmodel@@QEAA@XZ 0000000140031890 f i rendermodel.obj
 0001:00030b60       ?findskelanim@skeleton@skelmodel@@QEAAPEAUskelanimspec@2@PEBDD@Z 0000000140031b60 f i rendermodel.obj
 0001:00030c50       ?addskelanim@skeleton@skelmodel@@QEAAAEAUskelanimspec@2@PEBD@Z 0000000140031c50 f i rendermodel.obj
 0001:00030ce0       ?findbone@skeleton@skelmodel@@QEAAHPEBD@Z 0000000140031ce0 f i rendermodel.obj
 0001:00030d60       ?findtag@skeleton@skelmodel@@QEAAHPEBD@Z 0000000140031d60 f i rendermodel.obj
 0001:00030de0       ?addtag@skeleton@skelmodel@@QEAA_NPEBDHAEBUmatrix3x4@@@Z 0000000140031de0 f i rendermodel.obj
 0001:00030ec0       ?calcantipodes@skeleton@skelmodel@@QEAAXXZ 0000000140031ec0 f i rendermodel.obj
 0001:000312e0       ?remapbones@skeleton@skelmodel@@QEAAXXZ 00000001400322e0 f i rendermodel.obj
 0001:00031770       ?addpitchdep@skeleton@skelmodel@@QEAAXHH@Z 0000000140032770 f i rendermodel.obj
 0001:00031880       ?findpitchcorrect@skeleton@skelmodel@@QEAAHH@Z 0000000140032880 f i rendermodel.obj
 0001:000318d0       ?initpitchdeps@skeleton@skelmodel@@QEAAXXZ 00000001400328d0 f i rendermodel.obj
 0001:00031e30       ?expandbonemask@skeleton@skelmodel@@QEAAXPEAEHH@Z 0000000140032e30 f i rendermodel.obj
 0001:00031eb0       ?applybonemask@skeleton@skelmodel@@QEAAXPEAGPEAEH@Z 0000000140032eb0 f i rendermodel.obj
 0001:00031ff0       ?linkchildren@skeleton@skelmodel@@QEAAXXZ 0000000140032ff0 f i rendermodel.obj
 0001:00032050       ?availgpubones@skeleton@skelmodel@@QEBAHXZ 0000000140033050 f i rendermodel.obj
 0001:000320a0       ?calcdeviation@skeleton@skelmodel@@QEAAMAEBUvec@@0AEBUdualquat@@1@Z 00000001400330a0 f i rendermodel.obj
 0001:00032370       ?calcpitchcorrects@skeleton@skelmodel@@QEAAXMAEBUvec@@0@Z 0000000140033370 f i rendermodel.obj
 0001:000325d0       ?interpmatbones@skeleton@skelmodel@@QEAAXPEBUanimstate@animmodel@@MAEBUvec@@1HPEBEAEAUskelcacheentry@2@@Z 00000001400335d0 f i rendermodel.obj
 0001:000330a0       ?interpbones@skeleton@skelmodel@@QEAAXPEBUanimstate@animmodel@@MAEBUvec@@1HPEBEAEAUskelcacheentry@2@@Z 00000001400340a0 f i rendermodel.obj
 0001:00033d70       ?initmatragdoll@skeleton@skelmodel@@QEAAXAEAUragdolldata@@AEAUskelcacheentry@2@PEAUpart@animmodel@@@Z 0000000140034d70 f i rendermodel.obj
 0001:00034250       ?initragdoll@skeleton@skelmodel@@QEAAXAEAUragdolldata@@AEAUskelcacheentry@2@PEAUpart@animmodel@@@Z 0000000140035250 f i rendermodel.obj
 0001:00034640       ?genmatragdollbones@skeleton@skelmodel@@QEAAXAEAUragdolldata@@AEAUskelcacheentry@2@PEAUpart@animmodel@@@Z 0000000140035640 f i rendermodel.obj
 0001:000348d0       ?genragdollbones@skeleton@skelmodel@@QEAAXAEAUragdolldata@@AEAUskelcacheentry@2@PEAUpart@animmodel@@@Z 00000001400358d0 f i rendermodel.obj
 0001:00034e50       ?concattagtransform@skeleton@skelmodel@@QEAAXPEAUpart@animmodel@@HHAEBUmatrix3x4@@AEAU5@@Z 0000000140035e50 f i rendermodel.obj
 0001:00034f30       ?calctags@skeleton@skelmodel@@QEAAXPEAUpart@animmodel@@PEAUskelcacheentry@2@@Z 0000000140035f30 f i rendermodel.obj
 0001:000352d0       ?cleanup@skeleton@skelmodel@@QEAAX_N@Z 00000001400362d0 f i rendermodel.obj
 0001:00035440       ?checkskelcache@skeleton@skelmodel@@QEAAAEAUskelcacheentry@2@PEAUpart@animmodel@@PEBUanimstate@5@MAEBUvec@@2PEAUragdolldata@@@Z 0000000140036440 f i rendermodel.obj
 0001:00035710       ?setasmbones@skeleton@skelmodel@@QEAAXAEAUskelcacheentry@2@H@Z 0000000140036710 f i rendermodel.obj
 0001:00035960       ?getblendoffset@skeleton@skelmodel@@QEAAHAEAUUniformLoc@@@Z 0000000140036960 f i rendermodel.obj
 0001:00035a40       ?setglslbones@skeleton@skelmodel@@QEAAXAEAUUniformLoc@@AEAUskelcacheentry@2@1H@Z 0000000140036a40 f i rendermodel.obj
 0001:00035b50       ??0skelmeshgroup@skelmodel@@QEAA@XZ 0000000140036b50 f i rendermodel.obj
 0001:00035cc0       ??1skelmeshgroup@skelmodel@@UEAA@XZ 0000000140036cc0 f i rendermodel.obj
 0001:00035e90       ?shareskeleton@skelmeshgroup@skelmodel@@QEAAXPEAD@Z 0000000140036e90 f i rendermodel.obj
 0001:000360d0       ?findtag@skelmeshgroup@skelmodel@@UEAAHPEBD@Z 00000001400370d0 f i rendermodel.obj
 0001:000360e0       ?totalframes@skelmeshgroup@skelmodel@@UEBAHXZ 00000001400370e0 f i rendermodel.obj
 0001:00036100       ?genvbo@skelmeshgroup@skelmodel@@QEAAX_N0AEAUvbocacheentry@2@@Z 0000000140037100 f i rendermodel.obj
 0001:00036de0       ?bindvbo@skelmeshgroup@skelmodel@@QEAAXPEBUanimstate@animmodel@@AEAUvbocacheentry@2@PEAUskelcacheentry@2@PEAUblendcacheentry@2@@Z 0000000140037de0 f i rendermodel.obj
 0001:000370d0       ?concattagtransform@skelmeshgroup@skelmodel@@UEAAXPEAUpart@animmodel@@HHAEBUmatrix3x4@@AEAU5@@Z 00000001400380d0 f i rendermodel.obj
 0001:000370e0       ?addblendcombo@skelmeshgroup@skelmodel@@QEAAHAEBUblendcombo@2@@Z 00000001400380e0 f i rendermodel.obj
 0001:00037250       ?sortblendcombos@skelmeshgroup@skelmodel@@QEAAXXZ 0000000140038250 f i rendermodel.obj
 0001:00037350       ?blendmatbones@skelmeshgroup@skelmodel@@QEAAXAEBUskelcacheentry@2@AEAUblendcacheentry@2@@Z 0000000140038350 f i rendermodel.obj
 0001:00037460       ?blendbones@skelmeshgroup@skelmodel@@QEAAXAEBUskelcacheentry@2@AEAUblendcacheentry@2@@Z 0000000140038460 f i rendermodel.obj
 0001:00037640       ?cleanup@skelmeshgroup@skelmodel@@UEAAXXZ 0000000140038640 f i rendermodel.obj
 0001:00037760       ?checkvbocache@skelmeshgroup@skelmodel@@QEAAAEAUvbocacheentry@2@AEAUskelcacheentry@2@H@Z 0000000140038760 f i rendermodel.obj
 0001:00037910       ?checkblendcache@skelmeshgroup@skelmodel@@QEAAAEAUblendcacheentry@2@AEAUskelcacheentry@2@H@Z 0000000140038910 f i rendermodel.obj
 0001:00037ab0       ?preload@skelmeshgroup@skelmodel@@UEAAXPEAUpart@animmodel@@@Z 0000000140038ab0 f i rendermodel.obj
 0001:00037ca0       ?render@skelmeshgroup@skelmodel@@UEAAXPEBUanimstate@animmodel@@MAEBUvec@@1PEAUdynent@@PEAUpart@4@@Z 0000000140038ca0 f i rendermodel.obj
 0001:000384d0       ?sharepartmask@skelpart@skelmodel@@QEAAPEAEPEAUanimpartmask@2@@Z 00000001400394d0 f i rendermodel.obj
 0001:00038550       ?initanimparts@skelpart@skelmodel@@QEAAXXZ 0000000140039550 f i rendermodel.obj
 0001:000385c0       ?linktype@skelmodel@@UEBAHPEAUanimmodel@@@Z 00000001400395c0 f i rendermodel.obj
 0001:00038640       ??_Gskelmesh@skelmodel@@UEAAPEAXI@Z 0000000140039640 f i rendermodel.obj
 0001:00038640       ??_Eskelmesh@skelmodel@@UEAAPEAXI@Z 0000000140039640 f i * CIL library *:* CIL module *
 0001:00038680       ??1?$hashtable@IH@@QEAA@XZ 0000000140039680 f i rendermodel.obj
 0001:000386f0       ??_Gskelmeshgroup@skelmodel@@UEAAPEAXI@Z 00000001400396f0 f i rendermodel.obj
 0001:000386f0       ??_Eskelmeshgroup@skelmodel@@UEAAPEAXI@Z 00000001400396f0 f i * CIL library *:* CIL module *
 0001:00038730       ??1?$hashtable@PEBDPEAUskeleton@skelmodel@@@@QEAA@XZ 0000000140039730 f i rendermodel.obj
 0001:000387b0       ??_Eskelpart@skelmodel@@UEAAPEAXI@Z 00000001400397b0 f i * CIL library *:* CIL module *
 0001:000387b0       ??_Gskelpart@skelmodel@@UEAAPEAXI@Z 00000001400397b0 f i rendermodel.obj
 0001:00038820       ??1ragdollskel@@QEAA@XZ    0000000140039820 f i rendermodel.obj
 0001:00038930       ?adjust@skeladjustment@@QEAAXAEAUdualquat@@@Z 0000000140039930 f i rendermodel.obj
 0001:00038aa0       ?genverts@md2meshgroup@md2@@QEAAXPEAHAEAU?$vector@Utcvert@vertmodel@@@@AEAU?$vector@G@@AEAU?$vector@Utri@vertmodel@@@@@Z 0000000140039aa0 f i rendermodel.obj
 0001:00038fc0       ?load@md2meshgroup@md2@@QEAA_NPEBD@Z 0000000140039fc0 f i rendermodel.obj
 0001:000394c0       ?getdefaultanim@md2part@md2@@UEAAXAEAUaniminfo@@HIPEAUdynent@@@Z 000000014003a4c0 f i rendermodel.obj
 0001:00039550       ?loadmeshes@md2@@UEAAPEAUmeshgroup@animmodel@@PEBDPEAD@Z 000000014003a550 f i rendermodel.obj
 0001:000395d0       ?load@md2@@UEAA_NXZ        000000014003a5d0 f i rendermodel.obj
 0001:00039930       ??_Gobj@@UEAAPEAXI@Z       000000014003a930 f i rendermodel.obj
 0001:00039930       ??_Emd2@@UEAAPEAXI@Z       000000014003a930 f i * CIL library *:* CIL module *
 0001:00039930       ??_Emd3@@UEAAPEAXI@Z       000000014003a930 f i * CIL library *:* CIL module *
 0001:00039930       ??_Gmd5@@UEAAPEAXI@Z       000000014003a930 f i rendermodel.obj
 0001:00039930       ??_Emd5@@UEAAPEAXI@Z       000000014003a930 f i * CIL library *:* CIL module *
 0001:00039930       ??_Giqm@@UEAAPEAXI@Z       000000014003a930 f i rendermodel.obj
 0001:00039930       ??_Gsmd@@UEAAPEAXI@Z       000000014003a930 f i rendermodel.obj
 0001:00039930       ??_Esmd@@UEAAPEAXI@Z       000000014003a930 f i * CIL library *:* CIL module *
 0001:00039930       ??_Gmd2@@UEAAPEAXI@Z       000000014003a930 f i rendermodel.obj
 0001:00039930       ??_Eobj@@UEAAPEAXI@Z       000000014003a930 f i * CIL library *:* CIL module *
 0001:00039930       ??_Eiqm@@UEAAPEAXI@Z       000000014003a930 f i * CIL library *:* CIL module *
 0001:00039930       ??_Gmd3@@UEAAPEAXI@Z       000000014003a930 f i rendermodel.obj
 0001:00039980       ??_Gmd3meshgroup@md3@@UEAAPEAXI@Z 000000014003a980 f i rendermodel.obj
 0001:00039980       ??_Eobjmeshgroup@obj@@UEAAPEAXI@Z 000000014003a980 f i * CIL library *:* CIL module *
 0001:00039980       ??_Gobjmeshgroup@obj@@UEAAPEAXI@Z 000000014003a980 f i rendermodel.obj
 0001:00039980       ??_Gmd2meshgroup@md2@@UEAAPEAXI@Z 000000014003a980 f i rendermodel.obj
 0001:00039980       ??_Emd3meshgroup@md3@@UEAAPEAXI@Z 000000014003a980 f i * CIL library *:* CIL module *
 0001:00039980       ??_Emd2meshgroup@md2@@UEAAPEAXI@Z 000000014003a980 f i * CIL library *:* CIL module *
 0001:000399d0       ??_Emd2part@md2@@UEAAPEAXI@Z 000000014003a9d0 f i * CIL library *:* CIL module *
 0001:000399d0       ??_Gmd2part@md2@@UEAAPEAXI@Z 000000014003a9d0 f i rendermodel.obj
 0001:00039a20       ?load@md3meshgroup@md3@@QEAA_NPEBD@Z 000000014003aa20 f i rendermodel.obj
 0001:0003a170       ?loadmeshes@md3@@UEAAPEAUmeshgroup@animmodel@@PEBDPEAD@Z 000000014003b170 f i rendermodel.obj
 0001:0003a1f0       ?loaddefaultparts@md3@@UEAA_NXZ 000000014003b1f0 f i rendermodel.obj
 0001:0003a400       ?load@md3@@UEAA_NXZ        000000014003b400 f i rendermodel.obj
 0001:0003a620       ?type@md5@@UEBAHXZ         000000014003b620 f i rendermodel.obj
 0001:0003a630       ?buildverts@md5mesh@md5@@QEAAXAEAU?$vector@Umd5joint@@@@@Z 000000014003b630 f i rendermodel.obj
 0001:0003a8b0       ?load@md5mesh@md5@@QEAAXPEAUstream@@PEAD_K@Z 000000014003b8b0 f i rendermodel.obj
 0001:0003ada0       ?loadmesh@md5meshgroup@md5@@QEAA_NPEBDM@Z 000000014003bda0 f i rendermodel.obj
 0001:0003b5a0       ?loadanim@md5meshgroup@md5@@UEAAPEAUskelanimspec@skelmodel@@PEBD@Z 000000014003c5a0 f i rendermodel.obj
 0001:0003c210       ?loadmeshes@md5@@UEAAPEAUmeshgroup@animmodel@@PEBDPEAD@Z 000000014003d210 f i rendermodel.obj
 0001:0003c2c0       ?loaddefaultparts@md5@@UEAA_NXZ 000000014003d2c0 f i rendermodel.obj
 0001:0003c4b0       ?load@md5@@UEAA_NXZ        000000014003d4b0 f i rendermodel.obj
 0001:0003c760       ??_Gmd5mesh@md5@@UEAAPEAXI@Z 000000014003d760 f i rendermodel.obj
 0001:0003c760       ??_Emd5mesh@md5@@UEAAPEAXI@Z 000000014003d760 f i * CIL library *:* CIL module *
 0001:0003c7e0       ??_Gmd5meshgroup@md5@@UEAAPEAXI@Z 000000014003d7e0 f i rendermodel.obj
 0001:0003c7e0       ??_Esmdmeshgroup@smd@@UEAAPEAXI@Z 000000014003d7e0 f i * CIL library *:* CIL module *
 0001:0003c7e0       ??_Emd5meshgroup@md5@@UEAAPEAXI@Z 000000014003d7e0 f i * CIL library *:* CIL module *
 0001:0003c7e0       ??_Giqmmeshgroup@iqm@@UEAAPEAXI@Z 000000014003d7e0 f i rendermodel.obj
 0001:0003c7e0       ??_Eiqmmeshgroup@iqm@@UEAAPEAXI@Z 000000014003d7e0 f i * CIL library *:* CIL module *
 0001:0003c7e0       ??_Gsmdmeshgroup@smd@@UEAAPEAXI@Z 000000014003d7e0 f i rendermodel.obj
 0001:0003c830       ?type@obj@@UEBAHXZ         000000014003d830 f i rendermodel.obj
 0001:0003c840       ?parsevert@objmeshgroup@obj@@QEAAXPEADAEAU?$vector@Uvec@@@@@Z 000000014003d840 f i rendermodel.obj
 0001:0003c950       ?load@objmeshgroup@obj@@QEAA_NPEBDM@Z 000000014003d950 f i rendermodel.obj
 0001:0003d750       ?loadmeshes@obj@@UEAAPEAUmeshgroup@animmodel@@PEBDPEAD@Z 000000014003e750 f i rendermodel.obj
 0001:0003d7e0       ?loaddefaultparts@obj@@UEAA_NXZ 000000014003e7e0 f i rendermodel.obj
 0001:0003d9f0       ?load@obj@@UEAA_NXZ        000000014003e9f0 f i rendermodel.obj
 0001:0003dc10       ?type@smd@@UEBAHXZ         000000014003ec10 f i rendermodel.obj
 0001:0003dc20       ?skipcomment@smdmeshgroup@smd@@QEAA_NAEAPEAD@Z 000000014003ec20 f i rendermodel.obj
 0001:0003dce0       ?skipsection@smdmeshgroup@smd@@QEAAXPEAUstream@@PEAD_K@Z 000000014003ece0 f i rendermodel.obj
 0001:0003ddf0       ?readnodes@smdmeshgroup@smd@@QEAAXPEAUstream@@PEAD_KAEAU?$vector@Usmdbone@@@@@Z 000000014003edf0 f i rendermodel.obj
 0001:0003e0d0       ?finalize@smdmeshdata@smdmeshgroup@smd@@QEAAXXZ 000000014003f0d0 f i rendermodel.obj
 0001:0003e240       ?readtriangles@smdmeshgroup@smd@@QEAAXPEAUstream@@PEAD_K@Z 000000014003f240 f i rendermodel.obj
 0001:0003ed20       ?readskeleton@smdmeshgroup@smd@@QEAAXPEAUstream@@PEAD_K@Z 000000014003fd20 f i rendermodel.obj
 0001:0003f230       ?loadmesh@smdmeshgroup@smd@@QEAA_NPEBD@Z 0000000140040230 f i rendermodel.obj
 0001:0003f620       ?readframes@smdmeshgroup@smd@@QEAAHPEAUstream@@PEAD_KAEAU?$vector@Udualquat@@@@@Z 0000000140040620 f i rendermodel.obj
 0001:0003fe40       ?loadanim@smdmeshgroup@smd@@UEAAPEAUskelanimspec@skelmodel@@PEBD@Z 0000000140040e40 f i rendermodel.obj
 0001:00040230       ?loadmeshes@smd@@UEAAPEAUmeshgroup@animmodel@@PEBDPEAD@Z 0000000140041230 f i rendermodel.obj
 0001:000402d0       ?loaddefaultparts@smd@@UEAA_NXZ 00000001400412d0 f i rendermodel.obj
 0001:00040470       ?load@smd@@UEAA_NXZ        0000000140041470 f i rendermodel.obj
 0001:00040720       ??1?$hashtable@PEBDUsmdmeshdata@smdmeshgroup@smd@@@@QEAA@XZ 0000000140041720 f i rendermodel.obj
 0001:00040760       ??_Esmdmesh@smd@@UEAAPEAXI@Z 0000000140041760 f i * CIL library *:* CIL module *
 0001:00040760       ??_Gsmdmesh@smd@@UEAAPEAXI@Z 0000000140041760 f i rendermodel.obj
 0001:000407b0       ?type@iqm@@UEBAHXZ         00000001400417b0 f i rendermodel.obj
 0001:000407c0       ?loadiqmmeshes@iqmmeshgroup@iqm@@QEAA_NPEBDAEBUiqmheader@@PEAE@Z 00000001400417c0 f i rendermodel.obj
 0001:000413d0       ?loadiqmanims@iqmmeshgroup@iqm@@QEAA_NPEBDAEBUiqmheader@@PEAE@Z 00000001400423d0 f i rendermodel.obj
 0001:00041c90       ?loadiqm@iqmmeshgroup@iqm@@QEAA_NPEBD_N1@Z 0000000140042c90 f i rendermodel.obj
 0001:00041e20       ?loadanim@iqmmeshgroup@iqm@@UEAAPEAUskelanimspec@skelmodel@@PEBD@Z 0000000140042e20 f i rendermodel.obj
 0001:00041ef0       ?loadmeshes@iqm@@UEAAPEAUmeshgroup@animmodel@@PEBDPEAD@Z 0000000140042ef0 f i rendermodel.obj
 0001:00041f90       ?loaddefaultparts@iqm@@UEAA_NXZ 0000000140042f90 f i rendermodel.obj
 0001:00042130       ?load@iqm@@UEAA_NXZ        0000000140043130 f i rendermodel.obj
 0001:000423e0       ??1?$hashtable@PEBDPEAUmodel@@@@QEAA@XZ 00000001400433e0 f i rendermodel.obj
 0001:00042460       ??A?$hashtable@PEBDPEAUmeshgroup@animmodel@@@@QEAAAEAPEAUmeshgroup@animmodel@@AEBQEBD@Z 0000000140043460 f i rendermodel.obj
 0001:00042510       ??1?$hashset@U?$hashtableentry@PEBDPEAUmeshgroup@animmodel@@@@@@QEAA@XZ 0000000140043510 f i rendermodel.obj
 0001:00042570       ??1?$vector@Uskelanimspec@skelmodel@@@@QEAA@XZ 0000000140043570 f i rendermodel.obj
 0001:000425e0       ??1?$vector@Utag@skelmodel@@@@QEAA@XZ 00000001400435e0 f i rendermodel.obj
 0001:00042650       ?insert@?$vector@Upitchdep@skelmodel@@@@QEAAAEAUpitchdep@skelmodel@@HAEBU23@@Z 0000000140043650 f i rendermodel.obj
 0001:000427a0       ?add@?$vector@Uskelcacheentry@skelmodel@@@@QEAAAEAUskelcacheentry@skelmodel@@XZ 00000001400437a0 f i rendermodel.obj
 0001:00042850       ??1?$hashset@H@@QEAA@XZ    0000000140043850 f i rendermodel.obj
 0001:00042850       ??1?$hashset@U?$hashtableentry@IH@@@@QEAA@XZ 0000000140043850 f i rendermodel.obj
 0001:000428b0       ??A?$hashtable@PEBDPEAUskeleton@skelmodel@@@@QEAAAEAPEAUskeleton@skelmodel@@AEBQEBD@Z 00000001400438b0 f i rendermodel.obj
 0001:00042960       ??1?$hashset@U?$hashtableentry@PEBDPEAUskeleton@skelmodel@@@@@@QEAA@XZ 0000000140043960 f i rendermodel.obj
 0001:000429c0       ?inrange@?$vector@Usmdbone@@@@QEBA_NH@Z 00000001400439c0 f i rendermodel.obj
 0001:000429d0       ??A?$hashtable@PEBDUsmdmeshdata@smdmeshgroup@smd@@@@QEAAAEAUsmdmeshdata@smdmeshgroup@smd@@AEBQEBD@Z 00000001400439d0 f i rendermodel.obj
 0001:00042a90       ??1?$hashset@U?$hashtableentry@PEBDUsmdmeshdata@smdmeshgroup@smd@@@@@@QEAA@XZ 0000000140043a90 f i rendermodel.obj
 0001:00042ac0       ?access@?$hashtable@PEBDPEAUmodel@@@@QEAAPEAPEAUmodel@@AEBQEBD@Z 0000000140043ac0 f i rendermodel.obj
 0001:00042b50       ??1?$hashset@U?$hashtableentry@PEBDPEAUmodel@@@@@@QEAA@XZ 0000000140043b50 f i rendermodel.obj
 0001:00042bb0       ?growbuf@?$vector@Uvert@ragdollskel@@@@QEAAXH@Z 0000000140043bb0 f i rendermodel.obj
 0001:00042c50       ?growbuf@?$vector@Urotlimit@ragdollskel@@@@QEAAXH@Z 0000000140043c50 f i rendermodel.obj
 0001:00042c50       ?growbuf@?$vector@UUniformLoc@@@@QEAAXH@Z 0000000140043c50 f i shader.obj
 0001:00042c50       ?growbuf@?$vector@Uavisegmentinfo@@@@QEAAXH@Z 0000000140043c50 f i movie.obj
 0001:00042cf0       ?growbuf@?$vector@Urotfriction@ragdollskel@@@@QEAAXH@Z 0000000140043cf0 f i rendermodel.obj
 0001:00042d90       ?growbuf@?$vector@Ujoint@ragdollskel@@@@QEAAXH@Z 0000000140043d90 f i rendermodel.obj
 0001:00042d90       ?growbuf@?$vector@Utri@BIH@@@@QEAAXH@Z 0000000140043d90 f i rendermodel.obj
 0001:00042e30       ?growbuf@?$vector@Ulinkedpart@animmodel@@@@QEAAXH@Z 0000000140043e30 f i rendermodel.obj
 0001:00042ed0       ?growbuf@?$vector@Uskin@animmodel@@@@QEAAXH@Z 0000000140043ed0 f i rendermodel.obj
 0001:00042f70       ??0?$hashset@U?$hashtableentry@PEBDPEAUmeshgroup@animmodel@@@@@@QEAA@H@Z 0000000140043f70 f i rendermodel.obj
 0001:00043000       ?growbuf@?$vector@Utag@skelmodel@@@@QEAAXH@Z 0000000140044000 f i rendermodel.obj
 0001:00043000       ?growbuf@?$vector@ULocalShaderParamState@@@@QEAAXH@Z 0000000140044000 f i shader.obj
 0001:00043000       ?growbuf@?$vector@Uident@@@@QEAAXH@Z 0000000140044000 f i command.obj
 0001:000430a0       ?growbuf@?$vector@Uskelcacheentry@skelmodel@@@@QEAAXH@Z 00000001400440a0 f i rendermodel.obj
 0001:00043140       ??0?$hashset@U?$hashtableentry@IH@@@@QEAA@H@Z 0000000140044140 f i rendermodel.obj
 0001:000431d0       ??0?$hashset@U?$hashtableentry@PEBDPEAUskeleton@skelmodel@@@@@@QEAA@H@Z 00000001400441d0 f i rendermodel.obj
 0001:00043260       ?setpitch@?$vertcommands@Umd2@@@@SAXPEAM000@Z 0000000140044260 f i rendermodel.obj
 0001:00043300       ?setanim@?$vertcommands@Umd2@@@@SAXPEADPEAH1PEAM1@Z 0000000140044300 f i rendermodel.obj
 0001:000434f0       ?loadpart@?$vertcommands@Umd3@@@@SAXPEADPEAM@Z 00000001400444f0 f i rendermodel.obj
 0001:000436e0       ?setpitch@?$vertcommands@Umd3@@@@SAXPEAM000@Z 00000001400446e0 f i rendermodel.obj
 0001:00043780       ?setanim@?$vertcommands@Umd3@@@@SAXPEADPEAH1PEAM1@Z 0000000140044780 f i rendermodel.obj
 0001:00043970       ??0?$modelcommands@Umd3@@Uvertmesh@vertmodel@@@@QEAA@XZ 0000000140044970 f i rendermodel.obj
 0001:00043a70       ?loadpart@?$skelcommands@Umd5@@@@SAXPEAD0PEAM@Z 0000000140044a70 f i rendermodel.obj
 0001:00043c90       ?settag@?$skelcommands@Umd5@@@@SAXPEAD0PEAM11111@Z 0000000140044c90 f i rendermodel.obj
 0001:00044040       ?setpitch@?$skelcommands@Umd5@@@@SAXPEADPEAM111@Z 0000000140045040 f i rendermodel.obj
 0001:000441e0       ?setpitchtarget@?$skelcommands@Umd5@@@@SAXPEAD0PEAHPEAM2@Z 00000001400451e0 f i rendermodel.obj
 0001:00044390       ?setpitchcorrect@?$skelcommands@Umd5@@@@SAXPEAD0PEAM11@Z 0000000140045390 f i rendermodel.obj
 0001:00044550       ?setanim@?$skelcommands@Umd5@@@@SAXPEAD0PEAMPEAH22@Z 0000000140045550 f i rendermodel.obj
 0001:00044840       ?setanimpart@?$skelcommands@Umd5@@@@SAXPEAD@Z 0000000140045840 f i rendermodel.obj
 0001:00044ba0       ?setadjust@?$skelcommands@Umd5@@@@SAXPEADPEAM11111@Z 0000000140045ba0 f i rendermodel.obj
 0001:00044d50       ??0?$modelcommands@Umd5@@Uskelmesh@skelmodel@@@@QEAA@XZ 0000000140045d50 f i rendermodel.obj
 0001:00044e60       ?loadpart@?$vertcommands@Uobj@@@@SAXPEADPEAM@Z 0000000140045e60 f i rendermodel.obj
 0001:00045050       ?setpitch@?$vertcommands@Uobj@@@@SAXPEAM000@Z 0000000140046050 f i rendermodel.obj
 0001:000450f0       ??0?$modelcommands@Uobj@@Uvertmesh@vertmodel@@@@QEAA@XZ 00000001400460f0 f i rendermodel.obj
 0001:000451f0       ?growbuf@?$vector@Utri@skelmodel@@@@QEAAXH@Z 00000001400461f0 f i rendermodel.obj
 0001:00045290       ?growbuf@?$vector@Usmdbone@@@@QEAAXH@Z 0000000140046290 f i rendermodel.obj
 0001:00045330       ?deletechunks@?$hashset@U?$hashtableentry@PEBDUsmdmeshdata@smdmeshgroup@smd@@@@@@QEAAXXZ 0000000140046330 f i rendermodel.obj
 0001:000453c0       ?loadpart@?$skelcommands@Usmd@@@@SAXPEAD0PEAM@Z 00000001400463c0 f i rendermodel.obj
 0001:000455e0       ?settag@?$skelcommands@Usmd@@@@SAXPEAD0PEAM11111@Z 00000001400465e0 f i rendermodel.obj
 0001:00045990       ?setpitch@?$skelcommands@Usmd@@@@SAXPEADPEAM111@Z 0000000140046990 f i rendermodel.obj
 0001:00045b30       ?setpitchtarget@?$skelcommands@Usmd@@@@SAXPEAD0PEAHPEAM2@Z 0000000140046b30 f i rendermodel.obj
 0001:00045ce0       ?setpitchcorrect@?$skelcommands@Usmd@@@@SAXPEAD0PEAM11@Z 0000000140046ce0 f i rendermodel.obj
 0001:00045ea0       ?setanim@?$skelcommands@Usmd@@@@SAXPEAD0PEAMPEAH22@Z 0000000140046ea0 f i rendermodel.obj
 0001:00046190       ?setanimpart@?$skelcommands@Usmd@@@@SAXPEAD@Z 0000000140047190 f i rendermodel.obj
 0001:000464f0       ?setadjust@?$skelcommands@Usmd@@@@SAXPEADPEAM11111@Z 00000001400474f0 f i rendermodel.obj
 0001:000466a0       ??0?$modelcommands@Usmd@@Uskelmesh@skelmodel@@@@QEAA@XZ 00000001400476a0 f i rendermodel.obj
 0001:000467b0       ?loadpart@?$skelcommands@Uiqm@@@@SAXPEAD0PEAM@Z 00000001400477b0 f i rendermodel.obj
 0001:000469d0       ?settag@?$skelcommands@Uiqm@@@@SAXPEAD0PEAM11111@Z 00000001400479d0 f i rendermodel.obj
 0001:00046d80       ?setpitch@?$skelcommands@Uiqm@@@@SAXPEADPEAM111@Z 0000000140047d80 f i rendermodel.obj
 0001:00046f20       ?setpitchtarget@?$skelcommands@Uiqm@@@@SAXPEAD0PEAHPEAM2@Z 0000000140047f20 f i rendermodel.obj
 0001:000470d0       ?setpitchcorrect@?$skelcommands@Uiqm@@@@SAXPEAD0PEAM11@Z 00000001400480d0 f i rendermodel.obj
 0001:00047290       ?setanim@?$skelcommands@Uiqm@@@@SAXPEAD0PEAMPEAH22@Z 0000000140048290 f i rendermodel.obj
 0001:00047580       ?setanimpart@?$skelcommands@Uiqm@@@@SAXPEAD@Z 0000000140048580 f i rendermodel.obj
 0001:000478e0       ?setadjust@?$skelcommands@Uiqm@@@@SAXPEADPEAM11111@Z 00000001400488e0 f i rendermodel.obj
 0001:00047a90       ??0?$modelcommands@Uiqm@@Uskelmesh@skelmodel@@@@QEAA@XZ 0000000140048a90 f i rendermodel.obj
 0001:00047ba0       ?growbuf@?$vector@Umapmodelinfo@@@@QEAAXH@Z 0000000140048ba0 f i rendermodel.obj
 0001:00047c40       ??0?$hashset@U?$hashtableentry@PEBDPEAUmodel@@@@@@QEAA@H@Z 0000000140048c40 f i rendermodel.obj
 0001:00047cd0       ?growbuf@?$vector@Ubatchedmodel@@@@QEAAXH@Z 0000000140048cd0 f i rendermodel.obj
 0001:00047d70       ?growbuf@?$vector@PEAUmodelbatch@@@@QEAAXH@Z 0000000140048d70 f i rendermodel.obj
 0001:00047e10       ??1chain@?$hashset@U?$hashtableentry@PEBDUsmdmeshdata@smdmeshgroup@smd@@@@@@QEAA@XZ 0000000140048e10 f i rendermodel.obj
 0001:00047e40       ??1?$hashtableentry@PEBDUsmdmeshdata@smdmeshgroup@smd@@@@QEAA@XZ 0000000140048e40 f i rendermodel.obj
 0001:00047e60       ??1smdmeshdata@smdmeshgroup@smd@@QEAA@XZ 0000000140048e60 f i rendermodel.obj
 0001:00047ed0       ?insert@?$hashset@U?$hashtableentry@PEBDPEAUmeshgroup@animmodel@@@@@@QEAAPEAUchain@1@I@Z 0000000140048ed0 f i rendermodel.obj
 0001:00047fa0       ?add@?$vector@Upitchtarget@skelmodel@@@@QEAAAEAUpitchtarget@skelmodel@@XZ 0000000140048fa0 f i rendermodel.obj
 0001:00047ff0       ?insert@?$vector@Upitchcorrect@skelmodel@@@@QEAAAEAUpitchcorrect@skelmodel@@HAEBU23@@Z 0000000140048ff0 f i rendermodel.obj
 0001:00048100       ?insert@?$hashset@U?$hashtableentry@IH@@@@QEAAPEAUchain@1@I@Z 0000000140049100 f i rendermodel.obj
 0001:000481c0       ?insert@?$hashset@U?$hashtableentry@PEBDPEAUskeleton@skelmodel@@@@@@QEAAPEAUchain@1@I@Z 00000001400491c0 f i rendermodel.obj
 0001:00048290       ?setdir@?$modelcommands@Umd2@@Uvertmesh@vertmodel@@@@SAXPEAD@Z 0000000140049290 f i rendermodel.obj
 0001:000482e0       ?setdir@?$modelcommands@Umd3@@Uvertmesh@vertmodel@@@@SAXPEAD@Z 00000001400492e0 f i rendermodel.obj
 0001:00048330       ?setskin@?$modelcommands@Umd3@@Uvertmesh@vertmodel@@@@SAXPEAD00PEAM1@Z 0000000140049330 f i rendermodel.obj
 0001:000484d0       ?setspec@?$modelcommands@Umd3@@Uvertmesh@vertmodel@@@@SAXPEADPEAH@Z 00000001400494d0 f i rendermodel.obj
 0001:000485e0       ?setambient@?$modelcommands@Umd3@@Uvertmesh@vertmodel@@@@SAXPEADPEAH@Z 00000001400495e0 f i rendermodel.obj
 0001:000486f0       ?setglow@?$modelcommands@Umd3@@Uvertmesh@vertmodel@@@@SAXPEADPEAH1PEAM@Z 00000001400496f0 f i rendermodel.obj
 0001:00048840       ?setglare@?$modelcommands@Umd3@@Uvertmesh@vertmodel@@@@SAXPEADPEAM1@Z 0000000140049840 f i rendermodel.obj
 0001:00048960       ?setalphatest@?$modelcommands@Umd3@@Uvertmesh@vertmodel@@@@SAXPEADPEAM@Z 0000000140049960 f i rendermodel.obj
 0001:00048a80       ?setalphablend@?$modelcommands@Umd3@@Uvertmesh@vertmodel@@@@SAXPEADPEAH@Z 0000000140049a80 f i rendermodel.obj
 0001:00048b80       ?setcullface@?$modelcommands@Umd3@@Uvertmesh@vertmodel@@@@SAXPEADPEAH@Z 0000000140049b80 f i rendermodel.obj
 0001:00048c80       ?setenvmap@?$modelcommands@Umd3@@Uvertmesh@vertmodel@@@@SAXPEAD0@Z 0000000140049c80 f i rendermodel.obj
 0001:00048d90       ?setbumpmap@?$modelcommands@Umd3@@Uvertmesh@vertmodel@@@@SAXPEAD00@Z 0000000140049d90 f i rendermodel.obj
 0001:00048f10       ?setfullbright@?$modelcommands@Umd3@@Uvertmesh@vertmodel@@@@SAXPEADPEAM@Z 0000000140049f10 f i rendermodel.obj
 0001:00049010       ?setshader@?$modelcommands@Umd3@@Uvertmesh@vertmodel@@@@SAXPEAD0@Z 000000014004a010 f i rendermodel.obj
 0001:00049130       ?setscroll@?$modelcommands@Umd3@@Uvertmesh@vertmodel@@@@SAXPEADPEAM1@Z 000000014004a130 f i rendermodel.obj
 0001:00049250       ?setnoclip@?$modelcommands@Umd3@@Uvertmesh@vertmodel@@@@SAXPEADPEAH@Z 000000014004a250 f i rendermodel.obj
 0001:00049340       ?setlink@?$modelcommands@Umd3@@Uvertmesh@vertmodel@@@@SAXPEAH0PEADPEAM22@Z 000000014004a340 f i rendermodel.obj
 0001:00049430       ?setdir@?$modelcommands@Umd5@@Uskelmesh@skelmodel@@@@SAXPEAD@Z 000000014004a430 f i rendermodel.obj
 0001:00049480       ?setskin@?$modelcommands@Umd5@@Uskelmesh@skelmodel@@@@SAXPEAD00PEAM1@Z 000000014004a480 f i rendermodel.obj
 0001:00049620       ?setspec@?$modelcommands@Umd5@@Uskelmesh@skelmodel@@@@SAXPEADPEAH@Z 000000014004a620 f i rendermodel.obj
 0001:00049730       ?setambient@?$modelcommands@Umd5@@Uskelmesh@skelmodel@@@@SAXPEADPEAH@Z 000000014004a730 f i rendermodel.obj
 0001:00049840       ?setglow@?$modelcommands@Umd5@@Uskelmesh@skelmodel@@@@SAXPEADPEAH1PEAM@Z 000000014004a840 f i rendermodel.obj
 0001:00049990       ?setglare@?$modelcommands@Umd5@@Uskelmesh@skelmodel@@@@SAXPEADPEAM1@Z 000000014004a990 f i rendermodel.obj
 0001:00049ab0       ?setalphatest@?$modelcommands@Umd5@@Uskelmesh@skelmodel@@@@SAXPEADPEAM@Z 000000014004aab0 f i rendermodel.obj
 0001:00049bd0       ?setalphablend@?$modelcommands@Umd5@@Uskelmesh@skelmodel@@@@SAXPEADPEAH@Z 000000014004abd0 f i rendermodel.obj
 0001:00049cd0       ?setcullface@?$modelcommands@Umd5@@Uskelmesh@skelmodel@@@@SAXPEADPEAH@Z 000000014004acd0 f i rendermodel.obj
 0001:00049dd0       ?setenvmap@?$modelcommands@Umd5@@Uskelmesh@skelmodel@@@@SAXPEAD0@Z 000000014004add0 f i rendermodel.obj
 0001:00049ee0       ?setbumpmap@?$modelcommands@Umd5@@Uskelmesh@skelmodel@@@@SAXPEAD00@Z 000000014004aee0 f i rendermodel.obj
 0001:0004a060       ?setfullbright@?$modelcommands@Umd5@@Uskelmesh@skelmodel@@@@SAXPEADPEAM@Z 000000014004b060 f i rendermodel.obj
 0001:0004a160       ?setshader@?$modelcommands@Umd5@@Uskelmesh@skelmodel@@@@SAXPEAD0@Z 000000014004b160 f i rendermodel.obj
 0001:0004a280       ?setscroll@?$modelcommands@Umd5@@Uskelmesh@skelmodel@@@@SAXPEADPEAM1@Z 000000014004b280 f i rendermodel.obj
 0001:0004a3a0       ?setnoclip@?$modelcommands@Umd5@@Uskelmesh@skelmodel@@@@SAXPEADPEAH@Z 000000014004b3a0 f i rendermodel.obj
 0001:0004a490       ?setlink@?$modelcommands@Umd5@@Uskelmesh@skelmodel@@@@SAXPEAH0PEADPEAM22@Z 000000014004b490 f i rendermodel.obj
 0001:0004a580       ?setdir@?$modelcommands@Uobj@@Uvertmesh@vertmodel@@@@SAXPEAD@Z 000000014004b580 f i rendermodel.obj
 0001:0004a5d0       ?setskin@?$modelcommands@Uobj@@Uvertmesh@vertmodel@@@@SAXPEAD00PEAM1@Z 000000014004b5d0 f i rendermodel.obj
 0001:0004a770       ?setspec@?$modelcommands@Uobj@@Uvertmesh@vertmodel@@@@SAXPEADPEAH@Z 000000014004b770 f i rendermodel.obj
 0001:0004a880       ?setambient@?$modelcommands@Uobj@@Uvertmesh@vertmodel@@@@SAXPEADPEAH@Z 000000014004b880 f i rendermodel.obj
 0001:0004a990       ?setglow@?$modelcommands@Uobj@@Uvertmesh@vertmodel@@@@SAXPEADPEAH1PEAM@Z 000000014004b990 f i rendermodel.obj
 0001:0004aae0       ?setglare@?$modelcommands@Uobj@@Uvertmesh@vertmodel@@@@SAXPEADPEAM1@Z 000000014004bae0 f i rendermodel.obj
 0001:0004ac00       ?setalphatest@?$modelcommands@Uobj@@Uvertmesh@vertmodel@@@@SAXPEADPEAM@Z 000000014004bc00 f i rendermodel.obj
 0001:0004ad20       ?setalphablend@?$modelcommands@Uobj@@Uvertmesh@vertmodel@@@@SAXPEADPEAH@Z 000000014004bd20 f i rendermodel.obj
 0001:0004ae20       ?setcullface@?$modelcommands@Uobj@@Uvertmesh@vertmodel@@@@SAXPEADPEAH@Z 000000014004be20 f i rendermodel.obj
 0001:0004af20       ?setenvmap@?$modelcommands@Uobj@@Uvertmesh@vertmodel@@@@SAXPEAD0@Z 000000014004bf20 f i rendermodel.obj
 0001:0004b030       ?setbumpmap@?$modelcommands@Uobj@@Uvertmesh@vertmodel@@@@SAXPEAD00@Z 000000014004c030 f i rendermodel.obj
 0001:0004b1b0       ?setfullbright@?$modelcommands@Uobj@@Uvertmesh@vertmodel@@@@SAXPEADPEAM@Z 000000014004c1b0 f i rendermodel.obj
 0001:0004b2b0       ?setshader@?$modelcommands@Uobj@@Uvertmesh@vertmodel@@@@SAXPEAD0@Z 000000014004c2b0 f i rendermodel.obj
 0001:0004b3d0       ?setscroll@?$modelcommands@Uobj@@Uvertmesh@vertmodel@@@@SAXPEADPEAM1@Z 000000014004c3d0 f i rendermodel.obj
 0001:0004b4f0       ?setnoclip@?$modelcommands@Uobj@@Uvertmesh@vertmodel@@@@SAXPEADPEAH@Z 000000014004c4f0 f i rendermodel.obj
 0001:0004b5e0       ?setlink@?$modelcommands@Uobj@@Uvertmesh@vertmodel@@@@SAXPEAH0PEADPEAM22@Z 000000014004c5e0 f i rendermodel.obj
 0001:0004b6d0       ?insert@?$hashset@U?$hashtableentry@PEBDUsmdmeshdata@smdmeshgroup@smd@@@@@@QEAAPEAUchain@1@I@Z 000000014004c6d0 f i rendermodel.obj
 0001:0004b7d0       ?setdir@?$modelcommands@Usmd@@Uskelmesh@skelmodel@@@@SAXPEAD@Z 000000014004c7d0 f i rendermodel.obj
 0001:0004b820       ?setskin@?$modelcommands@Usmd@@Uskelmesh@skelmodel@@@@SAXPEAD00PEAM1@Z 000000014004c820 f i rendermodel.obj
 0001:0004b9c0       ?setspec@?$modelcommands@Usmd@@Uskelmesh@skelmodel@@@@SAXPEADPEAH@Z 000000014004c9c0 f i rendermodel.obj
 0001:0004bad0       ?setambient@?$modelcommands@Usmd@@Uskelmesh@skelmodel@@@@SAXPEADPEAH@Z 000000014004cad0 f i rendermodel.obj
 0001:0004bbe0       ?setglow@?$modelcommands@Usmd@@Uskelmesh@skelmodel@@@@SAXPEADPEAH1PEAM@Z 000000014004cbe0 f i rendermodel.obj
 0001:0004bd30       ?setglare@?$modelcommands@Usmd@@Uskelmesh@skelmodel@@@@SAXPEADPEAM1@Z 000000014004cd30 f i rendermodel.obj
 0001:0004be50       ?setalphatest@?$modelcommands@Usmd@@Uskelmesh@skelmodel@@@@SAXPEADPEAM@Z 000000014004ce50 f i rendermodel.obj
 0001:0004bf70       ?setalphablend@?$modelcommands@Usmd@@Uskelmesh@skelmodel@@@@SAXPEADPEAH@Z 000000014004cf70 f i rendermodel.obj
 0001:0004c070       ?setcullface@?$modelcommands@Usmd@@Uskelmesh@skelmodel@@@@SAXPEADPEAH@Z 000000014004d070 f i rendermodel.obj
 0001:0004c170       ?setenvmap@?$modelcommands@Usmd@@Uskelmesh@skelmodel@@@@SAXPEAD0@Z 000000014004d170 f i rendermodel.obj
 0001:0004c280       ?setbumpmap@?$modelcommands@Usmd@@Uskelmesh@skelmodel@@@@SAXPEAD00@Z 000000014004d280 f i rendermodel.obj
 0001:0004c400       ?setfullbright@?$modelcommands@Usmd@@Uskelmesh@skelmodel@@@@SAXPEADPEAM@Z 000000014004d400 f i rendermodel.obj
 0001:0004c500       ?setshader@?$modelcommands@Usmd@@Uskelmesh@skelmodel@@@@SAXPEAD0@Z 000000014004d500 f i rendermodel.obj
 0001:0004c620       ?setscroll@?$modelcommands@Usmd@@Uskelmesh@skelmodel@@@@SAXPEADPEAM1@Z 000000014004d620 f i rendermodel.obj
 0001:0004c740       ?setnoclip@?$modelcommands@Usmd@@Uskelmesh@skelmodel@@@@SAXPEADPEAH@Z 000000014004d740 f i rendermodel.obj
 0001:0004c830       ?setlink@?$modelcommands@Usmd@@Uskelmesh@skelmodel@@@@SAXPEAH0PEADPEAM22@Z 000000014004d830 f i rendermodel.obj
 0001:0004c920       ?setdir@?$modelcommands@Uiqm@@Uskelmesh@skelmodel@@@@SAXPEAD@Z 000000014004d920 f i rendermodel.obj
 0001:0004c970       ?setskin@?$modelcommands@Uiqm@@Uskelmesh@skelmodel@@@@SAXPEAD00PEAM1@Z 000000014004d970 f i rendermodel.obj
 0001:0004cb10       ?setspec@?$modelcommands@Uiqm@@Uskelmesh@skelmodel@@@@SAXPEADPEAH@Z 000000014004db10 f i rendermodel.obj
 0001:0004cc20       ?setambient@?$modelcommands@Uiqm@@Uskelmesh@skelmodel@@@@SAXPEADPEAH@Z 000000014004dc20 f i rendermodel.obj
 0001:0004cd30       ?setglow@?$modelcommands@Uiqm@@Uskelmesh@skelmodel@@@@SAXPEADPEAH1PEAM@Z 000000014004dd30 f i rendermodel.obj
 0001:0004ce80       ?setglare@?$modelcommands@Uiqm@@Uskelmesh@skelmodel@@@@SAXPEADPEAM1@Z 000000014004de80 f i rendermodel.obj
 0001:0004cfa0       ?setalphatest@?$modelcommands@Uiqm@@Uskelmesh@skelmodel@@@@SAXPEADPEAM@Z 000000014004dfa0 f i rendermodel.obj
 0001:0004d0c0       ?setalphablend@?$modelcommands@Uiqm@@Uskelmesh@skelmodel@@@@SAXPEADPEAH@Z 000000014004e0c0 f i rendermodel.obj
 0001:0004d1c0       ?setcullface@?$modelcommands@Uiqm@@Uskelmesh@skelmodel@@@@SAXPEADPEAH@Z 000000014004e1c0 f i rendermodel.obj
 0001:0004d2c0       ?setenvmap@?$modelcommands@Uiqm@@Uskelmesh@skelmodel@@@@SAXPEAD0@Z 000000014004e2c0 f i rendermodel.obj
 0001:0004d3d0       ?setbumpmap@?$modelcommands@Uiqm@@Uskelmesh@skelmodel@@@@SAXPEAD00@Z 000000014004e3d0 f i rendermodel.obj
 0001:0004d550       ?setfullbright@?$modelcommands@Uiqm@@Uskelmesh@skelmodel@@@@SAXPEADPEAM@Z 000000014004e550 f i rendermodel.obj
 0001:0004d650       ?setshader@?$modelcommands@Uiqm@@Uskelmesh@skelmodel@@@@SAXPEAD0@Z 000000014004e650 f i rendermodel.obj
 0001:0004d770       ?setscroll@?$modelcommands@Uiqm@@Uskelmesh@skelmodel@@@@SAXPEADPEAM1@Z 000000014004e770 f i rendermodel.obj
 0001:0004d890       ?setnoclip@?$modelcommands@Uiqm@@Uskelmesh@skelmodel@@@@SAXPEADPEAH@Z 000000014004e890 f i rendermodel.obj
 0001:0004d980       ?setlink@?$modelcommands@Uiqm@@Uskelmesh@skelmodel@@@@SAXPEAH0PEADPEAM22@Z 000000014004e980 f i rendermodel.obj
 0001:0004da70       ?insert@?$hashset@U?$hashtableentry@PEBDPEAUmodel@@@@@@QEAAPEAUchain@1@I@Z 000000014004ea70 f i rendermodel.obj
 0001:0004db40       ??0chain@?$hashset@U?$hashtableentry@PEBDUsmdmeshdata@smdmeshgroup@smd@@@@@@QEAA@XZ 000000014004eb40 f i rendermodel.obj
 0001:0004db80       ?growbuf@?$vector@Upitchtarget@skelmodel@@@@QEAAXH@Z 000000014004eb80 f i rendermodel.obj
 0001:0004dc20       ?growbuf@?$vector@Uzipfile@@@@QEAAXH@Z 000000014004ec20 f i zip.obj
 0001:0004dc20       ?growbuf@?$vector@Uskeladjustment@@@@QEAAXH@Z 000000014004ec20 f i rendermodel.obj
 0001:0004dcc0       ??$smoothnorms@Uvert@vertmodel@@Utri@2@@mesh@animmodel@@QEAAXPEAUvert@vertmodel@@HPEAUtri@3@HM_N@Z 000000014004ecc0 f i rendermodel.obj
 0001:0004e520       ??$buildnorms@Uvert@vertmodel@@Utri@2@@mesh@animmodel@@QEAAXPEAUvert@vertmodel@@HPEAUtri@3@H_N@Z 000000014004f520 f i rendermodel.obj
 0001:0004e8c0       ??$calctangents@Ubumpvert@vertmodel@@Uvert@2@Utcvert@2@Utri@2@@mesh@animmodel@@QEAAXPEAUbumpvert@vertmodel@@PEAUvert@3@PEAUtcvert@3@HPEAUtri@3@H_N@Z 000000014004f8c0 f i rendermodel.obj
 0001:0004eef0       ??$genvbo@Uvvertbump@vertmodel@@@vertmesh@vertmodel@@QEAAHAEAU?$vector@G@@HAEAU?$vector@Uvvertbump@vertmodel@@@@PEAHH@Z 000000014004fef0 f i rendermodel.obj
 0001:0004f3c0       ??$genvbo@Uvvert@vertmodel@@@vertmesh@vertmodel@@QEAAHAEAU?$vector@G@@HAEAU?$vector@Uvvert@vertmodel@@@@PEAHH@Z 00000001400503c0 f i rendermodel.obj
 0001:0004f860       ??$genvbo@Uvvertff@vertmodel@@@vertmesh@vertmodel@@QEAAHAEAU?$vector@G@@HAEAU?$vector@Uvvertff@vertmodel@@@@PEAHH@Z 0000000140050860 f i rendermodel.obj
 0001:0004fcc0       ??$smoothnorms@Uvert@skelmodel@@Utri@2@@mesh@animmodel@@QEAAXPEAUvert@skelmodel@@HPEAUtri@3@HM_N@Z 0000000140050cc0 f i rendermodel.obj
 0001:00050520       ??$buildnorms@Uvert@skelmodel@@Utri@2@@mesh@animmodel@@QEAAXPEAUvert@skelmodel@@HPEAUtri@3@H_N@Z 0000000140051520 f i rendermodel.obj
 0001:000508e0       ??$calctangents@Ubumpvert@skelmodel@@Uvert@2@U32@Utri@2@@mesh@animmodel@@QEAAXPEAUbumpvert@skelmodel@@PEAUvert@3@1HPEAUtri@3@H_N@Z 00000001400518e0 f i rendermodel.obj
 0001:00050f10       ??$genvbo@Uvvertbumpw@skelmodel@@@skelmesh@skelmodel@@QEAAHAEAU?$vector@G@@HAEAU?$vector@Uvvertbumpw@skelmodel@@@@@Z 0000000140051f10 f i rendermodel.obj
 0001:00051110       ??$genvbo@Uvvertw@skelmodel@@@skelmesh@skelmodel@@QEAAHAEAU?$vector@G@@HAEAU?$vector@Uvvertw@skelmodel@@@@@Z 0000000140052110 f i rendermodel.obj
 0001:00051350       ??$genvbo@Uvvertbump@skelmodel@@@skelmesh@skelmodel@@QEAAHAEAU?$vector@G@@HAEAU?$vector@Uvvertbump@skelmodel@@@@PEAHH@Z 0000000140052350 f i rendermodel.obj
 0001:00051820       ??$genvbo@Uvvertn@skelmodel@@@skelmesh@skelmodel@@QEAAHAEAU?$vector@G@@HAEAU?$vector@Uvvertn@skelmodel@@@@PEAHH@Z 0000000140052820 f i rendermodel.obj
 0001:00051ca0       ??$genvbo@Uvvert@skelmodel@@@skelmesh@skelmodel@@QEAAHAEAU?$vector@G@@HAEAU?$vector@Uvvert@skelmodel@@@@PEAHH@Z 0000000140052ca0 f i rendermodel.obj
 0001:000520f0       ??$blendbones@Umatrix3x4@@@skelmeshgroup@skelmodel@@SAXAEAUmatrix3x4@@PEBU2@AEBUblendcombo@1@@Z 00000001400530f0 f i rendermodel.obj
 0001:00052290       ??$blendbones@Udualquat@@@skelmeshgroup@skelmodel@@SAXAEAUdualquat@@PEBU2@AEBUblendcombo@1@@Z 0000000140053290 f i rendermodel.obj
 0001:000523d0       ??$interpverts@Umatrix3x4@@@skelmesh@skelmodel@@QEAAXPEIBUmatrix3x4@@0_N1PEIAXAEAUskin@animmodel@@@Z 00000001400533d0 f i rendermodel.obj
 0001:00052d30       ??$interpverts@Udualquat@@@skelmesh@skelmodel@@QEAAXPEIBUdualquat@@0_N1PEIAXAEAUskin@animmodel@@@Z 0000000140053d30 f i rendermodel.obj
 0001:00052fb0       ??$remove@PEAD@?$hashset@U?$hashtableentry@PEBDPEAUmodel@@@@@@QEAA_NAEBQEAD@Z 0000000140053fb0 f i rendermodel.obj
 0001:00053080       ??$modelcommand@$$A6AXPEAM000@Z@?$modelcommands@Umd2@@Uvertmesh@vertmodel@@@@QEAAXP6AXPEAM000@ZPEBD2@Z 0000000140054080 f i rendermodel.obj
 0001:00053130       ??$modelcommand@$$A6AXPEADPEAH1PEAM1@Z@?$modelcommands@Umd2@@Uvertmesh@vertmodel@@@@QEAAXP6AXPEADPEAH1PEAM1@ZPEBD4@Z 0000000140054130 f i rendermodel.obj
 0001:000531e0       ??$modelcommand@$$A6AXPEADPEAM@Z@?$modelcommands@Umd3@@Uvertmesh@vertmodel@@@@QEAAXP6AXPEADPEAM@ZPEBD3@Z 00000001400541e0 f i rendermodel.obj
 0001:000532a0       ??$modelcommand@$$A6AXPEAM000@Z@?$modelcommands@Umd3@@Uvertmesh@vertmodel@@@@QEAAXP6AXPEAM000@ZPEBD2@Z 00000001400542a0 f i rendermodel.obj
 0001:00053350       ??$modelcommand@$$A6AXPEADPEAH1PEAM1@Z@?$modelcommands@Umd3@@Uvertmesh@vertmodel@@@@QEAAXP6AXPEADPEAH1PEAM1@ZPEBD4@Z 0000000140054350 f i rendermodel.obj
 0001:00053400       ??$modelcommand@$$A6AXPEAD0PEAM@Z@?$modelcommands@Umd5@@Uskelmesh@skelmodel@@@@QEAAXP6AXPEAD0PEAM@ZPEBD3@Z 0000000140054400 f i rendermodel.obj
 0001:000534b0       ??$modelcommand@$$A6AXPEAD0PEAM11111@Z@?$modelcommands@Umd5@@Uskelmesh@skelmodel@@@@QEAAXP6AXPEAD0PEAM11111@ZPEBD3@Z 00000001400544b0 f i rendermodel.obj
 0001:00053560       ??$modelcommand@$$A6AXPEADPEAM111@Z@?$modelcommands@Umd5@@Uskelmesh@skelmodel@@@@QEAAXP6AXPEADPEAM111@ZPEBD3@Z 0000000140054560 f i rendermodel.obj
 0001:00053610       ??$modelcommand@$$A6AXPEAD0PEAHPEAM2@Z@?$modelcommands@Umd5@@Uskelmesh@skelmodel@@@@QEAAXP6AXPEAD0PEAHPEAM2@ZPEBD4@Z 0000000140054610 f i rendermodel.obj
 0001:000536c0       ??$modelcommand@$$A6AXPEAD0PEAM11@Z@?$modelcommands@Umd5@@Uskelmesh@skelmodel@@@@QEAAXP6AXPEAD0PEAM11@ZPEBD3@Z 00000001400546c0 f i rendermodel.obj
 0001:00053770       ??$modelcommand@$$A6AXPEAD0PEAMPEAH22@Z@?$modelcommands@Umd5@@Uskelmesh@skelmodel@@@@QEAAXP6AXPEAD0PEAMPEAH22@ZPEBD4@Z 0000000140054770 f i rendermodel.obj
 0001:00053820       ??$modelcommand@$$A6AXPEAD@Z@?$modelcommands@Umd5@@Uskelmesh@skelmodel@@@@QEAAXP6AXPEAD@ZPEBD2@Z 0000000140054820 f i rendermodel.obj
 0001:000538e0       ??$modelcommand@$$A6AXPEADPEAM11111@Z@?$modelcommands@Umd5@@Uskelmesh@skelmodel@@@@QEAAXP6AXPEADPEAM11111@ZPEBD3@Z 00000001400548e0 f i rendermodel.obj
 0001:00053990       ??$modelcommand@$$A6AXPEADPEAM@Z@?$modelcommands@Uobj@@Uvertmesh@vertmodel@@@@QEAAXP6AXPEADPEAM@ZPEBD3@Z 0000000140054990 f i rendermodel.obj
 0001:00053a50       ??$modelcommand@$$A6AXPEAM000@Z@?$modelcommands@Uobj@@Uvertmesh@vertmodel@@@@QEAAXP6AXPEAM000@ZPEBD2@Z 0000000140054a50 f i rendermodel.obj
 0001:00053b00       ??$modelcommand@$$A6AXPEAD0PEAM@Z@?$modelcommands@Usmd@@Uskelmesh@skelmodel@@@@QEAAXP6AXPEAD0PEAM@ZPEBD3@Z 0000000140054b00 f i rendermodel.obj
 0001:00053bb0       ??$modelcommand@$$A6AXPEAD0PEAM11111@Z@?$modelcommands@Usmd@@Uskelmesh@skelmodel@@@@QEAAXP6AXPEAD0PEAM11111@ZPEBD3@Z 0000000140054bb0 f i rendermodel.obj
 0001:00053c60       ??$modelcommand@$$A6AXPEADPEAM111@Z@?$modelcommands@Usmd@@Uskelmesh@skelmodel@@@@QEAAXP6AXPEADPEAM111@ZPEBD3@Z 0000000140054c60 f i rendermodel.obj
 0001:00053d10       ??$modelcommand@$$A6AXPEAD0PEAHPEAM2@Z@?$modelcommands@Usmd@@Uskelmesh@skelmodel@@@@QEAAXP6AXPEAD0PEAHPEAM2@ZPEBD4@Z 0000000140054d10 f i rendermodel.obj
 0001:00053dc0       ??$modelcommand@$$A6AXPEAD0PEAM11@Z@?$modelcommands@Usmd@@Uskelmesh@skelmodel@@@@QEAAXP6AXPEAD0PEAM11@ZPEBD3@Z 0000000140054dc0 f i rendermodel.obj
 0001:00053e70       ??$modelcommand@$$A6AXPEAD0PEAMPEAH22@Z@?$modelcommands@Usmd@@Uskelmesh@skelmodel@@@@QEAAXP6AXPEAD0PEAMPEAH22@ZPEBD4@Z 0000000140054e70 f i rendermodel.obj
 0001:00053f20       ??$modelcommand@$$A6AXPEAD@Z@?$modelcommands@Usmd@@Uskelmesh@skelmodel@@@@QEAAXP6AXPEAD@ZPEBD2@Z 0000000140054f20 f i rendermodel.obj
 0001:00053fe0       ??$modelcommand@$$A6AXPEADPEAM11111@Z@?$modelcommands@Usmd@@Uskelmesh@skelmodel@@@@QEAAXP6AXPEADPEAM11111@ZPEBD3@Z 0000000140054fe0 f i rendermodel.obj
 0001:00054090       ??$modelcommand@$$A6AXPEAD0PEAM@Z@?$modelcommands@Uiqm@@Uskelmesh@skelmodel@@@@QEAAXP6AXPEAD0PEAM@ZPEBD3@Z 0000000140055090 f i rendermodel.obj
 0001:00054140       ??$modelcommand@$$A6AXPEAD0PEAM11111@Z@?$modelcommands@Uiqm@@Uskelmesh@skelmodel@@@@QEAAXP6AXPEAD0PEAM11111@ZPEBD3@Z 0000000140055140 f i rendermodel.obj
 0001:000541f0       ??$modelcommand@$$A6AXPEADPEAM111@Z@?$modelcommands@Uiqm@@Uskelmesh@skelmodel@@@@QEAAXP6AXPEADPEAM111@ZPEBD3@Z 00000001400551f0 f i rendermodel.obj
 0001:000542a0       ??$modelcommand@$$A6AXPEAD0PEAHPEAM2@Z@?$modelcommands@Uiqm@@Uskelmesh@skelmodel@@@@QEAAXP6AXPEAD0PEAHPEAM2@ZPEBD4@Z 00000001400552a0 f i rendermodel.obj
 0001:00054350       ??$modelcommand@$$A6AXPEAD0PEAM11@Z@?$modelcommands@Uiqm@@Uskelmesh@skelmodel@@@@QEAAXP6AXPEAD0PEAM11@ZPEBD3@Z 0000000140055350 f i rendermodel.obj
 0001:00054400       ??$modelcommand@$$A6AXPEAD0PEAMPEAH22@Z@?$modelcommands@Uiqm@@Uskelmesh@skelmodel@@@@QEAAXP6AXPEAD0PEAMPEAH22@ZPEBD4@Z 0000000140055400 f i rendermodel.obj
 0001:000544b0       ??$modelcommand@$$A6AXPEAD@Z@?$modelcommands@Uiqm@@Uskelmesh@skelmodel@@@@QEAAXP6AXPEAD@ZPEBD2@Z 00000001400554b0 f i rendermodel.obj
 0001:00054570       ??$modelcommand@$$A6AXPEADPEAM11111@Z@?$modelcommands@Uiqm@@Uskelmesh@skelmodel@@@@QEAAXP6AXPEADPEAM11111@ZPEBD3@Z 0000000140055570 f i rendermodel.obj
 0001:00054620       ??$modelcommand@$$A6AXPEAD@Z@?$modelcommands@Umd2@@Uvertmesh@vertmodel@@@@QEAAXP6AXPEAD@ZPEBD2@Z 0000000140055620 f i rendermodel.obj
 0001:000546d0       ??$modelcommand@$$A6AXPEAD@Z@?$modelcommands@Umd3@@Uvertmesh@vertmodel@@@@QEAAXP6AXPEAD@ZPEBD2@Z 00000001400556d0 f i rendermodel.obj
 0001:00054780       ??$modelcommand@$$A6AXPEAD00PEAM1@Z@?$modelcommands@Umd3@@Uvertmesh@vertmodel@@@@QEAAXP6AXPEAD00PEAM1@ZPEBD3@Z 0000000140055780 f i rendermodel.obj
 0001:00054830       ??$modelcommand@$$A6AXPEADPEAH@Z@?$modelcommands@Umd3@@Uvertmesh@vertmodel@@@@QEAAXP6AXPEADPEAH@ZPEBD3@Z 0000000140055830 f i rendermodel.obj
 0001:000548f0       ??$modelcommand@$$A6AXPEADPEAH1PEAM@Z@?$modelcommands@Umd3@@Uvertmesh@vertmodel@@@@QEAAXP6AXPEADPEAH1PEAM@ZPEBD4@Z 00000001400558f0 f i rendermodel.obj
 0001:000549a0       ??$modelcommand@$$A6AXPEADPEAM1@Z@?$modelcommands@Umd3@@Uvertmesh@vertmodel@@@@QEAAXP6AXPEADPEAM1@ZPEBD3@Z 00000001400559a0 f i rendermodel.obj
 0001:00054a60       ??$modelcommand@$$A6AXPEAD0@Z@?$modelcommands@Umd3@@Uvertmesh@vertmodel@@@@QEAAXP6AXPEAD0@ZPEBD2@Z 0000000140055a60 f i rendermodel.obj
 0001:00054b20       ??$modelcommand@$$A6AXPEAD00@Z@?$modelcommands@Umd3@@Uvertmesh@vertmodel@@@@QEAAXP6AXPEAD00@ZPEBD2@Z 0000000140055b20 f i rendermodel.obj
 0001:00054bd0       ??$modelcommand@$$A6AXPEAH0PEADPEAM22@Z@?$modelcommands@Umd3@@Uvertmesh@vertmodel@@@@QEAAXP6AXPEAH0PEADPEAM22@ZPEBD4@Z 0000000140055bd0 f i rendermodel.obj
 0001:00054c80       ??$modelcommand@$$A6AXPEAD00PEAM1@Z@?$modelcommands@Umd5@@Uskelmesh@skelmodel@@@@QEAAXP6AXPEAD00PEAM1@ZPEBD3@Z 0000000140055c80 f i rendermodel.obj
 0001:00054d30       ??$modelcommand@$$A6AXPEADPEAH@Z@?$modelcommands@Umd5@@Uskelmesh@skelmodel@@@@QEAAXP6AXPEADPEAH@ZPEBD3@Z 0000000140055d30 f i rendermodel.obj
 0001:00054df0       ??$modelcommand@$$A6AXPEADPEAH1PEAM@Z@?$modelcommands@Umd5@@Uskelmesh@skelmodel@@@@QEAAXP6AXPEADPEAH1PEAM@ZPEBD4@Z 0000000140055df0 f i rendermodel.obj
 0001:00054ea0       ??$modelcommand@$$A6AXPEADPEAM1@Z@?$modelcommands@Umd5@@Uskelmesh@skelmodel@@@@QEAAXP6AXPEADPEAM1@ZPEBD3@Z 0000000140055ea0 f i rendermodel.obj
 0001:00054f60       ??$modelcommand@$$A6AXPEADPEAM@Z@?$modelcommands@Umd5@@Uskelmesh@skelmodel@@@@QEAAXP6AXPEADPEAM@ZPEBD3@Z 0000000140055f60 f i rendermodel.obj
 0001:00055020       ??$modelcommand@$$A6AXPEAD0@Z@?$modelcommands@Umd5@@Uskelmesh@skelmodel@@@@QEAAXP6AXPEAD0@ZPEBD2@Z 0000000140056020 f i rendermodel.obj
 0001:000550e0       ??$modelcommand@$$A6AXPEAD00@Z@?$modelcommands@Umd5@@Uskelmesh@skelmodel@@@@QEAAXP6AXPEAD00@ZPEBD2@Z 00000001400560e0 f i rendermodel.obj
 0001:00055190       ??$modelcommand@$$A6AXPEAH0PEADPEAM22@Z@?$modelcommands@Umd5@@Uskelmesh@skelmodel@@@@QEAAXP6AXPEAH0PEADPEAM22@ZPEBD4@Z 0000000140056190 f i rendermodel.obj
 0001:00055240       ??$modelcommand@$$A6AXPEAD@Z@?$modelcommands@Uobj@@Uvertmesh@vertmodel@@@@QEAAXP6AXPEAD@ZPEBD2@Z 0000000140056240 f i rendermodel.obj
 0001:000552f0       ??$modelcommand@$$A6AXPEAD00PEAM1@Z@?$modelcommands@Uobj@@Uvertmesh@vertmodel@@@@QEAAXP6AXPEAD00PEAM1@ZPEBD3@Z 00000001400562f0 f i rendermodel.obj
 0001:000553a0       ??$modelcommand@$$A6AXPEADPEAH@Z@?$modelcommands@Uobj@@Uvertmesh@vertmodel@@@@QEAAXP6AXPEADPEAH@ZPEBD3@Z 00000001400563a0 f i rendermodel.obj
 0001:00055460       ??$modelcommand@$$A6AXPEADPEAH1PEAM@Z@?$modelcommands@Uobj@@Uvertmesh@vertmodel@@@@QEAAXP6AXPEADPEAH1PEAM@ZPEBD4@Z 0000000140056460 f i rendermodel.obj
 0001:00055510       ??$modelcommand@$$A6AXPEADPEAM1@Z@?$modelcommands@Uobj@@Uvertmesh@vertmodel@@@@QEAAXP6AXPEADPEAM1@ZPEBD3@Z 0000000140056510 f i rendermodel.obj
 0001:000555d0       ??$modelcommand@$$A6AXPEAD0@Z@?$modelcommands@Uobj@@Uvertmesh@vertmodel@@@@QEAAXP6AXPEAD0@ZPEBD2@Z 00000001400565d0 f i rendermodel.obj
 0001:00055690       ??$modelcommand@$$A6AXPEAD00@Z@?$modelcommands@Uobj@@Uvertmesh@vertmodel@@@@QEAAXP6AXPEAD00@ZPEBD2@Z 0000000140056690 f i rendermodel.obj
 0001:00055740       ??$modelcommand@$$A6AXPEAH0PEADPEAM22@Z@?$modelcommands@Uobj@@Uvertmesh@vertmodel@@@@QEAAXP6AXPEAH0PEADPEAM22@ZPEBD4@Z 0000000140056740 f i rendermodel.obj
 0001:000557f0       ??$modelcommand@$$A6AXPEAD00PEAM1@Z@?$modelcommands@Usmd@@Uskelmesh@skelmodel@@@@QEAAXP6AXPEAD00PEAM1@ZPEBD3@Z 00000001400567f0 f i rendermodel.obj
 0001:000558a0       ??$modelcommand@$$A6AXPEADPEAH@Z@?$modelcommands@Usmd@@Uskelmesh@skelmodel@@@@QEAAXP6AXPEADPEAH@ZPEBD3@Z 00000001400568a0 f i rendermodel.obj
 0001:00055960       ??$modelcommand@$$A6AXPEADPEAH1PEAM@Z@?$modelcommands@Usmd@@Uskelmesh@skelmodel@@@@QEAAXP6AXPEADPEAH1PEAM@ZPEBD4@Z 0000000140056960 f i rendermodel.obj
 0001:00055a10       ??$modelcommand@$$A6AXPEADPEAM1@Z@?$modelcommands@Usmd@@Uskelmesh@skelmodel@@@@QEAAXP6AXPEADPEAM1@ZPEBD3@Z 0000000140056a10 f i rendermodel.obj
 0001:00055ad0       ??$modelcommand@$$A6AXPEADPEAM@Z@?$modelcommands@Usmd@@Uskelmesh@skelmodel@@@@QEAAXP6AXPEADPEAM@ZPEBD3@Z 0000000140056ad0 f i rendermodel.obj
 0001:00055b90       ??$modelcommand@$$A6AXPEAD0@Z@?$modelcommands@Usmd@@Uskelmesh@skelmodel@@@@QEAAXP6AXPEAD0@ZPEBD2@Z 0000000140056b90 f i rendermodel.obj
 0001:00055c50       ??$modelcommand@$$A6AXPEAD00@Z@?$modelcommands@Usmd@@Uskelmesh@skelmodel@@@@QEAAXP6AXPEAD00@ZPEBD2@Z 0000000140056c50 f i rendermodel.obj
 0001:00055d00       ??$modelcommand@$$A6AXPEAH0PEADPEAM22@Z@?$modelcommands@Usmd@@Uskelmesh@skelmodel@@@@QEAAXP6AXPEAH0PEADPEAM22@ZPEBD4@Z 0000000140056d00 f i rendermodel.obj
 0001:00055db0       ??$modelcommand@$$A6AXPEAD00PEAM1@Z@?$modelcommands@Uiqm@@Uskelmesh@skelmodel@@@@QEAAXP6AXPEAD00PEAM1@ZPEBD3@Z 0000000140056db0 f i rendermodel.obj
 0001:00055e60       ??$modelcommand@$$A6AXPEADPEAH@Z@?$modelcommands@Uiqm@@Uskelmesh@skelmodel@@@@QEAAXP6AXPEADPEAH@ZPEBD3@Z 0000000140056e60 f i rendermodel.obj
 0001:00055f20       ??$modelcommand@$$A6AXPEADPEAH1PEAM@Z@?$modelcommands@Uiqm@@Uskelmesh@skelmodel@@@@QEAAXP6AXPEADPEAH1PEAM@ZPEBD4@Z 0000000140056f20 f i rendermodel.obj
 0001:00055fd0       ??$modelcommand@$$A6AXPEADPEAM1@Z@?$modelcommands@Uiqm@@Uskelmesh@skelmodel@@@@QEAAXP6AXPEADPEAM1@ZPEBD3@Z 0000000140056fd0 f i rendermodel.obj
 0001:00056090       ??$modelcommand@$$A6AXPEADPEAM@Z@?$modelcommands@Uiqm@@Uskelmesh@skelmodel@@@@QEAAXP6AXPEADPEAM@ZPEBD3@Z 0000000140057090 f i rendermodel.obj
 0001:00056150       ??$modelcommand@$$A6AXPEAD0@Z@?$modelcommands@Uiqm@@Uskelmesh@skelmodel@@@@QEAAXP6AXPEAD0@ZPEBD2@Z 0000000140057150 f i rendermodel.obj
 0001:00056210       ??$modelcommand@$$A6AXPEAD00@Z@?$modelcommands@Uiqm@@Uskelmesh@skelmodel@@@@QEAAXP6AXPEAD00@ZPEBD2@Z 0000000140057210 f i rendermodel.obj
 0001:000562c0       ??$modelcommand@$$A6AXPEAH0PEADPEAM22@Z@?$modelcommands@Uiqm@@Uskelmesh@skelmodel@@@@QEAAXP6AXPEAH0PEADPEAM22@ZPEBD4@Z 00000001400572c0 f i rendermodel.obj
 0001:00056370       ?accumulate@matrix3x4@@QEAAXAEBU1@M@Z 0000000140057370 f i rendermodel.obj
 0001:00056460       ??_Emodel@@UEAAPEAXI@Z     0000000140057460 f i * CIL library *:* CIL module *
 0001:00056460       ??_Gmodel@@UEAAPEAXI@Z     0000000140057460 f i rendermodel.obj
 0001:000564a0       ??0matrix3x3@@QEAA@AEBUquat@@@Z 00000001400574a0 f i rendermodel.obj
 0001:00056610       ??0dualquat@@QEAA@AEBUquat@@AEBUvec@@@Z 0000000140057610 f i rendermodel.obj
 0001:00056750       ?translate@dualquat@@QEAAXAEBUvec@@@Z 0000000140057750 f i rendermodel.obj
 0001:00056840       ?mulorient@dualquat@@QEAAXAEBUquat@@@Z 0000000140057840 f i rendermodel.obj
 0001:000569c0       ??$convertmatrix@Umatrix3x4@@@quat@@QEAAXAEBUmatrix3x4@@@Z 00000001400579c0 f i rendermodel.obj
 0001:00056b80       ??0dualquat@@QEAA@AEBUmatrix3x4@@@Z 0000000140057b80 f i rendermodel.obj
 0001:00056c70       ?transposemul@matrix3x4@@QEAAXAEBUmatrix3x3@@AEBUvec@@AEBU1@@Z 0000000140057c70 f i rendermodel.obj
 0001:00056f40       ?invert@dualquat@@QEAAAEAU1@XZ 0000000140057f40 f i rendermodel.obj
 0001:00057060       ?mul@dualquat@@QEAAXAEBU1@@Z 0000000140058060 f i rendermodel.obj
 0001:00057130       ?transform@dualquat@@QEBA?AUvec@@AEBU2@@Z 0000000140058130 f i rendermodel.obj
 0001:00057350       ?transposemul@matrix3x4@@QEAAXAEBU1@0@Z 0000000140058350 f i rendermodel.obj
 0001:000576b0       ?fixantipodal@dualquat@@QEAAXAEBU1@@Z 00000001400586b0 f i rendermodel.obj
 0001:00057760       ?mulorient@dualquat@@QEAAXAEBUquat@@AEBU1@@Z 0000000140058760 f i rendermodel.obj
 0001:00057c60       ?rotate@matrix3x3@@QEAAXMMAEBUvec@@@Z 0000000140058c60 f i rendermodel.obj
 0001:00057da0       ?gettranslation@dualquat@@QEBA?AUvec@@XZ 0000000140058da0 f i rendermodel.obj
 0001:00057ec0       ?mulorient@matrix3x4@@QEAAXAEBUmatrix3x3@@@Z 0000000140058ec0 f i rendermodel.obj
 0001:00058100       ?mulorient@matrix3x4@@QEAAXAEBUmatrix3x3@@AEBUdualquat@@@Z 0000000140059100 f i rendermodel.obj
 0001:00058240       ??0matrix3x4@@QEAA@AEBUdualquat@@@Z 0000000140059240 f i rendermodel.obj
 0001:00058570       ?accumulate@dualquat@@QEAAXAEBU1@M@Z 0000000140059570 f i rendermodel.obj
 0001:00058650       ?mul@quat@@QEAAAEAU1@AEBU1@0@Z 0000000140059650 f i rendermodel.obj
 0001:00058740       ?mul@dualquat@@QEAAXAEBU1@0@Z 0000000140059740 f i rendermodel.obj
 0001:000587e0       ?lerp@matrix3x4@@QEAAXAEBU1@0M@Z 00000001400597e0 f i rendermodel.obj
 0001:00058910       ?mul@matrix3x4@@QEAAXAEBU1@0@Z 0000000140059910 f i rendermodel.obj
 0001:00058be0       ??1model@@UEAA@XZ          0000000140059be0 f i rendermodel.obj
 0001:00058c50       ?preloadBIH@model@@UEAAXXZ 0000000140059c50 f i rendermodel.obj
 0001:00058c60       ?rotate_around_z@glmatrixf@@QEAAXM@Z 0000000140059c60 f i rendermodel.obj
 0001:00058d30       ?rotate@glmatrixf@@QEAAXMMAEBUvec@@@Z 0000000140059d30 f i rendermodel.obj
 0001:00058fc0       ?setvariant_@Shader@@QEAAXHHPEAU1@@Z 0000000140059fc0 f i rendermodel.obj
 0001:00059090       ?mul@matrix3x4@@QEAAXAEBUmatrix3x3@@AEBUvec@@AEBU1@@Z 000000014005a090 f i rendermodel.obj
 0001:00059360       ?addblurtiles@rendertarget@@QEAA_NMMMMM@Z 000000014005a360 f i renderparticles.obj
 0001:00059590       ?debugscissor@rendertarget@@QEAAXHH_N@Z 000000014005a590 f i renderparticles.obj
 0001:00059710       ?debugblurtiles@rendertarget@@QEAAXHH_N@Z 000000014005a710 f i renderparticles.obj
 0001:00059a00       ?finalize@particleemitter@@QEAAXXZ 000000014005aa00 f i renderparticles.obj
 0001:00059c10       ?extendbb@particleemitter@@QEAAXAEBUvec@@M@Z 000000014005ac10 f i renderparticles.obj
 0001:00059cb0       ??1partrenderer@@UEAA@XZ   000000014005acb0 f i renderparticles.obj
 0001:00059cc0       ?calc@partrenderer@@QEAAXPEAUparticle@@AEAH1AEAUvec@@2_N@Z 000000014005acc0 f i renderparticles.obj
 0001:0005a060       ??_Gpartrenderer@@UEAAPEAXI@Z 000000014005b060 f i renderparticles.obj
 0001:0005a060       ??_Epartrenderer@@UEAAPEAXI@Z 000000014005b060 f i * CIL library *:* CIL module *
 0001:0005a090       ??1listrenderer@@UEAA@XZ   000000014005b090 f i renderparticles.obj
 0001:0005a0c0       ?reset@listrenderer@@UEAAXXZ 000000014005b0c0 f i renderparticles.obj
 0001:0005a140       ?resettracked@listrenderer@@UEAAXPEAUphysent@@@Z 000000014005b140 f i renderparticles.obj
 0001:0005a190       ?addpart@listrenderer@@UEAAPEAUparticle@@AEBUvec@@0HHMH@Z 000000014005b190 f i renderparticles.obj
 0001:0005a2e0       ?count@listrenderer@@UEAAHXZ 000000014005b2e0 f i renderparticles.obj
 0001:0005a300       ?haswork@listrenderer@@UEAA_NXZ 000000014005b300 f i renderparticles.obj
 0001:0005a310       ?render@listrenderer@@UEAAXXZ 000000014005b310 f i renderparticles.obj
 0001:0005a440       ??_Glistrenderer@@UEAAPEAXI@Z 000000014005b440 f i renderparticles.obj
 0001:0005a440       ??_Elistrenderer@@UEAAPEAXI@Z 000000014005b440 f i * CIL library *:* CIL module *
 0001:0005a480       ?startrender@meterrenderer@@UEAAXXZ 000000014005b480 f i renderparticles.obj
 0001:0005a4e0       ?endrender@meterrenderer@@UEAAXXZ 000000014005b4e0 f i renderparticles.obj
 0001:0005a540       ?renderpart@meterrenderer@@UEAAXPEAUlistparticle@@AEBUvec@@1HHPEAE@Z 000000014005b540 f i renderparticles.obj
 0001:0005a9e0       ??_Elightningrenderer@@UEAAPEAXI@Z 000000014005b9e0 f i * CIL library *:* CIL module *
 0001:0005a9e0       ??_Gfireballrenderer@@UEAAPEAXI@Z 000000014005b9e0 f i renderparticles.obj
 0001:0005a9e0       ??_Gtextrenderer@@UEAAPEAXI@Z 000000014005b9e0 f i renderparticles.obj
 0001:0005a9e0       ??_Etextrenderer@@UEAAPEAXI@Z 000000014005b9e0 f i * CIL library *:* CIL module *
 0001:0005a9e0       ??_Gmeterrenderer@@UEAAPEAXI@Z 000000014005b9e0 f i renderparticles.obj
 0001:0005a9e0       ??_Glightningrenderer@@UEAAPEAXI@Z 000000014005b9e0 f i renderparticles.obj
 0001:0005a9e0       ??_Efireballrenderer@@UEAAPEAXI@Z 000000014005b9e0 f i * CIL library *:* CIL module *
 0001:0005a9e0       ??_Emeterrenderer@@UEAAPEAXI@Z 000000014005b9e0 f i * CIL library *:* CIL module *
 0001:0005aa20       ?killpart@textrenderer@@UEAAXPEAUlistparticle@@@Z 000000014005ba20 f i renderparticles.obj
 0001:0005aa40       ?renderpart@textrenderer@@UEAAXPEAUlistparticle@@AEBUvec@@1HHPEAE@Z 000000014005ba40 f i renderparticles.obj
 0001:0005acd0       ??$genpos@$00@@YAXAEBUvec@@0MHHPEAUpartvert@@@Z 000000014005bcd0 f i renderparticles.obj
 0001:0005ae50       ??$genpos@$01@@YAXAEBUvec@@0MHHPEAUpartvert@@@Z 000000014005be50 f i renderparticles.obj
 0001:0005aed0       ??$genrotpos@$0A@@@YAXAEBUvec@@0MHHPEAUpartvert@@H@Z 000000014005bed0 f i renderparticles.obj
 0001:0005b190       ??$seedpos@$01@@YAXAEAUparticleemitter@@AEBUvec@@1HMH@Z 000000014005c190 f i renderparticles.obj
 0001:0005b280       ?colorformats@depthfxtexture@@UEBAPEBIXZ 000000014005c280 f i renderparticles.obj
 0001:0005b2f0       ?addscissorbox@depthfxtexture@@QEAA_NAEBUvec@@0@Z 000000014005c2f0 f i renderparticles.obj
 0001:0005b4e0       ?screenview@depthfxtexture@@UEBA_NXZ 000000014005c4e0 f i renderparticles.obj
 0001:0005b4f0       ?texrect@depthfxtexture@@UEBA_NXZ 000000014005c4f0 f i renderparticles.obj
 0001:0005b510       ?filter@depthfxtexture@@UEBA_NXZ 000000014005c510 f i renderparticles.obj
 0001:0005b520       ?shouldrender@depthfxtexture@@UEAA_NXZ 000000014005c520 f i renderparticles.obj
 0001:0005b580       ?dorender@depthfxtexture@@UEAA_NXZ 000000014005c580 f i renderparticles.obj
 0001:0005b640       ?dodebug@depthfxtexture@@UEAAXHH@Z 000000014005c640 f i renderparticles.obj
 0001:0005b910       ?startrender@fireballrenderer@@UEAAXXZ 000000014005c910 f i renderparticles.obj
 0001:0005b920       ?endrender@fireballrenderer@@UEAAXXZ 000000014005c920 f i renderparticles.obj
 0001:0005b970       ?cleanup@fireballrenderer@@UEAAXXZ 000000014005c970 f i renderparticles.obj
 0001:0005b980       ?finddepthfxranges@fireballrenderer@@QEAAHPEAPEAXPEAMHHAEAUvec@@2@Z 000000014005c980 f i renderparticles.obj
 0001:0005c010       ?seedemitter@fireballrenderer@@UEAAXAEAUparticleemitter@@AEBUvec@@1HMH@Z 000000014005d010 f i renderparticles.obj
 0001:0005c060       ?renderpart@fireballrenderer@@UEAAXPEAUlistparticle@@AEBUvec@@1HHPEAE@Z 000000014005d060 f i renderparticles.obj
 0001:0005ca90       ??0flarerenderer@@QEAA@PEBDH@Z 000000014005da90 f i renderparticles.obj
 0001:0005cb50       ?reset@flarerenderer@@UEAAXXZ 000000014005db50 f i renderparticles.obj
 0001:0005cb60       ?newflare@flarerenderer@@QEAAXAEAUvec@@AEBU2@EEEMM_N2@Z 000000014005db60 f i renderparticles.obj
 0001:0005cc60       ?addflare@flarerenderer@@QEAAXAEAUvec@@EEE_N1@Z 000000014005dc60 f i renderparticles.obj
 0001:0005ce90       ?makelightflares@flarerenderer@@QEAAXXZ 000000014005de90 f i renderparticles.obj
 0001:0005d1a0       ?count@flarerenderer@@UEAAHXZ 000000014005e1a0 f i renderparticles.obj
 0001:0005d1b0       ?haswork@flarerenderer@@UEAA_NXZ 000000014005e1b0 f i renderparticles.obj
 0001:0005d1e0       ?render@flarerenderer@@UEAAXXZ 000000014005e1e0 f i renderparticles.obj
 0001:0005d720       ??_Gflarerenderer@@UEAAPEAXI@Z 000000014005e720 f i renderparticles.obj
 0001:0005d720       ??_Eflarerenderer@@UEAAPEAXI@Z 000000014005e720 f i * CIL library *:* CIL module *
 0001:0005d720       ??_E?$varenderer@$01@@UEAAPEAXI@Z 000000014005e720 f i * CIL library *:* CIL module *
 0001:0005d720       ??_G?$varenderer@$00@@UEAAPEAXI@Z 000000014005e720 f i renderparticles.obj
 0001:0005d720       ??_G?$varenderer@$0A@@@UEAAPEAXI@Z 000000014005e720 f i renderparticles.obj
 0001:0005d720       ??_G?$varenderer@$01@@UEAAPEAXI@Z 000000014005e720 f i renderparticles.obj
 0001:0005d720       ??_E?$varenderer@$0A@@@UEAAPEAXI@Z 000000014005e720 f i * CIL library *:* CIL module *
 0001:0005d720       ??_E?$varenderer@$00@@UEAAPEAXI@Z 000000014005e720 f i * CIL library *:* CIL module *
 0001:0005d760       ?startrender@lightningrenderer@@UEAAXXZ 000000014005e760 f i renderparticles.obj
 0001:0005d770       ?endrender@lightningrenderer@@UEAAXXZ 000000014005e770 f i renderparticles.obj
 0001:0005d780       ?update@lightningrenderer@@UEAAXXZ 000000014005e780 f i renderparticles.obj
 0001:0005d7e0       ?seedemitter@lightningrenderer@@UEAAXAEAUparticleemitter@@AEBUvec@@1HMH@Z 000000014005e7e0 f i renderparticles.obj
 0001:0005d830       ?renderpart@lightningrenderer@@UEAAXPEAUlistparticle@@AEBUvec@@1HHPEAE@Z 000000014005e830 f i renderparticles.obj
 0001:0005d8e0       ?init@?$varenderer@$00@@UEAAXH@Z 000000014005e8e0 f i renderparticles.obj
 0001:0005d8e0       ?init@?$varenderer@$01@@UEAAXH@Z 000000014005e8e0 f i renderparticles.obj
 0001:0005d8e0       ?init@?$varenderer@$0A@@@UEAAXH@Z 000000014005e8e0 f i renderparticles.obj
 0001:0005d9b0       ?reset@?$varenderer@$00@@UEAAXXZ 000000014005e9b0 f i renderparticles.obj
 0001:0005d9b0       ?reset@?$varenderer@$01@@UEAAXXZ 000000014005e9b0 f i renderparticles.obj
 0001:0005d9b0       ?reset@?$varenderer@$0A@@@UEAAXXZ 000000014005e9b0 f i renderparticles.obj
 0001:0005d9c0       ?resettracked@?$varenderer@$00@@UEAAXPEAUphysent@@@Z 000000014005e9c0 f i renderparticles.obj
 0001:0005d9c0       ?resettracked@?$varenderer@$01@@UEAAXPEAUphysent@@@Z 000000014005e9c0 f i renderparticles.obj
 0001:0005d9c0       ?resettracked@?$varenderer@$0A@@@UEAAXPEAUphysent@@@Z 000000014005e9c0 f i renderparticles.obj
 0001:0005da10       ?count@?$varenderer@$01@@UEAAHXZ 000000014005ea10 f i renderparticles.obj
 0001:0005da10       ?count@?$varenderer@$00@@UEAAHXZ 000000014005ea10 f i renderparticles.obj
 0001:0005da10       ?count@?$varenderer@$0A@@@UEAAHXZ 000000014005ea10 f i renderparticles.obj
 0001:0005da20       ?haswork@?$varenderer@$01@@UEAA_NXZ 000000014005ea20 f i renderparticles.obj
 0001:0005da20       ?haswork@?$varenderer@$00@@UEAA_NXZ 000000014005ea20 f i renderparticles.obj
 0001:0005da20       ?haswork@?$varenderer@$0A@@@UEAA_NXZ 000000014005ea20 f i renderparticles.obj
 0001:0005da30       ?addpart@?$varenderer@$00@@UEAAPEAUparticle@@AEBUvec@@0HHMH@Z 000000014005ea30 f i renderparticles.obj
 0001:0005da30       ?addpart@?$varenderer@$0A@@@UEAAPEAUparticle@@AEBUvec@@0HHMH@Z 000000014005ea30 f i renderparticles.obj
 0001:0005da30       ?addpart@?$varenderer@$01@@UEAAPEAUparticle@@AEBUvec@@0HHMH@Z 000000014005ea30 f i renderparticles.obj
 0001:0005db40       ?seedemitter@?$varenderer@$0A@@@UEAAXAEAUparticleemitter@@AEBUvec@@1HMH@Z 000000014005eb40 f i renderparticles.obj
 0001:0005dd50       ?update@?$varenderer@$0A@@@UEAAXXZ 000000014005ed50 f i renderparticles.obj
 0001:0005de50       ?render@?$varenderer@$00@@UEAAXXZ 000000014005ee50 f i renderparticles.obj
 0001:0005de50       ?render@?$varenderer@$01@@UEAAXXZ 000000014005ee50 f i renderparticles.obj
 0001:0005de50       ?render@?$varenderer@$0A@@@UEAAXXZ 000000014005ee50 f i renderparticles.obj
 0001:0005def0       ?seedemitter@?$varenderer@$01@@UEAAXAEAUparticleemitter@@AEBUvec@@1HMH@Z 000000014005eef0 f i renderparticles.obj
 0001:0005e110       ?update@?$varenderer@$01@@UEAAXXZ 000000014005f110 f i renderparticles.obj
 0001:0005e5d0       ?seedemitter@?$varenderer@$00@@UEAAXAEAUparticleemitter@@AEBUvec@@1HMH@Z 000000014005f5d0 f i renderparticles.obj
 0001:0005e7d0       ?update@?$varenderer@$00@@UEAAXXZ 000000014005f7d0 f i renderparticles.obj
 0001:0005eb80       ?growbuf@?$vector@Uparticleemitter@@@@QEAAXH@Z 000000014005fb80 f i renderparticles.obj
 0001:0005ec20       ?genverts@?$varenderer@$0A@@@QEAAXPEAUparticle@@PEAUpartvert@@_N@Z 000000014005fc20 f i renderparticles.obj
 0001:0005f080       ?genverts@?$varenderer@$01@@QEAAXPEAUparticle@@PEAUpartvert@@_N@Z 0000000140060080 f i renderparticles.obj
 0001:0005f3a0       ?genverts@?$varenderer@$00@@QEAAXPEAUparticle@@PEAUpartvert@@_N@Z 00000001400603a0 f i renderparticles.obj
 0001:0005f600       ??4?$vector@PEAUTexture@@@@QEAAAEAU0@AEBU0@@Z 0000000140060600 f i rendertext.obj
 0001:0005f6a0       ??4?$vector@Ucharinfo@font@@@@QEAAAEAU0@AEBU0@@Z 00000001400606a0 f i rendertext.obj
 0001:0005f750       ??0?$hashset@Ufont@@@@QEAA@H@Z 0000000140060750 f i rendertext.obj
 0001:0005f7e0       ??1?$hashset@Ufont@@@@QEAA@XZ 00000001400607e0 f i rendertext.obj
 0001:0005f870       ??1chain@?$hashset@Ufont@@@@QEAA@XZ 0000000140060870 f i rendertext.obj
 0001:0005f890       ??$access@PEBD@?$hashset@Ufont@@@@QEAAPEAUfont@@AEBQEBD@Z 0000000140060890 f i rendertext.obj
 0001:0005f920       ?insert@?$hashset@Ufont@@@@QEAAPEAUchain@1@I@Z 0000000140060920 f i rendertext.obj
 0001:0005fa20       ??0chain@?$hashset@Ufont@@@@QEAA@XZ 0000000140060a20 f i rendertext.obj
 0001:0005fa60       ??1font@@QEAA@XZ           0000000140060a60 f i rendertext.obj
 0001:0005fad0       ?compare@geombatch@@QEBAHAEBU1@@Z 0000000140060ad0 f i renderva.obj
 0001:0005fba0       ?growbuf@?$vector@Ugeombatch@@@@QEAAXH@Z 0000000140060ba0 f i renderva.obj
 0001:0005fc40       ?set@Shader@@QEAAXAEAUSlot@@AEAUVSlot@@@Z 0000000140060c40 f i renderva.obj
 0001:0005fcc0       ?setvariant@Shader@@QEAAXHHAEAUSlot@@AEAUVSlot@@@Z 0000000140060cc0 f i renderva.obj
 0001:0005fd20       ?setvariant@Shader@@QEAAXHHAEAUSlot@@AEAUVSlot@@PEAU1@@Z 0000000140060d20 f i renderva.obj
 0001:0005fd90       ?add@?$vector@ULocalShaderParamState@@@@QEAAAEAULocalShaderParamState@@AEBU2@@Z 0000000140060d90 f i shader.obj
 0001:0005fe20       ?access@?$hashtable@PEBDUShader@@@@QEAAPEAUShader@@AEBQEBD@Z 0000000140060e20 f i shader.obj
 0001:0005feb0       ??A?$hashtable@PEBDUShader@@@@QEAAAEAUShader@@AEBQEBD@Z 0000000140060eb0 f i shader.obj
 0001:0005ff60       ??1?$hashset@U?$hashtableentry@PEBDUShader@@@@@@QEAA@XZ 0000000140060f60 f i shader.obj
 0001:0005fff0       ?insert@?$vector@D@@QEAAPEADHPEBDH@Z 0000000140060ff0 f i shader.obj
 0001:000600d0       ??0?$hashset@PEBD@@QEAA@H@Z 00000001400610d0 f i shader.obj
 0001:00060160       ?add@?$vector@Upostfxpass@@@@QEAAAEAUpostfxpass@@XZ 0000000140061160 f i shader.obj
 0001:000601f0       ??0?$hashset@U?$hashtableentry@PEBDUShader@@@@@@QEAA@H@Z 00000001400611f0 f i shader.obj
 0001:00060280       ?growbuf@?$vector@Upostfxtex@@@@QEAAXH@Z 0000000140061280 f i shader.obj
 0001:00060320       ?growbuf@?$vector@Upostfxpass@@@@QEAAXH@Z 0000000140061320 f i shader.obj
 0001:000603c0       ??1chain@?$hashset@U?$hashtableentry@PEBDUShader@@@@@@QEAA@XZ 00000001400613c0 f i shader.obj
 0001:000603f0       ??1?$hashtableentry@PEBDUShader@@@@QEAA@XZ 00000001400613f0 f i shader.obj
 0001:00060410       ?insert@?$hashset@U?$hashtableentry@PEBDUShader@@@@@@QEAAPEAUchain@1@I@Z 0000000140061410 f i shader.obj
 0001:00060530       ??0chain@?$hashset@U?$hashtableentry@PEBDUShader@@@@@@QEAA@XZ 0000000140061530 f i shader.obj
 0001:00060560       ??$remove@PEAD@?$hashset@U?$hashtableentry@PEBDUShader@@@@@@QEAA_NAEBQEAD@Z 0000000140061560 f i shader.obj
 0001:00060660       ?insert@?$hashset@PEBD@@QEAAPEAUchain@1@I@Z 0000000140061660 f i shader.obj
 0001:00060720       ??0Shader@@QEAA@XZ         0000000140061720 f i shader.obj
 0001:00060800       ??1Shader@@QEAA@XZ         0000000140061800 f i shader.obj
 0001:00060940       ?checkblurtiles@rendertarget@@QEAA_NMMMMM@Z 0000000140061940 f i shadowmap.obj
 0001:00060b00       ?attachment@shadowmaptexture@@UEBAIXZ 0000000140061b00 f i shadowmap.obj
 0001:00060b20       ?colorformats@shadowmaptexture@@UEBAPEBIXZ 0000000140061b20 f i shadowmap.obj
 0001:00060b80       ?shadowcompare@shadowmaptexture@@UEBA_NXZ 0000000140061b80 f i shadowmap.obj
 0001:00060b90       ?filter@shadowmaptexture@@UEBA_NXZ 0000000140061b90 f i shadowmap.obj
 0001:00060bb0       ?swaptexs@shadowmaptexture@@UEBA_NXZ 0000000140061bb0 f i shadowmap.obj
 0001:00060bc0       ?scissorblur@shadowmaptexture@@UEAA_NAEAH000@Z 0000000140061bc0 f i shadowmap.obj
 0001:00060d80       ?scissorrender@shadowmaptexture@@UEAA_NAEAH000@Z 0000000140061d80 f i shadowmap.obj
 0001:00060db0       ?doclear@shadowmaptexture@@UEAAXXZ 0000000140061db0 f i shadowmap.obj
 0001:00060e50       ?dorender@shadowmaptexture@@UEAA_NXZ 0000000140061e50 f i shadowmap.obj
 0001:00061670       ?dodebug@shadowmaptexture@@UEAAXHH@Z 0000000140062670 f i shadowmap.obj
 0001:00061700       ?projective@glmatrixf@@QEAAXMM@Z 0000000140062700 f i shadowmap.obj
 0001:00061810       ??1?$hashtable@PEADUTexture@@@@QEAA@XZ 0000000140062810 f i texture.obj
 0001:00061890       ??1MSlot@@QEAA@XZ          0000000140062890 f i texture.obj
 0001:000618e0       ?deletecontents@?$vector@PEAUSlot@@@@QEAAXXZ 00000001400628e0 f i texture.obj
 0001:00061980       ?deletecontents@?$vector@PEAUVSlot@@@@QEAAXXZ 0000000140062980 f i texture.obj
 0001:00061a00       ??A?$hashtable@PEADUTexture@@@@QEAAAEAUTexture@@AEBQEAD@Z 0000000140062a00 f i texture.obj
 0001:00061ab0       ??1?$hashset@U?$hashtableentry@PEADUTexture@@@@@@QEAA@XZ 0000000140062ab0 f i texture.obj
 0001:00061b10       ?growbuf@?$vector@UTex@Slot@@@@QEAAXH@Z 0000000140062b10 f i texture.obj
 0001:00061bb0       ?growbuf@?$vector@PEAUSlot@@@@QEAAXH@Z 0000000140062bb0 f i texture.obj
 0001:00061c50       ??0?$hashset@U?$hashtableentry@PEADUTexture@@@@@@QEAA@H@Z 0000000140062c50 f i texture.obj
 0001:00061ce0       ?growbuf@?$vector@Uenvmap@@@@QEAAXH@Z 0000000140062ce0 f i texture.obj
 0001:00061d80       ?insert@?$hashset@U?$hashtableentry@PEADUTexture@@@@@@QEAAPEAUchain@1@I@Z 0000000140062d80 f i texture.obj
 0001:00061e70       ??$remove@PEAD@?$hashset@U?$hashtableentry@PEADUTexture@@@@@@QEAA_NAEBQEAD@Z 0000000140062e70 f i texture.obj
 0001:00061f50       ??_GImageData@@QEAAPEAXI@Z 0000000140062f50 f i texture.obj
 0001:00061fa0       ?reset@Slot@@QEAAXXZ       0000000140062fa0 f i texture.obj
 0001:00062040       ??0Slot@@QEAA@H@Z          0000000140063040 f i texture.obj
 0001:00062090       ??1Slot@@QEAA@XZ           0000000140063090 f i texture.obj
 0001:00062100       ??0MSlot@@QEAA@XZ          0000000140063100 f i texture.obj
 0001:00062160       ?wrap@ImageData@@QEAAXPEAUSDL_Surface@@@Z 0000000140063160 f i texture.obj
 0001:00062210       ??0Reflection@@QEAA@XZ     0000000140063210 f i water.obj
 0001:00062250       ??1Reflection@@QEAA@XZ     0000000140063250 f i water.obj
 0001:00062280       ??Rsortfun@@QEAA_NAEBUsortitem@@0@Z 0000000140063280 f i command.obj
 0001:00062360       ??0?$hashset@Uident@@@@QEAA@H@Z 0000000140063360 f i command.obj
 0001:000623f0       ?add@?$vector@Uident@@@@QEAAAEAUident@@AEBU2@@Z 00000001400633f0 f i command.obj
 0001:00062480       ?growbuf@?$vector@Usleepcmd@@@@QEAAXH@Z 0000000140063480 f i command.obj
 0001:00062520       ??$access@PEBDUident@@@?$hashset@Uident@@@@QEAAAEAUident@@AEBQEBDAEBU1@@Z 0000000140063520 f i command.obj
 0001:00062600       ??$access@PEAD@?$hashset@Uident@@@@QEAAPEAUident@@AEBQEAD@Z 0000000140063600 f i command.obj
 0001:00062600       ??$access@PEBD@?$hashset@Uident@@@@QEAAPEAUident@@AEBQEBD@Z 0000000140063600 f i command.obj
 0001:00062690       ?insert@?$hashset@Uident@@@@QEAAPEAUchain@1@I@Z 0000000140063690 f i command.obj
 0001:00062760       ?getval@ident@@QEBAXAEAUtagval@@@Z 0000000140063760 f i command.obj
 0001:000627d0       ?getint@ident@@QEBAHXZ     00000001400637d0 f i command.obj
 0001:00062800       ?getstr@tagval@@QEBAPEBDXZ 0000000140063800 f i command.obj
 0001:00062830       ?getstr@ident@@QEBAPEBDXZ  0000000140063830 f i command.obj
 0001:00062870       ??0keym@@QEAA@XZ           0000000140063870 f i console.obj
 0001:00062900       ??1keym@@QEAA@XZ           0000000140063900 f i console.obj
 0001:00062960       ?restore@hline@@QEAAXXZ    0000000140063960 f i console.obj
 0001:00062a20       ?shouldsave@hline@@QEAA_NXZ 0000000140063a20 f i console.obj
 0001:00062ae0       ?save@hline@@QEAAXXZ       0000000140063ae0 f i console.obj
 0001:00062b90       ?run@hline@@QEAAXXZ        0000000140063b90 f i console.obj
 0001:00062c00       ?comparefiles@filesval@@SA_NPEBD0@Z 0000000140063c00 f i console.obj
 0001:00062c20       ?update@filesval@@QEAAXXZ  0000000140063c20 f i console.obj
 0001:00062da0       ??1?$hashtable@Ufileskey@@PEAUfilesval@@@@QEAA@XZ 0000000140063da0 f i console.obj
 0001:00062e20       ??1?$hashtable@PEADPEAUfilesval@@@@QEAA@XZ 0000000140063e20 f i console.obj
 0001:00062ea0       ??1?$hashset@U?$hashtableentry@HUkeym@@@@@@QEAA@XZ 0000000140063ea0 f i console.obj
 0001:00062ed0       ?clear@?$hashset@U?$hashtableentry@HUkeym@@@@@@QEAAXXZ 0000000140063ed0 f i console.obj
 0001:00062f90       ?access@?$hashtable@Ufileskey@@PEAUfilesval@@@@QEAAPEAPEAUfilesval@@AEBUfileskey@@@Z 0000000140063f90 f i console.obj
 0001:00063060       ??A?$hashtable@Ufileskey@@PEAUfilesval@@@@QEAAAEAPEAUfilesval@@AEBUfileskey@@@Z 0000000140064060 f i console.obj
 0001:00063150       ??1?$hashset@U?$hashtableentry@Ufileskey@@PEAUfilesval@@@@@@QEAA@XZ 0000000140064150 f i console.obj
 0001:000631b0       ?access@?$hashtable@PEADPEAUfilesval@@@@QEAAPEAPEAUfilesval@@AEBQEAD@Z 00000001400641b0 f i console.obj
 0001:00063240       ??1?$hashset@U?$hashtableentry@PEADPEAUfilesval@@@@@@QEAA@XZ 0000000140064240 f i console.obj
 0001:000632a0       ??0?$hashset@U?$hashtableentry@HUkeym@@@@@@QEAA@H@Z 00000001400642a0 f i console.obj
 0001:00063330       ?deletechunks@?$hashset@U?$hashtableentry@HUkeym@@@@@@QEAAXXZ 0000000140064330 f i console.obj
 0001:000633a0       ?growbuf@?$vector@PEAUhline@@@@QEAAXH@Z 00000001400643a0 f i console.obj
 0001:00063440       ?growbuf@?$vector@Ureleaseaction@@@@QEAAXH@Z 0000000140064440 f i console.obj
 0001:000634e0       ??0?$hashset@U?$hashtableentry@Ufileskey@@PEAUfilesval@@@@@@QEAA@H@Z 00000001400644e0 f i console.obj
 0001:00063570       ??0?$hashset@U?$hashtableentry@PEADPEAUfilesval@@@@@@QEAA@H@Z 0000000140064570 f i console.obj
 0001:00063600       ??1chain@?$hashset@U?$hashtableentry@HUkeym@@@@@@QEAA@XZ 0000000140064600 f i console.obj
 0001:00063620       ??1?$hashtableentry@HUkeym@@@@QEAA@XZ 0000000140064620 f i console.obj
 0001:00063690       ?growbuf@?$vector@Ucline@@@@QEAAXH@Z 0000000140064690 f i console.obj
 0001:00063730       ?insert@?$hashset@U?$hashtableentry@HUkeym@@@@@@QEAAPEAUchain@1@I@Z 0000000140064730 f i console.obj
 0001:00063830       ?insert@?$hashset@U?$hashtableentry@Ufileskey@@PEAUfilesval@@@@@@QEAAPEAUchain@1@I@Z 0000000140064830 f i console.obj
 0001:00063900       ??0chain@?$hashset@U?$hashtableentry@HUkeym@@@@@@QEAA@XZ 0000000140064900 f i console.obj
 0001:00063930       ?add@?$vector@TSDL_Event@@@@QEAAAEATSDL_Event@@AEBT2@@Z 0000000140064930 f i main.obj
 0001:000639b0       ?growbuf@?$vector@TSDL_Event@@@@QEAAXH@Z 00000001400649b0 f i main.obj
 0001:00063a50       ?gui@menu@@UEAAXAEAUg3d_gui@@_N@Z 0000000140064a50 f i menus.obj
 0001:00063ae0       ?clear@menu@@UEAAXXZ       0000000140064ae0 f i menus.obj
 0001:00063b10       ??1menu@@UEAA@XZ           0000000140064b10 f i menus.obj
 0001:00063b30       ?getstring@delayedupdate@@QEBAPEBDXZ 0000000140064b30 f i menus.obj
 0001:00063b90       ?run@delayedupdate@@QEAAXXZ 0000000140064b90 f i menus.obj
 0001:00063cf0       ?gui@applymenu@@UEAAXAEAUg3d_gui@@_N@Z 0000000140064cf0 f i menus.obj
 0001:00063f00       ?clear@applymenu@@UEAAXXZ  0000000140064f00 f i menus.obj
 0001:00063f40       ??_Gapplymenu@@UEAAPEAXI@Z 0000000140064f40 f i menus.obj
 0001:00063f40       ??_Eapplymenu@@UEAAPEAXI@Z 0000000140064f40 f i * CIL library *:* CIL module *
 0001:00063f80       ?access@?$hashtable@PEBDUmenu@@@@QEAAPEAUmenu@@AEBQEBD@Z 0000000140064f80 f i menus.obj
 0001:00064010       ??A?$hashtable@PEBDUmenu@@@@QEAAAEAUmenu@@AEBQEBD@Z 0000000140065010 f i menus.obj
 0001:000640c0       ??1?$hashset@U?$hashtableentry@PEBDUmenu@@@@@@QEAA@XZ 00000001400650c0 f i menus.obj
 0001:00064150       ?insert@?$vector@PEAUmenu@@@@QEAAAEAPEAUmenu@@HAEBQEAU2@@Z 0000000140065150 f i menus.obj
 0001:00064200       ?add@?$vector@Udelayedupdate@@@@QEAAAEAUdelayedupdate@@XZ 0000000140065200 f i menus.obj
 0001:00064290       ?shrink@?$vector@Udelayedupdate@@@@QEAAXH@Z 0000000140065290 f i menus.obj
 0001:00064300       ??0?$hashset@U?$hashtableentry@PEBDUmenu@@@@@@QEAA@H@Z 0000000140065300 f i menus.obj
 0001:00064390       ?growbuf@?$vector@PEAUmenu@@@@QEAAXH@Z 0000000140065390 f i menus.obj
 0001:00064430       ?growbuf@?$vector@Udelayedupdate@@@@QEAAXH@Z 0000000140065430 f i menus.obj
 0001:000644d0       ?growbuf@?$vector@Uchange@@@@QEAAXH@Z 00000001400654d0 f i menus.obj
 0001:00064570       ??1chain@?$hashset@U?$hashtableentry@PEBDUmenu@@@@@@QEAA@XZ 0000000140065570 f i menus.obj
 0001:000645a0       ??1?$hashtableentry@PEBDUmenu@@@@QEAA@XZ 00000001400655a0 f i menus.obj
 0001:000645d0       ?insert@?$hashset@U?$hashtableentry@PEBDUmenu@@@@@@QEAAPEAUchain@1@I@Z 00000001400655d0 f i menus.obj
 0001:000646d0       ??0chain@?$hashset@U?$hashtableentry@PEBDUmenu@@@@@@QEAA@XZ 00000001400656d0 f i menus.obj
 0001:00064730       ?endlistchunk@aviwriter@@QEAAXXZ 0000000140065730 f i movie.obj
 0001:000647c0       ?close@aviwriter@@QEAAXXZ  00000001400657c0 f i movie.obj
 0001:00064b40       ??0aviwriter@@QEAA@PEBDIII_N@Z 0000000140065b40 f i movie.obj
 0001:00064d10       ??1aviwriter@@QEAA@XZ      0000000140065d10 f i movie.obj
 0001:00064da0       ?open@aviwriter@@QEAA_NXZ  0000000140065da0 f i movie.obj
 0001:00065f60       ?boxsample@aviwriter@@SAXPEBEIIIIIIIIAEAI11@Z 0000000140066f60 f i movie.obj
 0001:00066360       ?scaleyuv@aviwriter@@QEAAXPEBEII@Z 0000000140067360 f i movie.obj
 0001:00066980       ?encodeyuv@aviwriter@@QEAAXPEBE@Z 0000000140067980 f i movie.obj
 0001:00066cf0       ?compressyuv@aviwriter@@QEAAXPEBE@Z 0000000140067cf0 f i movie.obj
 0001:00066ed0       ?writesound@aviwriter@@QEAA_NPEAEII@Z 0000000140067ed0 f i movie.obj
 0001:00067100       ?flushsegment@aviwriter@@QEAAXXZ 0000000140068100 f i movie.obj
 0001:00067650       ?nextsegment@aviwriter@@QEAA_NXZ 0000000140068650 f i movie.obj
 0001:000677f0       ?writevideoframe@aviwriter@@QEAA_NPEBEIIHI@Z 00000001400687f0 f i movie.obj
 0001:000679f0       ??0soundbuffer@recorder@@QEAA@XZ 00000001400689f0 f i movie.obj
 0001:00067a00       ??1soundbuffer@recorder@@QEAA@XZ 0000000140068a00 f i movie.obj
 0001:00067a30       ?init@videobuffer@recorder@@QEAAXHHH@Z 0000000140068a30 f i movie.obj
 0001:00067aa0       ?insert@?$vector@Uaviindexentry@@@@QEAAAEAUaviindexentry@@HAEBU2@@Z 0000000140068aa0 f i movie.obj
 0001:00067b70       ?hasslot@soundconfig@@QEBA_NPEBUsoundslot@@AEBU?$vector@Usoundslot@@@@@Z 0000000140068b70 f i sound.obj
 0001:00067bb0       ??1?$hashset@U?$hashtableentry@PEBDUsoundsample@@@@@@QEAA@XZ 0000000140068bb0 f i sound.obj
 0001:00067be0       ?clear@?$hashset@U?$hashtableentry@PEBDUsoundsample@@@@@@QEAAXXZ 0000000140068be0 f i sound.obj
 0001:00067c90       ?growbuf@?$vector@Usoundchannel@@@@QEAAXH@Z 0000000140068c90 f i sound.obj
 0001:00067d30       ??0?$hashset@U?$hashtableentry@PEBDUsoundsample@@@@@@QEAA@H@Z 0000000140068d30 f i sound.obj
 0001:00067dc0       ?deletechunks@?$hashset@U?$hashtableentry@PEBDUsoundsample@@@@@@QEAAXXZ 0000000140068dc0 f i sound.obj
 0001:00067e50       ??1chain@?$hashset@U?$hashtableentry@PEBDUzipfile@@@@@@QEAA@XZ 0000000140068e50 f i zip.obj
 0001:00067e50       ??1chain@?$hashset@U?$hashtableentry@PEBDUsoundsample@@@@@@QEAA@XZ 0000000140068e50 f i sound.obj
 0001:00067e90       ??1?$hashtableentry@PEBDUsoundsample@@@@QEAA@XZ 0000000140068e90 f i sound.obj
 0001:00067e90       ??1?$hashtableentry@PEBDUzipfile@@@@QEAA@XZ 0000000140068e90 f i zip.obj
 0001:00067ed0       ?insert@?$hashset@U?$hashtableentry@PEBDUsoundsample@@@@@@QEAAPEAUchain@1@I@Z 0000000140068ed0 f i sound.obj
 0001:00067fd0       ??0chain@?$hashset@U?$hashtableentry@PEBDUsoundsample@@@@@@QEAA@XZ 0000000140068fd0 f i sound.obj
 0001:00068000       ?parsedigits@?$bigint@$0N@@@SAHPEAGHPEBD@Z 0000000140069000 f i crypto.obj
 0001:00068100       ?close@filestream@@UEAAXXZ 0000000140069100 f i stream.obj
 0001:00068130       ?end@filestream@@UEAA_NXZ  0000000140069130 f i stream.obj
 0001:00068150       ?tell@filestream@@UEAA_JXZ 0000000140069150 f i stream.obj
 0001:00068160       ?seek@filestream@@UEAA_N_JH@Z 0000000140069160 f i stream.obj
 0001:00068180       ?read@filestream@@UEAAHPEAXH@Z 0000000140069180 f i stream.obj
 0001:000681a0       ?write@filestream@@UEAAHPEBXH@Z 00000001400691a0 f i stream.obj
 0001:000681c0       ?getchar@filestream@@UEAAHXZ 00000001400691c0 f i stream.obj
 0001:000681d0       ?putchar@filestream@@UEAA_NH@Z 00000001400691d0 f i stream.obj
 0001:000681f0       ?getline@filestream@@UEAA_NPEADH@Z 00000001400691f0 f i stream.obj
 0001:00068220       ?putstring@filestream@@UEAA_NPEBD@Z 0000000140069220 f i stream.obj
 0001:00068240       ?printf@filestream@@UEAAHPEBDZZ 0000000140069240 f i stream.obj
 0001:00068270       ??_Gfilestream@@UEAAPEAXI@Z 0000000140069270 f i stream.obj
 0001:00068270       ??_Efilestream@@UEAAPEAXI@Z 0000000140069270 f i * CIL library *:* CIL module *
 0001:000682e0       ?readbyte@gzstream@@QEAAHH@Z 00000001400692e0 f i stream.obj
 0001:00068350       ?checkheader@gzstream@@QEAA_NXZ 0000000140069350 f i stream.obj
 0001:00068610       ?open@gzstream@@QEAA_NPEAUstream@@PEBD_NH@Z 0000000140069610 f i stream.obj
 0001:00068790       ?getcrc@gzstream@@UEAAIXZ  0000000140069790 f i stream.obj
 0001:000687a0       ?finishreading@gzstream@@QEAAXXZ 00000001400697a0 f i stream.obj
 0001:000688f0       ?finishwriting@gzstream@@QEAAXXZ 00000001400698f0 f i stream.obj
 0001:000689e0       ?close@gzstream@@UEAAXXZ   00000001400699e0 f i stream.obj
 0001:00068a70       ?end@gzstream@@UEAA_NXZ    0000000140069a70 f i stream.obj
 0001:00068a90       ?tell@gzstream@@UEAA_JXZ   0000000140069a90 f i stream.obj
 0001:00068ab0       ?rawtell@gzstream@@UEAA_JXZ 0000000140069ab0 f i stream.obj
 0001:00068ad0       ?size@gzstream@@UEAA_JXZ   0000000140069ad0 f i stream.obj
 0001:00068b70       ?rawsize@gzstream@@UEAA_JXZ 0000000140069b70 f i stream.obj
 0001:00068b90       ?seek@gzstream@@UEAA_N_JH@Z 0000000140069b90 f i stream.obj
 0001:00068d10       ?read@gzstream@@UEAAHPEAXH@Z 0000000140069d10 f i stream.obj
 0001:00068e40       ?flush@gzstream@@QEAA_NXZ  0000000140069e40 f i stream.obj
 0001:00068ea0       ?write@gzstream@@UEAAHPEBXH@Z 0000000140069ea0 f i stream.obj
 0001:00068f60       ??_Ggzstream@@UEAAPEAXI@Z  0000000140069f60 f i stream.obj
 0001:00068f60       ??_Egzstream@@UEAAPEAXI@Z  0000000140069f60 f i * CIL library *:* CIL module *
 0001:00068fc0       ?readbuf@utf8stream@@QEAA_NH@Z 0000000140069fc0 f i stream.obj
 0001:000690c0       ?checkheader@utf8stream@@QEAA_NXZ 000000014006a0c0 f i stream.obj
 0001:00069120       ?open@utf8stream@@QEAA_NPEAUstream@@PEBD_N@Z 000000014006a120 f i stream.obj
 0001:000691c0       ?close@utf8stream@@UEAAXXZ 000000014006a1c0 f i stream.obj
 0001:00069210       ?end@utf8stream@@UEAA_NXZ  000000014006a210 f i stream.obj
 0001:00069230       ?tell@utf8stream@@UEAA_JXZ 000000014006a230 f i stream.obj
 0001:00069250       ?seek@utf8stream@@UEAA_N_JH@Z 000000014006a250 f i stream.obj
 0001:00069380       ?read@utf8stream@@UEAAHPEAXH@Z 000000014006a380 f i stream.obj
 0001:00069460       ?getline@utf8stream@@UEAA_NPEADH@Z 000000014006a460 f i stream.obj
 0001:00069570       ?write@utf8stream@@UEAAHPEBXH@Z 000000014006a570 f i stream.obj
 0001:000697f0       ??_Gutf8stream@@UEAAPEAXI@Z 000000014006a7f0 f i stream.obj
 0001:000697f0       ??_Eutf8stream@@UEAAPEAXI@Z 000000014006a7f0 f i * CIL library *:* CIL module *
 0001:00069880       ?growbuf@?$vector@Upackagedir@@@@QEAAXH@Z 000000014006a880 f i stream.obj
 0001:00069920       ??_Gstream@@UEAAPEAXI@Z    000000014006a920 f i stream.obj
 0001:00069920       ??_Estream@@UEAAPEAXI@Z    000000014006a920 f i * CIL library *:* CIL module *
 0001:00069950       ?rawtell@stream@@UEAA_JXZ  000000014006a950 f i stream.obj
 0001:00069960       ?rawsize@stream@@UEAA_JXZ  000000014006a960 f i stream.obj
 0001:00069970       ?getchar@stream@@UEAAHXZ   000000014006a970 f i stream.obj
 0001:000699a0       ?putstring@stream@@UEAA_NPEBD@Z 000000014006a9a0 f i stream.obj
 0001:000699d0       ?putchar@stream@@UEAA_NH@Z 000000014006a9d0 f i stream.obj
 0001:00069a00       ?putline@stream@@UEAA_NPEBD@Z 000000014006aa00 f i stream.obj
 0001:00069a40       ??1stream@@UEAA@XZ         000000014006aa40 f i stream.obj
 0001:00069a50       ?tell@stream@@UEAA_JXZ     000000014006aa50 f i stream.obj
 0001:00069a60       ??1?$hashtable@PEBDUzipfile@@@@QEAA@XZ 000000014006aa60 f i zip.obj
 0001:00069aa0       ??_Gziparchive@@QEAAPEAXI@Z 000000014006aaa0 f i zip.obj
 0001:00069b30       ?readbuf@zipstream@@QEAAXI@Z 000000014006ab30 f i zip.obj
 0001:00069bf0       ?open@zipstream@@QEAA_NPEAUziparchive@@PEAUzipfile@@@Z 000000014006abf0 f i zip.obj
 0001:00069cc0       ?stopreading@zipstream@@QEAAXXZ 000000014006acc0 f i zip.obj
 0001:00069d40       ?close@zipstream@@UEAAXXZ  000000014006ad40 f i zip.obj
 0001:00069d90       ?size@zipstream@@UEAA_JXZ  000000014006ad90 f i zip.obj
 0001:00069da0       ?end@zipstream@@UEAA_NXZ   000000014006ada0 f i zip.obj
 0001:00069dc0       ?tell@zipstream@@UEAA_JXZ  000000014006adc0 f i zip.obj
 0001:00069de0       ?seek@zipstream@@UEAA_N_JH@Z 000000014006ade0 f i zip.obj
 0001:00069fb0       ?read@zipstream@@UEAAHPEAXH@Z 000000014006afb0 f i zip.obj
 0001:0006a120       ??_Gzipstream@@UEAAPEAXI@Z 000000014006b120 f i zip.obj
 0001:0006a120       ??_Ezipstream@@UEAAPEAXI@Z 000000014006b120 f i * CIL library *:* CIL module *
 0001:0006a1b0       ??1?$hashset@U?$hashtableentry@PEBDUzipfile@@@@@@QEAA@XZ 000000014006b1b0 f i zip.obj
 0001:0006a1e0       ??1?$vector@Uzipfile@@@@QEAA@XZ 000000014006b1e0 f i zip.obj
 0001:0006a250       ??0?$hashset@U?$hashtableentry@PEBDUzipfile@@@@@@QEAA@H@Z 000000014006b250 f i zip.obj
 0001:0006a2e0       ?deletechunks@?$hashset@U?$hashtableentry@PEBDUzipfile@@@@@@QEAAXXZ 000000014006b2e0 f i zip.obj
 0001:0006a370       ?growbuf@?$vector@PEAUziparchive@@@@QEAAXH@Z 000000014006b370 f i zip.obj
 0001:0006a410       ?insert@?$hashset@U?$hashtableentry@PEBDUzipfile@@@@@@QEAAPEAUchain@1@I@Z 000000014006b410 f i zip.obj
 0001:0006a510       ??0chain@?$hashset@U?$hashtableentry@PEBDUzipfile@@@@@@QEAA@XZ 000000014006b510 f i zip.obj
 0001:0006a550       ?st_update@stats@game@@QEAAXXZ 000000014006b550 f i ent.obj
 0001:0006a680       ?selectedweapon@rpgobj@game@@QEAAAEAU12@XZ 000000014006b680 f i ent.obj
 0001:0006a6c0       ?usemana@rpgobj@game@@QEAA_NAEAU12@@Z 000000014006b6c0 f i ent.obj
 0001:0006a720       ?exec@rpgaction@game@@QEAAXPEAUrpgobj@2@00@Z 000000014006b720 f i ent.obj
 0001:0006a7a0       ?useaction@rpgobj@game@@QEAAXAEAU12@AEAUrpgent@2@_N@Z 000000014006b7a0 f i ent.obj
 0001:0006a820       ?normalize_yaw@rpgent@game@@QEAAXM@Z 000000014006b820 f i ent.obj
 0001:0006a880       ??1?$hashtable@PEADPEAD@@QEAA@XZ 000000014006b880 f i objset.obj
 0001:0006a900       ?insert@?$vector@PEAUrpgobj@game@@@@QEAAAEAPEAUrpgobj@game@@HAEBQEAU23@@Z 000000014006b900 f i objset.obj
 0001:0006a9a0       ??1?$hashset@U?$hashtableentry@PEADPEAD@@@@QEAA@XZ 000000014006b9a0 f i objset.obj
 0001:0006aa00       ??0?$hashset@U?$hashtableentry@PEADPEAD@@@@QEAA@H@Z 000000014006ba00 f i objset.obj
 0001:0006aa90       ?insert@?$hashset@U?$hashtableentry@PEADPEAD@@@@QEAAPEAUchain@1@I@Z 000000014006ba90 f i objset.obj
 0001:0006ab60       ?droploot@rpgobj@game@@QEAAXXZ 000000014006bb60 f i objset.obj
 0001:0006ad70       ?takedamage@rpgobj@game@@QEAAXHAEAU12@@Z 000000014006bd70 f i objset.obj
 0001:0006b090       ?addaction@rpgobj@game@@QEAAXPEAD0_N@Z 000000014006c090 f i objset.obj
 0001:0006b1d0       ?take@rpgobj@game@@QEAAPEAU12@PEAD@Z 000000014006c1d0 f i objset.obj
 0001:0006b290       ??0dynent@@QEAA@XZ         000000014006c290 f i objset.obj
 0001:0006b470       ??0rpgent@game@@QEAA@PEAUrpgobj@1@AEBUvec@@MHH@Z 000000014006c470 f i objset.obj
 0001:0006b550       ?placedinworld@rpgobj@game@@QEAAXPEAUrpgent@2@@Z 000000014006c550 f i objset.obj
 0001:0006b600       ?update@rpgobj@game@@QEAAXXZ 000000014006c600 f i objset.obj
 0001:0006b710       ?scriptinit@rpgobj@game@@QEAAXXZ 000000014006c710 f i objset.obj
 0001:0006b7a0       ??0rpgobj@game@@QEAA@PEBD@Z 000000014006c7a0 f i objset.obj
 0001:0006b8a0       ??_Erpgobj@game@@UEAAPEAXI@Z 000000014006c8a0 f i * CIL library *:* CIL module *
 0001:0006b8a0       ??_Grpgobj@game@@UEAAPEAXI@Z 000000014006c8a0 f i objset.obj
 0001:0006b8e0       ?guiaction@rpgobj@game@@QEAAXAEAUg3d_gui@@PEAUrpgaction@2@@Z 000000014006c8e0 f i objset.obj
 0001:0006b970       ?decontain@rpgobj@game@@QEAAXXZ 000000014006c970 f i objset.obj
 0001:0006b9e0       ?recalcstats@rpgobj@game@@QEAAXXZ 000000014006c9e0 f i objset.obj
 0001:0006ba90       ?selectuse@rpgobj@game@@QEAAXXZ 000000014006ca90 f i objset.obj
 0001:0006bb40       ?invgui@rpgobj@game@@QEAAXAEAUg3d_gui@@PEAU12@@Z 000000014006cb40 f i objset.obj
 0001:0006bce0       ?gui@rpgobj@game@@UEAAXAEAUg3d_gui@@_N@Z 000000014006cce0 f i objset.obj
 0001:0006c130       ??1dynent@@QEAA@XZ         000000014006d130 f i objset.obj
 0001:0006c160       ??1rpgaction@game@@QEAA@XZ 000000014006d160 f i objset.obj
 0001:0006c1a0       ??_Grpgaction@game@@QEAAPEAXI@Z 000000014006d1a0 f i objset.obj
 0001:0006c1d0       ??1rpgobj@game@@UEAA@XZ    000000014006d1d0 f i objset.obj
 0001:0006c2e0       ?show@rpgmenu@game@@QEAAXH@Z 000000014006d2e0 f i rpg.obj
 0001:0006c3d0       ?gui@rpgmenu@game@@UEAAXAEAUg3d_gui@@_N@Z 000000014006d3d0 f i rpg.obj
 0001:0006c4a0       ?st_show@stats@game@@QEAAXAEAUg3d_gui@@@Z 000000014006d4a0 f i rpg.obj
 0001:0006d0b0       enet_host_create           000000014006e0b0 f   enet:host.o
 0001:0006d410       enet_host_destroy          000000014006e410 f   enet:host.o
 0001:0006d4b0       enet_host_connect          000000014006e4b0 f   enet:host.o
 0001:0006d6f0       enet_host_broadcast        000000014006e6f0 f   enet:host.o
 0001:0006d780       enet_host_compress         000000014006e780 f   enet:host.o
 0001:0006d800       enet_host_channel_limit    000000014006e800 f   enet:host.o
 0001:0006d820       enet_host_bandwidth_limit  000000014006e820 f   enet:host.o
 0001:0006d830       enet_host_bandwidth_throttle 000000014006e830 f   enet:host.o
 0001:0006dbb0       enet_peer_throttle         000000014006ebb0 f   enet:peer.o
 0001:0006dc40       enet_peer_receive          000000014006ec40 f   enet:peer.o
 0001:0006dca0       enet_peer_reset_queues     000000014006eca0 f   enet:peer.o
 0001:0006e050       enet_peer_reset            000000014006f050 f   enet:peer.o
 0001:0006e270       enet_peer_ping_interval    000000014006f270 f   enet:peer.o
 0001:0006e290       enet_peer_timeout          000000014006f290 f   enet:peer.o
 0001:0006e2d0       enet_peer_queue_acknowledgement 000000014006f2d0 f   enet:peer.o
 0001:0006e3a0       enet_peer_setup_outgoing_command 000000014006f3a0 f   enet:peer.o
 0001:0006e510       enet_peer_disconnect_now   000000014006f510 f   enet:peer.o
 0001:0006e5b0       enet_peer_throttle_configure 000000014006f5b0 f   enet:peer.o
 0001:0006e650       enet_peer_send             000000014006f650 f   enet:peer.o
 0001:0006e980       enet_peer_disconnect       000000014006f980 f   enet:peer.o
 0001:0006ea50       enet_peer_disconnect_later 000000014006fa50 f   enet:peer.o
 0001:0006eab0       enet_peer_ping             000000014006fab0 f   enet:peer.o
 0001:0006eb00       enet_peer_queue_outgoing_command 000000014006fb00 f   enet:peer.o
 0001:0006eba0       enet_peer_dispatch_incoming_unreliable_commands 000000014006fba0 f   enet:peer.o
 0001:0006edf0       enet_peer_dispatch_incoming_reliable_commands 000000014006fdf0 f   enet:peer.o
 0001:0006eee0       enet_peer_queue_incoming_command 000000014006fee0 f   enet:peer.o
 0001:0006f260       enet_initialize            0000000140070260 f   enet:win32.o
 0001:0006f2d0       enet_deinitialize          00000001400702d0 f   enet:win32.o
 0001:0006f2f0       enet_time_get              00000001400702f0 f   enet:win32.o
 0001:0006f310       enet_time_set              0000000140070310 f   enet:win32.o
 0001:0006f330       enet_address_set_host      0000000140070330 f   enet:win32.o
 0001:0006f380       enet_address_get_host_ip   0000000140070380 f   enet:win32.o
 0001:0006f3c0       enet_address_get_host      00000001400703c0 f   enet:win32.o
 0001:0006f440       enet_socket_bind           0000000140070440 f   enet:win32.o
 0001:0006f4b0       enet_socket_listen         00000001400704b0 f   enet:win32.o
 0001:0006f4e0       enet_socket_create         00000001400704e0 f   enet:win32.o
 0001:0006f500       enet_socket_set_option     0000000140070500 f   enet:win32.o
 0001:0006f640       enet_socket_connect        0000000140070640 f   enet:win32.o
 0001:0006f6c0       enet_socket_accept         00000001400706c0 f   enet:win32.o
 0001:0006f720       enet_socket_shutdown       0000000140070720 f   enet:win32.o
 0001:0006f740       enet_socket_destroy        0000000140070740 f   enet:win32.o
 0001:0006f760       enet_socket_send           0000000140070760 f   enet:win32.o
 0001:0006f820       enet_socket_receive        0000000140070820 f   enet:win32.o
 0001:0006f8f0       enet_socketset_select      00000001400708f0 f   enet:win32.o
 0001:0006f940       enet_socket_wait           0000000140070940 f   enet:win32.o
 0001:00070b90       enet_protocol_command_size 0000000140071b90 f   enet:protocol.o
 0001:00070ba0       enet_host_flush            0000000140071ba0 f   enet:protocol.o
 0001:00070bd0       enet_host_check_events     0000000140071bd0 f   enet:protocol.o
 0001:00070c00       enet_host_service          0000000140071c00 f   enet:protocol.o
 0001:000724c0       enet_packet_create         00000001400734c0 f   enet:packet.o
 0001:00072570       enet_packet_destroy        0000000140073570 f   enet:packet.o
 0001:000725c0       enet_packet_resize         00000001400735c0 f   enet:packet.o
 0001:00072630       enet_crc32                 0000000140073630 f   enet:packet.o
 0001:00072830       enet_initialize_with_callbacks 0000000140073830 f   enet:callbacks.o
 0001:00072880       enet_malloc                0000000140073880 f   enet:callbacks.o
 0001:000728b0       enet_free                  00000001400738b0 f   enet:callbacks.o
 0001:000728c0       enet_list_clear            00000001400738c0 f   enet:list.o
 0001:000728d0       enet_list_insert           00000001400738d0 f   enet:list.o
 0001:000728f0       enet_list_remove           00000001400738f0 f   enet:list.o
 0001:00072910       enet_list_move             0000000140073910 f   enet:list.o
 0001:00072940       enet_list_size             0000000140073940 f   enet:list.o
 0001:00072960       __WSAFDIsSet               0000000140073960 f   ws2_32:WS2_32.dll
 0001:00072968       free                       0000000140073968 f   LIBCMT:free.obj
 0001:000729a8       _set_abort_behavior        00000001400739a8 f   LIBCMT:abort.obj
 0001:000729c4       abort                      00000001400739c4 f   LIBCMT:abort.obj
 0001:00072a1c       malloc                     0000000140073a1c f   LIBCMT:malloc.obj
 0001:00072af0       strncpy                    0000000140073af0 f   LIBCMT:strncpy.obj
 0001:00072c54       __onexitinit               0000000140073c54 f   LIBCMT:onexit.obj
 0001:00072c98       _onexit                    0000000140073c98 f   LIBCMT:onexit.obj
 0001:00072da4       atexit                     0000000140073da4 f   LIBCMT:onexit.obj
 0001:00072dbc       _vsnprintf                 0000000140073dbc f   LIBCMT:vsnprint.obj
 0001:00072dd4       _vsnprintf_l               0000000140073dd4 f   LIBCMT:vsnprint.obj
 0001:00072eb0       strncmp                    0000000140073eb0 f   LIBCMT:strncmp.obj
 0001:00072f30       ??_L@YAXPEAX_KHP6AX0@Z2@Z  0000000140073f30 f   LIBCMT:ehvecctr.obj
 0001:00072f94       ??_M@YAXPEAX_KHP6AX0@Z@Z   0000000140073f94 f   LIBCMT:ehvecdtr.obj
 0001:00072ff4       ?__ArrayUnwind@@YAXPEAX_KHP6AX0@Z@Z 0000000140073ff4 f   LIBCMT:ehvecdtr.obj
 0001:00073050       memcpy                     0000000140074050 f   LIBCMT:memcpy.obj
 0001:00073050       memmove                    0000000140074050     LIBCMT:memcpy.obj
 0001:00073534       strrchr                    0000000140074534 f   LIBCMT:strrchr.obj
 0001:00073678       strpbrk                    0000000140074678 f   LIBCMT:strpbrk.obj
 0001:0007371c       _purecall                  000000014007471c f   LIBCMT:purevirt.obj
 0001:00073750       ??8type_info@@QEBA_NAEBV0@@Z 0000000140074750 f   LIBCMT:typinfo.obj
 0001:00073770       ??_Gtype_info@@UEAAPEAXI@Z 0000000140074770 f i LIBCMT:typinfo.obj
 0001:00073770       ??_Etype_info@@UEAAPEAXI@Z 0000000140074770 f i LIBCMT:typinfo.obj
 0001:000737ac       _get_printf_count_output   00000001400747ac f   LIBCMT:printf.obj
 0001:000737c4       printf                     00000001400747c4 f   LIBCMT:printf.obj
 0001:00073870       strstr                     0000000140074870 f   LIBCMT:strstr.obj
 0001:00073a50       remove                     0000000140074a50 f   LIBCMT:unlink.obj
 0001:00073a98       rename                     0000000140074a98 f   LIBCMT:rename.obj
 0001:00073be0       _fclose_nolock             0000000140074be0 f   LIBCMT:fclose.obj
 0001:00073c5c       fclose                     0000000140074c5c f   LIBCMT:fclose.obj
 0001:00073cc4       _fsopen                    0000000140074cc4 f   LIBCMT:fopen.obj
 0001:00073d9c       fopen                      0000000140074d9c f   LIBCMT:fopen.obj
 0001:00073da8       setvbuf                    0000000140074da8 f   LIBCMT:setvbuf.obj
 0001:00073ec0       _fwrite_nolock             0000000140074ec0 f   LIBCMT:fwrite.obj
 0001:00074050       fwrite                     0000000140075050 f   LIBCMT:fwrite.obj
 0001:000740e0       ??0_LocaleUpdate@@QEAA@PEAUlocaleinfo_struct@@@Z 00000001400750e0 f i LIBCMT:_ctype.obj
 0001:00074188       isalpha                    0000000140075188 f i LIBCMT:_ctype.obj
 0001:00074208       isdigit                    0000000140075208 f i LIBCMT:_ctype.obj
 0001:00074284       isspace                    0000000140075284 f i LIBCMT:_ctype.obj
 0001:00074300       isxdigit                   0000000140075300 f i LIBCMT:_ctype.obj
 0001:00074380       memchr                     0000000140075380 f   LIBCMT:memchr.obj
 0001:0007439c       __copy_path_to_wide_string 000000014007539c f   LIBCMT:crt0dat.obj
 0001:0007449c       __crtCorExitProcess        000000014007549c f   LIBCMT:crt0dat.obj
 0001:000744e0       __crtExitProcess           00000001400754e0 f   LIBCMT:crt0dat.obj
 0001:000744f8       _amsg_exit                 00000001400754f8 f   LIBCMT:crt0dat.obj
 0001:00074520       _c_exit                    0000000140075520 f   LIBCMT:crt0dat.obj
 0001:00074530       _cexit                     0000000140075530 f   LIBCMT:crt0dat.obj
 0001:00074540       _cinit                     0000000140075540 f   LIBCMT:crt0dat.obj
 0001:000745f0       _exit                      00000001400755f0 f   LIBCMT:crt0dat.obj
 0001:000745fc       _init_pointers             00000001400755fc f   LIBCMT:crt0dat.obj
 0001:0007467c       _initterm_e                000000014007567c f   LIBCMT:crt0dat.obj
 0001:000746b8       _lockexit                  00000001400756b8 f   LIBCMT:crt0dat.obj
 0001:000746c4       _unlockexit                00000001400756c4 f   LIBCMT:crt0dat.obj
 0001:00074868       exit                       0000000140075868 f   LIBCMT:crt0dat.obj
 0001:00074874       atol                       0000000140075874 f   LIBCMT:atox.obj
 0001:00074874       atoi                       0000000140075874 f   LIBCMT:atox.obj
 0001:00074880       sscanf                     0000000140075880 f   LIBCMT:sscanf.obj
 0001:00074960       _time64                    0000000140075960 f   LIBCMT:time64.obj
 0001:000749c0       _localtime64               00000001400759c0 f   LIBCMT:loctim64.obj
 0001:00074a08       _localtime64_s             0000000140075a08 f   LIBCMT:loctim64.obj
 0001:00074d14       _Strftime_l                0000000140075d14 f   LIBCMT:strftime.obj
 0001:00074ebc       strftime                   0000000140075ebc f   LIBCMT:strftime.obj
 0001:00074ed8       _tolower_l                 0000000140075ed8 f   LIBCMT:tolower.obj
 0001:0007502c       tolower                    000000014007602c f   LIBCMT:tolower.obj
 0001:0007504c       strchr                     000000014007604c f   LIBCMT:strchr.obj
 0001:000750d8       _strtod_l                  00000001400760d8 f   LIBCMT:strtod.obj
 0001:00075230       strtod                     0000000140076230 f   LIBCMT:strtod.obj
 0001:00075238       __ascii_stricmp            0000000140076238 f   LIBCMT:stricmp.obj
 0001:00075274       _stricmp                   0000000140076274 f   LIBCMT:stricmp.obj
 0001:000752bc       _stricmp_l                 00000001400762bc f   LIBCMT:stricmp.obj
 0001:000755ac       strtol                     00000001400765ac f   LIBCMT:strtol.obj
 0001:000755dc       strspn                     00000001400765dc f   LIBCMT:strspn.obj
 0001:000756a0       fputs                      00000001400766a0 f   LIBCMT:fputs.obj
 0001:000757cc       fprintf                    00000001400767cc f   LIBCMT:fprintf.obj
 0001:000758f4       fputc                      00000001400768f4 f   LIBCMT:fputc.obj
 0001:00075a04       strcspn                    0000000140076a04 f   LIBCMT:strcspn.obj
 0001:00075aa4       _atof_l                    0000000140076aa4 f   LIBCMT:atof.obj
 0001:00075b60       atof                       0000000140076b60 f   LIBCMT:atof.obj
 0001:00075b68       wcsncpy                    0000000140076b68 f   LIBCMT:wcsncpy.obj
 0001:00075bb0       _toupper_l                 0000000140076bb0 f   LIBCMT:toupper.obj
 0001:00075d00       toupper                    0000000140076d00 f   LIBCMT:toupper.obj
 0001:00075d20       _vscprintf                 0000000140076d20 f   LIBCMT:vsprintf.obj
 0001:00075d38       _vscprintf_helper          0000000140076d38 f   LIBCMT:vsprintf.obj
 0001:00075dc8       feof                       0000000140076dc8 f   LIBCMT:feoferr.obj
 0001:00075df0       _ftelli64                  0000000140076df0 f   LIBCMT:ftelli64.obj
 0001:00075e4c       _ftelli64_nolock           0000000140076e4c f   LIBCMT:ftelli64.obj
 0001:00076140       _fseeki64                  0000000140077140 f   LIBCMT:fseeki64.obj
 0001:000761b4       _fseeki64_nolock           00000001400771b4 f   LIBCMT:fseeki64.obj
 0001:00076268       _fread_nolock_s            0000000140077268 f   LIBCMT:fread.obj
 0001:00076488       fread                      0000000140077488 f   LIBCMT:fread.obj
 0001:000764a8       fread_s                    00000001400774a8 f   LIBCMT:fread.obj
 0001:00076550       fgetc                      0000000140077550 f   LIBCMT:fgetc.obj
 0001:00076650       fgets                      0000000140077650 f   LIBCMT:fgets.obj
 0001:000767b0       vfprintf                   00000001400777b0 f   LIBCMT:vfprintf.obj
 0001:000767d4       vfprintf_helper            00000001400777d4 f   LIBCMT:vfprintf.obj
 0001:00076914       _fseek_nolock              0000000140077914 f   LIBCMT:fseek.obj
 0001:000769c0       fseek                      00000001400779c0 f   LIBCMT:fseek.obj
 0001:00076a34       _ftell_nolock              0000000140077a34 f   LIBCMT:ftell.obj
 0001:00076d28       ftell                      0000000140077d28 f   LIBCMT:ftell.obj
 0001:00076d80       WinMainCRTStartup          0000000140077d80 f   LIBCMT:wincrt0.obj
 0001:00076f60       memset                     0000000140077f60 f   LIBCMT:memset.obj
 0001:0007706c       perror                     000000014007806c f   LIBCMT:perror.obj
 0001:0007711c       __doserrno                 000000014007811c f   LIBCMT:dosmap.obj
 0001:0007713c       _dosmaperr                 000000014007813c f   LIBCMT:dosmap.obj
 0001:0007718c       _errno                     000000014007818c f   LIBCMT:dosmap.obj
 0001:000771ac       _get_errno_from_oserr      00000001400781ac f   LIBCMT:dosmap.obj
 0001:000771fc       _heap_init                 00000001400781fc f   LIBCMT:heapinit.obj
 0001:0007721c       __get_sigabrt              000000014007821c f   LIBCMT:winsig.obj
 0001:0007722c       _initp_misc_winsig         000000014007822c f   LIBCMT:winsig.obj
 0001:0007724c       raise                      000000014007824c f   LIBCMT:winsig.obj
 0001:00077470       _call_reportfault          0000000140078470 f   LIBCMT:invarg.obj
 0001:00077564       _initp_misc_invarg         0000000140078564 f   LIBCMT:invarg.obj
 0001:0007756c       _invalid_parameter         000000014007856c f   LIBCMT:invarg.obj
 0001:000775d4       _invalid_parameter_noinfo  00000001400785d4 f   LIBCMT:invarg.obj
 0001:000775f4       _invoke_watson             00000001400785f4 f   LIBCMT:invarg.obj
 0001:00077630       _callnewh                  0000000140078630 f   LIBCMT:handler.obj
 0001:00077664       _initp_heap_handler        0000000140078664 f   LIBCMT:handler.obj
 0001:0007766c       _FF_MSGBANNER              000000014007866c f   LIBCMT:crt0msg.obj
 0001:000776b0       _GET_RTERRMSG              00000001400786b0 f   LIBCMT:crt0msg.obj
 0001:000776e0       _NMSG_WRITE                00000001400786e0 f   LIBCMT:crt0msg.obj
 0001:00077950       _msize                     0000000140078950 f   LIBCMT:msize.obj
 0001:0007798c       _calloc_crt                000000014007898c f   LIBCMT:crtheap.obj
 0001:00077a0c       _malloc_crt                0000000140078a0c f   LIBCMT:crtheap.obj
 0001:00077a88       _realloc_crt               0000000140078a88 f   LIBCMT:crtheap.obj
 0001:00077b0c       _recalloc_crt              0000000140078b0c f   LIBCMT:crtheap.obj
 0001:00077b94       __C_specific_handler       0000000140078b94 f   LIBCMT:chandler.obj
 0001:00077d74       _flsbuf                    0000000140078d74 f   LIBCMT:_flsbuf.obj
 0001:00077f00       _output_l                  0000000140078f00 f   LIBCMT:output.obj
 0001:00078a50       ?_inconsistency@@YAXXZ     0000000140079a50 f   LIBCMT:hooks.obj
 0001:00078a70       ?terminate@@YAXXZ          0000000140079a70 f   LIBCMT:hooks.obj
 0001:00078a90       _initp_eh_hooks            0000000140079a90 f   LIBCMT:hooks.obj
 0001:00078ab0       __isa_available_init       0000000140079ab0 f   LIBCMT:cpu_disp.obj
 0001:00078bb8       __raise_securityfailure    0000000140079bb8 f   LIBCMT:gs_report.obj
 0001:00078c04       __report_gsfailure         0000000140079c04 f   LIBCMT:gs_report.obj
 0001:00078cd8       __report_rangecheckfailure 0000000140079cd8 f   LIBCMT:gs_report.obj
 0001:00078cec       __report_securityfailure   0000000140079cec f   LIBCMT:gs_report.obj
 0001:00078d88       __GSHandlerCheck           0000000140079d88 f   LIBCMT:gshandler.obj
 0001:00078da8       __GSHandlerCheckCommon     0000000140079da8 f   LIBCMT:gshandler.obj
 0001:00078e20       __security_check_cookie    0000000140079e20 f   LIBCMT:amdsecgs.obj
 0001:00078e40       _initp_misc_purevirt       0000000140079e40 f   LIBCMT:inithelp.obj
 0001:00078e60       strcmp                     0000000140079e60 f   LIBCMT:strcmp.obj
 0001:00078ec8       ?_Type_info_dtor@type_info@@CAXPEAV1@@Z 0000000140079ec8 f   LIBCMT:typname.obj
 0001:00078f34       __initstdio                0000000140079f34 f   LIBCMT:_file.obj
 0001:00078fcc       __endstdio                 0000000140079fcc f   LIBCMT:_file.obj
 0001:00078ffc       __iob_func                 0000000140079ffc f   LIBCMT:_file.obj
 0001:00079004       _lock_file                 000000014007a004 f   LIBCMT:_file.obj
 0001:0007906c       _lock_file2                000000014007a06c f   LIBCMT:_file.obj
 0001:000790a0       _unlock_file               000000014007a0a0 f   LIBCMT:_file.obj
 0001:000790f0       _unlock_file2              000000014007a0f0 f   LIBCMT:_file.obj
 0001:00079110       _ftbuf                     000000014007a110 f   LIBCMT:_sftbuf.obj
 0001:00079148       _stbuf                     000000014007a148 f   LIBCMT:_sftbuf.obj
 0001:00079218       _wremove                   000000014007a218 f   LIBCMT:wunlink.obj
 0001:00079248       _wrename                   000000014007a248 f   LIBCMT:wrename.obj
 0001:00079280       __crtCaptureCurrentContext 000000014007a280 f   LIBCMT:winapisupp.obj
 0001:000792f0       __crtCapturePreviousContext 000000014007a2f0 f   LIBCMT:winapisupp.obj
 0001:00079364       __crtFlsAlloc              000000014007a364 f   LIBCMT:winapisupp.obj
 0001:00079380       __crtFlsFree               000000014007a380 f   LIBCMT:winapisupp.obj
 0001:0007939c       __crtFlsGetValue           000000014007a39c f   LIBCMT:winapisupp.obj
 0001:000793b8       __crtFlsSetValue           000000014007a3b8 f   LIBCMT:winapisupp.obj
 0001:000793d4       __crtGetShowWindowMode     000000014007a3d4 f   LIBCMT:winapisupp.obj
 0001:00079400       __crtIsPackagedApp         000000014007a400 f   LIBCMT:winapisupp.obj
 0001:0007944c       __crtLoadWinApiPointers    000000014007a44c f   LIBCMT:winapisupp.obj
 0001:000797d0       __crtSetUnhandledExceptionFilter 000000014007a7d0 f   LIBCMT:winapisupp.obj
 0001:000797d8       __crtTerminateProcess      000000014007a7d8 f   LIBCMT:winapisupp.obj
 0001:000797f8       __crtUnhandledException    000000014007a7f8 f   LIBCMT:winapisupp.obj
 0001:00079818       _fileno                    000000014007a818 f   LIBCMT:fileno.obj
 0001:00079840       _close                     000000014007a840 f   LIBCMT:close.obj
 0001:00079904       _close_nolock              000000014007a904 f   LIBCMT:close.obj
 0001:000799c0       _freebuf                   000000014007a9c0 f   LIBCMT:_freebuf.obj
 0001:000799f8       _fflush_nolock             000000014007a9f8 f   LIBCMT:fflush.obj
 0001:00079a44       _flush                     000000014007aa44 f   LIBCMT:fflush.obj
 0001:00079ac0       _flushall                  000000014007aac0 f   LIBCMT:fflush.obj
 0001:00079bb4       _getstream                 000000014007abb4 f   LIBCMT:stream.obj
 0001:00079ce8       _openfile                  000000014007ace8 f   LIBCMT:_open.obj
 0001:00079fc0       _local_unwind              000000014007afc0 f   LIBCMT:jmpuwind.obj
 0001:00079ff0       _NLG_Notify                000000014007aff0 f   LIBCMT:jmpuwind.obj
 0001:0007a010       __NLG_Dispatch2            000000014007b010 f   LIBCMT:jmpuwind.obj
 0001:0007a020       __NLG_Return2              000000014007b020 f   LIBCMT:jmpuwind.obj
 0001:0007a024       _write                     000000014007b024 f   LIBCMT:write.obj
 0001:0007a104       _write_nolock              000000014007b104 f   LIBCMT:write.obj
 0001:0007a840       __addlocaleref             000000014007b840 f   LIBCMT:localref.obj
 0001:0007a8cc       __freetlocinfo             000000014007b8cc f   LIBCMT:localref.obj
 0001:0007aa64       __removelocaleref          000000014007ba64 f   LIBCMT:localref.obj
 0001:0007ab08       __updatetlocinfo           000000014007bb08 f   LIBCMT:localref.obj
 0001:0007ab80       _updatetlocinfoEx_nolock   000000014007bb80 f   LIBCMT:localref.obj
 0001:0007abe4       __initmbctable             000000014007bbe4 f   LIBCMT:mbctype.obj
 0001:0007af00       __updatetmbcinfo           000000014007bf00 f   LIBCMT:mbctype.obj
 0001:0007afbc       _setmbcp                   000000014007bfbc f   LIBCMT:mbctype.obj
 0001:0007b218       _setmbcp_nolock            000000014007c218 f   LIBCMT:mbctype.obj
 0001:0007b4c8       _isctype_l                 000000014007c4c8 f   LIBCMT:isctype.obj
 0001:0007b5a4       _freefls                   000000014007c5a4 f   LIBCMT:tidtable.obj
 0001:0007b6d8       _getptd                    000000014007c6d8 f   LIBCMT:tidtable.obj
 0001:0007b6fc       _getptd_noexit             000000014007c6fc f   LIBCMT:tidtable.obj
 0001:0007b780       _initptd                   000000014007c780 f   LIBCMT:tidtable.obj
 0001:0007b844       _mtinit                    000000014007c844 f   LIBCMT:tidtable.obj
 0001:0007b8c4       _mtterm                    000000014007c8c4 f   LIBCMT:tidtable.obj
 0001:0007b8e8       _locterm                   000000014007c8e8 f   LIBCMT:wsetloca.obj
 0001:0007b930       _RTC_Initialize            000000014007c930 f   LIBCMT:initsect.obj
 0001:0007b968       _RTC_Terminate             000000014007c968 f   LIBCMT:initsect.obj
 0001:0007b9a0       _lock                      000000014007c9a0 f   LIBCMT:mlock.obj
 0001:0007b9e4       _mtdeletelocks             000000014007c9e4 f   LIBCMT:mlock.obj
 0001:0007ba6c       _mtinitlocknum             000000014007ca6c f   LIBCMT:mlock.obj
 0001:0007bb28       _mtinitlocks               000000014007cb28 f   LIBCMT:mlock.obj
 0001:0007bb88       _unlock                    000000014007cb88 f   LIBCMT:mlock.obj
 0001:0007bba0       _FindPESection             000000014007cba0 f   LIBCMT:pesect.obj
 0001:0007bbf0       _IsNonwritableInCurrentImage 000000014007cbf0 f   LIBCMT:pesect.obj
 0001:0007bc40       _ValidateImageBase         000000014007cc40 f   LIBCMT:pesect.obj
 0001:0007bc70       _initp_misc_cfltcvt_tab    000000014007cc70 f   LIBCMT:cmiscdat.obj
 0001:0007bcac       _initp_misc_rand_s         000000014007ccac f   LIBCMT:rand_s.obj
 0001:0007bcd0       strlen                     000000014007ccd0 f   LIBCMT:strlen.obj
 0001:0007be38       _input_l                   000000014007ce38 f   LIBCMT:input.obj
 0001:0007ce20       __daylight                 000000014007de20 f   LIBCMT:timeset.obj
 0001:0007ce28       __dstbias                  000000014007de28 f   LIBCMT:timeset.obj
 0001:0007ce30       __timezone                 000000014007de30 f   LIBCMT:timeset.obj
 0001:0007ce38       __tzname                   000000014007de38 f   LIBCMT:timeset.obj
 0001:0007ce40       _get_daylight              000000014007de40 f   LIBCMT:timeset.obj
 0001:0007ce70       _get_dstbias               000000014007de70 f   LIBCMT:timeset.obj
 0001:0007cea0       _get_timezone              000000014007dea0 f   LIBCMT:timeset.obj
 0001:0007ced0       _gmtime64_s                000000014007ded0 f   LIBCMT:gmtime64.obj
 0001:0007d1a4       __tzset                    000000014007e1a4 f   LIBCMT:tzset.obj
 0001:0007d1e0       _isindst                   000000014007e1e0 f   LIBCMT:tzset.obj
 0001:0007dbf8       __getgmtimebuf             000000014007ebf8 f   LIBCMT:gmtime.obj
 0001:0007dc40       strcpy_s                   000000014007ec40 f   LIBCMT:strcpy_s.obj
 0001:0007e8c8       _Wcsftime_l                000000014007f8c8 f   LIBCMT:wcsftime.obj
 0001:0007ea60       _isleadbyte_l              000000014007fa60 f i LIBCMT:_wctype.obj
 0001:0007eaa4       isleadbyte                 000000014007faa4 f i LIBCMT:_wctype.obj
 0001:0007edbc       __crtLCMapStringA          000000014007fdbc f   LIBCMT:a_map.obj
 0001:0007ee54       _fltin2                    000000014007fe54 f   LIBCMT:cfin.obj
 0001:0007ef20       _fpmath                    000000014007ff20 f   LIBCMT:fpinit.obj
 0001:0007ef28       _cfltcvt_init              000000014007ff28 f   LIBCMT:fpinit.obj
 0001:0007efb0       _ioinit                    000000014007ffb0 f   LIBCMT:ioinit.obj
 0001:0007f2dc       __strgtold12_l             00000001400802dc f   LIBCMT:strgtold.obj
 0001:0007fb30       _lseeki64                  0000000140080b30 f   LIBCMT:lseeki64.obj
 0001:0007fc14       _lseeki64_nolock           0000000140080c14 f   LIBCMT:lseeki64.obj
 0001:0007fcc0       __chkstk                   0000000140080cc0 f   LIBCMT:chkstk.obj
 0001:0007fcc0       _alloca_probe              0000000140080cc0     LIBCMT:chkstk.obj
 0001:0007fd10       _read                      0000000140080d10 f   LIBCMT:read.obj
 0001:0007fe2c       _read_nolock               0000000140080e2c f   LIBCMT:read.obj
 0001:00080690       _filbuf                    0000000140081690 f   LIBCMT:_filbuf.obj
 0001:000807d4       memcpy_s                   00000001400817d4 f   LIBCMT:memcpy_s.obj
 0001:0008085c       _lseek                     000000014008185c f   LIBCMT:lseek.obj
 0001:0008093c       _lseek_nolock              000000014008193c f   LIBCMT:lseek.obj
 0001:000809d4       ?__CxxUnhandledExceptionFilter@@YAJPEAU_EXCEPTION_POINTERS@@@Z 00000001400819d4 f   LIBCMT:unhandld.obj
 0001:00080a0c       __CxxSetUnhandledExceptionFilter 0000000140081a0c f   LIBCMT:unhandld.obj
 0001:00080a24       _XcptFilter                0000000140081a24 f   LIBCMT:winxfltr.obj
 0001:00080bf0       _setargv                   0000000140081bf0 f   LIBCMT:stdargv.obj
 0001:00080eac       _setenvp                   0000000140081eac f   LIBCMT:stdenvp.obj
 0001:00080fe0       __set_app_type             0000000140081fe0 f   LIBCMT:errmode.obj
 0001:00080fe8       _set_error_mode            0000000140081fe8 f   LIBCMT:errmode.obj
 0001:00081028       __security_init_cookie     0000000140082028 f   LIBCMT:gs_support.obj
 0001:000810d4       __crtGetEnvironmentStringsA 00000001400820d4 f   LIBCMT:a_env.obj
 0001:000811c8       _wincmdln                  00000001400821c8 f   LIBCMT:wincmdln.obj
 0001:00081244       __sys_errlist              0000000140082244 f   LIBCMT:syserr.obj
 0001:0008124c       __sys_nerr                 000000014008224c f   LIBCMT:syserr.obj
 0001:00081254       __lock_fhandle             0000000140082254 f   LIBCMT:osfinfo.obj
 0001:000812ec       _alloc_osfhnd              00000001400822ec f   LIBCMT:osfinfo.obj
 0001:000814e4       _free_osfhnd               00000001400824e4 f   LIBCMT:osfinfo.obj
 0001:00081590       _get_osfhandle             0000000140082590 f   LIBCMT:osfinfo.obj
 0001:00081604       _set_osfhnd                0000000140082604 f   LIBCMT:osfinfo.obj
 0001:000816b4       _unlock_fhandle            00000001400826b4 f   LIBCMT:osfinfo.obj
 0001:000816e0       __crt_debugger_hook        00000001400826e0 f   LIBCMT:dbghook.obj
 0001:000816e8       wcscat_s                   00000001400826e8 f   LIBCMT:wcscat_s.obj
 0001:00081770       wcscpy_s                   0000000140082770 f   LIBCMT:wcscpy_s.obj
 0001:000817dc       wcslen                     00000001400827dc f   LIBCMT:wcslen.obj
 0001:000817f8       wcsncpy_s                  00000001400827f8 f   LIBCMT:wcsncpy_s.obj
 0001:000818c4       __crtMessageBoxW           00000001400828c4 f   LIBCMT:crtmboxw.obj
 0001:00081b34       realloc                    0000000140082b34 f   LIBCMT:realloc.obj
 0001:00081c08       _recalloc                  0000000140082c08 f   LIBCMT:recalloc.obj
 0001:00081c90       _calloc_impl               0000000140082c90 f   LIBCMT:calloc_impl.obj
 0001:00081d2c       _isatty                    0000000140082d2c f   LIBCMT:isatty.obj
 0001:00081d8c       _getbuf                    0000000140082d8c f   LIBCMT:_getbuf.obj
 0001:00081de0       _wctomb_s_l                0000000140082de0 f   LIBCMT:wctomb.obj
 0001:00081f6c       wctomb_s                   0000000140082f6c f   LIBCMT:wctomb.obj
 0001:00081f80       strncpy_s                  0000000140082f80 f   LIBCMT:strncpy_s.obj
 0001:0008203c       GetTableIndexFromLocaleName 000000014008303c f   LIBCMT:winapinls.obj
 0001:000820c8       __crtCompareStringEx       00000001400830c8 f   LIBCMT:winapinls.obj
 0001:00082158       __crtDownlevelLocaleNameToLCID 0000000140083158 f   LIBCMT:winapinls.obj
 0001:0008218c       __crtGetDateFormatEx       000000014008318c f   LIBCMT:winapinls.obj
 0001:00082208       __crtGetTimeFormatEx       0000000140083208 f   LIBCMT:winapinls.obj
 0001:00082280       __crtLCMapStringEx         0000000140083280 f   LIBCMT:winapinls.obj
 0001:00082310       __wcsnicmp_ascii           0000000140083310 f   LIBCMT:winapinls.obj
 0001:00082368       _fcloseall                 0000000140083368 f   LIBCMT:closeall.obj
 0001:00082410       _commit                    0000000140083410 f   LIBCMT:commit.obj
 0001:000824e8       _sopen_helper              00000001400834e8 f   LIBCMT:open.obj
 0001:000825c4       _sopen_nolock              00000001400835c4 f   LIBCMT:open.obj
 0001:0008264c       _sopen_s                   000000014008364c f   LIBCMT:open.obj
 0001:00082680       _mbsnbcmp                  0000000140083680 f   LIBCMT:mbsnbcmp.obj
 0001:00082688       _mbsnbcmp_l                0000000140083688 f   LIBCMT:mbsnbcmp.obj
 0001:000827b4       _mbsnbicmp                 00000001400837b4 f   LIBCMT:mbsnbicm.obj
 0001:000827bc       _mbsnbicmp_l               00000001400837bc f   LIBCMT:mbsnbicm.obj
 0001:0008296c       _mbtowc_l                  000000014008396c f   LIBCMT:mbtowc.obj
 0001:00082ac0       mbtowc                     0000000140083ac0 f   LIBCMT:mbtowc.obj
 0001:00082ac8       _putwch_nolock             0000000140083ac8 f   LIBCMT:putwch.obj
 0001:00082b24       __free_lconv_mon           0000000140083b24 f   LIBCMT:initmon.obj
 0001:00082c30       __free_lconv_num           0000000140083c30 f   LIBCMT:initnum.obj
 0001:00082c9c       __free_lc_time             0000000140083c9c f   LIBCMT:inittime.obj
 0001:00083200       __crtGetStringTypeA        0000000140084200 f   LIBCMT:a_str.obj
 0001:0008327c       ___lc_codepage_func        000000014008427c f   LIBCMT:initctyp.obj
 0001:000832d0       memcmp                     00000001400842d0 f   LIBCMT:memcmp.obj
 0001:00083398       wcsnlen                    0000000140084398 f   LIBCMT:wcslen_s.obj
 0001:000833b8       _fptrap                    00000001400843b8 f   LIBCMT:crt0fp.obj
 0001:000833c4       _ungetc_nolock             00000001400843c4 f   LIBCMT:ungetc.obj
 0001:000834cc       _getenv_helper_nolock      00000001400844cc f   LIBCMT:getenv.obj
 0001:00083570       _wcsicmp                   0000000140084570 f   LIBCMT:wcsicmp.obj
 0001:000835f4       _wcsicmp_l                 00000001400845f4 f   LIBCMT:wcsicmp.obj
 0001:000836e4       _mbstowcs_l_helper         00000001400846e4 f   LIBCMT:mbstowcs.obj
 0001:000838c0       _mbstowcs_s_l              00000001400848c0 f   LIBCMT:mbstowcs.obj
 0001:000839f0       iswctype                   00000001400849f0 f   LIBCMT:iswctype.obj
 0001:00083a58       _ld12tod                   0000000140084a58 f   LIBCMT:intrncvt.obj
 0001:00084008       _ld12tof                   0000000140085008 f   LIBCMT:intrncvt.obj
 0001:000845b8       _cfltcvt                   00000001400855b8 f   LIBCMT:cvt.obj
 0001:000845dc       _cfltcvt_l                 00000001400855dc f   LIBCMT:cvt.obj
 0001:0008465c       _cftoa_l                   000000014008565c f   LIBCMT:cvt.obj
 0001:00084c08       _cftoe_l                   0000000140085c08 f   LIBCMT:cvt.obj
 0001:00084e64       _cftof_l                   0000000140085e64 f   LIBCMT:cvt.obj
 0001:00084f38       _cftog_l                   0000000140085f38 f   LIBCMT:cvt.obj
 0001:0008506c       _cropzeros                 000000014008606c f   LIBCMT:cvt.obj
 0001:00085074       _cropzeros_l               0000000140086074 f   LIBCMT:cvt.obj
 0001:0008510c       _fassign                   000000014008610c f   LIBCMT:cvt.obj
 0001:00085114       _fassign_l                 0000000140086114 f   LIBCMT:cvt.obj
 0001:00085154       _forcdecpt                 0000000140086154 f   LIBCMT:cvt.obj
 0001:0008515c       _forcdecpt_l               000000014008615c f   LIBCMT:cvt.obj
 0001:000851dc       _positive                  00000001400861dc f   LIBCMT:cvt.obj
 0001:000851f0       __mtold12                  00000001400861f0 f   LIBCMT:mantold.obj
 0001:00085498       _ismbblead                 0000000140086498 f   LIBCMT:ismbbyte.obj
 0001:000855a0       _wsopen_nolock             00000001400865a0 f   LIBCMT:wopen.obj
 0001:00085d5c       __ascii_strnicmp           0000000140086d5c f   LIBCMT:strnicmp.obj
 0001:00085da4       _strnicmp                  0000000140086da4 f   LIBCMT:strnicmp.obj
 0001:00085df4       _strnicmp_l                0000000140086df4 f   LIBCMT:strnicmp.obj
 0001:00085ed0       __termconout               0000000140086ed0 f   LIBCMT:initcon.obj
 0001:00085ef0       __initconout               0000000140086ef0 f   LIBCMT:initcon.obj
 0001:00085f2c       __wtomb_environ            0000000140086f2c f   LIBCMT:wtombenv.obj
 0001:00086020       _mbsnbicoll                0000000140087020 f   LIBCMT:mbsnbico.obj
 0001:00086028       _mbsnbicoll_l              0000000140087028 f   LIBCMT:mbsnbico.obj
 0001:00086128       _towlower_l                0000000140087128 f   LIBCMT:towlower.obj
 0001:000861f4       _fptostr                   00000001400871f4 f   LIBCMT:_fptostr.obj
 0001:000862c0       _atodbl_l                  00000001400872c0 f   LIBCMT:atodbl.obj
 0001:00086388       _atoflt_l                  0000000140087388 f   LIBCMT:atodbl.obj
 0001:00086450       __dtold                    0000000140087450 f   LIBCMT:cfout.obj
 0001:00086520       _fltout2                   0000000140087520 f   LIBCMT:cfout.obj
 0001:000865d8       _chsize_nolock             00000001400875d8 f   LIBCMT:chsize.obj
 0001:00086770       _get_fmode                 0000000140087770 f   LIBCMT:setmode.obj
 0001:000867a0       _setmode_nolock            00000001400877a0 f   LIBCMT:setmode.obj
 0001:00086880       __crtsetenv                0000000140087880 f   LIBCMT:setenv.obj
 0001:00086c18       _strnicoll_l               0000000140087c18 f   LIBCMT:strnicol.obj
 0001:00087060       __crtCompareStringA        0000000140088060 f   LIBCMT:a_cmp.obj
 0001:000870ec       __crtLCMapStringW          00000001400880ec f   LIBCMT:w_map.obj
 0001:00087138       $I10_OUTPUT                0000000140088138 f   LIBCMT:x10fout.obj
 0001:00087c04       _strdup                    0000000140088c04 f   LIBCMT:strdup.obj
 0001:00087c74       _mbschr                    0000000140088c74 f   LIBCMT:mbschr.obj
 0001:00087c7c       _mbschr_l                  0000000140088c7c f   LIBCMT:mbschr.obj
 0001:00087d3a       IsProcessorFeaturePresent  0000000140088d3a f   kernel32:KERNEL32.dll
 0001:00087d40       RtlUnwindEx                0000000140088d40 f   kernel32:KERNEL32.dll
 0001:00087e40       ?shouldsaveblendmap@@YAEXZ 0000000140088e40 f   blend.obj
 0001:00087e60       ?saveblendmap@@YAXPEAUstream@@@Z 0000000140088e60 f   blend.obj
 0001:00087e80       ?saveblendmap@@YAXPEAUstream@@EAEAUBlendMapNode@@@Z 0000000140088e80 f   blend.obj
 0001:00087f50       ?loadblendmap@@YA_NPEAUstream@@H@Z 0000000140088f50 f   blend.obj
 0001:00087f80       ?loadblendmap@@YA_NPEAUstream@@AEAEAEAUBlendMapNode@@@Z 0000000140088f80 f   blend.obj
 0001:000880f0       ?renderblendbrush@@YAXXZ   00000001400890f0 f   blend.obj
 0001:000882b0       ?run@?$_icmd_moveblendmap@$0DAN@@@SAXPEAH0@Z 00000001400892b0 f   blend.obj
 0001:00088390       ?run@?$_icmd_clearblendmap@$0CPO@@@SAXXZ 0000000140089390 f   blend.obj
 0001:00088400       ?showblendmap@@YAXXZ       0000000140089400 f   blend.obj
 0001:00088490       ?invertblendmap@@YAXXZ     0000000140089490 f   blend.obj
 0001:00088520       ?invertblendmapsel@@YAXXZ  0000000140089520 f   blend.obj
 0001:00088630       ?clearblendmapsel@@YAXXZ   0000000140089630 f   blend.obj
 0001:00088750       ?run@?$_icmd_paintblendmap@$0CMK@@@SAXPEAH@Z 0000000140089750 f   blend.obj
 0001:000887a0       ?trypaintblendmap@@YAXXZ   00000001400897a0 f   blend.obj
 0001:00088810       ?stoppaintblendmap@@YAXXZ  0000000140089810 f   blend.obj
 0001:00088830       ?paintblendmap@@YAX_N@Z    0000000140089830 f   blend.obj
 0001:000889c0       ?rotateblendbrush@@YAXPEAH@Z 00000001400899c0 f   blend.obj
 0001:00088ad0       ?canpaintblendmap@@YA_N_N00@Z 0000000140089ad0 f   blend.obj
 0001:00088b90       ?curblendbrush@@YAXXZ      0000000140089b90 f   blend.obj
 0001:00088bb0       ?getblendbrushname@@YAXPEAH@Z 0000000140089bb0 f   blend.obj
 0001:00088c00       ?setblendbrush@@YAXPEBD@Z  0000000140089c00 f   blend.obj
 0001:00088c70       ?nextblendbrush@@YAXPEAH@Z 0000000140089c70 f   blend.obj
 0001:00088cd0       ?addblendbrush@@YAXPEBD0@Z 0000000140089cd0 f   blend.obj
 0001:00088f90       ?delblendbrush@@YAXPEBD@Z  0000000140089f90 f   blend.obj
 0001:00089120       ?clearblendbrushes@@YAXXZ  000000014008a120 f   blend.obj
 0001:000891d0       ?cleanupblendmap@@YAXXZ    000000014008a1d0 f   blend.obj
 0001:00089250       ?moveblendmap@@YAXHH@Z     000000014008a250 f   blend.obj
 0001:00089330       ?moveblendmap@@YAXEAEAUBlendMapNode@@HHHHH@Z 000000014008a330 f   blend.obj
 0001:00089490       ?shrinkblendmap@@YAXH@Z    000000014008a490 f   blend.obj
 0001:000894b0       ?enlargeblendmap@@YAXXZ    000000014008a4b0 f   blend.obj
 0001:00089530       ?resetblendmap@@YAXXZ      000000014008a530 f   blend.obj
 0001:000895e0       ?blitblendmap@@YAXPEAEHHHHH@Z 000000014008a5e0 f   blend.obj
 0001:00089b60       ?var_blendpaintmode@@YAXXZ 000000014008ab60 f   blend.obj
 0001:00089b80       ?optimizeblendmap@@YAXXZ   000000014008ab80 f   blend.obj
 0001:00089d30       ?invertblendmap@@YAXHHHH@Z 000000014008ad30 f   blend.obj
 0001:0008a060       ?fillblendmap@@YAXHHHHE@Z  000000014008b060 f   blend.obj
 0001:0008a4b0       ?lookupblendmap@@YAEPEAUBlendMapCache@@AEBUvec@@@Z 000000014008b4b0 f   blend.obj
 0001:0008a810       ?setblendmaporigin@@YA_NPEAUBlendMapCache@@AEBUivec@@H@Z 000000014008b810 f   blend.obj
 0001:0008a9d0       ?freeblendmapcache@@YAXAEAPEAUBlendMapCache@@@Z 000000014008b9d0 f   blend.obj
 0001:0008aa00       ?newblendmapcache@@YAPEAUBlendMapCache@@XZ 000000014008ba00 f   blend.obj
 0001:0008aa40       ?shrink@BlendMapBranch@@QEAAEAEAUBlendMapNode@@H@Z 000000014008ba40 f   blend.obj
 0001:0008aa70       ?splitsolid@BlendMapNode@@QEAAXAEAEE@Z 000000014008ba70 f   blend.obj
 0001:0008ab10       ?cleanup@BlendMapNode@@QEAAXH@Z 000000014008bb10 f   blend.obj
 0001:0008abc0       ?importcube@@YAXPEAD@Z     000000014008bbc0 f   cubeloader.obj
 0001:0008ae60       ?dumplms@@YAXXZ            000000014008be60 f   lightmap.obj
 0001:0008aff0       ?brightestlight@@YAPEAUentity@@AEBUvec@@0@Z 000000014008bff0 f   lightmap.obj
 0001:0008b3a0       ?lightreaching@@YAXAEBUvec@@AEAU1@1_NPEAUextentity@@M@Z 000000014008c3a0 f   lightmap.obj
 0001:0008bfb0       ?initlights@@YAXXZ         000000014008cfb0 f   lightmap.obj
 0001:0008c040       ?lightents@@YAX_N@Z        000000014008d040 f   lightmap.obj
 0001:0008c1a0       ?lightent@@YAXAEAUextentity@@M@Z 000000014008d1a0 f   lightmap.obj
 0001:0008c260       ?genlightmaptexs@@YAXHH@Z  000000014008d260 f   lightmap.obj
 0001:0008c840       ?var_batchlightmaps@@YAXXZ 000000014008d840 f   lightmap.obj
 0001:0008c860       ?var_roundlightmaptex@@YAXXZ 000000014008d860 f   lightmap.obj
 0001:0008ca40       ?genreservedlightmaptexs@@YAXXZ 000000014008da40 f   lightmap.obj
 0001:0008d420       ?var_convertlms@@YAXXZ     000000014008e420 f   lightmap.obj
 0001:0008d620       ?fixrotatedlightmaps@@YAXXZ 000000014008e620 f   lightmap.obj
 0001:0008d6a0       ?fixrotatedlightmaps@@YAXAEAUcube@@AEBUivec@@H@Z 000000014008e6a0 f   lightmap.obj
 0001:0008dad0       ?fixlightmapnormals@@YAXXZ 000000014008ead0 f   lightmap.obj
 0001:0008dde0       ?var_fullbrightlevel@@YAXXZ 000000014008ede0 f   lightmap.obj
 0001:0008ddf0       ?var_fullbright@@YAXXZ     000000014008edf0 f   lightmap.obj
 0001:0008de20       ?setfullbrightlevel@@YAXH@Z 000000014008ee20 f   lightmap.obj
 0001:0008dfe0       ?clearlightmaps@@YAXXZ     000000014008efe0 f   lightmap.obj
 0001:0008e080       ?patchlight@@YAXPEAH@Z     000000014008f080 f   lightmap.obj
 0001:0008e520       ?calclight@@YAXPEAH@Z      000000014008f520 f   lightmap.obj
 0001:0008ede0       ?setlightmapquality@@YA_NH@Z 000000014008fde0 f   lightmap.obj
 0001:0008ee70       ?setupthread@lightmapworker@@QEAA_NXZ 000000014008fe70 f   lightmap.obj
 0001:0008eed0       ?reset@lightmapworker@@QEAAXXZ 000000014008fed0 f   lightmap.obj
 0001:0008ef30       ?cleanupthread@lightmapworker@@QEAAXXZ 000000014008ff30 f   lightmap.obj
 0001:0008ef80       ??1lightmapworker@@QEAA@XZ 000000014008ff80 f   lightmap.obj
 0001:0008f060       ??0lightmapworker@@QEAA@XZ 0000000140090060 f   lightmap.obj
 0001:0008f1b0       ?resetlightmaps@@YAX_N@Z   00000001400901b0 f   lightmap.obj
 0001:0008f260       ?cleanuplightmaps@@YAXXZ   0000000140090260 f   lightmap.obj
 0001:000908b0       ?work@lightmapworker@@SAHPEAX@Z 00000001400918b0 f   lightmap.obj
 0001:00094230       ?checklightcache@@YAAEBU?$vector@H@@HH@Z 0000000140095230 f   lightmap.obj
 0001:000943f0       ?clearlightcache@@YAXH@Z   00000001400953f0 f   lightmap.obj
 0001:00094560       ?var_lightcachesize@@YAXXZ 0000000140095560 f   lightmap.obj
 0001:00098e30       ?copy@LightMap@@QEAAXGGPEAEGG@Z 0000000140099e30 f   lightmap.obj
 0001:00098ef0       ?insert@LightMap@@QEAA_NAEAG0PEAEGG@Z 0000000140099ef0 f   lightmap.obj
 0001:00098f80       ?insert@PackNode@@QEAA_NAEAG0GG@Z 0000000140099f80 f   lightmap.obj
 0001:00099250       ?show_calclight_progress@@YAXXZ 000000014009a250 f   lightmap.obj
 0001:00099540       ?check_calclight_canceled@@YAXXZ 000000014009a540 f   lightmap.obj
 0001:000995b0       ?setsurface@@YAXAEAUcube@@HAEBUsurfaceinfo@@PEBUvertinfo@@H@Z 000000014009a5b0 f   lightmap.obj
 0001:00099900       ?setsurfaces@@YAXAEAUcube@@PEBUsurfaceinfo@@PEBUvertinfo@@H@Z 000000014009a900 f   lightmap.obj
 0001:000999b0       ?brightencube@@YAXAEAUcube@@@Z 000000014009a9b0 f   lightmap.obj
 0001:00099a20       ?setupsunlight@@YAXXZ      000000014009aa20 f   lightmap.obj
 0001:00099bc0       ?setsunlightdir@@YAXXZ     000000014009abc0 f   lightmap.obj
 0001:00099d30       ?var_sunlightpitch@@YAXXZ  000000014009ad30 f   lightmap.obj
 0001:00099d40       ?var_sunlightyaw@@YAXXZ    000000014009ad40 f   lightmap.obj
 0001:00099d50       ?var_sunlightscale@@YAXXZ  000000014009ad50 f   lightmap.obj
 0001:00099d60       ?var_sunlight@@YAXXZ       000000014009ad60 f   lightmap.obj
 0001:00099db0       ?var_skylight@@YAXXZ       000000014009adb0 f   lightmap.obj
 0001:00099e00       ?var_ambient@@YAXXZ        000000014009ae00 f   lightmap.obj
 0001:00099e50       ?clearlights@@YAXXZ        000000014009ae50 f   lightmap.obj
 0001:00099f10       ?previewblends@@YAXAEBUivec@@0@Z 000000014009af10 f   lightmap.obj
 0001:0009a0d0       ?updatelerpbounds@@YAXMPEBUlerpvert@@HAEAUlerpbounds@@1@Z 000000014009b0d0 f   normal.obj
 0001:0009a1c0       ?setlerpstep@@YAXMAEAUlerpbounds@@@Z 000000014009b1c0 f   normal.obj
 0001:0009a3c0       ?addnormals@@YAXAEAUcube@@AEBUivec@@H@Z 000000014009b3c0 f   normal.obj
 0001:0009b3f0       ?show_addnormals_progress@@YAXXZ 000000014009c3f0 f   normal.obj
 0001:0009bae0       ?initlerpbounds@@YAXMMPEBUlerpvert@@HAEAUlerpbounds@@1@Z 000000014009cae0 f   normal.obj
 0001:0009bdc0       ?lerpnormal@@YAXMMPEBUlerpvert@@HAEAUlerpbounds@@1AEAUvec@@2@Z 000000014009cdc0 f   normal.obj
 0001:0009c130       ?calclerpverts@@YAXPEBUvec2@@PEBUvec@@PEAUlerpvert@@AEAH@Z 000000014009d130 f   normal.obj
 0001:0009c260       ?findnormal@@YAXAEBUvec@@0AEAU1@@Z 000000014009d260 f   normal.obj
 0001:0009c2f0       ?calcnormals@@YAX_N@Z      000000014009d2f0 f   normal.obj
 0001:0009c3d0       ?clearnormals@@YAXXZ       000000014009d3d0 f   normal.obj
 0001:0009ca70       ?calcmerges@@YAXXZ         000000014009da70 f   octa.obj
 0001:0009cb40       ?genmerges@@YAXPEAUcube@@AEBUivec@@H@Z 000000014009db40 f   octa.obj
 0001:0009d110       ?mergepolys@@YAXHAEBUivec@@0HAEAU?$vector@Upoly@@@@@Z 000000014009e110 f   octa.obj
 0001:0009d550       ?addmerges@@YAXHAEBUivec@@0HAEAU?$vector@Upoly@@@@@Z 000000014009e550 f   octa.obj
 0001:0009d660       ?addmerge@@YAXAEAUcube@@HAEBUivec@@1HAEAUpoly@@@Z 000000014009e660 f   octa.obj
 0001:0009d960       ?mergepolys@@YA_NHAEAU?$hashset@Uplink@@@@AEAU?$vector@PEAUplink@@@@HAEAUpoly@@2AEBUpedge@@@Z 000000014009e960 f   octa.obj
 0001:0009de00       ?genpoly@@YA_NAEAUcube@@HAEBUivec@@HHAEAU2@AEAHAEAUpoly@@@Z 000000014009ee00 f   octa.obj
 0001:0009e620       ?clippoly@@YA_NAEAUpoly@@AEBUfacebounds@@@Z 000000014009f620 f   octa.obj
 0001:0009ea70       ?mincubeface@@YA_NAEBUcube@@HAEBUivec@@HAEAUfacebounds@@@Z 000000014009fa70 f   octa.obj
 0001:0009ebb0       ?mincubeface@@YAXAEBUcube@@HAEBUivec@@HAEBUfacebounds@@AEAU3@GG@Z 000000014009fbb0 f   octa.obj
 0001:0009f050       ?mergefaces@@YAHHPEAUfacebounds@@H@Z 00000001400a0050 f   octa.obj
 0001:0009f2a0       ?genclipplanes@@YAXAEBUcube@@HHHHAEAUclipplanes@@_N@Z 00000001400a02a0 f   octa.obj
 0001:0009f950       ?calcvert@@YAXAEBUcube@@HHHHAEAUvec@@H_N@Z 00000001400a0950 f   octa.obj
 0001:0009f9e0       ?classifyface@@YAHAEBUcube@@HHHHH@Z 00000001400a09e0 f   octa.obj
 0001:000a0040       ?visibleface@@YA_NAEBUcube@@HHHHHGGG@Z 00000001400a1040 f   octa.obj
 0001:000a07e0       ?collapsedface@@YA_NAEBUcube@@H@Z 00000001400a17e0 f   octa.obj
 0001:000a1940       ?faceedges@@YAIAEBUcube@@H@Z 00000001400a2940 f   octa.obj
 0001:000a1a00       ?faceconvexity@@YAHAEBUcube@@H@Z 00000001400a2a00 f   octa.obj
 0001:000a1b10       ?faceconvexity@@YAHQEBUivec@@AEAH@Z 00000001400a2b10 f   octa.obj
 0001:000a1c40       ?notouchingface@@YA_NAEBUcube@@H@Z 00000001400a2c40 f   octa.obj
 0001:000a1c80       ?touchingface@@YA_NAEBUcube@@H@Z 00000001400a2c80 f   octa.obj
 0001:000a1cc0       ?collideface@@YA_NAEBUcube@@H@Z 00000001400a2cc0 f   octa.obj
 0001:000a1d80       ?edgespan2vectorcube@@YAXAEAUcube@@@Z 00000001400a2d80 f   octa.obj
 0001:000a3080       ?genvertp@@YAXAEAUcube@@AEAUivec@@11AEAUplane@@_N@Z 00000001400a4080 f   octa.obj
 0001:000a32e0       ?remip_@@YAXXZ             00000001400a42e0 f   octa.obj
 0001:000a3300       ?remip@@YA_NAEAUcube@@HHHH@Z 00000001400a4300 f   octa.obj
 0001:000a39a0       ?visibleorient@@YAHAEBUcube@@H@Z 00000001400a49a0 f   octa.obj
 0001:000a3a60       ?crushededge@@YA_NEH@Z     00000001400a4a60 f   octa.obj
 0001:000a3a80       ?subdividecube@@YA_NAEAUcube@@_N1@Z 00000001400a4a80 f   octa.obj
 0001:000a4450       ?forcemip@@YAXAEAUcube@@_N@Z 00000001400a5450 f   octa.obj
 0001:000a4690       ?getmippedtexture@@YAHAEBUcube@@H@Z 00000001400a5690 f   octa.obj
 0001:000a47f0       ?neighbourcube@@YAAEBUcube@@AEBU1@HHHHHAEAUivec@@AEAH@Z 00000001400a57f0 f   octa.obj
 0001:000a49a0       ?lookupmaterial@@YAHAEBUvec@@@Z 00000001400a59a0 f   octa.obj
 0001:000a4a70       ?validatec@@YAXPEAUcube@@H@Z 00000001400a5a70 f   octa.obj
 0001:000a4b80       ?isvalidcube@@YA_NAEBUcube@@@Z 00000001400a5b80 f   octa.obj
 0001:000a4d80       ?printcube@@YAXXZ          00000001400a5d80 f   octa.obj
 0001:000a4e40       ?optiface@@YAXPEAEAEAUcube@@@Z 00000001400a5e40 f   octa.obj
 0001:000a4fe0       ?setcubevector@@YAXAEAUcube@@HHHHAEBUivec@@@Z 00000001400a5fe0 f   octa.obj
 0001:000a50d0       ?getcubevector@@YAXAEAUcube@@HHHHAEAUivec@@@Z 00000001400a60d0 f   octa.obj
 0001:000a5190       ?discardchildren@@YAXAEAUcube@@_NH@Z 00000001400a6190 f   octa.obj
 0001:000a52b0       ?freecubeext@@YAXAEAUcube@@@Z 00000001400a62b0 f   octa.obj
 0001:000a52e0       ?familysize@@YAHAEBUcube@@@Z 00000001400a62e0 f   octa.obj
 0001:000a5350       ?newcubeext@@YAPEAUcubeext@@AEAUcube@@H_N@Z 00000001400a6350 f   octa.obj
 0001:000a5410       ?growcubeext@@YAPEAUcubeext@@PEAU1@H@Z 00000001400a6410 f   octa.obj
 0001:000a54a0       ?setcubeext@@YAXAEAUcube@@PEAUcubeext@@@Z 00000001400a64a0 f   octa.obj
 0001:000a54d0       ?calcmergedsize@@YAHHAEBUivec@@HPEBUvertinfo@@H@Z 00000001400a64d0 f   octa.obj
 0001:000a5670       ?flataxisface@@YA_NAEBUcube@@H@Z 00000001400a6670 f   octa.obj
 0001:000a56b0       ?faceconvexity@@YAHPEBUvertinfo@@HH@Z 00000001400a66b0 f   octa.obj
 0001:000a5810       ?genfaceverts@@YAXAEBUcube@@HQEAUivec@@@Z 00000001400a6810 f   octa.obj
 0001:000a5bb0       ?faceconvexity@@YAHQEBUivec@@@Z 00000001400a6bb0 f   octa.obj
 0001:000a5c60       ?visibletris@@YAHAEBUcube@@HHHHHGG@Z 00000001400a6c60 f   octa.obj
 0001:000a65a0       ?invalidatemerges@@YAXAEAUcube@@AEBUivec@@H_N@Z 00000001400a75a0 f   octa.obj
 0001:000a65f0       ?lookupcube@@YAAEAUcube@@HHHHAEAUivec@@AEAH@Z 00000001400a75f0 f   octa.obj
 0001:000a67a0       ?mpremip@@YAX_N@Z          00000001400a77a0 f   octa.obj
 0001:000a6870       ?freeocta@@YAXPEAUcube@@@Z 00000001400a7870 f   octa.obj
 0001:000a6980       ?newcubes@@YAPEAUcube@@IH@Z 00000001400a7980 f   octa.obj
 0001:000a70e0       ?rendertexturepanel@@YAXHH@Z 00000001400a80e0 f   octaedit.obj
 0001:000a79c0       ?showtexgui@@YAXPEAH@Z     00000001400a89c0 f   octaedit.obj
 0001:000a7a10       ?g3d_texturemenu@@YAXXZ    00000001400a8a10 f   octaedit.obj
 0001:000a7a20       ?editmat@@YAXPEAD0@Z       00000001400a8a20 f   octaedit.obj
 0001:000a7b20       ?mpeditmat@@YAXHHAEAUselinfo@@_N@Z 00000001400a8b20 f   octaedit.obj
 0001:000a7f20       ?setmat@@YAXAEAUcube@@GGGGH@Z 00000001400a8f20 f   octaedit.obj
 0001:000a8050       ?rotate@@YAXPEAH@Z         00000001400a9050 f   octaedit.obj
 0001:000a8080       ?mprotate@@YAXHAEAUselinfo@@_N@Z 00000001400a9080 f   octaedit.obj
 0001:000a8880       ?flip@@YAXXZ               00000001400a9880 f   octaedit.obj
 0001:000a88b0       ?mpflip@@YAXAEAUselinfo@@_N@Z 00000001400a98b0 f   octaedit.obj
 0001:000a8e40       ?rotatecube@@YAXAEAUcube@@H@Z 00000001400a9e40 f   octaedit.obj
 0001:000a9140       ?rotatequad@@YAXAEAUcube@@000@Z 00000001400aa140 f   octaedit.obj
 0001:000a9230       ?flipcube@@YAXAEAUcube@@H@Z 00000001400aa230 f   octaedit.obj
 0001:000a9840       ?mflip@@YAII@Z             00000001400aa840 f   octaedit.obj
 0001:000a9870       ?rflip@@YAII@Z             00000001400aa870 f   octaedit.obj
 0001:000a9880       ?cflip@@YAII@Z             00000001400aa880 f   octaedit.obj
 0001:000a98a0       ?dflip@@YAII@Z             00000001400aa8a0 f   octaedit.obj
 0001:000a98d0       ?run@?$_icmd_replacesel@$0HLI@@@SAXXZ 00000001400aa8d0 f   octaedit.obj
 0001:000a9920       ?run@?$_icmd_replace@$0HLH@@@SAXXZ 00000001400aa920 f   octaedit.obj
 0001:000a99c0       ?replace@@YAX_N@Z          00000001400aa9c0 f   octaedit.obj
 0001:000a9a10       ?mpreplacetex@@YAXHH_NAEAUselinfo@@0@Z 00000001400aaa10 f   octaedit.obj
 0001:000a9dc0       ?replacetexcube@@YAXAEAUcube@@HH@Z 00000001400aadc0 f   octaedit.obj
 0001:000a9e50       ?run@?$_icmd_getreptex@$0HJJ@@@SAXXZ 00000001400aae50 f   octaedit.obj
 0001:000a9eb0       ?gettexname@@YAXPEAH0@Z    00000001400aaeb0 f   octaedit.obj
 0001:000a9f60       ?getseltex@@YAXXZ          00000001400aaf60 f   octaedit.obj
 0001:000a9ff0       ?getcurtex@@YAXXZ          00000001400aaff0 f   octaedit.obj
 0001:000aa060       ?gettex@@YAXXZ             00000001400ab060 f   octaedit.obj
 0001:000aa310       ?edittex_@@YAXPEAH@Z       00000001400ab310 f   octaedit.obj
 0001:000aa410       ?edittex@@YAXH_N@Z         00000001400ab410 f   octaedit.obj
 0001:000aa470       ?compactmruvslots@@YAXXZ   00000001400ab470 f   octaedit.obj
 0001:000aa5d0       ?filltexlist@@YAXXZ        00000001400ab5d0 f   octaedit.obj
 0001:000aa7d0       ?mpedittex@@YAXHHAEAUselinfo@@_N@Z 00000001400ab7d0 f   octaedit.obj
 0001:000aacc0       ?vshaderparam@@YAXPEBDPEAM111@Z 00000001400abcc0 f   octaedit.obj
 0001:000aaf50       ?vreset@@YAXXZ             00000001400abf50 f   octaedit.obj
 0001:000ab080       ?vcolor@@YAXPEAM00@Z       00000001400ac080 f   octaedit.obj
 0001:000ab230       ?valpha@@YAXPEAM0@Z        00000001400ac230 f   octaedit.obj
 0001:000ab3c0       ?vlayer@@YAXPEAH@Z         00000001400ac3c0 f   octaedit.obj
 0001:000ab520       ?vscale@@YAXPEAM@Z         00000001400ac520 f   octaedit.obj
 0001:000ab6b0       ?vscroll@@YAXPEAM0@Z       00000001400ac6b0 f   octaedit.obj
 0001:000ab830       ?voffset@@YAXPEAH0@Z       00000001400ac830 f   octaedit.obj
 0001:000ab9c0       ?vrotate@@YAXPEAH@Z        00000001400ac9c0 f   octaedit.obj
 0001:000abb30       ?vdelta@@YAXPEAD@Z         00000001400acb30 f   octaedit.obj
 0001:000abba0       ?mpeditvslot@@YAXAEAUVSlot@@HAEAUselinfo@@_N@Z 00000001400acba0 f   octaedit.obj
 0001:000ac150       ?edittexcube@@YAXAEAUcube@@HHAEA_N@Z 00000001400ad150 f   octaedit.obj
 0001:000ac710       ?tofronttex@@YAXXZ         00000001400ad710 f   octaedit.obj
 0001:000ac8a0       ?delcube@@YAXXZ            00000001400ad8a0 f   octaedit.obj
 0001:000ac8d0       ?mpdelcube@@YAXAEAUselinfo@@_N@Z 00000001400ad8d0 f   octaedit.obj
 0001:000acbe0       ?pushsel@@YAXPEAH@Z        00000001400adbe0 f   octaedit.obj
 0001:000acc90       ?editface@@YAXPEAH0@Z      00000001400adc90 f   octaedit.obj
 0001:000acd30       ?mpeditface@@YAXHHAEAUselinfo@@_N@Z 00000001400add30 f   octaedit.obj
 0001:000ad630       ?linkedpush@@YAXAEAUcube@@HHHHH@Z 00000001400ae630 f   octaedit.obj
 0001:000ad830       ?pushedge@@YAXAEAEHH@Z     00000001400ae830 f   octaedit.obj
 0001:000ad8f0       ?bounded@@YAHH@Z           00000001400ae8f0 f   octaedit.obj
 0001:000ad910       ?edithmap@@YAXHH@Z         00000001400ae910 f   octaedit.obj
 0001:000ad960       ?run@hmap@@YAXHH@Z         00000001400ae960 f   octaedit.obj
 0001:000adeb0       ?rippleandset@hmap@@YAXXZ  00000001400aeeb0 f   octaedit.obj
 0001:000adf20       ?smooth@hmap@@YAXXZ        00000001400aef20 f   octaedit.obj
 0001:000ae050       ?paint@hmap@@YAXXZ         00000001400af050 f   octaedit.obj
 0001:000ae100       ?ripple@hmap@@YAXHHH_N@Z   00000001400af100 f   octaedit.obj
 0001:000ae900       ?select@hmap@@YAXHHH@Z     00000001400af900 f   octaedit.obj
 0001:000aee40       ?addpoint@hmap@@YAXHHHH@Z  00000001400afe40 f   octaedit.obj
 0001:000aee80       ?pushside@hmap@@YAXAEAUcube@@HHHH@Z 00000001400afe80 f   octaedit.obj
 0001:000af040       ?getface@hmap@@YAIPEAUcube@@H@Z 00000001400b0040 f   octaedit.obj
 0001:000af090       ?getcube@hmap@@YAPEAUcube@@Uivec@@H@Z 00000001400b0090 f   octaedit.obj
 0001:000af200       ?run@?$_icmd_hmapselect@$0EGC@@@SAXXZ 00000001400b0200 f   octaedit.obj
 0001:000af390       ?run@?$_icmd_hmapcancel@$0EFK@@@SAXXZ 00000001400b0390 f   octaedit.obj
 0001:000af3b0       ?brushvert@@YAXPEAH00@Z    00000001400b03b0 f   octaedit.obj
 0001:000af4e0       ?clearbrush@@YAXXZ         00000001400b04e0 f   octaedit.obj
 0001:000af530       ?compacteditvslots@@YAXXZ  00000001400b0530 f   octaedit.obj
 0001:000af640       ?paste@@YAXXZ              00000001400b0640 f   octaedit.obj
 0001:000af680       ?pastehilite@@YAXXZ        00000001400b0680 f   octaedit.obj
 0001:000af720       ?copy@@YAXXZ               00000001400b0720 f   octaedit.obj
 0001:000af750       ?mppaste@@YAXAEAPEAUeditinfo@@AEAUselinfo@@_N@Z 00000001400b0750 f   octaedit.obj
 0001:000af770       ?mpcopy@@YAXAEAPEAUeditinfo@@AEAUselinfo@@_N@Z 00000001400b0770 f   octaedit.obj
 0001:000afa00       ?pastebrush@@YAXPEAD@Z     00000001400b0a00 f   octaedit.obj
 0001:000afc60       ?pasteblock@@YAXAEAUblock3@@AEAUselinfo@@_N@Z 00000001400b0c60 f   octaedit.obj
 0001:000affe0       ?savebrush@@YAXPEAD@Z      00000001400b0fe0 f   octaedit.obj
 0001:000b0320       ?delbrush@@YAXPEAD@Z       00000001400b1320 f   octaedit.obj
 0001:000b0390       ?editredo@@YAXXZ           00000001400b1390 f   octaedit.obj
 0001:000b03b0       ?editundo@@YAXXZ           00000001400b13b0 f   octaedit.obj
 0001:000b03d0       ?swapundo@@YAXAEAUundolist@@0PEBD@Z 00000001400b13d0 f   octaedit.obj
 0001:000b0790       ?makeundo@@YAXXZ           00000001400b1790 f   octaedit.obj
 0001:000b08b0       ?makeundoex@@YAXAEAUselinfo@@@Z 00000001400b18b0 f   octaedit.obj
 0001:000b0900       ?addundo@@YAXPEAUundoblock@@@Z 00000001400b1900 f   octaedit.obj
 0001:000b0980       ?newundocube@@YAPEAUundoblock@@AEAUselinfo@@@Z 00000001400b1980 f   octaedit.obj
 0001:000b0a80       ?clearundos@@YAXXZ         00000001400b1a80 f   octaedit.obj
 0001:000b0a90       ?pruneundos@@YAXH@Z        00000001400b1a90 f   octaedit.obj
 0001:000b0c20       ?pasteundo@@YAXPEAUundoblock@@@Z 00000001400b1c20 f   octaedit.obj
 0001:000b0e60       ?freeundo@@YAXPEAUundoblock@@@Z 00000001400b1e60 f   octaedit.obj
 0001:000b0e90       ?selgridmap@@YAXAEAUselinfo@@PEAH@Z 00000001400b1e90 f   octaedit.obj
 0001:000b10c0       ?freeblock@@YAXPEAUblock3@@_N@Z 00000001400b20c0 f   octaedit.obj
 0001:000b1200       ?blockcopy@@YAPEAUblock3@@AEBU1@H@Z 00000001400b2200 f   octaedit.obj
 0001:000b1280       ?blockcopy@@YAXAEBUblock3@@HPEAU1@@Z 00000001400b2280 f   octaedit.obj
 0001:000b1580       ?changed@@YAXAEBUblock3@@_N@Z 00000001400b2580 f   octaedit.obj
 0001:000b1670       ?readychanges@@YAXAEAUblock3@@PEAUcube@@AEBUivec@@H@Z 00000001400b2670 f   octaedit.obj
 0001:000b1850       ?tryedit@@YAXXZ            00000001400b2850 f   octaedit.obj
 0001:000b1880       ?rendereditcursor@@YAXXZ   00000001400b2880 f   octaedit.obj
 0001:000b2d10       ?editmoveplane@@YAXAEBUvec@@0HMAEAU1@1_N@Z 00000001400b3d10 f   octaedit.obj
 0001:000b2e90       ?updateselection@@YAXXZ    00000001400b3e90 f   octaedit.obj
 0001:000b2f40       ?normalizelookupcube@@YAXHHH@Z 00000001400b3f40 f   octaedit.obj
 0001:000b2fe0       ?countselchild@@YAXPEAUcube@@AEBUivec@@H@Z 00000001400b3fe0 f   octaedit.obj
 0001:000b3160       ?run@?$_icmd_havesel@$0NI@@@SAXXZ 00000001400b4160 f   octaedit.obj
 0001:000b3190       ?blockcube@@YAAEAUcube@@HHHAEBUblock3@@H@Z 00000001400b4190 f   octaedit.obj
 0001:000b3270       ?run@?$_icmd_edittoggle@$0LN@@@SAXXZ 00000001400b4270 f   octaedit.obj
 0001:000b3280       ?selextend@@YAXXZ          00000001400b4280 f   octaedit.obj
 0001:000b3340       ?reorient@@YAXXZ           00000001400b4340 f   octaedit.obj
 0001:000b33b0       ?toggleedit@@YAX_N@Z       00000001400b43b0 f   octaedit.obj
 0001:000b34c0       ?cancelsel@@YAXXZ          00000001400b44c0 f   octaedit.obj
 0001:000b3500       ?cubecancel@@YAXXZ         00000001400b4500 f   octaedit.obj
 0001:000b3540       ?forcenextundo@@YAXXZ      00000001400b4540 f   octaedit.obj
 0001:000b3560       ?var_hmapedit@@YAXXZ       00000001400b4560 f   octaedit.obj
 0001:000b3580       ?var_gridpower@@YAXXZ      00000001400b4580 f   octaedit.obj
 0001:000b35f0       ?var_moving@@YAXXZ         00000001400b45f0 f   octaedit.obj
 0001:000b36f0       ?var_dragging@@YAXXZ       00000001400b46f0 f   octaedit.obj
 0001:000b3760       ?boxsgrid@@YAXHUvec@@0H@Z  00000001400b4760 f   octaedit.obj
 0001:000b3970       ?boxs3D@@YAXAEBUvec@@U1@H@Z 00000001400b4970 f   octaedit.obj
 0001:000b3a00       ?boxs@@YAXHUvec@@AEBU1@@Z  00000001400b4a00 f   octaedit.obj
 0001:000b3b10       ?commitchanges@@YAX_N@Z    00000001400b4b10 f   octaedit.obj
 0001:000b3bf0       ?noedit@@YA_N_N0@Z         00000001400b4bf0 f   octaedit.obj
 0001:000b43d0       ?recalc@@YAXXZ             00000001400b53d0 f   octarender.obj
 0001:000b43e0       ?precachetextures@@YAXXZ   00000001400b53e0 f   octarender.obj
 0001:000b4760       ?findtjoints@@YAXHAEBUedgegroup@@@Z 00000001400b5760 f   octarender.obj
 0001:000b48f0       ?addtjoint@@YAXAEBUedgegroup@@AEBUcubeedge@@H@Z 00000001400b58f0 f   octarender.obj
 0001:000b4a30       ?updateva@@YAHPEAUcube@@HHHHH@Z 00000001400b5a30 f   octarender.obj
 0001:000b50f0       ?var_vacubesize@@YAXXZ     00000001400b60f0 f   octarender.obj
 0001:000b5100       ?var_vafacemin@@YAXXZ      00000001400b6100 f   octarender.obj
 0001:000b5110       ?var_vafacemax@@YAXXZ      00000001400b6110 f   octarender.obj
 0001:000b5260       ?setva@@YAXAEAUcube@@HHHHH@Z 00000001400b6260 f   octarender.obj
 0001:000b56d0       ?calcmatbb@@YAXHHHHAEAUivec@@0@Z 00000001400b66d0 f   octarender.obj
 0001:000b5800       ?calcgeombb@@YAXHHHHAEAUivec@@0@Z 00000001400b6800 f   octarender.obj
 0001:000b5970       ?rendercube@@YAXAEAUcube@@HHHHHAEAH@Z 00000001400b6970 f   octarender.obj
 0001:000b5d00       ?addmergedverts@@YAXHAEBUivec@@@Z 00000001400b6d00 f   octarender.obj
 0001:000b6270       ?findmergedfaces@@YAHAEAUcube@@AEBUivec@@HHH@Z 00000001400b7270 f   octarender.obj
 0001:000b63b0       ?genmergedfaces@@YAHAEAUcube@@AEBUivec@@HH@Z 00000001400b73b0 f   octarender.obj
 0001:000b68a0       ?updatevabb@@YAXPEAUvtxarray@@_N@Z 00000001400b78a0 f   octarender.obj
 0001:000b6c40       ?clearvas@@YAXPEAUcube@@@Z 00000001400b7c40 f   octarender.obj
 0001:000b6e30       ?newva@@YAPEAUvtxarray@@HHHH@Z 00000001400b7e30 f   octarender.obj
 0001:000b7060       ?addskyverts@@YAXAEBUivec@@H@Z 00000001400b8060 f   octarender.obj
 0001:000b7880       ?genskyfaces@@YAXAEAUcube@@AEBUivec@@H@Z 00000001400b8880 f   octarender.obj
 0001:000b7b20       ?minskyface@@YAXAEAUcube@@HAEBUivec@@HAEAUfacebounds@@@Z 00000001400b8b20 f   octarender.obj
 0001:000b7ea0       ?gencubeverts@@YAXAEAUcube@@HHHHH@Z 00000001400b8ea0 f   octarender.obj
 0001:000b8940       ?gencubeedges@@YAXPEAUcube@@HHHH@Z 00000001400b9940 f   octarender.obj
 0001:000b8a90       ?gencubeedges@@YAXAEAUcube@@HHHH@Z 00000001400b9a90 f   octarender.obj
 0001:000b9340       ?addcubeverts@@YAXAEAUVSlot@@HHPEAUvec@@HGGPEAUvertinfo@@HHGH_NH@Z 00000001400ba340 f   octarender.obj
 0001:000b9dc0       ?decodenormal@@YA?AUvec@@G@Z 00000001400badc0 f   octarender.obj
 0001:000b9fc0       ?addgrasstri@@YAXHPEAUvertex@@HGG@Z 00000001400bafc0 f   octarender.obj
 0001:000ba7f0       ?addtris@@YAXAEBUsortkey@@HPEAUvertex@@PEAHHHHH@Z 00000001400bb7f0 f   octarender.obj
 0001:000bb110       ?var_filltjoints@@YAXXZ    00000001400bc110 f   octarender.obj
 0001:000bb120       ?calcshadowmask@@YAHPEAUvec@@H@Z 00000001400bc120 f   octarender.obj
 0001:000bb690       ?addvbo@@YAPEAEPEAUvtxarray@@HHH@Z 00000001400bc690 f   octarender.obj
 0001:000bb750       ?flushvbo@@YAXH@Z          00000001400bc750 f   octarender.obj
 0001:000bb800       ?readva@@YA_NPEAUvtxarray@@AEAPEAGAEAPEAE@Z 00000001400bc800 f   octarender.obj
 0001:000bb970       ?genvbo@@YAXHPEAXHPEAPEAUvtxarray@@H@Z 00000001400bc970 f   octarender.obj
 0001:000bbb40       ?destroyvbo@@YAXI@Z        00000001400bcb40 f   octarender.obj
 0001:000bbc40       ?var_vbosize@@YAXXZ        00000001400bcc40 f   octarender.obj
 0001:000bbc50       ?octarender@@YAXXZ         00000001400bcc50 f   octarender.obj
 0001:000bbdc0       ?updatevabbs@@YAX_N@Z      00000001400bcdc0 f   octarender.obj
 0001:000bbe20       ?reduceslope@@YAXAEAUivec@@@Z 00000001400bce20 f   octarender.obj
 0001:000bbf00       ?findtjoints@@YAXXZ        00000001400bcf00 f   octarender.obj
 0001:000bc020       ?encodenormal@@YAGAEBUvec@@@Z 00000001400bd020 f   octarender.obj
 0001:000bc0f0       ?destroyva@@YAXPEAUvtxarray@@_N@Z 00000001400bd0f0 f   octarender.obj
 0001:000bc2c0       ?allchanged@@YAX_N@Z       00000001400bd2c0 f   octarender.obj
 0001:000c0bc0       ?run@?$_icmd_attack@$0ICP@@@SAXPEAH@Z 00000001400c1bc0 f   physics.obj
 0001:000c0be0       ?run@?$_icmd_jump@$0ICO@@@SAXPEAH@Z 00000001400c1be0 f   physics.obj
 0001:000c0c00       ?run@?$_icmd_right@$0ICM@@@SAXPEAH@Z 00000001400c1c00 f   physics.obj
 0001:000c0c40       ?run@?$_icmd_left@$0ICL@@@SAXPEAH@Z 00000001400c1c40 f   physics.obj
 0001:000c0c80       ?run@?$_icmd_forward@$0ICK@@@SAXPEAH@Z 00000001400c1c80 f   physics.obj
 0001:000c0cc0       ?run@?$_icmd_backward@$0ICJ@@@SAXPEAH@Z 00000001400c1cc0 f   physics.obj
 0001:000c0d00       ?moveplayer@@YAXPEAUphysent@@H_N@Z 00000001400c1d00 f   physics.obj
 0001:000c0de0       ?interppos@@YAXPEAUphysent@@@Z 00000001400c1de0 f   physics.obj
 0001:000c0e70       ?physicsframe@@YAXXZ       00000001400c1e70 f   physics.obj
 0001:000c0f10       ?moveplayer@@YA_NPEAUphysent@@H_NH@Z 00000001400c1f10 f   physics.obj
 0001:000c1360       ?modifygravity@@YAXPEAUphysent@@_NH@Z 00000001400c2360 f   physics.obj
 0001:000c15b0       ?modifyvelocity@@YAXPEAUphysent@@_N11H@Z 00000001400c25b0 f   physics.obj
 0001:000c1950       ?vecfromyawpitch@@YAXMMHHAEAUvec@@@Z 00000001400c2950 f   physics.obj
 0001:000c1aa0       ?phystest@@YAXXZ           00000001400c2aa0 f   physics.obj
 0001:000c1c30       ?dropheight@@YAMAEAUentity@@@Z 00000001400c2c30 f   physics.obj
 0001:000c1d20       ?droptofloor@@YA_NAEAUvec@@MM@Z 00000001400c2d20 f   physics.obj
 0001:000c1ff0       ?movecamera@@YA_NPEAUphysent@@AEBUvec@@MM@Z 00000001400c2ff0 f   physics.obj
 0001:000c2220       ?move@@YA_NPEAUphysent@@AEAUvec@@@Z 00000001400c3220 f   physics.obj
 0001:000c2790       ?findfloor@@YA_NPEAUphysent@@_NAEBUvec@@AEA_NAEAU2@@Z 00000001400c3790 f   physics.obj
 0001:000c2a80       ?landing@@YAXPEAUphysent@@AEAUvec@@AEBU2@_N@Z 00000001400c3a80 f   physics.obj
 0001:000c2af0       ?falling@@YAXPEAUphysent@@AEAUvec@@AEBU2@@Z 00000001400c3af0 f   physics.obj
 0001:000c2be0       ?trystepdown@@YA_NPEAUphysent@@AEAUvec@@_N@Z 00000001400c3be0 f   physics.obj
 0001:000c2cf0       ?trystepdown@@YA_NPEAUphysent@@AEAUvec@@MMM_N@Z 00000001400c3cf0 f   physics.obj
 0001:000c3110       ?trystepup@@YA_NPEAUphysent@@AEAUvec@@AEBU2@M2@Z 00000001400c4110 f   physics.obj
 0001:000c3720       ?switchfloor@@YAXPEAUphysent@@AEAUvec@@AEBU2@@Z 00000001400c4720 f   physics.obj
 0001:000c38c0       ?slideagainst@@YAXPEAUphysent@@AEAUvec@@AEBU2@_N3@Z 00000001400c48c0 f   physics.obj
 0001:000c3a50       ?recalcdir@@YAXPEAUphysent@@AEBUvec@@AEAU2@@Z 00000001400c4a50 f   physics.obj
 0001:000c3b20       ?collide@@YA_NPEAUphysent@@AEBUvec@@M_N@Z 00000001400c4b20 f   physics.obj
 0001:000c42d0       ?mmcollide@@YA_NPEAUphysent@@AEBUvec@@AEAUoctaentities@@@Z 00000001400c52d0 f   physics.obj
 0001:000c4580       ?rotatebb@@YAXAEAUvec@@0H@Z 00000001400c5580 f   physics.obj
 0001:000c4670       ?plcollide@@YA_NPEAUphysent@@AEBUvec@@@Z 00000001400c5670 f   physics.obj
 0001:000c4970       ?updatedynentcache@@YAXPEAUphysent@@@Z 00000001400c5970 f   physics.obj
 0001:000c4af0       ?checkdynentcache@@YAAEBU?$vector@PEAUphysent@@@@HH@Z 00000001400c5af0 f   physics.obj
 0001:000c4c80       ?var_dynentsize@@YAXXZ     00000001400c5c80 f   physics.obj
 0001:000c4cd0       ?cleardynentcache@@YAXXZ   00000001400c5cd0 f   physics.obj
 0001:000c4d20       ?rectcollide@@YA_NPEAUphysent@@AEBUvec@@1MMMME@Z 00000001400c5d20 f   physics.obj
 0001:000c5050       ?ellipsecollide@@YA_NPEAUphysent@@AEBUvec@@11MMMMM@Z 00000001400c6050 f   physics.obj
 0001:000c54b0       ?ellipserectcollide@@YA_NPEAUphysent@@AEBUvec@@11MMMMM@Z 00000001400c64b0 f   physics.obj
 0001:000c59c0       ?rayfloor@@YAMAEBUvec@@AEAU1@HM@Z 00000001400c69c0 f   physics.obj
 0001:000c5a70       ?raycubelos@@YA_NAEBUvec@@0AEAU1@@Z 00000001400c6a70 f   physics.obj
 0001:000c5b90       ?raycubepos@@YAMAEBUvec@@0AEAU1@MHH@Z 00000001400c6b90 f   physics.obj
 0001:000c5c40       ?raycube@@YAMAEBUvec@@0MHHPEAUextentity@@@Z 00000001400c6c40 f   physics.obj
 0001:000c7080       ?entinmap@@YA_NPEAUdynent@@_N@Z 00000001400c8080 f   physics.obj
 0001:000c73a0       ?rayent@@YAMAEBUvec@@0MHHAEAH1@Z 00000001400c83a0 f   physics.obj
 0001:000c7480       ?resetclipplanes@@YAXXZ    00000001400c8480 f   physics.obj
 0001:000c74c0       ?pointincube@@YA_NAEBUclipplanes@@AEBUvec@@@Z 00000001400c84c0 f   physics.obj
 0001:000c7580       ?shadowray@@YAMPEAUShadowRayCache@@AEBUvec@@1MHPEAUextentity@@@Z 00000001400c8580 f   physics.obj
 0001:000c7e20       ?shadowray@@YAMAEBUvec@@0MHPEAUextentity@@@Z 00000001400c8e20 f   physics.obj
 0001:000c86a0       ?newshadowraycache@@YAPEAUShadowRayCache@@XZ 00000001400c96a0 f   physics.obj
 0001:000c86e0       ?freeshadowraycache@@YAXAEAPEAUShadowRayCache@@@Z 00000001400c96e0 f   physics.obj
 0001:000c8710       ?resetshadowraycache@@YAXPEAUShadowRayCache@@@Z 00000001400c9710 f   physics.obj
 0001:000c8750       ?dropenttofloor@@YAXPEAUentity@@@Z 00000001400c9750 f   physics.obj
 0001:000c8930       ?getnumviewcells@@YAHXZ    00000001400c9930 f   pvs.obj
 0001:000c8940       ?loadpvs@@YAXPEAUstream@@H@Z 00000001400c9940 f   pvs.obj
 0001:000c8b40       ?loadviewcells@@YAPEAUviewcellnode@@PEAUstream@@@Z 00000001400c9b40 f   pvs.obj
 0001:000c8c30       ?savepvs@@YAXPEAUstream@@@Z 00000001400c9c30 f   pvs.obj
 0001:000c8db0       ?saveviewcells@@YAXPEAUstream@@AEAUviewcellnode@@@Z 00000001400c9db0 f   pvs.obj
 0001:000c8e30       ?waterpvsoccluded@@YA_NH@Z 00000001400c9e30 f   pvs.obj
 0001:000c8eb0       ?pvsoccluded@@YA_NAEBUivec@@0@Z 00000001400c9eb0 f   pvs.obj
 0001:000c9240       ?pvsstats@@YAXXZ           00000001400ca240 f   pvs.obj
 0001:000c9290       ?genpvs@@YAXPEAH@Z         00000001400ca290 f   pvs.obj
 0001:000c9830       ?testpvs@@YAXPEAH@Z        00000001400ca830 f   pvs.obj
 0001:000c9f50       ?clearpvs@@YAXXZ           00000001400caf50 f   pvs.obj
 0001:000c9fc0       ?setviewcell@@YAXAEBUvec@@@Z 00000001400cafc0 f   pvs.obj
 0001:000ca0a0       ?var_lockpvs@@YAXXZ        00000001400cb0a0 f   pvs.obj
 0001:000cb160       ?mapname@@YAXXZ            00000001400cc160 f   world.obj
 0001:000cb1e0       ?mapenlarge@@YAXXZ         00000001400cc1e0 f   world.obj
 0001:000cb1f0       ?newmap@@YAXPEAH@Z         00000001400cc1f0 f   world.obj
 0001:000cb250       ?shrinkmap@@YAXXZ          00000001400cc250 f   world.obj
 0001:000cb510       ?enlargemap@@YA_N_N@Z      00000001400cc510 f   world.obj
 0001:000cb710       ?resetmap@@YAXXZ           00000001400cc710 f   world.obj
 0001:000cb960       ?splitocta@@YAXPEAUcube@@H@Z 00000001400cc960 f   world.obj
 0001:000cb9d0       ?findplayerspawn@@YAXPEAUdynent@@HH@Z 00000001400cc9d0 f   world.obj
 0001:000cbbc0       ?findentity@@YAHHHHH@Z     00000001400ccbc0 f   world.obj
 0001:000cbc50       ?entattr@@YAXPEAH00@Z      00000001400ccc50 f   world.obj
 0001:000cc100       ?enttype@@YAXPEADPEAH@Z    00000001400cd100 f   world.obj
 0001:000cc4e0       ?run@?$_icmd_entindex@$0EAF@@@SAXXZ 00000001400cd4e0 f   world.obj
 0001:000cc500       ?run@?$_icmd_entget@$0EAE@@@SAXXZ 00000001400cd500 f   world.obj
 0001:000cc630       ?run@?$_icmd_insel@$0EAD@@@SAXXZ 00000001400cd630 f   world.obj
 0001:000cc670       ?run@?$_icmd_entloop@$0EAC@@@SAXPEAI@Z 00000001400cd670 f   world.obj
 0001:000cc940       ?run@?$_icmd_entselect@$0EAB@@@SAXPEAI@Z 00000001400cd940 f   world.obj
 0001:000cca10       ?run@?$_icmd_enthavesel@$0EAA@@@SAXXZ 00000001400cda10 f   world.obj
 0001:000cca80       ?nearestent@@YAXXZ         00000001400cda80 f   world.obj
 0001:000ccce0       ?printent@@YAXAEAUextentity@@PEAD@Z 00000001400cdce0 f   world.obj
 0001:000ccd70       ?entset@@YAXPEADPEAH1111@Z 00000001400cdd70 f   world.obj
 0001:000cd240       ?entpaste@@YAXXZ           00000001400ce240 f   world.obj
 0001:000cd610       ?entcopy@@YAXXZ            00000001400ce610 f   world.obj
 0001:000cd740       ?newent@@YAXPEADPEAH1111@Z 00000001400ce740 f   world.obj
 0001:000cd7e0       ?newentity@@YAXHHHHHH@Z    00000001400ce7e0 f   world.obj
 0001:000cd950       ?newentity@@YAPEAUextentity@@_NAEBUvec@@HHHHHHAEAH@Z 00000001400ce950 f   world.obj
 0001:000cdbb0       ?attachent@@YAXXZ          00000001400cebb0 f   world.obj
 0001:000cdfa0       ?dropent@@YAXXZ            00000001400cefa0 f   world.obj
 0001:000ce390       ?dropentity@@YA_NAEAUentity@@H@Z 00000001400cf390 f   world.obj
 0001:000ce640       ?findtype@@YAHPEAD@Z       00000001400cf640 f   world.obj
 0001:000ce6c0       ?delent@@YAXXZ             00000001400cf6c0 f   world.obj
 0001:000cea60       ?entautoview@@YAXPEAH@Z    00000001400cfa60 f   world.obj
 0001:000ceba0       ?entpush@@YAXPEAH@Z        00000001400cfba0 f   world.obj
 0001:000cf130       ?var_entmoving@@YAXXZ      00000001400d0130 f   world.obj
 0001:000cf1f0       ?enttoggle@@YA_NH@Z        00000001400d01f0 f   world.obj
 0001:000cf2a0       ?renderentradius@@YAXAEAUextentity@@_N@Z 00000001400d02a0 f   world.obj
 0001:000cf5f0       ?renderentcone@@YAXAEBUextentity@@AEBUvec@@MM@Z 00000001400d05f0 f   world.obj
 0001:000cf8c0       ?renderentarrow@@YAXAEBUextentity@@AEBUvec@@M@Z 00000001400d08c0 f   world.obj
 0001:000cfb20       ?renderentattachment@@YAXAEBUextentity@@@Z 00000001400d0b20 f   world.obj
 0001:000cfb70       ?renderentsphere@@YAXAEBUextentity@@M@Z 00000001400d0b70 f   world.obj
 0001:000cfca0       ?renderentring@@YAXAEBUextentity@@MH@Z 00000001400d0ca0 f   world.obj
 0001:000cfd80       ?entrotate@@YAXPEAH@Z      00000001400d0d80 f   world.obj
 0001:000d01d0       ?entflip@@YAXXZ            00000001400d11d0 f   world.obj
 0001:000d0490       ?attachentities@@YAXXZ     00000001400d1490 f   world.obj
 0001:000d0760       ?attachentity@@YAXAEAUextentity@@@Z 00000001400d1760 f   world.obj
 0001:000d09f0       ?detachentity@@YAXAEAUextentity@@@Z 00000001400d19f0 f   world.obj
 0001:000d0a10       ?makeundoent@@YAXXZ        00000001400d1a10 f   world.obj
 0001:000d0a60       ?newundoent@@YAPEAUundoblock@@XZ 00000001400d1a60 f   world.obj
 0001:000d0b50       ?entadd@@YAXH@Z            00000001400d1b50 f   world.obj
 0001:000d0c50       ?noentedit@@YA_NXZ         00000001400d1c50 f   world.obj
 0001:000d0c90       ?var_entediting@@YAXXZ     00000001400d1c90 f   world.obj
 0001:000d0cc0       ?entname@@YAPEADAEAUentity@@@Z 00000001400d1cc0 f   world.obj
 0001:000d10f0       ?modifyoctaentity@@YAXHHAEAUextentity@@PEAUcube@@AEBUivec@@H22HPEAUvtxarray@@@Z 00000001400d20f0 f   world.obj
 0001:000d16e0       ?getentboundingbox@@YA_NAEAUextentity@@AEAUivec@@1@Z 00000001400d26e0 f   world.obj
 0001:000d18a0       ?entselectionbox@@YAXAEBUentity@@AEAUvec@@1@Z 00000001400d28a0 f   world.obj
 0001:000d19c0       ?pointinsel@@YA_NAEAUselinfo@@AEAUvec@@@Z 00000001400d29c0 f   world.obj
 0001:000d1a60       ?entcancel@@YAXXZ          00000001400d2a60 f   world.obj
 0001:000d1a80       ?haveselent@@YA_NXZ        00000001400d2a80 f   world.obj
 0001:000d1aa0       ?entdrag@@YAXAEBUvec@@@Z   00000001400d2aa0 f   world.obj
 0001:000d1ec0       ?hoveringonent@@YA_NHH@Z   00000001400d2ec0 f   world.obj
 0001:000d1f60       ?renderentselection@@YAXAEBUvec@@0_N@Z 00000001400d2f60 f   world.obj
 0001:000d29c0       ?pasteundoents@@YAXPEAUundoblock@@@Z 00000001400d39c0 f   world.obj
 0001:000d2af0       ?copyundoents@@YAPEAUundoblock@@PEAU1@@Z 00000001400d3af0 f   world.obj
 0001:000d2c10       ?freeoctaentities@@YAXAEAUcube@@@Z 00000001400d3c10 f   world.obj
 0001:000d2d10       ?emptymap@@YA_NH_NPEBD0@Z  00000001400d3d10 f   world.obj
 0001:000d3160       ?entitiesinoctanodes@@YAXXZ 00000001400d4160 f   world.obj
 0001:000d3490       ?startmap@@YAXPEBD@Z       00000001400d4490 f   world.obj
 0001:000d3a70       ?writeobj@@YAXPEAD@Z       00000001400d4a70 f   worldio.obj
 0001:000d4af0       ?savemap@@YAXPEAD@Z        00000001400d5af0 f   worldio.obj
 0001:000d4b00       ?savecurrentmap@@YAXXZ     00000001400d5b00 f   worldio.obj
 0001:000d4b20       ?load_world@@YA_NPEBD0@Z   00000001400d5b20 f   worldio.obj
 0001:000d5c40       ?save_world@@YA_NPEBD_N@Z  00000001400d6c40 f   worldio.obj
 0001:000d6410       ?loadvslots@@YAXPEAUstream@@H@Z 00000001400d7410 f   worldio.obj
 0001:000d6750       ?loadvslot@@YAXPEAUstream@@AEAUVSlot@@H@Z 00000001400d7750 f   worldio.obj
 0001:000d6b10       ?savevslots@@YAXPEAUstream@@H@Z 00000001400d7b10 f   worldio.obj
 0001:000d6c90       ?savevslot@@YAXPEAUstream@@AEAUVSlot@@H@Z 00000001400d7c90 f   worldio.obj
 0001:000d6f40       ?loadchildren@@YAPEAUcube@@PEAUstream@@AEBUivec@@HAEA_N@Z 00000001400d7f40 f   worldio.obj
 0001:000d7000       ?loadc@@YAXPEAUstream@@AEAUcube@@AEBUivec@@HAEA_N@Z 00000001400d8000 f   worldio.obj
 0001:000d80e0       ?convertoldsurfaces@@YAXAEAUcube@@AEBUivec@@HPEAUsurfacecompat@@HPEAUnormalscompat@@HPEAUmergecompat@@H@Z 00000001400d90e0 f   worldio.obj
 0001:000d8f50       ?savec@@YAXPEAUcube@@AEBUivec@@HPEAUstream@@_N@Z 00000001400d9f50 f   worldio.obj
 0001:000d9b30       ?backup@@YAXPEAD0@Z        00000001400dab30 f   worldio.obj
 0001:000d9ba0       ?mapcfgname@@YAXXZ         00000001400daba0 f   worldio.obj
 0001:000d9ca0       ?setmapfilenames@@YAXPEBD0@Z 00000001400daca0 f   worldio.obj
 0001:000d9f50       ?getmapfilenames@@YAXPEBD0PEAD11@Z 00000001400daf50 f   worldio.obj
 0001:000da0d0       ?cutogz@@YAXPEAD@Z         00000001400db0d0 f   worldio.obj
 0001:000da100       ?clearmapcrc@@YAXXZ        00000001400db100 f   worldio.obj
 0001:000da110       ?clientkeepalive@@YAXXZ    00000001400db110 f   client.obj
 0001:000da130       ?run@?$_icmd_localdisconnect@$0LI@@@SAXXZ 00000001400db130 f   client.obj
 0001:000da150       ?run@?$_icmd_localconnect@$0LH@@@SAXXZ 00000001400db150 f   client.obj
 0001:000da1d0       ?run@?$_icmd_disconnect@$0LG@@@SAXPEAH@Z 00000001400db1d0 f   client.obj
 0001:000da1f0       ?run@?$_icmd_lanconnect@$0LE@@@SAXPEAHPEAD@Z 00000001400db1f0 f   client.obj
 0001:000da210       ?run@?$_icmd_connect@$0LD@@@SAXPEADPEAH0@Z 00000001400db210 f   client.obj
 0001:000da220       ?trydisconnect@@YAX_N@Z    00000001400db220 f   client.obj
 0001:000da2e0       ?disconnect@@YAX_N0@Z      00000001400db2e0 f   client.obj
 0001:000da3a0       ?reconnect@@YAXPEBD@Z      00000001400db3a0 f   client.obj
 0001:000da3e0       ?connectserv@@YAXPEBDH0@Z  00000001400db3e0 f   client.obj
 0001:000da660       ?abortconnect@@YAXXZ       00000001400db660 f   client.obj
 0001:000da6c0       ?run@?$_icmd_connectedport@$0DM@@@SAXXZ 00000001400db6c0 f   client.obj
 0001:000da710       ?run@?$_icmd_connectedip@$0DG@@@SAXXZ 00000001400db710 f   client.obj
 0001:000da770       ?connectedpeer@@YAPEBU_ENetAddress@@XZ 00000001400db770 f   client.obj
 0001:000da790       ?run@?$_icmd_isconnected@$0CK@@@SAXPEAH0@Z 00000001400db790 f   client.obj
 0001:000da7e0       ?throttle@@YAXXZ           00000001400db7e0 f   client.obj
 0001:000da820       ?var_throttle_decel@@YAXXZ 00000001400db820 f   client.obj
 0001:000da860       ?var_throttle_accel@@YAXXZ 00000001400db860 f   client.obj
 0001:000da8a0       ?var_throttle_interval@@YAXXZ 00000001400db8a0 f   client.obj
 0001:000da8e0       ?var_rate@@YAXXZ           00000001400db8e0 f   client.obj
 0001:000da910       ?setrate@@YAXH@Z           00000001400db910 f   client.obj
 0001:000da940       ?isconnected@@YA_N_N0@Z    00000001400db940 f   client.obj
 0001:000da980       ?multiplayer@@YA_N_N@Z     00000001400db980 f   client.obj
 0001:000daa50       ?serveroption@@YA_NPEAD@Z  00000001400dba50 f   server.obj
 0001:000dab40       ?stoplistenserver@@YAXXZ   00000001400dbb40 f   server.obj
 0001:000dab90       ?startlistenserver@@YAXPEAH@Z 00000001400dbb90 f   server.obj
 0001:000dac50       ?initserver@@YAX_N0@Z      00000001400dbc50 f   server.obj
 0001:000dada0       ?setuplistenserver@@YA_N_N@Z 00000001400dbda0 f   server.obj
 0001:000dafe0       ?servererror@@YA_N_NPEBD@Z 00000001400dbfe0 f   server.obj
 0001:000db020       ?rundedicatedserver@@YAXXZ 00000001400dc020 f   server.obj
 0001:000db420       ?logoutfv@@YAXPEBDPEAD@Z   00000001400dc420 f   server.obj
 0001:000db520       WinMain                    00000001400dc520 f   server.obj
 0001:000dbfa0       ?serverslice@@YAX_NI@Z     00000001400dcfa0 f   server.obj
 0001:000dc320       ?updatetime@@YAXXZ         00000001400dd320 f   server.obj
 0001:000dc370       ?updatemasterserver@@YAXXZ 00000001400dd370 f   server.obj
 0001:000dc3c0       ?var_serverport@@YAXXZ     00000001400dd3c0 f   server.obj
 0001:000dc3d0       ?var_maxclients@@YAXXZ     00000001400dd3d0 f   server.obj
 0001:000dc3f0       ?checkserversockets@@YAXXZ 00000001400dd3f0 f   server.obj
 0001:000dc580       ?flushmasterinput@@YAXXZ   00000001400dd580 f   server.obj
 0001:000dc660       ?flushmasteroutput@@YAXXZ  00000001400dd660 f   server.obj
 0001:000dc6f0       ?processmasterinput@@YAXXZ 00000001400dd6f0 f   server.obj
 0001:000dc860       ?requestmasterf@@YA_NPEBDZZ 00000001400dd860 f   server.obj
 0001:000dc940       ?requestmaster@@YA_NPEBD@Z 00000001400dd940 f   server.obj
 0001:000dc9d0       ?connectmaster@@YA_KXZ     00000001400dd9d0 f   server.obj
 0001:000dca90       ?var_masterport@@YAXXZ     00000001400dda90 f   server.obj
 0001:000dcaf0       ?var_mastername@@YAXXZ     00000001400ddaf0 f   server.obj
 0001:000dcb50       ?disconnectmaster@@YAXXZ   00000001400ddb50 f   server.obj
 0001:000dcbb0       ?process@@YAXPEAU_ENetPacket@@HH@Z 00000001400ddbb0 f   server.obj
 0001:000dcbf0       ?kicknonlocalclients@@YAXH@Z 00000001400ddbf0 f   server.obj
 0001:000dcd40       ?disconnect_client@@YAXHH@Z 00000001400ddd40 f   server.obj
 0001:000dce70       ?cleanupserver@@YAXXZ      00000001400dde70 f   server.obj
 0001:000dcee0       ?delclient@@YAXPEAUclient@@@Z 00000001400ddee0 f   server.obj
 0001:000dcf30       ?addclient@@YAAEAUclient@@H@Z 00000001400ddf30 f   server.obj
 0001:000dd100       ?logoutf@@YAXPEBDZZ        00000001400de100 f   server.obj
 0001:000dd130       ?setlogfile@@YAXPEBD@Z     00000001400de130 f   server.obj
 0001:000dd1c0       ?getlogfile@@YAPEAU_iobuf@@XZ 00000001400de1c0 f   server.obj
 0001:000dd1d0       ?closelogfile@@YAXXZ       00000001400de1d0 f   server.obj
 0001:000dd200       ?hasnonlocalclients@@YA_NXZ 00000001400de200 f   server.obj
 0001:000dd220       ?localdisconnect@@YAX_N@Z  00000001400de220 f   server.obj
 0001:000dd2e0       ?localconnect@@YAXXZ       00000001400de2e0 f   server.obj
 0001:000dd340       ?disconnectreason@@YAPEBDH@Z 00000001400de340 f   server.obj
 0001:000dd3e0       ?haslocalclients@@YA_NXZ   00000001400de3e0 f   server.obj
 0001:000dd7a0       ?writeservercfg@@YAXXZ     00000001400de7a0 f   serverbrowser.obj
 0001:000dd7b0       ?run@?$_icmd_clearservers@$0CKG@@@SAXPEAH@Z 00000001400de7b0 f   serverbrowser.obj
 0001:000dd7d0       ?run@?$_icmd_keepserver@$0CKF@@@SAXPEBDPEAH0@Z 00000001400de7d0 f   serverbrowser.obj
 0001:000dd7f0       ?run@?$_icmd_addserver@$0CKE@@@SAXPEBDPEAH0@Z 00000001400de7f0 f   serverbrowser.obj
 0001:000dd810       ?initservers@@YAXXZ        00000001400de810 f   serverbrowser.obj
 0001:000dd840       ?updatefrommaster@@YAXXZ   00000001400de840 f   serverbrowser.obj
 0001:000dd8c0       ?retrieveservers@@YAXAEAU?$vector@D@@@Z 00000001400de8c0 f   serverbrowser.obj
 0001:000ddb60       ?clearservers@@YAX_N@Z     00000001400deb60 f   serverbrowser.obj
 0001:000ddc40       ?connectselected@@YAXXZ    00000001400dec40 f   serverbrowser.obj
 0001:000ddc80       ?showservers@@YAPEBDPEAUg3d_gui@@PEAIHH@Z 00000001400dec80 f   serverbrowser.obj
 0001:000ddd30       ?refreshservers@@YAXXZ     00000001400ded30 f   serverbrowser.obj
 0001:000dde30       ?sortservers@@YAXXZ        00000001400dee30 f   serverbrowser.obj
 0001:000dde60       ?checkpings@@YAXXZ         00000001400dee60 f   serverbrowser.obj
 0001:000de1b0       ?checkresolver@@YAXXZ      00000001400df1b0 f   serverbrowser.obj
 0001:000de2d0       ?pingservers@@YAXXZ        00000001400df2d0 f   serverbrowser.obj
 0001:000de6e0       ?connectthread@@YAHPEAX@Z  00000001400df6e0 f   serverbrowser.obj
 0001:000de7f0       ?resolvercheck@@YA_NPEAPEBDPEAU_ENetAddress@@@Z 00000001400df7f0 f   serverbrowser.obj
 0001:000de920       ?resolverquery@@YAXPEBD@Z  00000001400df920 f   serverbrowser.obj
 0001:000dea50       ?resolverclear@@YAXXZ      00000001400dfa50 f   serverbrowser.obj
 0001:000deb40       ?resolverstop@@YAXAEAUresolverthread@@@Z 00000001400dfb40 f   serverbrowser.obj
 0001:000deba0       ?resolverinit@@YAXXZ       00000001400dfba0 f   serverbrowser.obj
 0001:000dec70       ?resolverloop@@YAHPEAX@Z   00000001400dfc70 f   serverbrowser.obj
 0001:000dee00       ?connectwithtimeout@@YAH_KPEBDAEBU_ENetAddress@@@Z 00000001400dfe00 f   serverbrowser.obj
 0001:000defc0       ?addserver@@YAXPEBDH0_N@Z  00000001400dffc0 f   serverbrowser.obj
 0001:000df110       ?resolverwait@@YA_NPEBDPEAU_ENetAddress@@@Z 00000001400e0110 f   serverbrowser.obj
 0001:000e0760       ?consolebox@@YAXHHHH@Z     00000001400e1760 f   3dgui.obj
 0001:000e0910       ?g3d_render@@YAXXZ         00000001400e1910 f   3dgui.obj
 0001:000e0d80       ?g3d_limitscale@@YAXM@Z    00000001400e1d80 f   3dgui.obj
 0001:000e0d90       ?g3d_movecursor@@YA_NHH@Z  00000001400e1d90 f   3dgui.obj
 0001:000e0e70       ?g3d_resetcursor@@YAXXZ    00000001400e1e70 f   3dgui.obj
 0001:000e0e90       ?g3d_cursorpos@@YAXAEAM0@Z 00000001400e1e90 f   3dgui.obj
 0001:000e0ed0       ?menukey@@YA_NH_NH@Z       00000001400e1ed0 f   3dgui.obj
 0001:000e15c0       ?run@?$_icmd_textexec@$0CPN@@@SAXPEAH@Z 00000001400e25c0 f   3dgui.obj
 0001:000e1640       ?run@?$_icmd_textcurrentline@$0CPH@@@SAXXZ 00000001400e2640 f   3dgui.obj
 0001:000e16a0       ?run@?$_icmd_textclear@$0CPG@@@SAXXZ 00000001400e26a0 f   3dgui.obj
 0001:000e16e0       ?run@?$_icmd_textselectall@$0CPF@@@SAXXZ 00000001400e26e0 f   3dgui.obj
 0001:000e1730       ?run@?$_icmd_textmark@$0CPE@@@SAXPEAH@Z 00000001400e2730 f   3dgui.obj
 0001:000e17c0       ?run@?$_icmd_textpaste@$0CPA@@@SAXXZ 00000001400e27c0 f   3dgui.obj
 0001:000e1830       ?run@?$_icmd_textcopy@$0COP@@@SAXXZ 00000001400e2830 f   3dgui.obj
 0001:000e18a0       ?run@?$_icmd_textinit@$0COL@@@SAXPEAD00@Z 00000001400e28a0 f   3dgui.obj
 0001:000e19c0       ?run@?$_icmd_textload@$0COB@@@SAXPEAD@Z 00000001400e29c0 f   3dgui.obj
 0001:000e1a90       ?run@?$_icmd_textsave@$0CNJ@@@SAXPEAD@Z 00000001400e2a90 f   3dgui.obj
 0001:000e1b40       ?run@?$_icmd_textmode@$0CNF@@@SAXPEAH@Z 00000001400e2b40 f   3dgui.obj
 0001:000e1b90       ?run@?$_icmd_textprev@$0CNB@@@SAXXZ 00000001400e2b90 f   3dgui.obj
 0001:000e1be0       ?run@?$_icmd_textfocus@$0CNA@@@SAXPEADPEAH@Z 00000001400e2be0 f   3dgui.obj
 0001:000e1c50       ?run@?$_icmd_textshow@$0CMM@@@SAXXZ 00000001400e2c50 f   3dgui.obj
 0001:000e1ce0       ?run@?$_icmd_textlist@$0CMG@@@SAXXZ 00000001400e2ce0 f   3dgui.obj
 0001:000e2330       ?g3d_windowhit@@YA_N_N0@Z  00000001400e3330 f   3dgui.obj
 0001:000e23e0       ?g3d_addgui@@YAXPEAUg3d_callback@@AEAUvec@@H@Z 00000001400e33e0 f   3dgui.obj
 0001:000e25e0       ??0BIH@@QEAA@PEAU?$vector@Utri@BIH@@@@@Z 00000001400e35e0 f   bih.obj
 0001:000e2a60       ?build@BIH@@QEAAXAEAU?$vector@UBIHNode@@@@PEAGHAEBUvec@@2H@Z 00000001400e3a60 f   bih.obj
 0001:000e3740       ?triintersect@BIH@@SA_NAEAUtri@1@AEBUvec@@1MAEAMHPEAU21@@Z 00000001400e4740 f   bih.obj
 0001:000e3b10       ?mmintersect@@YA_NAEBUextentity@@AEBUvec@@1MHAEAM@Z 00000001400e4b10 f   bih.obj
 0001:000e3ed0       ?flushblobs@@YAXXZ         00000001400e4ed0 f   blob.obj
 0001:000e3f60       ?renderblob@@YAXHAEBUvec@@MM@Z 00000001400e4f60 f   blob.obj
 0001:000e3fe0       ?initblobs@@YAXH@Z         00000001400e4fe0 f   blob.obj
 0001:000e4060       ?var_blobdyntris@@YAXXZ    00000001400e5060 f   blob.obj
 0001:000e4090       ?var_blobstattris@@YAXXZ   00000001400e5090 f   blob.obj
 0001:000e40c0       ?var_blobmargin@@YAXXZ     00000001400e50c0 f   blob.obj
 0001:000e40e0       ?var_blobfadehigh@@YAXXZ   00000001400e50e0 f   blob.obj
 0001:000e4100       ?var_blobfadelow@@YAXXZ    00000001400e5100 f   blob.obj
 0001:000e4120       ?var_blobheight@@YAXXZ     00000001400e5120 f   blob.obj
 0001:000e4140       ?var_blobintensity@@YAXXZ  00000001400e5140 f   blob.obj
 0001:000e4160       ?resetblobs@@YAXXZ         00000001400e5160 f   blob.obj
 0001:000e4230       ?adddecal@@YAXHAEBUvec@@0MAEBUbvec@@H@Z 00000001400e5230 f   decal.obj
 0001:000e42c0       ?renderdecals@@YAX_N@Z     00000001400e52c0 f   decal.obj
 0001:000e43e0       ?initdecals@@YAXXZ         00000001400e53e0 f   decal.obj
 0001:000e44f0       ?var_maxdecaltris@@YAXXZ   00000001400e54f0 f   decal.obj
 0001:000e4500       ?cleardecals@@YAXXZ        00000001400e5500 f   decal.obj
 0001:000e45d0       ?setdynlights@@YAHPEAUvtxarray@@@Z 00000001400e55d0 f   dynlight.obj
 0001:000e4b00       ?calcdynlightmask@@YAXPEAUvtxarray@@@Z 00000001400e5b00 f   dynlight.obj
 0001:000e4c50       ?dynlightreaching@@YAXAEBUvec@@AEAU1@1_N@Z 00000001400e5c50 f   dynlight.obj
 0001:000e5070       ?getdynlight@@YA_NHAEAUvec@@AEAM0@Z 00000001400e6070 f   dynlight.obj
 0001:000e50d0       ?finddynlights@@YAHXZ      00000001400e60d0 f   dynlight.obj
 0001:000e5570       ?updatedynlights@@YAXXZ    00000001400e6570 f   dynlight.obj
 0001:000e55d0       ?cleardynlights@@YAXXZ     00000001400e65d0 f   dynlight.obj
 0001:000e5740       ?addglare@@YAXXZ           00000001400e6740 f   glare.obj
 0001:000e59f0       ?drawglaretex@@YAXXZ       00000001400e69f0 f   glare.obj
 0001:000e5a50       ?viewglaretex@@YAXXZ       00000001400e6a50 f   glare.obj
 0001:000e5a80       ?var_glaresize@@YAXXZ      00000001400e6a80 f   glare.obj
 0001:000e5a90       ?cleanupglare@@YAXXZ       00000001400e6a90 f   glare.obj
 0001:000e6150       ?rendergrass@@YAXXZ        00000001400e7150 f   grass.obj
 0001:000e6570       ?generategrass@@YAXXZ      00000001400e7570 f   grass.obj
 0001:000e7c50       ?var_grasscolour@@YAXXZ    00000001400e8c50 f   grass.obj
 0001:000e8780       ?rendermaterials@@YAXXZ    00000001400e9780 f   material.obj
 0001:000e9d40       ?var_waterfallenv@@YAXXZ   00000001400ead40 f   material.obj
 0001:000eb150       ?getglasscolor@@YAAEBUbvec@@H@Z 00000001400ec150 f   material.obj
 0001:000eb190       ?var_glass4colour@@YAXXZ   00000001400ec190 f   material.obj
 0001:000eb1e0       ?var_glass3colour@@YAXXZ   00000001400ec1e0 f   material.obj
 0001:000eb230       ?var_glass2colour@@YAXXZ   00000001400ec230 f   material.obj
 0001:000eb280       ?var_glasscolour@@YAXXZ    00000001400ec280 f   material.obj
 0001:000eb2d0       ?rendermatgrid@@YAXAEAU?$vector@PEAUmaterialsurface@@@@@Z 00000001400ec2d0 f   material.obj
 0001:000eb4f0       ?sortmaterials@@YAXAEAU?$vector@PEAUmaterialsurface@@@@@Z 00000001400ec4f0 f   material.obj
 0001:000eba80       ?var_optmats@@YAXXZ        00000001400eca80 f   material.obj
 0001:000ebe40       ?visiblematerial@@YAHAEBUcube@@HHHHHG@Z 00000001400ece40 f   material.obj
 0001:000ebf70       ?getmaterialdesc@@YAPEBDHPEBD@Z 00000001400ecf70 f   material.obj
 0001:000ec0d0       ?findmaterialname@@YAPEBDH@Z 00000001400ed0d0 f   material.obj
 0001:000ece40       ?optimizematsurfs@@YAHPEAUmaterialsurface@@H@Z 00000001400ede40 f   material.obj
 0001:000ed150       ?genmatsurfs@@YAXAEBUcube@@HHHHAEAU?$vector@Umaterialsurface@@@@@Z 00000001400ee150 f   material.obj
 0001:000ed2e0       ?setupmaterials@@YAXHH@Z   00000001400ee2e0 f   material.obj
 0001:000ee5d0       ?findmaterial@@YAHPEBD@Z   00000001400ef5d0 f   material.obj
 0001:000ee7c0       ?gl_drawhud@@YAXHH@Z       00000001400ef7c0 f   rendergl.obj
 0001:000ef480       ?drawcrosshair@@YAXHH@Z    00000001400f0480 f   rendergl.obj
 0001:000ef750       ?writecrosshairs@@YAXPEAUstream@@@Z 00000001400f0750 f   rendergl.obj
 0001:000ef9d0       ?run@?$_icmd_getcrosshair@$0IPK@@@SAXPEAH@Z 00000001400f09d0 f   rendergl.obj
 0001:000efa30       ?loadcrosshair_@@YAXPEBDPEAH@Z 00000001400f0a30 f   rendergl.obj
 0001:000efaa0       ?loadcrosshair@@YAXPEBDH@Z 00000001400f0aa0 f   rendergl.obj
 0001:000efb10       ?drawdamagescreen@@YAXHH@Z 00000001400f0b10 f   rendergl.obj
 0001:000efd00       ?var_damagescreen@@YAXXZ   00000001400f0d00 f   rendergl.obj
 0001:000efd20       ?drawdamagecompass@@YAXHH@Z 00000001400f0d20 f   rendergl.obj
 0001:000effd0       ?gl_drawmainmenu@@YAXHH@Z  00000001400f0fd0 f   rendergl.obj
 0001:000f00e0       ?gl_drawframe@@YAXHH@Z     00000001400f10e0 f   rendergl.obj
 0001:000f0a10       ?addmotionblur@@YAXXZ      00000001400f1a10 f   rendergl.obj
 0001:000f0dc0       ?var_motionblur@@YAXXZ     00000001400f1dc0 f   rendergl.obj
 0001:000f0e20       ?drawminimap@@YAXXZ        00000001400f1e20 f   rendergl.obj
 0001:000f0e60       ?clipminimap@@YAXAEAUivec@@0PEAUcube@@HHHH@Z 00000001400f1e60 f   rendergl.obj
 0001:000f0fa0       ?var_minimapsize@@YAXXZ    00000001400f1fa0 f   rendergl.obj
 0001:000f0fe0       ?var_minimapcolour@@YAXXZ  00000001400f1fe0 f   rendergl.obj
 0001:000f1020       ?drawcubemap@@YAXHAEBUvec@@MMAEBUcubemapside@@@Z 00000001400f2020 f   rendergl.obj
 0001:000f14f0       ?drawreflection@@YAXM_NHAEBUbvec@@@Z 00000001400f24f0 f   rendergl.obj
 0001:000f2150       ?rendergame@@YAX_N@Z       00000001400f3150 f   rendergl.obj
 0001:000f21d0       ?drawfogoverlay@@YAXHMH@Z  00000001400f31d0 f   rendergl.obj
 0001:000f2ad0       ?var_fogcolour@@YAXXZ      00000001400f3ad0 f   rendergl.obj
 0001:000f2b10       ?setenvmatrix@@YAXXZ       00000001400f3b10 f   rendergl.obj
 0001:000f2b80       ?popscissor@@YAXXZ         00000001400f3b80 f   rendergl.obj
 0001:000f2bf0       ?pushscissor@@YAHMMMM@Z    00000001400f3bf0 f   rendergl.obj
 0001:000f2ef0       ?calcspherescissor@@YAXAEBUvec@@MAEAM111@Z 00000001400f3ef0 f   rendergl.obj
 0001:000f3290       ?popprojection@@YAXXZ      00000001400f4290 f   rendergl.obj
 0001:000f3300       ?pushprojection@@YAXAEBUglmatrixf@@@Z 00000001400f4300 f   rendergl.obj
 0001:000f3380       ?project@@YAXMMH_N00M@Z    00000001400f4380 f   rendergl.obj
 0001:000f34d0       ?readmatrices@@YAXXZ       00000001400f44d0 f   rendergl.obj
 0001:000f3550       ?recomputecamera@@YAXXZ    00000001400f4550 f   rendergl.obj
 0001:000f3d50       ?mousemove@@YAXHH@Z        00000001400f4d50 f   rendergl.obj
 0001:000f3eb0       ?fixcamerarange@@YAXXZ     00000001400f4eb0 f   rendergl.obj
 0001:000f3f30       ?isthirdperson@@YA_NXZ     00000001400f4f30 f   rendergl.obj
 0001:000f3f60       ?computezoom@@YAXXZ        00000001400f4f60 f   rendergl.obj
 0001:000f40f0       ?var_zoom@@YAXXZ           00000001400f50f0 f   rendergl.obj
 0001:000f4120       ?transplayer@@YAXXZ        00000001400f5120 f   rendergl.obj
 0001:000f41d0       ?findorientation@@YAXXZ    00000001400f51d0 f   rendergl.obj
 0001:000f44a0       ?run@?$_icmd_getcampos@$0DEF@@@SAXXZ 00000001400f54a0 f   rendergl.obj
 0001:000f4590       ?run@?$_icmd_getcamroll@$0DEA@@@SAXXZ 00000001400f5590 f   rendergl.obj
 0001:000f45c0       ?run@?$_icmd_getcampitch@$0DDP@@@SAXXZ 00000001400f55c0 f   rendergl.obj
 0001:000f45f0       ?run@?$_icmd_getcamyaw@$0DDO@@@SAXXZ 00000001400f55f0 f   rendergl.obj
 0001:000f4840       ?cleanupgl@@YAXXZ          00000001400f5840 f   rendergl.obj
 0001:000f48c0       ?gl_init@@YAXHHHHH@Z       00000001400f58c0 f   rendergl.obj
 0001:000f4ae0       ?glext@@YAXPEAD@Z          00000001400f5ae0 f   rendergl.obj
 0001:000f4b30       ?gl_checkextensions@@YAXXZ 00000001400f5b30 f   rendergl.obj
 0001:000f6760       ?hasext@@YA_NPEBD0@Z       00000001400f7760 f   rendergl.obj
 0001:000f6890       ?getprocaddress@@YAPEAXPEBD@Z 00000001400f7890 f   rendergl.obj
 0001:000f68a0       ?cleanupmotionblur@@YAXXZ  00000001400f78a0 f   rendergl.obj
 0001:000f68f0       ?clearminimap@@YAXXZ       00000001400f78f0 f   rendergl.obj
 0001:000f6930       ?defattrib@varray@@YAXHHI@Z 00000001400f7930 f   rendergl.obj
 0001:000f6a40       ?begin@varray@@YAXI@Z      00000001400f7a40 f   rendergl.obj
 0001:000f6a50       ?end@varray@@YAHXZ         00000001400f7a50 f   rendergl.obj
 0001:000f6c40       ?enable@varray@@YAXXZ      00000001400f7c40 f   rendergl.obj
 0001:000f6c70       ?disable@varray@@YAXXZ     00000001400f7c70 f   rendergl.obj
 0001:000f6d10       ?drawglare@@YAXXZ          00000001400f7d10 f   rendergl.obj
 0001:000f7040       ?start@modelpreview@@YAX_N@Z 00000001400f8040 f   rendergl.obj
 0001:000f7350       ?end@modelpreview@@YAXXZ   00000001400f8350 f   rendergl.obj
 0001:000f7450       ?drawtextures@@YAXXZ       00000001400f8450 f   rendergl.obj
 0001:000f74b0       ?enablepolygonoffset@@YAXI@Z 00000001400f84b0 f   rendergl.obj
 0001:000f7590       ?disablepolygonoffset@@YAXI@Z 00000001400f8590 f   rendergl.obj
 0001:000f7630       ?invalidatepostfx@@YAXXZ   00000001400f8630 f   rendergl.obj
 0001:000f8a50       ?setbbfrommodel@@YAXPEAUdynent@@PEBD@Z 00000001400f9a50 f   rendermodel.obj
 0001:000f8c10       ?renderclient@@YAXPEAUdynent@@PEBDPEAUmodelattach@@HHHHHM_N@Z 00000001400f9c10 f   rendermodel.obj
 0001:000f8f30       ?loadskin@@YAXPEBD0AEAPEAUTexture@@1@Z 00000001400f9f30 f   rendermodel.obj
 0001:000f9160       ?run@?$_icmd_findanims@$0DPD@@@SAXPEAD@Z 00000001400fa160 f   rendermodel.obj
 0001:000f9560       ?findanims@@YAXPEBDAEAU?$vector@H@@@Z 00000001400fa560 f   rendermodel.obj
 0001:000f95e0       ?matchanim@@YA_NPEBD0@Z    00000001400fa5e0 f   rendermodel.obj
 0001:000f96b0       ?rendermodelquery@@YAXPEAUmodel@@PEAUdynent@@AEBUvec@@M@Z 00000001400fa6b0 f   rendermodel.obj
 0001:000f9870       ?endmodelquery@@YAXXZ      00000001400fa870 f   rendermodel.obj
 0001:000f9a20       ?startmodelquery@@YAXPEAUoccludequery@@@Z 00000001400faa20 f   rendermodel.obj
 0001:000f9a30       ?endmodelbatches@@YAXXZ    00000001400faa30 f   rendermodel.obj
 0001:000fa0d0       ?renderbatchedmodel@@YAXPEAUmodel@@AEAUbatchedmodel@@@Z 00000001400fb0d0 f   rendermodel.obj
 0001:000fa270       ?addbatchedmodel@@YAAEAUmodelbatch@@PEAUmodel@@@Z 00000001400fb270 f   rendermodel.obj
 0001:000fa380       ?startmodelbatches@@YAXXZ  00000001400fb380 f   rendermodel.obj
 0001:000fa3a0       ?renderellipse@@YAXAEAUvec@@MMM@Z 00000001400fb3a0 f   rendermodel.obj
 0001:000fa520       ?render3dbox@@YAXAEAUvec@@MMMM@Z 00000001400fb520 f   rendermodel.obj
 0001:000fa7e0       ?render2dbox@@YAXAEAUvec@@MMM@Z 00000001400fb7e0 f   rendermodel.obj
 0001:000fa8a0       ?modeloccluded@@YA_NAEBUvec@@M@Z 00000001400fb8a0 f   rendermodel.obj
 0001:000fa970       ?clearmodel@@YAXPEAD@Z     00000001400fb970 f   rendermodel.obj
 0001:000faa40       ?cleanupmodels@@YAXXZ      00000001400fba40 f   rendermodel.obj
 0001:000faab0       ?clear_mdls@@YAXXZ         00000001400fbab0 f   rendermodel.obj
 0001:000fab30       ?preloadmodelshaders@@YAXXZ 00000001400fbb30 f   rendermodel.obj
 0001:000fabc0       ?run@?$_icmd_nummapmodels@$0BGA@@@SAXXZ 00000001400fbbc0 f   rendermodel.obj
 0001:000fabe0       ?run@?$_icmd_mapmodelname@$0BFP@@@SAXPEAH@Z 00000001400fbbe0 f   rendermodel.obj
 0001:000fac30       ?getmminfo@@YAPEAUmapmodelinfo@@H@Z 00000001400fbc30 f   rendermodel.obj
 0001:000fac60       ?mapmodelreset@@YAXPEAH@Z  00000001400fbc60 f   rendermodel.obj
 0001:000fac90       ?mapmodelcompat@@YAXPEAH00PEAD1@Z 00000001400fbc90 f   rendermodel.obj
 0001:000faca0       ?mmodel@@YAXPEAD@Z         00000001400fbca0 f   rendermodel.obj
 0001:000fad20       ?rdanimjoints@@YAXPEAH@Z   00000001400fbd20 f   rendermodel.obj
 0001:000fae20       ?rdlimitrot@@YAXPEAH0PEAM1111@Z 00000001400fbe20 f   rendermodel.obj
 0001:000fb020       ?rdlimitdist@@YAXPEAH0PEAM1@Z 00000001400fc020 f   rendermodel.obj
 0001:000fb190       ?rdjoint@@YAXPEAH0000@Z    00000001400fc190 f   rendermodel.obj
 0001:000fb320       ?rdtri@@YAXPEAH00@Z        00000001400fc320 f   rendermodel.obj
 0001:000fb470       ?rdeye@@YAXPEAH@Z          00000001400fc470 f   rendermodel.obj
 0001:000fb560       ?rdvert@@YAXPEAM000@Z      00000001400fc560 f   rendermodel.obj
 0001:000fb700       ?mdlname@@YAXXZ            00000001400fc700 f   rendermodel.obj
 0001:000fb750       ?mdlextendbb@@YAXPEAM00@Z  00000001400fc750 f   rendermodel.obj
 0001:000fb790       ?mdlbb@@YAXPEAM00@Z        00000001400fc790 f   rendermodel.obj
 0001:000fb7d0       ?mdlshadow@@YAXPEAH@Z      00000001400fc7d0 f   rendermodel.obj
 0001:000fb800       ?mdlpitch@@YAXPEAM@Z       00000001400fc800 f   rendermodel.obj
 0001:000fb830       ?mdlyaw@@YAXPEAM@Z         00000001400fc830 f   rendermodel.obj
 0001:000fb860       ?mdltrans@@YAXPEAM00@Z     00000001400fc860 f   rendermodel.obj
 0001:000fb8a0       ?mdlscale@@YAXPEAH@Z       00000001400fc8a0 f   rendermodel.obj
 0001:000fb900       ?mdlspin@@YAXPEAM0@Z       00000001400fc900 f   rendermodel.obj
 0001:000fb930       ?mdlshader@@YAXPEAD@Z      00000001400fc930 f   rendermodel.obj
 0001:000fb990       ?mdlfullbright@@YAXPEAM@Z  00000001400fc990 f   rendermodel.obj
 0001:000fb9d0       ?mdlenvmap@@YAXPEAM0PEAD@Z 00000001400fc9d0 f   rendermodel.obj
 0001:000fba50       ?mdlglare@@YAXPEAM0@Z      00000001400fca50 f   rendermodel.obj
 0001:000fba90       ?mdlglow@@YAXPEAH0PEAM@Z   00000001400fca90 f   rendermodel.obj
 0001:000fbb20       ?mdldepthoffset@@YAXPEAH@Z 00000001400fcb20 f   rendermodel.obj
 0001:000fbb50       ?mdlalphadepth@@YAXPEAH@Z  00000001400fcb50 f   rendermodel.obj
 0001:000fbb80       ?mdlalphablend@@YAXPEAH@Z  00000001400fcb80 f   rendermodel.obj
 0001:000fbbc0       ?mdlalphatest@@YAXPEAM@Z   00000001400fcbc0 f   rendermodel.obj
 0001:000fbc10       ?mdlambient@@YAXPEAH@Z     00000001400fcc10 f   rendermodel.obj
 0001:000fbc70       ?mdlspec@@YAXPEAH@Z        00000001400fcc70 f   rendermodel.obj
 0001:000fbcd0       ?mdlellipsecollide@@YAXPEAH@Z 00000001400fccd0 f   rendermodel.obj
 0001:000fbd00       ?mdlcollide@@YAXPEAH@Z     00000001400fcd00 f   rendermodel.obj
 0001:000fbd30       ?mdlcullface@@YAXPEAH@Z    00000001400fcd30 f   rendermodel.obj
 0001:000fc110       ?var_bumpmodels@@YAXXZ     00000001400fd110 f   rendermodel.obj
 0001:000fc120       ?var_glowmodels@@YAXXZ     00000001400fd120 f   rendermodel.obj
 0001:000fc130       ?var_envmapmodels@@YAXXZ   00000001400fd130 f   rendermodel.obj
 0001:000fc140       ?var_lightmodels@@YAXXZ    00000001400fd140 f   rendermodel.obj
 0001:000fc150       ?cleanragdoll@@YAXPEAUdynent@@@Z 00000001400fd150 f   rendermodel.obj
 0001:000fc190       ?rendermodel@@YAXPEAUentitylight@@PEBDHAEBUvec@@MMHPEAUdynent@@PEAUmodelattach@@HHM@Z 00000001400fd190 f   rendermodel.obj
 0001:000fcf50       ?flushpreloadedmodels@@YAX_N@Z 00000001400fdf50 f   rendermodel.obj
 0001:000fd030       ?preloadusedmapmodels@@YAX_N0@Z 00000001400fe030 f   rendermodel.obj
 0001:000fd2c0       ?loadmodel@@YAPEAUmodel@@PEBDH_N@Z 00000001400fe2c0 f   rendermodel.obj
 0001:000fd990       ?updateparticles@@YAXXZ    00000001400fe990 f   renderparticles.obj
 0001:000fec90       ?regularshape@@YAXHHHHHHAEBUvec@@MHH@Z 00000001400ffc90 f   renderparticles.obj
 0001:000ff8f0       ?particle_flare@@YAXAEBUvec@@0HHHMPEAUphysent@@@Z 00000001401008f0 f   renderparticles.obj
 0001:000ff950       ?particle_meter@@YAXAEBUvec@@MHHHHM@Z 0000000140100950 f   renderparticles.obj
 0001:000ffa80       ?particle_textcopy@@YAXAEBUvec@@PEBDHHHMH@Z 0000000140100a80 f   renderparticles.obj
 0001:000ffb80       ?particle_splash@@YAXHHHAEBUvec@@HMHH@Z 0000000140100b80 f   renderparticles.obj
 0001:000ffbd0       ?regular_particle_splash@@YAXHHHAEBUvec@@HMHHH@Z 0000000140100bd0 f   renderparticles.obj
 0001:000ffc40       ?canaddparticles@@YA_NXZ   0000000140100c40 f   renderparticles.obj
 0001:00100060       ?cleanupparticles@@YAXXZ   0000000140101060 f   renderparticles.obj
 0001:001000a0       ?particleinit@@YAXXZ       00000001401010a0 f   renderparticles.obj
 0001:00100170       ?var_fewparticles@@YAXXZ   0000000140101170 f   renderparticles.obj
 0001:00100180       ?var_maxparticles@@YAXXZ   0000000140101180 f   renderparticles.obj
 0001:00102910       ?binddepthfxparams@@YAXMM_NPEAX@Z 0000000140103910 f   renderparticles.obj
 0001:00102e40       ?binddepthfxtex@@YA_NXZ    0000000140103e40 f   renderparticles.obj
 0001:00103090       ?cleanupdepthfx@@YAXXZ     0000000140104090 f   renderparticles.obj
 0001:00103190       ?var_depthfxfilter@@YAXXZ  0000000140104190 f   renderparticles.obj
 0001:001031a0       ?var_depthfxrect@@YAXXZ    00000001401041a0 f   renderparticles.obj
 0001:001031b0       ?var_depthfxsize@@YAXXZ    00000001401041b0 f   renderparticles.obj
 0001:001031c0       ?var_fpdepthfx@@YAXXZ      00000001401041c0 f   renderparticles.obj
 0001:001031d0       ?addparticleemitters@@YAXXZ 00000001401041d0 f   renderparticles.obj
 0001:00103390       ?finddepthfxranges@@YAXXZ  0000000140104390 f   renderparticles.obj
 0001:00103530       ?renderparticles@@YAX_N@Z  0000000140104530 f   renderparticles.obj
 0001:00103ff0       ?drawdepthfxtex@@YAXXZ     0000000140104ff0 f   renderparticles.obj
 0001:00104070       ?viewdepthfxtex@@YAXXZ     0000000140105070 f   renderparticles.obj
 0001:001040a0       ?clearparticleemitters@@YAXXZ 00000001401050a0 f   renderparticles.obj
 0001:001040d0       ?printparticles@@YA_NAEAUextentity@@PEAD@Z 00000001401050d0 f   renderparticles.obj
 0001:00104280       ?clearparticles@@YAXXZ     0000000140105280 f   renderparticles.obj
 0001:001042e0       ?seedparticles@@YAXXZ      00000001401052e0 f   renderparticles.obj
 0001:00104a20       ?drawskyoutline@@YAXXZ     0000000140105a20 f   rendersky.obj
 0001:00104b80       ?drawskylimits@@YA_N_N@Z   0000000140105b80 f   rendersky.obj
 0001:00104c10       ?cleanupsky@@YAXXZ         0000000140105c10 f   rendersky.obj
 0001:00104eb0       ?var_fogdomecolour@@YAXXZ  0000000140105eb0 f   rendersky.obj
 0001:001063b0       ?draw_env_overlay@@YAXHPEAUTexture@@MM@Z 00000001401073b0 f   rendersky.obj
 0001:00106730       ?draw_envbox@@YAXHMMHPEAPEAUTexture@@@Z 0000000140107730 f   rendersky.obj
 0001:00106c30       ?draw_envbox_face@@YAXMMHHHMMHHHMMHHHMMHHHI@Z 0000000140107c30 f   rendersky.obj
 0001:00106d90       ?var_cloudlayer@@YAXXZ     0000000140107d90 f   rendersky.obj
 0001:00106dc0       ?var_cloudbox@@YAXXZ       0000000140107dc0 f   rendersky.obj
 0001:00106de0       ?var_skybox@@YAXXZ         0000000140107de0 f   rendersky.obj
 0001:00106e00       ?loadskyoverlay@@YAPEAUTexture@@PEBD@Z 0000000140107e00 f   rendersky.obj
 0001:00106f30       ?loadsky@@YAXPEBDQEAPEAUTexture@@@Z 0000000140107f30 f   rendersky.obj
 0001:00107180       ?drawskybox@@YAXH_N@Z      0000000140108180 f   rendersky.obj
 0001:00107b20       ?limitsky@@YA_NXZ          0000000140108b20 f   rendersky.obj
 0001:00107c30       ?reloadfonts@@YAXXZ        0000000140108c30 f   rendertext.obj
 0001:001084d0       ?tabify@@YAXPEBDPEAH@Z     00000001401094d0 f   rendertext.obj
 0001:001085f0       ?setfont@@YA_NPEBD@Z       00000001401095f0 f   rendertext.obj
 0001:00108630       ?fontalias@@YAXPEBD0@Z     0000000140109630 f   rendertext.obj
 0001:00108750       ?fontskip@@YAXPEAH@Z       0000000140109750 f   rendertext.obj
 0001:00108800       ?fontchar@@YAXPEAH000000@Z 0000000140109800 f   rendertext.obj
 0001:00108900       ?fonttex@@YAXPEAD@Z        0000000140109900 f   rendertext.obj
 0001:001089c0       ?fontscale@@YAXPEAH@Z      00000001401099c0 f   rendertext.obj
 0001:001089e0       ?fontoffset@@YAXPEAD@Z     00000001401099e0 f   rendertext.obj
 0001:00108a00       ?newfont@@YAXPEAD0PEAH1@Z  0000000140109a00 f   rendertext.obj
 0001:00108b90       ?gettextres@@YAXAEAH0@Z    0000000140109b90 f   rendertext.obj
 0001:00108bf0       ?draw_textf@@YAXPEBDHHZZ   0000000140109bf0 f   rendertext.obj
 0001:00108c80       ?text_posf@@YAXPEBDHAEAM1H@Z 0000000140109c80 f   rendertext.obj
 0001:00108f70       ?text_visible@@YAHPEBDMMH@Z 0000000140109f70 f   rendertext.obj
 0001:00109270       ?text_boundsf@@YAXPEBDAEAM1H@Z 000000014010a270 f   rendertext.obj
 0001:001094f0       ?draw_text@@YAXPEBDHHHHHHHH@Z 000000014010a4f0 f   rendertext.obj
 0001:00109b80       ?text_widthf@@YAMPEBD@Z    000000014010ab80 f   rendertext.obj
 0001:00109d40       ?renderreflectedskyvas@@YAXAEAU?$vector@PEAUvtxarray@@@@H@Z 000000014010ad40 f   renderva.obj
 0001:00109eb0       ?renderskyva@@YAXPEAUvtxarray@@_N@Z 000000014010aeb0 f   renderva.obj
 0001:00109fe0       ?findreflectedvas@@YAXAEAU?$vector@PEAUvtxarray@@@@H@Z 000000014010afe0 f   renderva.obj
 0001:0010a590       ?cleanupTMUs@@YAXAEAUrenderstate@@M_N@Z 000000014010b590 f   renderva.obj
 0001:0010a7e0       ?setupTMUs@@YAXAEAUrenderstate@@M_N@Z 000000014010b7e0 f   renderva.obj
 0001:0010ae20       ?setupcaustics@@YAXHMPEAM@Z 000000014010be20 f   renderva.obj
 0001:0010b790       ?var_caustics@@YAXXZ       000000014010c790 f   renderva.obj
 0001:0010b7a0       ?cleanupva@@YAXXZ          000000014010c7a0 f   renderva.obj
 0001:0010bd00       ?renderva@@YAXAEAUrenderstate@@PEAUvtxarray@@H_N2@Z 000000014010cd00 f   renderva.obj
 0001:0010c1d0       ?rendershadowmappass@@YAXAEAUrenderstate@@PEAUvtxarray@@@Z 000000014010d1d0 f   renderva.obj
 0001:0010c2f0       ?renderfoggedvas@@YAXAEAUrenderstate@@_N@Z 000000014010d2f0 f   renderva.obj
 0001:0010c520       ?renderzpass@@YAXAEAUrenderstate@@PEAUvtxarray@@@Z 000000014010d520 f   renderva.obj
 0001:0010f1f0       ?renderquery@@YAXAEAUrenderstate@@PEAUoccludequery@@PEAUvtxarray@@_N@Z 00000001401101f0 f   renderva.obj
 0001:0010f370       ?rendershadowmapreceivers@@YAXXZ 0000000140110370 f   renderva.obj
 0001:0010f800       ?rendermapmodel@@YAXAEAUextentity@@@Z 0000000140110800 f   renderva.obj
 0001:0010f880       ?findvisiblemms@@YAXAEBU?$vector@PEAUextentity@@@@@Z 0000000140110880 f   renderva.obj
 0001:0010fb40       ?clearqueries@@YAXXZ       0000000140110b40 f   renderva.obj
 0001:0010fbe0       ?flipqueries@@YAXXZ        0000000140110be0 f   renderva.obj
 0001:0010fcd0       ?restorevfcP@@YAXXZ        0000000140110cd0 f   renderva.obj
 0001:0010fd30       ?savevfcP@@YAXXZ           0000000140110d30 f   renderva.obj
 0001:0010fd80       ?setvfcP@@YAXMAEBUvec@@0@Z 0000000140110d80 f   renderva.obj
 0001:001102d0       ?calcvfcD@@YAXXZ           00000001401112d0 f   renderva.obj
 0001:001103a0       ?findvisiblevas@@YAXAEAU?$vector@PEAUvtxarray@@@@_N@Z 00000001401113a0 f   renderva.obj
 0001:001104b0       ?sortvisiblevas@@YAXXZ     00000001401114b0 f   renderva.obj
 0001:00110510       ?addvisibleva@@YAXPEAUvtxarray@@@Z 0000000140111510 f   renderva.obj
 0001:001105b0       ?vadist@@YAMPEAUvtxarray@@AEBUvec@@@Z 00000001401115b0 f   renderva.obj
 0001:001105d0       ?isvisiblecube@@YAHAEBUivec@@H@Z 00000001401115d0 f   renderva.obj
 0001:001109a0       ?rendersky@@YA_N_N@Z       00000001401119a0 f   renderva.obj
 0001:00110b60       ?renderdepthobstacles@@YAXAEBUvec@@0MPEAMH@Z 0000000140111b60 f   renderva.obj
 0001:00111440       ?bboccluded@@YA_NAEBUivec@@0@Z 0000000140112440 f   renderva.obj
 0001:00111660       ?newquery@@YAPEAUoccludequery@@PEAX@Z 0000000140112660 f   renderva.obj
 0001:001116f0       ?drawbb@@YAXAEBUivec@@0AEBUvec@@@Z 00000001401126f0 f   renderva.obj
 0001:00111b00       ?checkquery@@YA_NPEAUoccludequery@@_N@Z 0000000140112b00 f   renderva.obj
 0001:00111b70       ?rendergeom@@YAXM_N@Z      0000000140112b70 f   renderva.obj
 0001:00112eb0       ?renderreflectedmapmodels@@YAXXZ 0000000140113eb0 f   renderva.obj
 0001:00113140       ?renderalphageom@@YAX_N@Z  0000000140114140 f   renderva.obj
 0001:00113df0       ?renderreflectedgeom@@YAX_N0@Z 0000000140114df0 f   renderva.obj
 0001:00113e50       ?visiblecubes@@YAX_N@Z     0000000140114e50 f   renderva.obj
 0001:00114000       ?rendermapmodels@@YAXXZ    0000000140115000 f   renderva.obj
 0001:001143c0       ?renderoutline@@YAXXZ      00000001401153c0 f   renderva.obj
 0001:00114760       ?getnumqueries@@YAHXZ      0000000140115760 f   renderva.obj
 0001:00114780       ?loadcaustics@@YAX_N@Z     0000000140115780 f   renderva.obj
 0001:001148a0       ?isfoggedsphere@@YA_NMAEBUvec@@@Z 00000001401158a0 f   renderva.obj
 0001:00114990       ?resetqueries@@YAXXZ       0000000140115990 f   renderva.obj
 0001:001149e0       ?isvisiblesphere@@YAHMAEBUvec@@@Z 00000001401159e0 f   renderva.obj
 0001:00114ab0       ?renderblendbrush@@YAXIMMMM@Z 0000000140115ab0 f   renderva.obj
 0001:00115580       ?reloadshaders@@YAXXZ      0000000140116580 f   shader.obj
 0001:00115880       ?cleanupshaders@@YAXXZ     0000000140116880 f   shader.obj
 0001:00115c40       ?committmufunc@@YAXI_NAEAUtmufunc@@1@Z 0000000140116c40 f   shader.obj
 0001:00115de0       ?parsetmufunc@@YAXAEAUtmu@@AEAUtmufunc@@PEBD@Z 0000000140116de0 f   shader.obj
 0001:00116070       ?run@?$_icmd_setpostfx@$0IAO@@@SAXPEADPEAM111@Z 0000000140117070 f   shader.obj
 0001:00116110       ?run@?$_icmd_addpostfx@$0IAI@@@SAXPEADPEAH10PEAM222@Z 0000000140117110 f   shader.obj
 0001:00116250       ?clearpostfx@@YAXXZ        0000000140117250 f   shader.obj
 0001:001163d0       ?cleanuppostfx@@YAX_N@Z    00000001401173d0 f   shader.obj
 0001:00116650       ?run@?$_icmd_defuniformparam@$0HEO@@@SAXPEADPEAM111@Z 0000000140117650 f   shader.obj
 0001:00116860       ?run@?$_icmd_defpixelparam@$0HEN@@@SAXPEADPEAHPEAM222@Z 0000000140117860 f   shader.obj
 0001:001168c0       ?run@?$_icmd_defvertexparam@$0HEM@@@SAXPEADPEAHPEAM222@Z 00000001401178c0 f   shader.obj
 0001:00116920       ?run@?$_icmd_setshaderparam@$0HEL@@@SAXPEADPEAM111@Z 0000000140117920 f   shader.obj
 0001:00116b30       ?run@?$_icmd_setuniformparam@$0HEK@@@SAXPEADPEAM111@Z 0000000140117b30 f   shader.obj
 0001:00116d40       ?run@?$_icmd_setpixelparam@$0HEJ@@@SAXPEAHPEAM111@Z 0000000140117d40 f   shader.obj
 0001:00116d90       ?run@?$_icmd_setvertexparam@$0HEI@@@SAXPEAHPEAM111@Z 0000000140117d90 f   shader.obj
 0001:00116de0       ?addshaderparam@@YAXPEBDHHMMMM@Z 0000000140117de0 f   shader.obj
 0001:00117000       ?isshadernative@@YAXPEAD@Z 0000000140118000 f   shader.obj
 0001:00117060       ?isshaderdefined@@YAXPEAD@Z 0000000140118060 f   shader.obj
 0001:001170b0       ?run@?$_icmd_forceshader@$0HBE@@@SAXPEBD@Z 00000001401180b0 f   shader.obj
 0001:00117100       ?fastshader@@YAXPEAD0PEAH@Z 0000000140118100 f   shader.obj
 0001:00117250       ?altshader@@YAXPEAD0@Z     0000000140118250 f   shader.obj
 0001:001172b0       ?linkvslotshader@@YAXAEAUVSlot@@_N@Z 00000001401182b0 f   shader.obj
 0001:001174a0       ?linkslotshader@@YAXAEAUSlot@@_N@Z 00000001401184a0 f   shader.obj
 0001:00117610       ?setslotshader@@YAXAEAUSlot@@@Z 0000000140118610 f   shader.obj
 0001:001176f0       ?resetslotshader@@YAXXZ    00000001401186f0 f   shader.obj
 0001:00117720       ?findshaderparam@@YAPEAUShaderParam@@AEAUVSlot@@PEBDHH@Z 0000000140118720 f   shader.obj
 0001:001177b0       ?findshaderparam@@YAPEAUShaderParam@@AEAUSlot@@PEBDHH@Z 00000001401187b0 f   shader.obj
 0001:001178c0       ?setshader@@YAXPEAD@Z      00000001401188c0 f   shader.obj
 0001:00117930       ?variantshader@@YAXPEAHPEAD011@Z 0000000140118930 f   shader.obj
 0001:00117d00       ?shader@@YAXPEAHPEAD11@Z   0000000140118d00 f   shader.obj
 0001:00118150       ?fixdetailshader@Shader@@QEAAX_N0@Z 0000000140119150 f   shader.obj
 0001:00118270       ?var_shaderdetail@@YAXXZ   0000000140119270 f   shader.obj
 0001:00118280       ?var_nativeshaders@@YAXXZ  0000000140119280 f   shader.obj
 0001:00118290       ?fixshaderdetail@@YAXXZ    0000000140119290 f   shader.obj
 0001:00118470       ?useshader@@YAXPEAUShader@@@Z 0000000140119470 f   shader.obj
 0001:00118570       ?defershader@@YAXPEAHPEBD1@Z 0000000140119570 f   shader.obj
 0001:0011b6b0       ?genemufog@@YAXAEAU?$vector@D@@0HH@Z 000000014011c6b0 f   shader.obj
 0001:0011bc60       ?newshader@@YAPEAUShader@@HPEBD00PEAU1@H@Z 000000014011cc60 f   shader.obj
 0001:0011c450       ?cleanup@Shader@@QEAAX_N@Z 000000014011d450 f   shader.obj
 0001:0011c620       ?compile@Shader@@QEAA_NXZ  000000014011d620 f   shader.obj
 0001:0011c870       ?var_forceglsl@@YAXXZ      000000014011d870 f   shader.obj
 0001:0011c8a0       ?var_shaderprecision@@YAXXZ 000000014011d8a0 f   shader.obj
 0001:0011c8d0       ?var_shaders@@YAXXZ        000000014011d8d0 f   shader.obj
 0001:0011d160       ?allocenvparams@Shader@@QEAAXPEAUSlot@@@Z 000000014011e160 f   shader.obj
 0001:0011e630       ?loadshaders@@YAXXZ        000000014011f630 f   shader.obj
 0001:0011e900       ?setslotparams@Shader@@QEAAXAEAUSlot@@AEAUVSlot@@@Z 000000014011f900 f   shader.obj
 0001:0011e930       ?invalidateenvparams@@YAXHHH@Z 000000014011f930 f   shader.obj
 0001:0011e960       ?setlocalparamfv@@YAXPEBDHHPEBM@Z 000000014011f960 f   shader.obj
 0001:0011e9a0       ?scaletmu@@YAXHHH@Z        000000014011f9a0 f   shader.obj
 0001:0011e9e0       ?uniformlocversion@Shader@@SAHXZ 000000014011f9e0 f   shader.obj
 0001:0011ea80       ?inittmus@@YAXXZ           000000014011fa80 f   shader.obj
 0001:0011ebf0       ?renderpostfx@@YAXXZ       000000014011fbf0 f   shader.obj
 0001:0011f6e0       ?setupshaders@@YAXXZ       00000001401206e0 f   shader.obj
 0001:0011f910       ?checkglslsupport@@YA_NXZ  0000000140120910 f   shader.obj
 0001:0011fa50       ?colortmu@@YAXHMMMM@Z      0000000140120a50 f   shader.obj
 0001:0011fae0       ?setupblurkernel@@YAXHMPEAM0@Z 0000000140120ae0 f   shader.obj
 0001:00120090       ?setblurshader@@YAXHHHPEAM0I@Z 0000000140121090 f   shader.obj
 0001:00120770       ?setlocalparamf@@YAXPEBDHHMMMM@Z 0000000140121770 f   shader.obj
 0001:001207d0       ?setenvparamf@@YAXPEBDHHMMMM@Z 00000001401217d0 f   shader.obj
 0001:00120830       ?setuptmu@@YAXHPEBD0@Z     0000000140121830 f   shader.obj
 0001:00120c30       ?resettmu@@YAXH@Z          0000000140121c30 f   shader.obj
 0001:00120cf0       ?useshaderbyname@@YAPEAUShader@@PEBD@Z 0000000140121cf0 f   shader.obj
 0001:00120d40       ?flushenvparams@Shader@@QEAAXPEAUSlot@@@Z 0000000140121d40 f   shader.obj
 0001:00120e90       ?bindprograms@Shader@@QEAAXXZ 0000000140121e90 f   shader.obj
 0001:00120f10       ?getshaderparamname@@YAPEBDPEBD@Z 0000000140121f10 f   shader.obj
 0001:00121040       ?lookupshaderbyname@@YAPEAUShader@@PEBD@Z 0000000140122040 f   shader.obj
 0001:001210d0       ?calcshadowmapbb@@YAXAEBUvec@@MMAEAM111@Z 00000001401220d0 f   shadowmap.obj
 0001:00121ca0       ?cleanshadowmap@@YAXXZ     0000000140122ca0 f   shadowmap.obj
 0001:00121da0       ?var_shadowmapangle@@YAXXZ 0000000140122da0 f   shadowmap.obj
 0001:00121db0       ?setshadowdir@@YAXH@Z      0000000140122db0 f   shadowmap.obj
 0001:00121e80       ?var_shadowmapambient@@YAXXZ 0000000140122e80 f   shadowmap.obj
 0001:00121ed0       ?var_shadowmapprecision@@YAXXZ 0000000140122ed0 f   shadowmap.obj
 0001:00121ee0       ?var_fpshadowmap@@YAXXZ    0000000140122ee0 f   shadowmap.obj
 0001:00121ef0       ?var_shadowmapsize@@YAXXZ  0000000140122ef0 f   shadowmap.obj
 0001:00121f00       ?isshadowmapreceiver@@YA_NPEAUvtxarray@@@Z 0000000140122f00 f   shadowmap.obj
 0001:00122100       ?pushshadowmap@@YAXXZ      0000000140123100 f   shadowmap.obj
 0001:001225d0       ?popshadowmap@@YAXXZ       00000001401235d0 f   shadowmap.obj
 0001:00122630       ?isshadowmapcaster@@YA_NAEBUvec@@M@Z 0000000140123630 f   shadowmap.obj
 0001:00122760       ?addshadowmapcaster@@YA_NAEBUvec@@MM@Z 0000000140123760 f   shadowmap.obj
 0001:00122820       ?rendershadowmap@@YAXXZ    0000000140123820 f   shadowmap.obj
 0001:001228c0       ?viewshadowmap@@YAXXZ      00000001401238c0 f   shadowmap.obj
 0001:001228f0       ?guessshadowdir@@YAXXZ     00000001401238f0 f   shadowmap.obj
 0001:001244c0       ?mergenormalmaps@@YAXPEAD0@Z 00000001401254c0 f   texture.obj
 0001:001249e0       ?flipnormalmapy@@YAXPEAD0@Z 00000001401259e0 f   texture.obj
 0001:00124c60       ?screenshot@@YAXPEAD@Z     0000000140125c60 f   texture.obj
 0001:00124fb0       ?saveimage@@YAXPEBDHAEAUImageData@@_N@Z 0000000140125fb0 f   texture.obj
 0001:00125160       ?guessimageformat@@YAHPEBDH@Z 0000000140126160 f   texture.obj
 0001:00125200       ?savetga@@YAXPEBDAEAUImageData@@_N@Z 0000000140126200 f   texture.obj
 0001:00125550       ?writepngchunk@@YAXPEAUstream@@PEBDPEAEI@Z 0000000140126550 f   texture.obj
 0001:00125670       ?gendds@@YAXPEAD0@Z        0000000140126670 f   texture.obj
 0001:00125c30       ?loaddds@@YA_NPEBDAEAUImageData@@@Z 0000000140126c30 f   texture.obj
 0001:00125e60       ?reloadtextures@@YAXXZ     0000000140126e60 f   texture.obj
 0001:00126020       ?reloadtex@@YAXPEAD@Z      0000000140127020 f   texture.obj
 0001:00126200       ?reloadtexture@@YA_NPEBD@Z 0000000140127200 f   texture.obj
 0001:001262d0       ?cleanuptextures@@YAXXZ    00000001401272d0 f   texture.obj
 0001:001264a0       ?cleanuptexture@@YAXPEAUTexture@@@Z 00000001401274a0 f   texture.obj
 0001:00126510       ?genenvmap@@YAIAEBUvec@@HH@Z 0000000140127510 f   texture.obj
 0001:00126b30       ?clearenvmaps@@YAXXZ       0000000140127b30 f   texture.obj
 0001:00126bc0       ?cubemaploadwildcard@@YAPEAUTexture@@PEAU1@PEBD_N22@Z 0000000140127bc0 f   texture.obj
 0001:00127530       ?var_envmapsize@@YAXXZ     0000000140128530 f   texture.obj
 0001:00127540       ?forcecubemapload@@YAXI@Z  0000000140128540 f   texture.obj
 0001:0012a490       ?texffenv@@YAXPEAH@Z       000000014012b490 f   texture.obj
 0001:0012a4c0       ?texcolor@@YAXPEAM00@Z     000000014012b4c0 f   texture.obj
 0001:0012a560       ?texalpha@@YAXPEAM0@Z      000000014012b560 f   texture.obj
 0001:0012a5e0       ?texlayer@@YAXPEAHPEAD0PEAM@Z 000000014012b5e0 f   texture.obj
 0001:0012a6a0       ?texscale@@YAXPEAM@Z       000000014012b6a0 f   texture.obj
 0001:0012a700       ?texrotate_@@YAXPEAH@Z     000000014012b700 f   texture.obj
 0001:0012a750       ?texoffset_@@YAXPEAH0@Z    000000014012b750 f   texture.obj
 0001:0012a7b0       ?texscroll@@YAXPEAM0@Z     000000014012b7b0 f   texture.obj
 0001:0012a810       ?autograss@@YAXPEAD@Z      000000014012b810 f   texture.obj
 0001:0012a8a0       ?texture@@YAXPEAD0PEAH11PEAM@Z 000000014012b8a0 f   texture.obj
 0001:0012ab40       ?findslottex@@YAHPEBD@Z    000000014012bb40 f   texture.obj
 0001:0012abc0       ?run@?$_icmd_fixinsidefaces@$0GIF@@@SAXPEAH@Z 000000014012bbc0 f   texture.obj
 0001:0012aec0       ?findvslot@@YAPEAUVSlot@@AEAUSlot@@AEBU1@1@Z 000000014012bec0 f   texture.obj
 0001:0012ba80       ?run@?$_icmd_compactvslots@$0FLB@@@SAXXZ 000000014012ca80 f   texture.obj
 0001:0012bb80       ?materialreset@@YAXXZ      000000014012cb80 f   texture.obj
 0001:0012bc60       ?texturereset@@YAXPEAH@Z   000000014012cc60 f   texture.obj
 0001:0012bd70       ?settexture@@YA_NPEBDH@Z   000000014012cd70 f   texture.obj
 0001:0012cbf0       ?loadsurface@@YAPEAUSDL_Surface@@PEBD@Z 000000014012dbf0 f   texture.obj
 0001:0012ccd0       ?canloadsurface@@YA_NPEBD@Z 000000014012dcd0 f   texture.obj
 0001:0012cd30       ?forcergbimage@@YAXAEAUImageData@@@Z 000000014012dd30 f   texture.obj
 0001:0012cf10       ?scaleimage@@YAXAEAUImageData@@HH@Z 000000014012df10 f   texture.obj
 0001:0012d090       ?texblur@@YAXAEAUImageData@@HH@Z 000000014012e090 f   texture.obj
 0001:0012d240       ?texnormal@@YAXAEAUImageData@@H@Z 000000014012e240 f   texture.obj
 0001:0012d550       ?texflip@@YAXAEAUImageData@@@Z 000000014012e550 f   texture.obj
 0001:0012d6f0       ?fixsurfaceformat@@YAPEAUSDL_Surface@@PEAU1@@Z 000000014012e6f0 f   texture.obj
 0001:0012d7f0       ?checkgrayscale@@YA_NPEAUSDL_Surface@@@Z 000000014012e7f0 f   texture.obj
 0001:0012d850       ?creatergbasurface@@YAPEAUSDL_Surface@@PEAU1@@Z 000000014012e850 f   texture.obj
 0001:0012d8e0       ?creatergbsurface@@YAPEAUSDL_Surface@@PEAU1@@Z 000000014012e8e0 f   texture.obj
 0001:0012d960       ?wrapsurface@@YAPEAUSDL_Surface@@PEAXHHH@Z 000000014012e960 f   texture.obj
 0001:0012dfb0       ?createcompressedtexture@@YAXHHHPEAEHHHHHII@Z 000000014012efb0 f   texture.obj
 0001:0012e0a0       ?uncompressedformat@@YAII@Z 000000014012f0a0 f   texture.obj
 0001:0012e0e0       ?textarget@@YAII@Z         000000014012f0e0 f   texture.obj
 0001:0012e100       ?uploadcompressedtexture@@YAXIIIHHPEAEHHH_N@Z 000000014012f100 f   texture.obj
 0001:0012e2a0       ?uploadtexture@@YAXIIHHIIPEAXHHH_N@Z 000000014012f2a0 f   texture.obj
 0001:0012e6f0       ?resizetexture@@YAXHH_N0IHAEAH1@Z 000000014012f6f0 f   texture.obj
 0001:0012e880       ?var_usenp2@@YAXXZ         000000014012f880 f   texture.obj
 0001:0012e8b0       ?var_hwmipmap@@YAXXZ       000000014012f8b0 f   texture.obj
 0001:0012e8e0       ?formatsize@@YAHI@Z        000000014012f8e0 f   texture.obj
 0001:0012e920       ?compressedformat@@YAIIHHH@Z 000000014012f920 f   texture.obj
 0001:0012e9b0       ?var_aniso@@YAXXZ          000000014012f9b0 f   texture.obj
 0001:0012e9e0       ?var_bilinear@@YAXXZ       000000014012f9e0 f   texture.obj
 0001:0012ea10       ?var_trilinear@@YAXXZ      000000014012fa10 f   texture.obj
 0001:0012ea40       ?var_texcompressquality@@YAXXZ 000000014012fa40 f   texture.obj
 0001:0012ea90       ?var_texcompress@@YAXXZ    000000014012fa90 f   texture.obj
 0001:0012eac0       ?var_texreduce@@YAXXZ      000000014012fac0 f   texture.obj
 0001:0012eaf0       ?var_reducefilter@@YAXXZ   000000014012faf0 f   texture.obj
 0001:0012eb20       ?var_maxtexsize@@YAXXZ     000000014012fb20 f   texture.obj
 0001:0012eb50       ?texagrad@@YAXAEAUImageData@@MMMM@Z 000000014012fb50 f   texture.obj
 0001:0012ed10       ?texpremul@@YAXAEAUImageData@@@Z 000000014012fd10 f   texture.obj
 0001:0012ee40       ?texgrey@@YAXAEAUImageData@@@Z 000000014012fe40 f   texture.obj
 0001:0012f070       ?texmix@@YAXAEAUImageData@@HHHH@Z 0000000140130070 f   texture.obj
 0001:0012f290       ?texdecal@@YAXAEAUImageData@@@Z 0000000140130290 f   texture.obj
 0001:0012f470       ?texdup@@YAXAEAUImageData@@HH@Z 0000000140130470 f   texture.obj
 0001:0012f510       ?texffmask@@YAXAEAUImageData@@MM@Z 0000000140130510 f   texture.obj
 0001:0012f7b0       ?texcolormask@@YAXAEAUImageData@@AEBUvec@@1@Z 00000001401307b0 f   texture.obj
 0001:0012fa80       ?texcolorify@@YAXAEAUImageData@@AEBUvec@@U2@@Z 0000000140130a80 f   texture.obj
 0001:0012fbe0       ?texmad@@YAXAEAUImageData@@AEBUvec@@1@Z 0000000140130be0 f   texture.obj
 0001:0012fe20       ?texoffset@@YAXAEAUImageData@@HH@Z 0000000140130e20 f   texture.obj
 0001:00130020       ?texrotate@@YAXAEAUImageData@@HH@Z 0000000140131020 f   texture.obj
 0001:00130070       ?texreorient@@YAXAEAUImageData@@_N11H@Z 0000000140131070 f   texture.obj
 0001:00133040       ?linkslotshaders@@YAXXZ    0000000140134040 f   texture.obj
 0001:00133270       ?reloadtexture@@YA_NAEAUTexture@@@Z 0000000140134270 f   texture.obj
 0001:001333e0       ?cubemapload@@YAPEAUTexture@@PEBD_N11@Z 00000001401343e0 f   texture.obj
 0001:00133580       ?setuptexcompress@@YAXXZ   0000000140134580 f   texture.obj
 0001:001335d0       ?setuptexparameters@@YAXHPEAXHHII@Z 00000001401345d0 f   texture.obj
 0001:00133760       ?genenvmaps@@YAXXZ         0000000140134760 f   texture.obj
 0001:00133860       ?closestenvmap@@YAGAEBUvec@@@Z 0000000140134860 f   texture.obj
 0001:00133910       ?lookupmaterialslot@@YAAEAUMSlot@@H_N@Z 0000000140134910 f   texture.obj
 0001:00133970       ?lookupenvmap@@YAIAEAUSlot@@@Z 0000000140134970 f   texture.obj
 0001:001339e0       ?lookupenvmap@@YAIG@Z      00000001401349e0 f   texture.obj
 0001:00133a30       ?loadalphamask@@YAXPEAUTexture@@@Z 0000000140134a30 f   texture.obj
 0001:00133bb0       ?compactvslots@@YAHXZ      0000000140134bb0 f   texture.obj
 0001:00133f80       ?textureload@@YAPEAUTexture@@PEBDH_N1@Z 0000000140134f80 f   texture.obj
 0001:00134140       ?clearslots@@YAXXZ         0000000140135140 f   texture.obj
 0001:00134250       ?closestenvmap@@YAGHHHHH@Z 0000000140135250 f   texture.obj
 0001:00134300       ?initenvmaps@@YAXXZ        0000000140135300 f   texture.obj
 0001:00134490       ?compactvslot@@YAXAEAH@Z   0000000140135490 f   texture.obj
 0001:001344e0       ?compactvslots@@YAXPEAUcube@@H@Z 00000001401354e0 f   texture.obj
 0001:00134640       ?mergevslot@@YAXAEAUVSlot@@AEBU1@1@Z 0000000140135640 f   texture.obj
 0001:00134780       ?editvslot@@YAPEAUVSlot@@AEBU1@0@Z 0000000140135780 f   texture.obj
 0001:00134820       ?lookupslot@@YAAEAUSlot@@H_N@Z 0000000140135820 f   texture.obj
 0001:00134860       ?loadthumbnail@@YAPEAUTexture@@AEAUSlot@@@Z 0000000140135860 f   texture.obj
 0001:001356f0       ?texalign@@YAHPEAXHH@Z     00000001401366f0 f   texture.obj
 0001:00135720       ?blurtexture@@YAXHHHHPEAEPEBEH@Z 0000000140136720 f   texture.obj
 0001:00135800       ?blurnormals@@YAXHHHPEAUbvec@@PEBU1@H@Z 0000000140136800 f   texture.obj
 0001:00135880       ?lookupvslot@@YAAEAUVSlot@@H_N@Z 0000000140136880 f   texture.obj
 0001:00135910       ?loadlayermasks@@YAXXZ     0000000140136910 f   texture.obj
 0001:001359f0       ?savepng@@YAXPEBDAEAUImageData@@_N@Z 00000001401369f0 f   texture.obj
 0001:00135ea0       ?createtexture@@YAXHHHPEAXHHIIHHH_NI@Z 0000000140136ea0 f   texture.obj
 0001:00136280       ?loadimage@@YA_NPEBDAEAUImageData@@@Z 0000000140137280 f   texture.obj
 0001:00137220       ?maskreflection@@YAXAEAUReflection@@M_N1@Z 0000000140138220 f   water.obj
 0001:00137610       ?queryreflection@@YAXAEAUReflection@@_N@Z 0000000140138610 f   water.obj
 0001:00137c00       ?addreflection@@YAXAEAUmaterialsurface@@@Z 0000000140138c00 f   water.obj
 0001:00137da0       ?addwaterfallrefraction@@YAXAEAUmaterialsurface@@@Z 0000000140138da0 f   water.obj
 0001:00137e50       ?genwatertex@@YAXAEAI00_N@Z 0000000140138e50 f   water.obj
 0001:00138260       ?var_reflectsize@@YAXXZ    0000000140139260 f   water.obj
 0001:00138270       ?cleanreflection@@YAXAEAUReflection@@@Z 0000000140139270 f   water.obj
 0001:001382d0       ?var_waterfade@@YAXXZ      00000001401392d0 f   water.obj
 0001:001382f0       ?renderwaterff@@YAXXZ      00000001401392f0 f   water.obj
 0001:001389f0       ?cleanupwaterTMUs@@YAX_N@Z 00000001401399f0 f   water.obj
 0001:00138a90       ?setupreflectTMUs@@YAXXZ   0000000140139a90 f   water.obj
 0001:00138b50       ?setuprefractTMUs@@YAXXZ   0000000140139b50 f   water.obj
 0001:00138c40       ?setprojtexmatrix@@YAXAEAUReflection@@_N@Z 0000000140139c40 f   water.obj
 0001:00138cb0       ?var_lava4colour@@YAXXZ    0000000140139cb0 f   water.obj
 0001:00138d00       ?var_lava3colour@@YAXXZ    0000000140139d00 f   water.obj
 0001:00138d50       ?var_lava2colour@@YAXXZ    0000000140139d50 f   water.obj
 0001:00138da0       ?var_lavacolour@@YAXXZ     0000000140139da0 f   water.obj
 0001:00138df0       ?getwaterspec@@YAHH@Z      0000000140139df0 f   water.obj
 0001:00138e30       ?var_water4fallcolour@@YAXXZ 0000000140139e30 f   water.obj
 0001:00138e70       ?var_water4colour@@YAXXZ   0000000140139e70 f   water.obj
 0001:00138ec0       ?var_water3fallcolour@@YAXXZ 0000000140139ec0 f   water.obj
 0001:00138f00       ?var_water3colour@@YAXXZ   0000000140139f00 f   water.obj
 0001:00138f50       ?var_water2fallcolour@@YAXXZ 0000000140139f50 f   water.obj
 0001:00138f90       ?var_water2colour@@YAXXZ   0000000140139f90 f   water.obj
 0001:00138fe0       ?var_waterfallcolour@@YAXXZ 0000000140139fe0 f   water.obj
 0001:00139020       ?var_watercolour@@YAXXZ    000000014013a020 f   water.obj
 0001:00139120       ?var_vertwater@@YAXXZ      000000014013a120 f   water.obj
 0001:00139130       ?renderflatwater@@YAXHHHIIH@Z 000000014013a130 f   water.obj
 0001:00139630       ?renderwaterlod@@YAIHHHIH@Z 000000014013a630 f   water.obj
 0001:001398a0       ?calcwatersubdiv@@YAIHHHI@Z 000000014013a8a0 f   water.obj
 0001:00139a00       ?rendervertwater@@YAXIHHHIH@Z 000000014013aa00 f   water.obj
 0001:0013bf80       ?var_waterfallrefract@@YAXXZ 000000014013cf80 f   water.obj
 0001:0013bfa0       ?var_waterenvmap@@YAXXZ    000000014013cfa0 f   water.obj
 0001:0013bfc0       ?var_waterrefract@@YAXXZ   000000014013cfc0 f   water.obj
 0001:0013bfe0       ?var_waterreflect@@YAXXZ   000000014013cfe0 f   water.obj
 0001:0013c000       ?getlavacolor@@YAAEBUbvec@@H@Z 000000014013d000 f   water.obj
 0001:0013c040       ?getlavafog@@YAHH@Z        000000014013d040 f   water.obj
 0001:0013c080       ?renderwater@@YAXXZ        000000014013d080 f   water.obj
 0001:0013d6d0       ?queryreflections@@YAXXZ   000000014013e6d0 f   water.obj
 0001:0013dbc0       ?drawreflections@@YAXXZ    000000014013ebc0 f   water.obj
 0001:0013e660       ?preloadwatershaders@@YAX_N@Z 000000014013f660 f   water.obj
 0001:0013e8d0       ?getwatercolor@@YAAEBUbvec@@H@Z 000000014013f8d0 f   water.obj
 0001:0013e910       ?getwaterfallcolor@@YAAEBUbvec@@H@Z 000000014013f910 f   water.obj
 0001:0013e950       ?getwaterfog@@YAHH@Z       000000014013f950 f   water.obj
 0001:0013e990       ?renderlava@@YAXAEBUmaterialsurface@@PEAUTexture@@M@Z 000000014013f990 f   water.obj
 0001:0013ea00       ?setupwaterfallrefract@@YAXII@Z 000000014013fa00 f   water.obj
 0001:0013ead0       ?cleanreflections@@YAXXZ   000000014013fad0 f   water.obj
 0001:0013fa90       ?clearsleep_@@YAXPEAH@Z    0000000140140a90 f   command.obj
 0001:0013fac0       ?checksleep@@YAXH@Z        0000000140140ac0 f   command.obj
 0001:0013fc00       ?addsleep@@YAXPEAHPEAD@Z   0000000140140c00 f   command.obj
 0001:0013fca0       ?run@?$_stdcmd@$0LGE@@@SAXPEAH@Z 0000000140140ca0 f   command.obj
 0001:0013fcd0       ?run@?$_stdcmd@$0LGB@@@SAXPEAD00@Z 0000000140140cd0 f   command.obj
 0001:0013fd00       ?strreplace@@YAPEADPEBD00@Z 0000000140140d00 f   command.obj
 0001:00140060       ?run@?$_stdcmd@$0LEH@@@SAXPEAD@Z 0000000140141060 f   command.obj
 0001:00140090       ?run@?$_stdcmd@$0LEG@@@SAXPEAD0@Z 0000000140141090 f   command.obj
 0001:001400e0       ?run@?$_stdcmd@$0LEF@@@SAXPEAD@Z 00000001401410e0 f   command.obj
 0001:00140100       ?run@?$_stdcmd@$0LEE@@@SAXPEAD@Z 0000000140141100 f   command.obj
 0001:00140120       ?run@?$_stdcmd@$0LED@@@SAXPEAD0@Z 0000000140141120 f   command.obj
 0001:00140160       ?run@?$_stdcmd@$0LEC@@@SAXPEAD0@Z 0000000140141160 f   command.obj
 0001:001401a0       ?run@?$_stdcmd@$0LEB@@@SAXPEAD0@Z 00000001401411a0 f   command.obj
 0001:001401e0       ?run@?$_stdcmd@$0LEA@@@SAXPEAD0@Z 00000001401411e0 f   command.obj
 0001:00140220       ?run@?$_stdcmd@$0LDP@@@SAXPEAD0@Z 0000000140141220 f   command.obj
 0001:00140260       ?run@?$_stdcmd@$0LDO@@@SAXPEAD0@Z 0000000140141260 f   command.obj
 0001:001402a0       ?run@?$_stdcmd@$0LDN@@@SAXPEAD0@Z 00000001401412a0 f   command.obj
 0001:001402e0       ?run@?$_stdcmd@$0LDM@@@SAXPEAH0@Z 00000001401412e0 f   command.obj
 0001:00140350       ?run@?$_stdcmd@$0LDK@@@SAXPEAUtagval@@H@Z 0000000140141350 f   command.obj
 0001:00140460       ?run@?$_stdcmd@$0LDJ@@@SAXPEAUtagval@@H@Z 0000000140141460 f   command.obj
 0001:00140510       ?run@?$_stdcmd@$0LDI@@@SAXPEAUtagval@@H@Z 0000000140141510 f   command.obj
 0001:00140600       ?run@?$_stdcmd@$0LCJ@@@SAXPEAUtagval@@H@Z 0000000140141600 f   command.obj
 0001:00140740       ?run@?$_stdcmd@$0LBF@@@SAXPEAM@Z 0000000140141740 f   command.obj
 0001:00140770       ?run@?$_stdcmd@$0LBE@@@SAXPEAH@Z 0000000140141770 f   command.obj
 0001:00140790       ?run@?$_stdcmd@$0LBD@@@SAXPEAUtagval@@H@Z 0000000140141790 f   command.obj
 0001:00140820       ?run@?$_stdcmd@$0LAN@@@SAXPEAUtagval@@H@Z 0000000140141820 f   command.obj
 0001:001408b0       ?run@?$_stdcmd@$0LAH@@@SAXPEAUtagval@@H@Z 00000001401418b0 f   command.obj
 0001:00140980       ?run@?$_stdcmd@$0LAB@@@SAXPEAUtagval@@H@Z 0000000140141980 f   command.obj
 0001:00140a50       ?run@?$_stdcmd@$0KPL@@@SAXPEAM@Z 0000000140141a50 f   command.obj
 0001:00140a80       ?run@?$_stdcmd@$0KPK@@@SAXPEAM@Z 0000000140141a80 f   command.obj
 0001:00140ab0       ?run@?$_stdcmd@$0KPJ@@@SAXPEAM@Z 0000000140141ab0 f   command.obj
 0001:00140af0       ?run@?$_stdcmd@$0KPI@@@SAXPEAM@Z 0000000140141af0 f   command.obj
 0001:00140b20       ?run@?$_stdcmd@$0KPH@@@SAXPEAM0@Z 0000000140141b20 f   command.obj
 0001:00140b50       ?run@?$_stdcmd@$0KPG@@@SAXPEAM@Z 0000000140141b50 f   command.obj
 0001:00140b70       ?run@?$_stdcmd@$0KPF@@@SAXPEAM@Z 0000000140141b70 f   command.obj
 0001:00140bb0       ?run@?$_stdcmd@$0KPE@@@SAXPEAM@Z 0000000140141bb0 f   command.obj
 0001:00140bf0       ?run@?$_stdcmd@$0KPD@@@SAXPEAM@Z 0000000140141bf0 f   command.obj
 0001:00140c30       ?run@?$_stdcmd@$0KPC@@@SAXPEAM@Z 0000000140141c30 f   command.obj
 0001:00140c70       ?run@?$_stdcmd@$0KPB@@@SAXPEAM@Z 0000000140141c70 f   command.obj
 0001:00140cb0       ?run@?$_stdcmd@$0KPA@@@SAXPEAM@Z 0000000140141cb0 f   command.obj
 0001:00140cf0       ?run@?$_stdcmd@$0KOP@@@SAXPEAM0@Z 0000000140141cf0 f   command.obj
 0001:00140d30       ?run@?$_stdcmd@$0KOO@@@SAXPEAM0@Z 0000000140141d30 f   command.obj
 0001:00140d60       ?run@?$_stdcmd@$0KON@@@SAXPEAH0@Z 0000000140141d60 f   command.obj
 0001:00140da0       ?run@?$_stdcmd@$0KOM@@@SAXPEAH0@Z 0000000140141da0 f   command.obj
 0001:00140de0       ?run@?$_stdcmd@$0KOK@@@SAXPEAUtagval@@H@Z 0000000140141de0 f   command.obj
 0001:00140ee0       ?run@?$_stdcmd@$0KOA@@@SAXPEAUtagval@@H@Z 0000000140141ee0 f   command.obj
 0001:00140fe0       ?run@?$_stdcmd@$0KNG@@@SAXPEAH0@Z 0000000140141fe0 f   command.obj
 0001:00141000       ?run@?$_stdcmd@$0KNF@@@SAXPEAH0@Z 0000000140142000 f   command.obj
 0001:00141020       ?run@?$_stdcmd@$0KNE@@@SAXPEAH0@Z 0000000140142020 f   command.obj
 0001:00141050       ?run@?$_stdcmd@$0KND@@@SAXPEAH0@Z 0000000140142050 f   command.obj
 0001:00141080       ?run@?$_stdcmd@$0KNC@@@SAXPEAH0@Z 0000000140142080 f   command.obj
 0001:001410b0       ?run@?$_stdcmd@$0KNB@@@SAXPEAH@Z 00000001401420b0 f   command.obj
 0001:001410d0       ?run@?$_stdcmd@$0KNA@@@SAXPEAH0@Z 00000001401420d0 f   command.obj
 0001:001410f0       ?run@?$_stdcmd@$0KMP@@@SAXPEAH0@Z 00000001401420f0 f   command.obj
 0001:00141110       ?run@?$_stdcmd@$0KMO@@@SAXPEAUtagval@@@Z 0000000140142110 f   command.obj
 0001:00141170       ?run@?$_stdcmd@$0KMN@@@SAXPEAH0@Z 0000000140142170 f   command.obj
 0001:00141190       ?run@?$_stdcmd@$0KMM@@@SAXPEAM0@Z 0000000140142190 f   command.obj
 0001:001411c0       ?run@?$_stdcmd@$0KML@@@SAXPEAM0@Z 00000001401421c0 f   command.obj
 0001:001411f0       ?run@?$_stdcmd@$0KMK@@@SAXPEAM0@Z 00000001401421f0 f   command.obj
 0001:00141220       ?run@?$_stdcmd@$0KMJ@@@SAXPEAM0@Z 0000000140142220 f   command.obj
 0001:00141250       ?run@?$_stdcmd@$0KMI@@@SAXPEAM0@Z 0000000140142250 f   command.obj
 0001:00141280       ?run@?$_stdcmd@$0KMH@@@SAXPEAM0@Z 0000000140142280 f   command.obj
 0001:001412b0       ?run@?$_stdcmd@$0KMG@@@SAXPEAH0@Z 00000001401422b0 f   command.obj
 0001:001412e0       ?run@?$_stdcmd@$0KMF@@@SAXPEAH0@Z 00000001401422e0 f   command.obj
 0001:00141310       ?run@?$_stdcmd@$0KME@@@SAXPEAH0@Z 0000000140142310 f   command.obj
 0001:00141340       ?run@?$_stdcmd@$0KMD@@@SAXPEAH0@Z 0000000140142340 f   command.obj
 0001:00141370       ?run@?$_stdcmd@$0KMC@@@SAXPEAH0@Z 0000000140142370 f   command.obj
 0001:001413a0       ?run@?$_stdcmd@$0KMB@@@SAXPEAH0@Z 00000001401423a0 f   command.obj
 0001:001413d0       ?run@?$_stdcmd@$0KMA@@@SAXPEAM0@Z 00000001401423d0 f   command.obj
 0001:00141400       ?run@?$_stdcmd@$0KLP@@@SAXPEAM0@Z 0000000140142400 f   command.obj
 0001:00141430       ?run@?$_stdcmd@$0KLO@@@SAXPEAM0@Z 0000000140142430 f   command.obj
 0001:00141460       ?run@?$_stdcmd@$0KLN@@@SAXPEAH0@Z 0000000140142460 f   command.obj
 0001:00141480       ?run@?$_stdcmd@$0KLM@@@SAXPEAH0@Z 0000000140142480 f   command.obj
 0001:001414a0       ?run@?$_stdcmd@$0KLL@@@SAXPEAH0@Z 00000001401424a0 f   command.obj
 0001:001414c0       ?sortlist@@YAXPEADPEAUident@@1PEAI@Z 00000001401424c0 f   command.obj
 0001:001418a0       ?run@?$_stdcmd@$0KHC@@@SAXPEAUident@@PEAD1PEAI@Z 00000001401428a0 f   command.obj
 0001:00141a50       ?run@?$_stdcmd@$0KFF@@@SAXPEAUident@@PEADPEAI@Z 0000000140142a50 f   command.obj
 0001:00141a60       ?run@?$_stdcmd@$0KFE@@@SAXPEAUident@@PEADPEAI@Z 0000000140142a60 f   command.obj
 0001:00141a70       ?run@?$_stdcmd@$0KFD@@@SAXPEAD0@Z 0000000140142a70 f   command.obj
 0001:00141ab0       ?run@?$_stdcmd@$0KFC@@@SAXPEAD0@Z 0000000140142ab0 f   command.obj
 0001:00141ae0       ?listsplice@@YAXPEBD0PEAH11@Z 0000000140142ae0 f   command.obj
 0001:00142000       ?listdel@@YAPEADPEBD0@Z    0000000140143000 f   command.obj
 0001:001422c0       ?listincludes@@YAHPEBD0H@Z 00000001401432c0 f   command.obj
 0001:00142690       ?prettylist@@YAXPEBD0@Z    0000000140143690 f   command.obj
 0001:00142b70       ?looplist@@YAXPEAUident@@PEBDPEBI_N@Z 0000000140143b70 f   command.obj
 0001:00142dc0       ?run@?$_stdcmd@$0JOH@@@SAXPEAD@Z 0000000140143dc0 f   command.obj
 0001:00142e10       ?run@?$_stdcmd@$0JOG@@@SAXPEAD@Z 0000000140143e10 f   command.obj
 0001:00142e60       ?run@?$_stdcmd@$0JOF@@@SAXPEAD@Z 0000000140143e60 f   command.obj
 0001:00142ec0       ?run@?$_stdcmd@$0JOE@@@SAXPEAD@Z 0000000140143ec0 f   command.obj
 0001:00142f20       ?run@?$_stdcmd@$0JOC@@@SAXPEAD@Z 0000000140143f20 f   command.obj
 0001:00142f50       ?run@?$_stdcmd@$0JNP@@@SAXPEAD@Z 0000000140143f50 f   command.obj
 0001:00142ff0       ?run@?$_stdcmd@$0JNI@@@SAXPEAD@Z 0000000140143ff0 f   command.obj
 0001:001430b0       ?run@?$_stdcmd@$0JNB@@@SAXPEAD@Z 00000001401440b0 f   command.obj
 0001:001430e0       ?run@?$_stdcmd@$0JML@@@SAXPEAUtagval@@@Z 00000001401440e0 f   command.obj
 0001:00143110       ?run@?$_stdcmd@$0JMG@@@SAXPEAD@Z 0000000140144110 f   command.obj
 0001:00143120       ?getalias_@@YAXPEAD@Z      0000000140144120 f   command.obj
 0001:00143150       ?sublist@@YAXPEBDPEAH11@Z  0000000140144150 f   command.obj
 0001:00143350       ?substr@@YAXPEADPEAH11@Z   0000000140144350 f   command.obj
 0001:00143400       ?at@@YAXPEAUtagval@@H@Z    0000000140144400 f   command.obj
 0001:001435b0       ?listlen@@YAHPEBD@Z        00000001401445b0 f   command.obj
 0001:00143960       ?indexlist@@YAPEADPEBDH@Z  0000000140144960 f   command.obj
 0001:00143e20       ?format@@YAXPEAUtagval@@H@Z 0000000140144e20 f   command.obj
 0001:001441e0       ?result@@YAXAEAUtagval@@@Z 00000001401451e0 f   command.obj
 0001:00144210       ?concatword@@YAXPEAUtagval@@H@Z 0000000140145210 f   command.obj
 0001:00144240       ?concat@@YAXPEAUtagval@@H@Z 0000000140145240 f   command.obj
 0001:00144270       ?run@?$_stdcmd@$0JCL@@@SAXPEAUident@@PEAHPEAI@Z 0000000140145270 f   command.obj
 0001:001442b0       ?run@?$_stdcmd@$0JCG@@@SAXPEAUident@@PEAHPEAI@Z 00000001401452b0 f   command.obj
 0001:001442f0       ?loopconc@@YAPEADPEAUident@@HPEAI_N@Z 00000001401452f0 f   command.obj
 0001:00144670       ?run@?$_stdcmd@$0JAN@@@SAXPEAI0@Z 0000000140145670 f   command.obj
 0001:001446c0       ?run@?$_stdcmd@$0JAM@@@SAXPEAUident@@PEAHPEAI2@Z 00000001401456c0 f   command.obj
 0001:00144760       ?run@?$_stdcmd@$0JAA@@@SAXPEAUident@@PEAHPEAI@Z 0000000140145760 f   command.obj
 0001:001448c0       ?run@?$_stdcmd@$0IOA@@@SAXPEAUtagval@@00@Z 00000001401458c0 f   command.obj
 0001:00144940       ?run@?$_stdcmd@$0INP@@@SAXPEAUtagval@@PEAI1@Z 0000000140145940 f   command.obj
 0001:001449b0       ?run@?$_stdcmd@$0INO@@@SAXPEAI@Z 00000001401459b0 f   command.obj
 0001:001449d0       ?writecfg@@YAXPEBD@Z       00000001401459d0 f   command.obj
 0001:00145010       ?validateblock@@YA_NPEBD@Z 0000000140146010 f   command.obj
 0001:001452b0       ?executeret@@YAXPEBDAEAUtagval@@@Z 00000001401462b0 f   command.obj
 0001:00145510       ?executeret@@YAXPEBIAEAUtagval@@@Z 0000000140146510 f   command.obj
 0001:00149610       ?printvar@@YAXPEAUident@@@Z 000000014014a610 f   command.obj
 0001:001496b0       ?printsvar@@YAXPEAUident@@PEBD@Z 000000014014a6b0 f   command.obj
 0001:00149700       ?printfvar@@YAXPEAUident@@M@Z 000000014014a700 f   command.obj
 0001:00149730       ?printvar@@YAXPEAUident@@H@Z 000000014014a730 f   command.obj
 0001:001497c0       ?freecode@@YAXPEAI@Z       000000014014a7c0 f   command.obj
 0001:00149840       ?compilecode@@YAPEAIPEBD@Z 000000014014a840 f   command.obj
 0001:0014cef0       ?conc@@YAPEADPEAUtagval@@H_NPEBD@Z 000000014014def0 f   command.obj
 0001:0014d310       ?unescapestring@@YAHPEADPEBD1@Z 000000014014e310 f   command.obj
 0001:0014d370       ?parsestring@@YAPEBDPEBD@Z 000000014014e370 f   command.obj
 0001:0014d3c0       ?addkeyword@@YA_NHPEBD@Z   000000014014e3c0 f   command.obj
 0001:0014d410       ?setsvarchecked@@YAXPEAUident@@PEBD@Z 000000014014e410 f   command.obj
 0001:0014d4f0       ?setfvarchecked@@YAXPEAUident@@M@Z 000000014014e4f0 f   command.obj
 0001:0014d5b0       ?clampfvar@@YAMPEAUident@@MMM@Z 000000014014e5b0 f   command.obj
 0001:0014d640       ?setvarchecked@@YAXPEAUident@@H@Z 000000014014e640 f   command.obj
 0001:0014d700       ?clampvar@@YAHPEAUident@@HHH@Z 000000014014e700 f   command.obj
 0001:0014d780       ?getalias@@YAPEBDPEBD@Z    000000014014e780 f   command.obj
 0001:0014d810       ?getfvarmax@@YAMPEBD@Z     000000014014e810 f   command.obj
 0001:0014d850       ?getfvarmin@@YAMPEBD@Z     000000014014e850 f   command.obj
 0001:0014d890       ?getvarmax@@YAHPEBD@Z      000000014014e890 f   command.obj
 0001:0014d8d0       ?getvarmin@@YAHPEBD@Z      000000014014e8d0 f   command.obj
 0001:0014d910       ?run@?$_icmd_alias@$0BNN@@@SAXPEBDPEAUtagval@@@Z 000000014014e910 f   command.obj
 0001:0014d940       ?alias@@YAXPEBD0@Z         000000014014e940 f   command.obj
 0001:0014dc40       ?resetvar@@YAXPEAD@Z       000000014014ec40 f   command.obj
 0001:0014dc90       ?readident@@YAPEAUident@@PEBD@Z 000000014014ec90 f   command.obj
 0001:0014dcd0       ?writeident@@YAPEAUident@@PEBDH@Z 000000014014ecd0 f   command.obj
 0001:0014dda0       ?newident@@YAPEAUident@@PEBDH@Z 000000014014eda0 f   command.obj
 0001:0014df70       ?run@?$_icmd_push@$0BFD@@@SAXPEAUident@@PEAUtagval@@PEAI@Z 000000014014ef70 f   command.obj
 0001:0014e120       ?run@?$_icmd_nodebug@$0BCP@@@SAXPEAI@Z 000000014014f120 f   command.obj
 0001:0014e7b0       ?clearoverride@@YAXAEAUident@@@Z 000000014014f7b0 f   command.obj
 0001:0014e860       ?clear_command@@YAXXZ      000000014014f860 f   command.obj
 0001:0014ed40       ?stringret@@YAXPEAD@Z      000000014014fd40 f   command.obj
 0001:0014ed60       ?explodelist@@YAXPEBDAEAU?$vector@PEAD@@H@Z 000000014014fd60 f   command.obj
 0001:0014ee40       ?floatret@@YAXM@Z          000000014014fe40 f   command.obj
 0001:0014ee60       ?floatstr@@YAPEBDM@Z       000000014014fe60 f   command.obj
 0001:0014ef00       ?executestr@@YAPEADPEBD@Z  000000014014ff00 f   command.obj
 0001:0014ef20       ?identexists@@YA_NPEBD@Z   000000014014ff20 f   command.obj
 0001:0014ef50       ?intstr@@YAPEBDH@Z         000000014014ff50 f   command.obj
 0001:0014efd0       ?escapestring@@YAPEBDPEBD@Z 000000014014ffd0 f   command.obj
 0001:0014f1e0       ?escapeid@@YAPEBDPEBD@Z    00000001401501e0 f   command.obj
 0001:0014f220       ?setsvar@@YAXPEBD0_N@Z     0000000140150220 f   command.obj
 0001:0014f2f0       ?getident@@YAPEAUident@@PEBD@Z 00000001401502f0 f   command.obj
 0001:0014f310       ?setfvar@@YAXPEBDM_N1@Z    0000000140150310 f   command.obj
 0001:0014f3e0       ?svariable@@YAPEADPEBD0PEAPEADP6AXXZH@Z 00000001401503e0 f   command.obj
 0001:0014f430       ?executebool@@YA_NPEBI@Z   0000000140150430 f   command.obj
 0001:0014f4f0       ?execute@@YAHPEBI@Z        00000001401504f0 f   command.obj
 0001:0014f590       ?clearoverrides@@YAXXZ     0000000140150590 f   command.obj
 0001:0014f720       ?clearsleep@@YAX_N@Z       0000000140150720 f   command.obj
 0001:0014f7e0       ?setvar@@YAXPEBDH_N1@Z     00000001401507e0 f   command.obj
 0001:0014f8b0       ?execute@@YAHPEBD@Z        00000001401508b0 f   command.obj
 0001:0014fb70       ?fvariable@@YAMPEBDMMMPEAMP6AXXZH@Z 0000000140150b70 f   command.obj
 0001:0014fbf0       ?execfile@@YA_NPEBD_N@Z    0000000140150bf0 f   command.obj
 0001:0014fcc0       ?variable@@YAHPEBDHHHPEAHP6AXXZH@Z 0000000140150cc0 f   command.obj
 0001:0014fd30       ?result@@YAXPEBD@Z         0000000140150d30 f   command.obj
 0001:0014fd60       ?intret@@YAXH@Z            0000000140150d60 f   command.obj
 0001:0014fd80       ?addcommand@@YA_NPEBDP6AXXZ0@Z 0000000140150d80 f   command.obj
 0001:00150800       ?complete@@YAXPEADPEBD@Z   0000000140151800 f   console.obj
 0001:00150bc0       ?addlistcomplete@@YAXPEAD0@Z 0000000140151bc0 f   console.obj
 0001:00150be0       ?addfilecomplete@@YAXPEAD00@Z 0000000140151be0 f   console.obj
 0001:00150c00       ?addcomplete@@YAXPEADH00@Z 0000000140151c00 f   console.obj
 0001:00150f30       ?resetcomplete@@YAXXZ      0000000140151f30 f   console.obj
 0001:00151030       ?clear_console@@YAXXZ      0000000140152030 f   console.obj
 0001:00151040       ?keypress@@YAXH_NH@Z       0000000140152040 f   console.obj
 0001:00151100       ?consolekey@@YAXH_NH@Z     0000000140152100 f   console.obj
 0001:001517d0       ?execbind@@YAXAEAUkeym@@_N@Z 00000001401527d0 f   console.obj
 0001:00151950       ?onrelease@@YAXPEBD@Z      0000000140152950 f   console.obj
 0001:00151970       ?history_@@YAXPEAH@Z       0000000140152970 f   console.obj
 0001:001519c0       ?pasteconsole@@YAXXZ       00000001401529c0 f   console.obj
 0001:00151b30       ?run@?$_icmd_saycommand@$0BBE@@@SAXPEAD@Z 0000000140152b30 f   console.obj
 0001:00151c10       ?inputcommand@@YAXPEAD000@Z 0000000140152c10 f   console.obj
 0001:00151d90       ?run@?$_icmd_searcheditbinds@$0PN@@@SAXPEAD@Z 0000000140152d90 f   console.obj
 0001:00151da0       ?run@?$_icmd_searchspecbinds@$0PM@@@SAXPEAD@Z 0000000140152da0 f   console.obj
 0001:00151db0       ?run@?$_icmd_searchbinds@$0PL@@@SAXPEAD@Z 0000000140152db0 f   console.obj
 0001:00151dc0       ?run@?$_icmd_geteditbind@$0PK@@@SAXPEAD@Z 0000000140152dc0 f   console.obj
 0001:00151e00       ?run@?$_icmd_getspecbind@$0PJ@@@SAXPEAD@Z 0000000140152e00 f   console.obj
 0001:00151e40       ?run@?$_icmd_getbind@$0PI@@@SAXPEAD@Z 0000000140152e40 f   console.obj
 0001:00151e80       ?run@?$_icmd_editbind@$0PH@@@SAXPEAD0@Z 0000000140152e80 f   console.obj
 0001:00151ec0       ?run@?$_icmd_specbind@$0PG@@@SAXPEAD0@Z 0000000140152ec0 f   console.obj
 0001:00151f00       ?run@?$_icmd_bind@$0PF@@@SAXPEAD0@Z 0000000140152f00 f   console.obj
 0001:00151f40       ?bindkey@@YAXPEAD0HPEBD@Z  0000000140152f40 f   console.obj
 0001:00152050       ?getbind@@YAXPEADH@Z       0000000140153050 f   console.obj
 0001:001520a0       ?findbind@@YAPEAUkeym@@PEAD@Z 00000001401530a0 f   console.obj
 0001:00152140       ?searchbinds@@YAXPEADH@Z   0000000140153140 f   console.obj
 0001:001524c0       ?keymap@@YAXPEAHPEAD@Z     00000001401534c0 f   console.obj
 0001:00152580       ?drawconlines@@YAHHHHHHHHH@Z 0000000140153580 f   console.obj
 0001:00152840       ?run@?$_icmd_clearconsole@$0GD@@@SAXXZ 0000000140153840 f   console.obj
 0001:00152890       ?run@?$_icmd_miniconskip@$0GB@@@SAXPEAH@Z 0000000140153890 f   console.obj
 0001:001528b0       ?run@?$_icmd_conskip@$0GA@@@SAXPEAH@Z 00000001401538b0 f   console.obj
 0001:001528e0       ?setconskip@@YAXAEAHHH@Z   00000001401538e0 f   console.obj
 0001:00152980       ?run@?$_icmd_toggleconsole@$0DG@@@SAXXZ 0000000140153980 f   console.obj
 0001:00152990       ?conline@@YAXHPEBD@Z       0000000140153990 f   console.obj
 0001:00152af0       ?var_maxcon@@YAXXZ         0000000140153af0 f   console.obj
 0001:00152b50       ?conoutfv@@YAXHPEBDPEAD@Z  0000000140153b50 f   console.obj
 0001:00152c00       ?addreleaseaction@@YAPEBDPEAD@Z 0000000140153c00 f   console.obj
 0001:00152c70       ?writebinds@@YAXPEAUstream@@@Z 0000000140153c70 f   console.obj
 0001:00152ee0       ?writecompletions@@YAXPEAUstream@@@Z 0000000140153ee0 f   console.obj
 0001:00153300       ?rendercommand@@YAHHHH@Z   0000000140154300 f   console.obj
 0001:00153480       ?renderconsole@@YAHHHH@Z   0000000140154480 f   console.obj
 0001:00153640       ?getkeyname@@YAPEBDH@Z     0000000140154640 f   console.obj
 0001:00153690       ?conoutf@@YAXPEBDZZ        0000000140154690 f   console.obj
 0001:001536d0       ?conoutf@@YAXHPEBDZZ       00000001401546d0 f   console.obj
 0001:001538d0       ?getclockmillis@@YAHXZ     00000001401548d0 f   main.obj
 0001:00153930       ?var_clockfix@@YAXXZ       0000000140154930 f   main.obj
 0001:00153960       ?var_clockerror@@YAXXZ     0000000140154960 f   main.obj
 0001:00153a30       ?getfps_@@YAXPEAH@Z        0000000140154a30 f   main.obj
 0001:00153ad0       ?updatefpshistory@@YAXH@Z  0000000140154ad0 f   main.obj
 0001:00153b10       ?resetfpshistory@@YAXXZ    0000000140154b10 f   main.obj
 0001:00153b80       ?stackdumper@@YAXIPEAU_EXCEPTION_POINTERS@@@Z 0000000140154b80 f   main.obj
 0001:00153e60       ?limitfps@@YAXAEAHH@Z      0000000140154e60 f   main.obj
 0001:00153f20       ?swapbuffers@@YAXXZ        0000000140154f20 f   main.obj
 0001:00153f50       ?checkinput@@YAXXZ         0000000140154f50 f   main.obj
 0001:00154390       ?pushevent@@YAXAEBTSDL_Event@@@Z 0000000140155390 f   main.obj
 0001:001543a0       ?resetgl@@YAXXZ            00000001401553a0 f   main.obj
 0001:00154570       ?setupscreen@@YAXAEAH00@Z  0000000140155570 f   main.obj
 0001:00154cc0       ?cleargamma@@YAXXZ         0000000140155cc0 f   main.obj
 0001:00154cf0       ?restoregamma@@YAXXZ       0000000140155cf0 f   main.obj
 0001:00154d50       ?var_gamma@@YAXXZ          0000000140155d50 f   main.obj
 0001:00154dc0       ?screenres@@YAXPEAH0@Z     0000000140155dc0 f   main.obj
 0001:00154e20       ?var_fullscreen@@YAXXZ     0000000140155e20 f   main.obj
 0001:00154e60       ?setfullscreen@@YAX_N@Z    0000000140155e60 f   main.obj
 0001:00154ea0       ?inputgrab@@YAX_N@Z        0000000140155ea0 f   main.obj
 0001:00154ee0       ?restorebackground@@YAXXZ  0000000140155ee0 f   main.obj
 0001:00155020       ?var_vsync@@YAXXZ          0000000140156020 f   main.obj
 0001:00155050       ?var_fsaa@@YAXXZ           0000000140156050 f   main.obj
 0001:00155080       ?var_stencilbits@@YAXXZ    0000000140156080 f   main.obj
 0001:001550b0       ?var_depthbits@@YAXXZ      00000001401560b0 f   main.obj
 0001:001550e0       ?var_colorbits@@YAXXZ      00000001401560e0 f   main.obj
 0001:00155110       ?var_scr_h@@YAXXZ          0000000140156110 f   main.obj
 0001:00155140       ?var_scr_w@@YAXXZ          0000000140156140 f   main.obj
 0001:00155170       ?quit@@YAXXZ               0000000140156170 f   main.obj
 0001:001551f0       ?cleanup@@YAXXZ            00000001401561f0 f   main.obj
 0001:001552d0       ?writeinitcfg@@YAXXZ       00000001401562d0 f   main.obj
 0001:00155470       ?initwarning@@YA_NPEBDHH@Z 0000000140156470 f   main.obj
 0001:001554a0       ?getfps@@YAXAEAH00@Z       00000001401564a0 f   main.obj
 0001:00155530       SDL_main                   0000000140156530 f   main.obj
 0001:001560b0       ?keyrepeat@@YAX_N@Z        00000001401570b0 f   main.obj
 0001:001560d0       ?interceptkey@@YA_NH@Z     00000001401570d0 f   main.obj
 0001:00156210       ?renderprogress@@YAXMPEBDI_N@Z 0000000140157210 f   main.obj
 0001:00156bf0       ?renderbackground@@YAXPEBDPEAUTexture@@00_N2@Z 0000000140157bf0 f   main.obj
 0001:00157e90       ?fatal@@YAXPEBDZZ          0000000140158e90 f   main.obj
 0001:001581f0       ?guimodelpreview@@YAXPEAD00PEAMPEAH@Z 00000001401591f0 f   menus.obj
 0001:00158430       ?guiplayerpreview@@YAXPEAH00PEADPEAM0@Z 0000000140159430 f   menus.obj
 0001:001584d0       ?run@?$_icmd_cleargui@$0CDL@@@SAXPEAH@Z 00000001401594d0 f   menus.obj
 0001:00158500       ?guiservers@@YAXPEAIPEAH1@Z 0000000140159500 f   menus.obj
 0001:001585b0       ?newgui@@YAXPEAD000@Z      00000001401595b0 f   menus.obj
 0001:001586d0       ?guialign@@YAXPEAHPEAI@Z   00000001401596d0 f   menus.obj
 0001:00158750       ?guilist@@YAXPEAI@Z        0000000140159750 f   menus.obj
 0001:001587a0       ?guikeyfield@@YAXPEADPEAH0@Z 00000001401597a0 f   menus.obj
 0001:00158830       ?guieditor@@YAXPEADPEAH11@Z 0000000140159830 f   menus.obj
 0001:001588a0       ?guifield@@YAXPEADPEAH0@Z  00000001401598a0 f   menus.obj
 0001:00158930       ?guibitfield@@YAXPEAD0PEAH0@Z 0000000140159930 f   menus.obj
 0001:001589e0       ?guiradio@@YAXPEAD0PEAM0@Z 00000001401599e0 f   menus.obj
 0001:00158a80       ?guicheckbox@@YAXPEAD0PEAM10@Z 0000000140159a80 f   menus.obj
 0001:00158b40       ?guinameslider@@YAXPEAD000@Z 0000000140159b40 f   menus.obj
 0001:00158da0       ?guilistslider@@YAXPEAD00@Z 0000000140159da0 f   menus.obj
 0001:00159030       ?guislider@@YAXPEADPEAH10@Z 000000014015a030 f   menus.obj
 0001:00159360       ?guicolumn@@YAXPEAH@Z      000000014015a360 f   menus.obj
 0001:00159390       ?guispring@@YAXPEAH@Z      000000014015a390 f   menus.obj
 0001:001593c0       ?guistrut@@YAXPEAMPEAH@Z   000000014015a3c0 f   menus.obj
 0001:00159400       ?guibar@@YAXXZ             000000014015a400 f   menus.obj
 0001:00159420       ?guitab@@YAXPEAD@Z         000000014015a420 f   menus.obj
 0001:00159450       ?guititle@@YAXPEAD@Z       000000014015a450 f   menus.obj
 0001:00159480       ?guitext@@YAXPEAD0@Z       000000014015a480 f   menus.obj
 0001:00159500       ?guitextbox@@YAXPEADPEAH11@Z 000000014015a500 f   menus.obj
 0001:00159560       ?guicolor@@YAXPEAH@Z       000000014015a560 f   menus.obj
 0001:001595c0       ?guiimage@@YAXPEAD0PEAMPEAH0@Z 000000014015a5c0 f   menus.obj
 0001:001596f0       ?guibutton@@YAXPEAD00@Z    000000014015a6f0 f   menus.obj
 0001:00159820       ?guinoautotab@@YAXPEAI@Z   000000014015a820 f   menus.obj
 0001:00159870       ?guistayopen@@YAXPEAI@Z    000000014015a870 f   menus.obj
 0001:001598a0       ?guionclear@@YAXPEAD@Z     000000014015a8a0 f   menus.obj
 0001:00159900       ?clearguis@@YAXH@Z         000000014015a900 f   menus.obj
 0001:001599e0       ?hidegui@@YAXPEBD@Z        000000014015a9e0 f   menus.obj
 0001:00159a10       ?showgui@@YAXPEBD@Z        000000014015aa10 f   menus.obj
 0001:00159a80       ?restoregui@@YAXH@Z        000000014015aa80 f   menus.obj
 0001:00159af0       ?pushgui@@YAXPEAUmenu@@H@Z 000000014015aaf0 f   menus.obj
 0001:00159c70       ?removegui@@YAXPEAUmenu@@@Z 000000014015ac70 f   menus.obj
 0001:00159d00       ?popgui@@YAXXZ             000000014015ad00 f   menus.obj
 0001:00159d30       ?addchange@@YAXPEBDH@Z     000000014015ad30 f   menus.obj
 0001:00159e60       ?clearchanges@@YAXH@Z      000000014015ae60 f   menus.obj
 0001:00159fc0       ?menuprocess@@YAXXZ        000000014015afc0 f   menus.obj
 0001:0015a120       ?cleargui@@YAHH@Z          000000014015b120 f   menus.obj
 0001:0015a220       ?g3d_mainmenu@@YAXXZ       000000014015b220 f   menus.obj
 0001:0015a2d0       ?clearmainmenu@@YAXXZ      000000014015b2d0 f   menus.obj
 0001:0015a310       ?menuinfrontofplayer@@YA?AUvec@@XZ 000000014015b310 f   menus.obj
 0001:0015a450       ?run@?$_icmd_movierecording@$0EKH@@@SAXXZ 000000014015b450 f   movie.obj
 0001:0015a480       ?movie@@YAXPEAD@Z          000000014015b480 f   movie.obj
 0001:0015a4f0       ?drawhud@recorder@@YAXXZ   000000014015b4f0 f   movie.obj
 0001:0015a760       ?readbuffer@recorder@@YA_NXZ 000000014015b760 f   movie.obj
 0001:0015a8a0       ?readbuffer@recorder@@YAXAEAUvideobuffer@1@I@Z 000000014015b8a0 f   movie.obj
 0001:0015b780       ?drawquad@recorder@@YAXMMMMMM@Z 000000014015c780 f   movie.obj
 0001:0015b870       ?start@recorder@@YAXPEBDHHH_N@Z 000000014015c870 f   movie.obj
 0001:0015bc80       ?soundencoder@recorder@@YAXPEAXPEAEH@Z 000000014015cc80 f   movie.obj
 0001:0015bdd0       ?videoencoder@recorder@@YAHPEAX@Z 000000014015cdd0 f   movie.obj
 0001:0015c0d0       ?gettime@recorder@@YAHXZ   000000014015d0d0 f   movie.obj
 0001:0015c140       ?calcquality@recorder@@YAMXZ 000000014015d140 f   movie.obj
 0001:0015c180       ?isrecording@recorder@@YA_NXZ 000000014015d180 f   movie.obj
 0001:0015c1a0       ?stop@recorder@@YAXXZ      000000014015d1a0 f   movie.obj
 0001:0015c340       ?cleanup@recorder@@YAXXZ   000000014015d340 f   movie.obj
 0001:0015c3f0       ?capture@recorder@@YAXXZ   000000014015d3f0 f   movie.obj
 0001:0015c520       ?updatemumble@@YAXXZ       000000014015d520 f   sound.obj
 0001:0015c740       ?closemumble@@YAXXZ        000000014015d740 f   sound.obj
 0001:0015c790       ?var_mumble@@YAXXZ         000000014015d790 f   sound.obj
 0001:0015c7f0       ?resetsound@@YAXXZ         000000014015d7f0 f   sound.obj
 0001:0015ca90       ?sound@@YAXPEAH@Z          000000014015da90 f   sound.obj
 0001:0015cac0       ?playsoundname@@YAHPEBDPEBUvec@@HHHHHHH@Z 000000014015dac0 f   sound.obj
 0001:0015cc10       ?playsound@@YAHHPEBUvec@@PEAUextentity@@HHHHHH@Z 000000014015dc10 f   sound.obj
 0001:0015d2c0       ?updatechannel@@YA_NAEAUsoundchannel@@@Z 000000014015e2c0 f   sound.obj
 0001:0015d510       ?checkmapsounds@@YAXXZ     000000014015e510 f   sound.obj
 0001:0015d5e0       ?stopmapsound@@YAXPEAUextentity@@@Z 000000014015e5e0 f   sound.obj
 0001:0015d670       ?stopmapsounds@@YAXXZ      000000014015e670 f   sound.obj
 0001:0015d700       ?resetchannels@@YAXXZ      000000014015e700 f   sound.obj
 0001:0015d780       ?altmapsound@@YAXPEADPEAH@Z 000000014015e780 f   sound.obj
 0001:0015d7c0       ?altsound@@YAXPEADPEAH@Z   000000014015e7c0 f   sound.obj
 0001:0015d800       ?mapsound@@YAXPEADPEAH1@Z  000000014015e800 f   sound.obj
 0001:0015d960       ?registersound@@YAXPEADPEAH@Z 000000014015e960 f   sound.obj
 0001:0015de10       ?startmusic@@YAXPEAD0@Z    000000014015ee10 f   sound.obj
 0001:0015df80       ?loadmusic@@YAPEAU_Mix_Music@@PEBD@Z 000000014015ef80 f   sound.obj
 0001:0015e090       ?musicdone@@YAXXZ          000000014015f090 f   sound.obj
 0001:0015e150       ?var_soundbufferlen@@YAXXZ 000000014015f150 f   sound.obj
 0001:0015e180       ?var_soundfreq@@YAXXZ      000000014015f180 f   sound.obj
 0001:0015e1b0       ?var_soundchans@@YAXXZ     000000014015f1b0 f   sound.obj
 0001:0015e1e0       ?stopmusic@@YAXXZ          000000014015f1e0 f   sound.obj
 0001:0015e2a0       ?setmusicvol@@YAXH@Z       000000014015f2a0 f   sound.obj
 0001:0015e2e0       ?var_musicvol@@YAXXZ       000000014015f2e0 f   sound.obj
 0001:0015e330       ?var_soundvol@@YAXXZ       000000014015f330 f   sound.obj
 0001:0015e370       ?stopchannels@@YAXXZ       000000014015f370 f   sound.obj
 0001:0015e400       ?syncchannel@@YAXAEAUsoundchannel@@@Z 000000014015f400 f   sound.obj
 0001:0015e450       ?freechannel@@YAXH@Z       000000014015f450 f   sound.obj
 0001:0015e490       ?newchannel@@YAAEAUsoundchannel@@HPEAUsoundslot@@PEBUvec@@PEAUextentity@@HH@Z 000000014015f490 f   sound.obj
 0001:0015e620       ?stopsounds@@YAXXZ         000000014015f620 f   sound.obj
 0001:0015e6b0       ?initsound@@YAXXZ          000000014015f6b0 f   sound.obj
 0001:0015e740       ?initmumble@@YAXXZ         000000014015f740 f   sound.obj
 0001:0015e830       ?updatesounds@@YAXXZ       000000014015f830 f   sound.obj
 0001:0015e9b0       ?clear_sound@@YAXXZ        000000014015f9b0 f   sound.obj
 0001:0015eba0       ?preloadmapsounds@@YAXXZ   000000014015fba0 f   sound.obj
 0001:0015ec60       ?clearmapsounds@@YAXXZ     000000014015fc60 f   sound.obj
 0001:0015ec80       ?linecylinderintersect@@YA_NAEBUvec@@000MAEAM@Z 000000014015fc80 f   geom.obj
 0001:0015efe0       ?adjoint@glmatrixf@@QEAAXAEBU1@@Z 000000014015ffe0 f   geom.obj
 0001:0015f610       ?invert@glmatrixf@@QEAA_NAEBU1@M@Z 0000000140160610 f   geom.obj
 0001:0015f740       ?rayrectintersect@@YA_NAEBUvec@@000AEAMAEAH@Z 0000000140160740 f   geom.obj
 0001:0015f970       ?openrawfile@@YAPEAUstream@@PEBD0@Z 0000000140160970 f   stream.obj
 0001:0015fa20       ?printf@stream@@UEAAHPEBDZZ 0000000140160a20 f   stream.obj
 0001:0015fad0       ?getline@stream@@UEAA_NPEADH@Z 0000000140160ad0 f   stream.obj
 0001:0015fb90       ?size@stream@@UEAA_JXZ     0000000140160b90 f   stream.obj
 0001:0015fce0       ?listdir@@YA_NPEBD_N0AEAU?$vector@PEAD@@@Z 0000000140160ce0 f   stream.obj
 0001:0015feb0       ?subhomedir@@YA_NPEADHPEBD@Z 0000000140160eb0 f   stream.obj
 0001:0015fff0       ?fixpackagedir@@YA_KPEAD@Z 0000000140160ff0 f   stream.obj
 0001:00160030       ?decodeutf8@@YAHPEAEH0HPEAH@Z 0000000140161030 f   stream.obj
 0001:001602a0       ?sethomedir@@YAPEBDPEBD@Z  00000001401612a0 f   stream.obj
 0001:00160350       ?addpackagedir@@YAPEBDPEBD@Z 0000000140161350 f   stream.obj
 0001:00160580       ?loadfile@@YAPEADPEBDPEAH_N@Z 0000000140161580 f   stream.obj
 0001:001606e0       ?listfiles@@YAHPEBD0AEAU?$vector@PEAD@@@Z 00000001401616e0 f   stream.obj
 0001:001608a0       ?rwops@stream@@QEAAPEAUSDL_RWops@@XZ 00000001401618a0 f   stream.obj
 0001:00160900       ?fileexists@@YA_NPEBD0@Z   0000000140161900 f   stream.obj
 0001:00160950       ?createdir@@YA_NPEBD@Z     0000000140161950 f   stream.obj
 0001:001609b0       ?parentdir@@YAPEBDPEBD@Z   00000001401619b0 f   stream.obj
 0001:00160a20       ?openutf8file@@YAPEAUstream@@PEBD0PEAU1@@Z 0000000140161a20 f   stream.obj
 0001:00160af0       ?path@@YAPEADPEBD_N@Z      0000000140161af0 f   stream.obj
 0001:00160b30       ?encodeutf8@@YAHPEAEH0HPEAH@Z 0000000140161b30 f   stream.obj
 0001:00160ce0       ?findfile@@YAPEBDPEBD0@Z   0000000140161ce0 f   stream.obj
 0001:00160f10       ?openfile@@YAPEAUstream@@PEBD0@Z 0000000140161f10 f   stream.obj
 0001:00160f50       ?makerelpath@@YAPEADPEBD000@Z 0000000140161f50 f   stream.obj
 0001:00161100       ?opengzfile@@YAPEAUstream@@PEBD0PEAU1@H@Z 0000000140162100 f   stream.obj
 0001:001611f0       ?path@@YAPEADPEAD@Z        00000001401621f0 f   stream.obj
 0001:00161510       ?seedMT@@YAXI@Z            0000000140162510 f   tools.obj
 0001:00161560       ?guessnumcpus@@YAHXZ       0000000140162560 f   tools.obj
 0001:00161590       ?putint@@YAXAEAU?$databuf@E@@H@Z 0000000140162590 f   tools.obj
 0001:001615b0       ?getint@@YAHAEAU?$databuf@E@@@Z 00000001401625b0 f   tools.obj
 0001:001616e0       ?filtertext@@YAXPEADPEBD_NH@Z 00000001401626e0 f   tools.obj
 0001:00161760       ?getstring@@YAXPEADAEAU?$databuf@E@@H@Z 0000000140162760 f   tools.obj
 0001:001618d0       ?randomMT@@YAIXZ           00000001401628d0 f   tools.obj
 0001:00161ae0       ?run@?$_icmd_removezip@$0CDH@@@SAXPEBD@Z 0000000140162ae0 f   zip.obj
 0001:00161af0       ?run@?$_icmd_addzip@$0CDG@@@SAXPEBD00@Z 0000000140162af0 f   zip.obj
 0001:00161b20       ?removezip@@YA_NPEBD@Z     0000000140162b20 f   zip.obj
 0001:00161d10       ?addzip@@YA_NPEBD00@Z      0000000140162d10 f   zip.obj
 0001:001624d0       ?findzip@@YAPEAUziparchive@@PEBD@Z 00000001401634d0 f   zip.obj
 0001:00162aa0       ?listzipfiles@@YAHPEBD0AEAU?$vector@PEAD@@@Z 0000000140163aa0 f   zip.obj
 0001:00162d30       ?openzipfile@@YAPEAUstream@@PEBD0@Z 0000000140163d30 f   zip.obj
 0001:00162ee0       ?updateplayer@rpgent@game@@QEAAXXZ 0000000140163ee0 f   ent.obj
 0001:00163040       ?update@rpgent@game@@QEAAXM@Z 0000000140164040 f   ent.obj
 0001:00163440       ?stareorroam@rpgent@game@@QEAAXXZ 0000000140164440 f   ent.obj
 0001:001634b0       ?goroam@rpgent@game@@QEAAXXZ 00000001401644b0 f   ent.obj
 0001:001635d0       ?gotopos@rpgent@game@@QEAAXAEAUvec@@HHH@Z 00000001401645d0 f   ent.obj
 0001:00163650       ?gotoyaw@rpgent@game@@QEAAXMHHH@Z 0000000140164650 f   ent.obj
 0001:00163690       ?transition@rpgent@game@@QEAAXHHH@Z 0000000140164690 f   ent.obj
 0001:001636b0       ?allowmove@rpgent@game@@QEAA_NXZ 00000001401646b0 f   ent.obj
 0001:00163750       ?updateprojectile@rpgent@game@@QEAAXXZ 0000000140164750 f   ent.obj
 0001:00163ae0       ?tryattack@rpgent@game@@QEAAXAEAUvec@@AEAUrpgobj@2@@Z 0000000140164ae0 f   ent.obj
 0001:00163fc0       ?intersect@game@@YA_NPEAUdynent@@AEBUvec@@1AEAM@Z 0000000140164fc0 f   ent.obj
 0001:00164040       ?tryattackobj@rpgent@game@@QEAAXAEAUrpgobj@2@0@Z 0000000140165040 f   ent.obj
 0001:00164400       ?run@?$_icmd_r_applydamage@$0KK@@game@@SAXPEAH@Z 0000000140165400 f   objset.obj
 0001:00164420       ?run@?$_icmd_r_use@$0KJ@@game@@SAXXZ 0000000140165420 f   objset.obj
 0001:00164440       ?run@?$_icmd_r_give@$0KI@@game@@SAXPEAD@Z 0000000140165440 f   objset.obj
 0001:00164450       ?run@?$_icmd_r_take@$0KH@@game@@SAXPEAD00@Z 0000000140165450 f   objset.obj
 0001:00164460       ?run@?$_icmd_r_action_use@$0KG@@game@@SAXPEAD@Z 0000000140165460 f   objset.obj
 0001:00164490       ?run@?$_icmd_r_action@$0KF@@game@@SAXPEAD0@Z 0000000140165490 f   objset.obj
 0001:001644f0       ?run@?$_icmd_r_quest@$0KE@@game@@SAXPEAD0@Z 00000001401654f0 f   objset.obj
 0001:00164550       ?run@?$_icmd_r_say@$0KD@@game@@SAXPEAD@Z 0000000140165550 f   objset.obj
 0001:00164580       ?run@?$_icmd_r_swap@$0KC@@game@@SAXXZ 0000000140165580 f   objset.obj
 0001:001645a0       ?run@?$_icmd_r_pop@$0KB@@game@@SAXXZ 00000001401655a0 f   objset.obj
 0001:001645b0       ?run@?$_icmd_r_contain@$0KA@@game@@SAXPEAD@Z 00000001401655b0 f   objset.obj
 0001:00164620       ?run@?$_icmd_r_spawn@$0JP@@game@@SAXPEAD@Z 0000000140165620 f   objset.obj
 0001:00164690       ?run@?$_icmd_r_model@$0JO@@game@@SAXPEAD@Z 0000000140165690 f   objset.obj
 0001:001646c0       ?run@?$_icmd_r_eff_statc@$0JL@@game@@SAXXZ 00000001401656c0 f   objset.obj
 0001:00164720       ?run@?$_icmd_r_def_statc@$0JL@@game@@SAXPEAH0@Z 0000000140165720 f   objset.obj
 0001:00164740       ?run@?$_icmd_r_eff_statb@$0JL@@game@@SAXXZ 0000000140165740 f   objset.obj
 0001:001647a0       ?run@?$_icmd_r_def_statb@$0JL@@game@@SAXPEAH0@Z 00000001401657a0 f   objset.obj
 0001:001647c0       ?run@?$_icmd_r_eff_stata@$0JL@@game@@SAXXZ 00000001401657c0 f   objset.obj
 0001:00164820       ?run@?$_icmd_r_def_stata@$0JL@@game@@SAXPEAH0@Z 0000000140165820 f   objset.obj
 0001:00164840       ?run@?$_icmd_r_eff_hostility@$0JL@@game@@SAXXZ 0000000140165840 f   objset.obj
 0001:001648a0       ?run@?$_icmd_r_def_hostility@$0JL@@game@@SAXPEAH0@Z 00000001401658a0 f   objset.obj
 0001:001648c0       ?run@?$_icmd_r_eff_stealth@$0JL@@game@@SAXXZ 00000001401658c0 f   objset.obj
 0001:00164920       ?run@?$_icmd_r_def_stealth@$0JL@@game@@SAXPEAH0@Z 0000000140165920 f   objset.obj
 0001:00164940       ?run@?$_icmd_r_eff_feared@$0JL@@game@@SAXXZ 0000000140165940 f   objset.obj
 0001:001649a0       ?run@?$_icmd_r_def_feared@$0JL@@game@@SAXPEAH0@Z 00000001401659a0 f   objset.obj
 0001:001649c0       ?run@?$_icmd_r_eff_tradeskill@$0JL@@game@@SAXXZ 00000001401659c0 f   objset.obj
 0001:00164a20       ?run@?$_icmd_r_def_tradeskill@$0JL@@game@@SAXPEAH0@Z 0000000140165a20 f   objset.obj
 0001:00164a40       ?run@?$_icmd_r_eff_jumpheight@$0JL@@game@@SAXXZ 0000000140165a40 f   objset.obj
 0001:00164aa0       ?run@?$_icmd_r_def_jumpheight@$0JL@@game@@SAXPEAH0@Z 0000000140165aa0 f   objset.obj
 0001:00164ac0       ?run@?$_icmd_r_eff_movespeed@$0JL@@game@@SAXXZ 0000000140165ac0 f   objset.obj
 0001:00164b20       ?run@?$_icmd_r_def_movespeed@$0JL@@game@@SAXPEAH0@Z 0000000140165b20 f   objset.obj
 0001:00164b40       ?run@?$_icmd_r_eff_attackspeed@$0JL@@game@@SAXXZ 0000000140165b40 f   objset.obj
 0001:00164ba0       ?run@?$_icmd_r_def_attackspeed@$0JL@@game@@SAXPEAH0@Z 0000000140165ba0 f   objset.obj
 0001:00164bc0       ?run@?$_icmd_r_eff_maxmana@$0JL@@game@@SAXXZ 0000000140165bc0 f   objset.obj
 0001:00164c20       ?run@?$_icmd_r_def_maxmana@$0JL@@game@@SAXPEAH0@Z 0000000140165c20 f   objset.obj
 0001:00164c40       ?run@?$_icmd_r_eff_maxhp@$0JL@@game@@SAXXZ 0000000140165c40 f   objset.obj
 0001:00164ca0       ?run@?$_icmd_r_def_maxhp@$0JL@@game@@SAXPEAH0@Z 0000000140165ca0 f   objset.obj
 0001:00164cc0       ?run@?$_icmd_r_eff_manaregen@$0JL@@game@@SAXXZ 0000000140165cc0 f   objset.obj
 0001:00164d20       ?run@?$_icmd_r_def_manaregen@$0JL@@game@@SAXPEAH0@Z 0000000140165d20 f   objset.obj
 0001:00164d40       ?run@?$_icmd_r_eff_hpregen@$0JL@@game@@SAXXZ 0000000140165d40 f   objset.obj
 0001:00164da0       ?run@?$_icmd_r_def_hpregen@$0JL@@game@@SAXPEAH0@Z 0000000140165da0 f   objset.obj
 0001:00164dc0       ?run@?$_icmd_r_eff_magic@$0JL@@game@@SAXXZ 0000000140165dc0 f   objset.obj
 0001:00164e20       ?run@?$_icmd_r_def_magic@$0JL@@game@@SAXPEAH0@Z 0000000140165e20 f   objset.obj
 0001:00164e40       ?run@?$_icmd_r_eff_ranged@$0JL@@game@@SAXXZ 0000000140165e40 f   objset.obj
 0001:00164ea0       ?run@?$_icmd_r_def_ranged@$0JL@@game@@SAXPEAH0@Z 0000000140165ea0 f   objset.obj
 0001:00164ec0       ?run@?$_icmd_r_eff_melee@$0JL@@game@@SAXXZ 0000000140165ec0 f   objset.obj
 0001:00164f20       ?run@?$_icmd_r_def_melee@$0JL@@game@@SAXPEAH0@Z 0000000140165f20 f   objset.obj
 0001:00164f40       ?run@?$_icmd_r_get_usesound@$0JH@@game@@SAXXZ 0000000140165f40 f   objset.obj
 0001:00164f70       ?run@?$_icmd_r_usesound@$0JH@@game@@SAXPEAH@Z 0000000140165f70 f   objset.obj
 0001:00164f90       ?run@?$_icmd_r_get_attrc@$0JH@@game@@SAXXZ 0000000140165f90 f   objset.obj
 0001:00164fc0       ?run@?$_icmd_r_attrc@$0JH@@game@@SAXPEAH@Z 0000000140165fc0 f   objset.obj
 0001:00164fe0       ?run@?$_icmd_r_get_attrb@$0JH@@game@@SAXXZ 0000000140165fe0 f   objset.obj
 0001:00165010       ?run@?$_icmd_r_attrb@$0JH@@game@@SAXPEAH@Z 0000000140166010 f   objset.obj
 0001:00165030       ?run@?$_icmd_r_get_attra@$0JH@@game@@SAXXZ 0000000140166030 f   objset.obj
 0001:00165060       ?run@?$_icmd_r_attra@$0JH@@game@@SAXPEAH@Z 0000000140166060 f   objset.obj
 0001:00165080       ?run@?$_icmd_r_get_effectsize@$0JH@@game@@SAXXZ 0000000140166080 f   objset.obj
 0001:001650b0       ?run@?$_icmd_r_effectsize@$0JH@@game@@SAXPEAH@Z 00000001401660b0 f   objset.obj
 0001:001650d0       ?run@?$_icmd_r_get_effectcolor@$0JH@@game@@SAXXZ 00000001401660d0 f   objset.obj
 0001:00165100       ?run@?$_icmd_r_effectcolor@$0JH@@game@@SAXPEAH@Z 0000000140166100 f   objset.obj
 0001:00165120       ?run@?$_icmd_r_get_effectparticle@$0JH@@game@@SAXXZ 0000000140166120 f   objset.obj
 0001:00165150       ?run@?$_icmd_r_effectparticle@$0JH@@game@@SAXPEAH@Z 0000000140166150 f   objset.obj
 0001:00165170       ?run@?$_icmd_r_get_manacost@$0JH@@game@@SAXXZ 0000000140166170 f   objset.obj
 0001:001651a0       ?run@?$_icmd_r_manacost@$0JH@@game@@SAXPEAH@Z 00000001401661a0 f   objset.obj
 0001:001651c0       ?run@?$_icmd_r_get_attackrate@$0JH@@game@@SAXXZ 00000001401661c0 f   objset.obj
 0001:001651f0       ?run@?$_icmd_r_attackrate@$0JH@@game@@SAXPEAH@Z 00000001401661f0 f   objset.obj
 0001:00165210       ?run@?$_icmd_r_get_maxangle@$0JH@@game@@SAXXZ 0000000140166210 f   objset.obj
 0001:00165240       ?run@?$_icmd_r_maxangle@$0JH@@game@@SAXPEAH@Z 0000000140166240 f   objset.obj
 0001:00165260       ?run@?$_icmd_r_get_maxrange@$0JH@@game@@SAXXZ 0000000140166260 f   objset.obj
 0001:00165290       ?run@?$_icmd_r_maxrange@$0JH@@game@@SAXPEAH@Z 0000000140166290 f   objset.obj
 0001:001652b0       ?run@?$_icmd_r_get_damage@$0JH@@game@@SAXXZ 00000001401662b0 f   objset.obj
 0001:001652e0       ?run@?$_icmd_r_damage@$0JH@@game@@SAXPEAH@Z 00000001401662e0 f   objset.obj
 0001:00165300       ?run@?$_icmd_r_get_usetype@$0JH@@game@@SAXXZ 0000000140166300 f   objset.obj
 0001:00165330       ?run@?$_icmd_r_usetype@$0JH@@game@@SAXPEAH@Z 0000000140166330 f   objset.obj
 0001:00165350       ?run@?$_icmd_r_get_useamount@$0JH@@game@@SAXXZ 0000000140166350 f   objset.obj
 0001:00165380       ?run@?$_icmd_r_useamount@$0JH@@game@@SAXPEAH@Z 0000000140166380 f   objset.obj
 0001:001653a0       ?run@?$_icmd_r_get_worth@$0JH@@game@@SAXXZ 00000001401663a0 f   objset.obj
 0001:001653d0       ?run@?$_icmd_r_worth@$0JH@@game@@SAXPEAH@Z 00000001401663d0 f   objset.obj
 0001:001653f0       ?run@?$_icmd_r_get_gold@$0JH@@game@@SAXXZ 00000001401663f0 f   objset.obj
 0001:00165420       ?run@?$_icmd_r_gold@$0JH@@game@@SAXPEAH@Z 0000000140166420 f   objset.obj
 0001:00165440       ?run@?$_icmd_r_get_mana@$0JH@@game@@SAXXZ 0000000140166440 f   objset.obj
 0001:00165470       ?run@?$_icmd_r_mana@$0JH@@game@@SAXPEAH@Z 0000000140166470 f   objset.obj
 0001:00165490       ?run@?$_icmd_r_get_hp@$0JH@@game@@SAXXZ 0000000140166490 f   objset.obj
 0001:001654c0       ?run@?$_icmd_r_hp@$0JH@@game@@SAXPEAH@Z 00000001401664c0 f   objset.obj
 0001:001654e0       ?run@?$_icmd_r_get_ai@$0JH@@game@@SAXXZ 00000001401664e0 f   objset.obj
 0001:00165510       ?run@?$_icmd_r_ai@$0JH@@game@@SAXPEAH@Z 0000000140166510 f   objset.obj
 0001:00165530       ?run@?$_icmd_r_get_statc@$0JH@@game@@SAXXZ 0000000140166530 f   objset.obj
 0001:00165560       ?run@?$_icmd_r_statc@$0JH@@game@@SAXPEAH@Z 0000000140166560 f   objset.obj
 0001:00165580       ?run@?$_icmd_r_get_statb@$0JH@@game@@SAXXZ 0000000140166580 f   objset.obj
 0001:001655b0       ?run@?$_icmd_r_statb@$0JH@@game@@SAXPEAH@Z 00000001401665b0 f   objset.obj
 0001:001655d0       ?run@?$_icmd_r_get_stata@$0JH@@game@@SAXXZ 00000001401665d0 f   objset.obj
 0001:00165600       ?run@?$_icmd_r_stata@$0JH@@game@@SAXPEAH@Z 0000000140166600 f   objset.obj
 0001:00165620       ?run@?$_icmd_r_get_hostility@$0JH@@game@@SAXXZ 0000000140166620 f   objset.obj
 0001:00165650       ?run@?$_icmd_r_hostility@$0JH@@game@@SAXPEAH@Z 0000000140166650 f   objset.obj
 0001:00165670       ?run@?$_icmd_r_get_stealth@$0JH@@game@@SAXXZ 0000000140166670 f   objset.obj
 0001:001656a0       ?run@?$_icmd_r_stealth@$0JH@@game@@SAXPEAH@Z 00000001401666a0 f   objset.obj
 0001:001656c0       ?run@?$_icmd_r_get_feared@$0JH@@game@@SAXXZ 00000001401666c0 f   objset.obj
 0001:001656f0       ?run@?$_icmd_r_feared@$0JH@@game@@SAXPEAH@Z 00000001401666f0 f   objset.obj
 0001:00165710       ?run@?$_icmd_r_get_tradeskill@$0JH@@game@@SAXXZ 0000000140166710 f   objset.obj
 0001:00165740       ?run@?$_icmd_r_tradeskill@$0JH@@game@@SAXPEAH@Z 0000000140166740 f   objset.obj
 0001:00165760       ?run@?$_icmd_r_get_jumpheight@$0JH@@game@@SAXXZ 0000000140166760 f   objset.obj
 0001:00165790       ?run@?$_icmd_r_jumpheight@$0JH@@game@@SAXPEAH@Z 0000000140166790 f   objset.obj
 0001:001657b0       ?run@?$_icmd_r_get_movespeed@$0JH@@game@@SAXXZ 00000001401667b0 f   objset.obj
 0001:001657e0       ?run@?$_icmd_r_movespeed@$0JH@@game@@SAXPEAH@Z 00000001401667e0 f   objset.obj
 0001:00165800       ?run@?$_icmd_r_get_attackspeed@$0JH@@game@@SAXXZ 0000000140166800 f   objset.obj
 0001:00165830       ?run@?$_icmd_r_attackspeed@$0JH@@game@@SAXPEAH@Z 0000000140166830 f   objset.obj
 0001:00165850       ?run@?$_icmd_r_get_maxmana@$0JH@@game@@SAXXZ 0000000140166850 f   objset.obj
 0001:00165880       ?run@?$_icmd_r_maxmana@$0JH@@game@@SAXPEAH@Z 0000000140166880 f   objset.obj
 0001:001658a0       ?run@?$_icmd_r_get_maxhp@$0JH@@game@@SAXXZ 00000001401668a0 f   objset.obj
 0001:001658d0       ?run@?$_icmd_r_maxhp@$0JH@@game@@SAXPEAH@Z 00000001401668d0 f   objset.obj
 0001:001658f0       ?run@?$_icmd_r_get_manaregen@$0JH@@game@@SAXXZ 00000001401668f0 f   objset.obj
 0001:00165920       ?run@?$_icmd_r_manaregen@$0JH@@game@@SAXPEAH@Z 0000000140166920 f   objset.obj
 0001:00165940       ?run@?$_icmd_r_get_hpregen@$0JH@@game@@SAXXZ 0000000140166940 f   objset.obj
 0001:00165970       ?run@?$_icmd_r_hpregen@$0JH@@game@@SAXPEAH@Z 0000000140166970 f   objset.obj
 0001:00165990       ?run@?$_icmd_r_get_magic@$0JH@@game@@SAXXZ 0000000140166990 f   objset.obj
 0001:001659c0       ?run@?$_icmd_r_magic@$0JH@@game@@SAXPEAH@Z 00000001401669c0 f   objset.obj
 0001:001659e0       ?run@?$_icmd_r_get_ranged@$0JH@@game@@SAXXZ 00000001401669e0 f   objset.obj
 0001:00165a10       ?run@?$_icmd_r_ranged@$0JH@@game@@SAXPEAH@Z 0000000140166a10 f   objset.obj
 0001:00165a30       ?run@?$_icmd_r_get_melee@$0JH@@game@@SAXXZ 0000000140166a30 f   objset.obj
 0001:00165a60       ?run@?$_icmd_r_melee@$0JH@@game@@SAXPEAH@Z 0000000140166a60 f   objset.obj
 0001:00165a80       ?g3d_npcmenus@game@@YAXXZ  0000000140166a80 f   objset.obj
 0001:00165c40       ?renderobjects@game@@YAXXZ 0000000140166c40 f   objset.obj
 0001:00165f40       ?stringpool@game@@YAPEADPEAD@Z 0000000140166f40 f   objset.obj
 0001:001660a0       ?listquests@game@@YAX_NAEAUg3d_gui@@@Z 00000001401670a0 f   objset.obj
 0001:00166140       ?addquest@game@@YAPEAUrpgquest@1@PEBD0@Z 0000000140167140 f   objset.obj
 0001:001661c0       ?givetoplayer@game@@YAXPEAD@Z 00000001401671c0 f   objset.obj
 0001:00166230       ?takefromplayer@game@@YAXPEAD00@Z 0000000140167230 f   objset.obj
 0001:001662f0       ?taken@game@@YAXPEAUrpgobj@1@0@Z 00000001401672f0 f   objset.obj
 0001:00166340       ?removefromworld@game@@YAXPEAUrpgobj@1@@Z 0000000140167340 f   objset.obj
 0001:00166430       ?popobj@game@@YAXXZ        0000000140167430 f   objset.obj
 0001:00166560       ?spawnfroment@game@@YAXAEAUrpgentity@@@Z 0000000140167560 f   objset.obj
 0001:001665e0       ?placeinworld@game@@YAXAEAUvec@@M@Z 00000001401675e0 f   objset.obj
 0001:00166750       ?spawn@game@@YAXPEAD@Z     0000000140167750 f   objset.obj
 0001:001667c0       ?updateobjects@game@@YAXXZ 00000001401677c0 f   objset.obj
 0001:00166960       ?clearworld@game@@YAXXZ    0000000140167960 f   objset.obj
 0001:00166a50       ?resetstack@game@@YAXXZ    0000000140167a50 f   objset.obj
 0001:00166b80       ?removefromsystem@game@@YAXPEAUrpgobj@1@@Z 0000000140167b80 f   objset.obj
 0001:00166bf0       ?pushobj@game@@YAXPEAUrpgobj@1@@Z 0000000140167bf0 f   objset.obj
 0001:00166c30       ?quad@game@@YAXHHHH@Z      0000000140167c30 f   rpg.obj
 0001:00166d00       ?run@?$_icmd_showplayergui@$0GE@@game@@SAXPEAH@Z 0000000140167d00 f   rpg.obj
 0001:00166d10       ?run@?$_icmd_map@$0DA@@game@@SAXPEAD@Z 0000000140167d10 f   rpg.obj
 0001:00166d20       ?parseoptions@game@@YAXAEAU?$vector@PEBD@@@Z 0000000140167d20 f   rpg.obj
 0001:00166d30       ?initclient@game@@YAXXZ    0000000140167d30 f   rpg.obj
 0001:00166db0       ?restoreconfig@game@@YAPEBDXZ 0000000140167db0 f   rpg.obj
 0001:00166dc0       ?loadconfigs@game@@YAXXZ   0000000140167dc0 f   rpg.obj
 0001:00166dd0       ?changemap@game@@YAXPEBD@Z 0000000140167dd0 f   rpg.obj
 0001:00166e70       ?updateworld@game@@YAXXZ   0000000140167e70 f   rpg.obj
 0001:00166ec0       ?clipconsole@game@@YAHHH@Z 0000000140167ec0 f   rpg.obj
 0001:00166ed0       ?toserver@game@@YAXPEAD@Z  0000000140167ed0 f   rpg.obj
 0001:00166ee0       ?vartrigger@game@@YAXPEAUident@@@Z 0000000140167ee0 f   rpg.obj
 0001:00166ef0       ?savedconfig@game@@YAPEBDXZ 0000000140167ef0 f   rpg.obj
 0001:00166f00       ?autoexec@game@@YAPEBDXZ   0000000140167f00 f   rpg.obj
 0001:00166f10       ?defaultconfig@game@@YAPEBDXZ 0000000140167f10 f   rpg.obj
 0001:00166f20       ?writeclientinfo@game@@YAXPEAUstream@@@Z 0000000140167f20 f   rpg.obj
 0001:00166f30       ?particletrack@game@@YAXPEAUphysent@@AEAUvec@@1@Z 0000000140167f30 f   rpg.obj
 0001:00166f40       ?lighteffects@game@@YAXPEAUdynent@@AEAUvec@@1@Z 0000000140167f40 f   rpg.obj
 0001:00166f50       ?allowmouselook@game@@YA_NXZ 0000000140167f50 f   rpg.obj
 0001:00166f60       ?setupcamera@game@@YAXXZ   0000000140167f60 f   rpg.obj
 0001:00166f70       ?detachcamera@game@@YA_NXZ 0000000140167f70 f   rpg.obj
 0001:00166f90       ?collidecamera@game@@YA_NXZ 0000000140167f90 f   rpg.obj
 0001:00166fb0       ?rendergame@game@@YAX_N@Z  0000000140167fb0 f   rpg.obj
 0001:00167010       ?renderavatar@game@@YAXXZ  0000000140168010 f   rpg.obj
 0001:00167020       ?needminimap@game@@YA_NXZ  0000000140168020 f   rpg.obj
 0001:00167030       ?ispaused@game@@YA_NXZ     0000000140168030 f   rpg.obj
 0001:00167040       ?defaultcrosshair@game@@YAPEBDH@Z 0000000140168040 f   rpg.obj
 0001:00167050       ?selectcrosshair@game@@YAHAEAM00@Z 0000000140168050 f   rpg.obj
 0001:00167070       ?gameplayhud@game@@YAXHH@Z 0000000140168070 f   rpg.obj
 0001:00167240       ?abovegameplayhud@game@@YAMHH@Z 0000000140168240 f   rpg.obj
 0001:00167280       ?adddynlights@game@@YAXXZ  0000000140168280 f   rpg.obj
 0001:00167290       ?dynlighttrack@game@@YAXPEAUphysent@@AEAUvec@@1@Z 0000000140168290 f   rpg.obj
 0001:001672a0       ?renderplayerpreview@game@@YAXHHH@Z 00000001401682a0 f   rpg.obj
 0001:001672b0       ?g3d_gamemenus@game@@YAXXZ 00000001401682b0 f   rpg.obj
 0001:001672f0       ?servercompatible@server@@YA_NPEAD00HAEBU?$vector@H@@H@Z 00000001401682f0 f   rpg.obj
 0001:00167300       ?serverinfostartcolumn@game@@YA_NPEAUg3d_gui@@H@Z 0000000140168300 f   rpg.obj
 0001:00167310       ?serverinfoentry@game@@YA_NPEAUg3d_gui@@HPEBDH11HAEBU?$vector@H@@H@Z 0000000140168310 f   rpg.obj
 0001:00167320       ?serverinfoendcolumn@game@@YAXPEAUg3d_gui@@H@Z 0000000140168320 f   rpg.obj
 0001:00167330       ?savedservers@game@@YAPEBDXZ 0000000140168330 f   rpg.obj
 0001:00167340       ?newclientinfo@server@@YAPEAXXZ 0000000140168340 f   rpg.obj
 0001:00167350       ?deleteclientinfo@server@@YAXPEAX@Z 0000000140168350 f   rpg.obj
 0001:00167360       ?clientdisconnect@server@@YAXH@Z 0000000140168360 f   rpg.obj
 0001:00167370       ?sendservmsg@server@@YAXPEBD@Z 0000000140168370 f   rpg.obj
 0001:00167380       ?parsepacket@server@@YAXHHAEAUpacketbuf@@@Z 0000000140168380 f   rpg.obj
 0001:00167390       ?defaultmaster@server@@YAPEBDXZ 0000000140168390 f   rpg.obj
 0001:001673a0       ?masterport@server@@YAHXZ  00000001401683a0 f   rpg.obj
 0001:001673b0       ?processmasterinput@server@@YAXPEBDH0@Z 00000001401683b0 f   rpg.obj
 0001:001673c0       ?serverinforeply@server@@YAXAEAU?$databuf@E@@0@Z 00000001401683c0 f   rpg.obj
 0001:001673d0       ?serverupdate@server@@YAXXZ 00000001401683d0 f   rpg.obj
 0001:001673e0       ?sendpackets@server@@YA_N_N@Z 00000001401683e0 f   rpg.obj
 0001:001673f0       ?scaletime@server@@YAHH@Z  00000001401683f0 f   rpg.obj
 0001:00167400       ?ispaused@server@@YA_NXZ   0000000140168400 f   rpg.obj
 0001:00167410       ?clientconnect@server@@YAHHI@Z 0000000140168410 f   rpg.obj
 0001:00167420       ?localdisconnect@server@@YAXH@Z 0000000140168420 f   rpg.obj
 0001:00167430       ?localconnect@server@@YAXH@Z 0000000140168430 f   rpg.obj
 0001:00167440       ?reserveclients@server@@YAHXZ 0000000140168440 f   rpg.obj
 0001:00167450       ?serverinfoport@server@@YAHH@Z 0000000140168450 f   rpg.obj
 0001:00167460       ?laninfoport@server@@YAHXZ 0000000140168460 f   rpg.obj
 0001:00167470       ?serverinit@server@@YAXXZ  0000000140168470 f   rpg.obj
 0001:00167480       ?connectfail@game@@YAXXZ   0000000140168480 f   rpg.obj
 0001:00167490       ?serverport@server@@YAHH@Z 0000000140168490 f   rpg.obj
 0001:001674a0       ?numchannels@server@@YAHXZ 00000001401684a0 f   rpg.obj
 0001:001674b0       ?connectattempt@game@@YAXPEBD0AEBU_ENetAddress@@@Z 00000001401684b0 f   rpg.obj
 0001:001674c0       ?gamedisconnect@game@@YAX_N@Z 00000001401684c0 f   rpg.obj
 0001:001674d0       ?gameconnect@game@@YAX_N@Z 00000001401684d0 f   rpg.obj
 0001:001674e0       ?gameident@game@@YAPEBDXZ  00000001401684e0 f   rpg.obj
 0001:001674f0       ?writegamedata@game@@YAXAEAU?$vector@D@@@Z 00000001401684f0 f   rpg.obj
 0001:00167500       ?getmapinfo@game@@YAPEBDXZ 0000000140168500 f   rpg.obj
 0001:00167510       ?readgamedata@game@@YAXAEAU?$vector@D@@@Z 0000000140168510 f   rpg.obj
 0001:00167520       ?preload@game@@YAXXZ       0000000140168520 f   rpg.obj
 0001:00167530       ?startmap@game@@YAXPEBD@Z  0000000140168530 f   rpg.obj
 0001:00167600       ?newmap@game@@YAXH@Z       0000000140168600 f   rpg.obj
 0001:00167610       ?numdynents@game@@YAHXZ    0000000140168610 f   rpg.obj
 0001:00167620       ?iterdynents@game@@YAPEAUdynent@@H@Z 0000000140168620 f   rpg.obj
 0001:00167640       ?dynentcollide@game@@YAXPEAUphysent@@0AEBUvec@@@Z 0000000140168640 f   rpg.obj
 0001:00167650       ?allowmove@game@@YA_NPEAUphysent@@@Z 0000000140168650 f   rpg.obj
 0001:00167680       ?physicstrigger@game@@YAXPEAUphysent@@_NHHH@Z 0000000140168680 f   rpg.obj
 0001:00167700       ?suicide@game@@YAXPEAUphysent@@@Z 0000000140168700 f   rpg.obj
 0001:00167710       ?scaletime@game@@YAHH@Z    0000000140168710 f   rpg.obj
 0001:00167720       ?canjump@game@@YA_NXZ      0000000140168720 f   rpg.obj
 0001:00167730       ?doattack@game@@YAX_N@Z    0000000140168730 f   rpg.obj
 0001:00167750       ?allowedittoggle@game@@YA_NXZ 0000000140168750 f   rpg.obj
 0001:00167760       ?resetgamestate@game@@YAXXZ 0000000140168760 f   rpg.obj
 0001:00167770       ?edittoggled@game@@YAX_N@Z 0000000140168770 f   rpg.obj
 0001:00167780       ?edittrigger@game@@YAXAEBUselinfo@@HHHH@Z 0000000140168780 f   rpg.obj
 0001:00167790       ?getclientmap@game@@YAPEBDXZ 0000000140168790 f   rpg.obj
 0001:001677a0       ?forceedit@game@@YAXPEBD@Z 00000001401687a0 f   rpg.obj
 0001:001677b0       ?run@?$_icmd_spawnname@$0FK@@entities@@SAXPEAD@Z 00000001401687b0 f   entities1.obj
 0001:00167800       ?startmap@entities@@YAXXZ  0000000140168800 f   entities1.obj
 0001:001679f0       ?animatemapmodel@entities@@YAXAEBUextentity@@AEAH1@Z 00000001401689f0 f   entities1.obj
 0001:00167a00       ?readent@entities@@YAXAEAUentity@@PEADH@Z 0000000140168a00 f   entities1.obj
 0001:00167a90       ?extraentinfosize@entities@@YAHXZ 0000000140168a90 f   entities1.obj
 0001:00167aa0       ?writeent@entities@@YAXAEAUentity@@PEAD@Z 0000000140168aa0 f   entities1.obj
 0001:00167af0       ?entname@entities@@YAPEBDH@Z 0000000140168af0 f   entities1.obj
 0001:00167b20       ?entnameinfo@entities@@YAPEBDAEAUentity@@@Z 0000000140168b20 f   entities1.obj
 0001:00167b30       ?mayattach@entities@@YA_NAEAUextentity@@@Z 0000000140168b30 f   entities1.obj
 0001:00167b40       ?attachent@entities@@YA_NAEAUextentity@@0@Z 0000000140168b40 f   entities1.obj
 0001:00167b50       ?editent@entities@@YAXH_N@Z 0000000140168b50 f   entities1.obj
 0001:00167b60       ?entmodel@entities@@YAPEBDAEBUentity@@@Z 0000000140168b60 f   entities1.obj
 0001:00167b70       ?entradius@entities@@YAXAEAUextentity@@_N@Z 0000000140168b70 f   entities1.obj
 0001:00167bf0       ?fixentity@entities@@YAXAEAUextentity@@@Z 0000000140168bf0 f   entities1.obj
 0001:00167c20       ?deleteentity@entities@@YAXPEAUextentity@@@Z 0000000140168c20 f   entities1.obj
 0001:00167c40       ?printent@entities@@YA_NAEAUextentity@@PEAD@Z 0000000140168c40 f   entities1.obj
 0001:00167c50       ?clearents@entities@@YAXXZ 0000000140168c50 f   entities1.obj
 0001:00167ca0       ?dropheight@entities@@YAMAEAUentity@@@Z 0000000140168ca0 f   entities1.obj
 0001:00167cc0       ?newentity@entities@@YAPEAUextentity@@XZ 0000000140168cc0 f   entities1.obj
 0001:00167d50       ?getents@entities@@YAAEAU?$vector@PEAUextentity@@@@XZ 0000000140168d50 f   entities1.obj
 0001:00167d58       ?_GetEstablisherFrame@@YAPEA_KPEA_KPEAU_xDISPATCHER_CONTEXT@@PEBU_s_FuncInfo@@0@Z 0000000140168d58 f   LIBCMT:trnsctrl.obj
 0001:00167e24       ?_GetRangeOfTrysToCheck@@YAPEBU_s_TryBlockMapEntry@@PEA_KPEBU_s_FuncInfo@@HHPEAI2PEAU_xDISPATCHER_CONTEXT@@@Z 0000000140168e24 f   LIBCMT:trnsctrl.obj
 0001:00167f50       ?__FrameUnwindToEmptyState@@YAXPEA_KPEAU_xDISPATCHER_CONTEXT@@PEBU_s_FuncInfo@@@Z 0000000140168f50 f   LIBCMT:trnsctrl.obj
 0001:00167fe4       ?__SehTransFilter@@YAHPEAU_EXCEPTION_POINTERS@@PEAUEHExceptionRecord@@PEA_KPEAU_CONTEXT@@PEAU_xDISPATCHER_CONTEXT@@PEBU_s_FuncInfo@@PEAH@Z 0000000140168fe4 f   LIBCMT:trnsctrl.obj
 0001:00168088       _CallSETranslator          0000000140169088 f   LIBCMT:trnsctrl.obj
 0001:001680dc       _CreateFrameInfo           00000001401690dc f   LIBCMT:trnsctrl.obj
 0001:00168120       _FindAndUnlinkFrame        0000000140169120 f   LIBCMT:trnsctrl.obj
 0001:00168180       _GetImageBase              0000000140169180 f   LIBCMT:trnsctrl.obj
 0001:00168198       _GetThrowImageBase         0000000140169198 f   LIBCMT:trnsctrl.obj
 0001:001681b0       _IsExceptionObjectToBeDestroyed 00000001401691b0 f   LIBCMT:trnsctrl.obj
 0001:001681e4       _SetImageBase              00000001401691e4 f   LIBCMT:trnsctrl.obj
 0001:00168200       _SetThrowImageBase         0000000140169200 f   LIBCMT:trnsctrl.obj
 0001:0016821c       _UnwindNestedFrames        000000014016921c f   LIBCMT:trnsctrl.obj
 0001:00168394       __CxxFrameHandler3         0000000140169394 f   LIBCMT:trnsctrl.obj
 0001:00168420       __vdecl_expf4              0000000140169420 f   LIBCMT:svml_sexpf4_dispatch.obj
 0001:00168434       acosf                      0000000140169434 f   LIBCMT:acosf.obj
 0001:001686c0       asinf                      00000001401696c0 f   LIBCMT:asinf.obj
 0001:00168914       atan2f                     0000000140169914 f   LIBCMT:atan2f.obj
 0001:00168d9c       atanf                      0000000140169d9c f   LIBCMT:atanf.obj
 0001:00168fe0       cos                        0000000140169fe0 f   LIBCMT:cos.obj
 0001:00169470       cosf                       000000014016a470 f   LIBCMT:cosf.obj
 0001:00169770       expf                       000000014016a770 f   LIBCMT:expf.obj
 0001:001698c8       fmodf                      000000014016a8c8 f   LIBCMT:fmodf.obj
 0001:00169ba0       log10f                     000000014016aba0 f   LIBCMT:log10f.obj
 0001:00169e30       logf                       000000014016ae30 f   LIBCMT:logf.obj
 0001:0016a090       powf                       000000014016b090 f   LIBCMT:powf.obj
 0001:0016a8c0       sinf                       000000014016b8c0 f   LIBCMT:sinf.obj
 0001:0016aeb0       tanf                       000000014016beb0 f   LIBCMT:tanf.obj
 0001:0016b218       __DestructExceptionObject  000000014016c218 f   LIBCMT:frame.obj
 0001:0016b288       ??0bad_exception@std@@QEAA@AEBV01@@Z 000000014016c288 f i LIBCMT:frame.obj
 0001:0016b2ac       ??1bad_exception@std@@UEAA@XZ 000000014016c2ac f i LIBCMT:frame.obj
 0001:0016b2bc       ??_Ebad_exception@std@@UEAAPEAXI@Z 000000014016c2bc f i LIBCMT:frame.obj
 0001:0016b2bc       ??_Gbad_exception@std@@UEAAPEAXI@Z 000000014016c2bc f i LIBCMT:frame.obj
 0001:0016bbb0       __AdjustPointer            000000014016cbb0 f   LIBCMT:frame.obj
 0001:0016bbd4       __BuildCatchObject         000000014016cbd4 f   LIBCMT:frame.obj
 0001:0016bc8c       __BuildCatchObjectHelper   000000014016cc8c f   LIBCMT:frame.obj
 0001:0016be8c       __CxxCallCatchBlock        000000014016ce8c f   LIBCMT:frame.obj
 0001:0016c090       __FrameUnwindFilter        000000014016d090 f   LIBCMT:frame.obj
 0001:0016c0e4       __FrameUnwindToState       000000014016d0e4 f   LIBCMT:frame.obj
 0001:0016c278       __InternalCxxFrameHandler  000000014016d278 f   LIBCMT:frame.obj
 0001:0016c49c       __TypeMatch                000000014016d49c f   LIBCMT:frame.obj
 0001:0016c5bc       ?__GetCurrentState@@YAHPEA_KPEAU_xDISPATCHER_CONTEXT@@PEBU_s_FuncInfo@@@Z 000000014016d5bc f   LIBCMT:ehstate.obj
 0001:0016c5e4       ?__GetUnwindTryBlock@@YAHPEA_KPEAU_xDISPATCHER_CONTEXT@@PEBU_s_FuncInfo@@@Z 000000014016d5e4 f   LIBCMT:ehstate.obj
 0001:0016c610       ?__SetState@@YAXPEA_KPEAU_xDISPATCHER_CONTEXT@@PEBU_s_FuncInfo@@H@Z 000000014016d610 f   LIBCMT:ehstate.obj
 0001:0016c61c       ?__SetUnwindTryBlock@@YAXPEA_KPEAU_xDISPATCHER_CONTEXT@@PEBU_s_FuncInfo@@H@Z 000000014016d61c f   LIBCMT:ehstate.obj
 0001:0016c658       ?__StateFromControlPc@@YAHPEBU_s_FuncInfo@@PEAU_xDISPATCHER_CONTEXT@@@Z 000000014016d658 f   LIBCMT:ehstate.obj
 0001:0016c660       ?__StateFromIp@@YAHPEBU_s_FuncInfo@@PEAU_xDISPATCHER_CONTEXT@@_J@Z 000000014016d660 f   LIBCMT:ehstate.obj
 0001:0016c6f0       __sse2_expf4               000000014016d6f0 f   LIBCMT:svml_sexpf4_sse2.obj
 0001:0016c970       __sse4_expf4               000000014016d970 f   LIBCMT:svml_sexpf4_sse4.obj
 0001:0016cbe0       _clrfp                     000000014016dbe0 f   LIBCMT:fpctrl.obj
 0001:0016cc00       _ctrlfp                    000000014016dc00 f   LIBCMT:fpctrl.obj
 0001:0016cc7c       _set_statfp                000000014016dc7c f   LIBCMT:fpctrl.obj
 0001:0016cc9c       _statfp                    000000014016dc9c f   LIBCMT:fpctrl.obj
 0001:0016cdd4       _handle_error              000000014016ddd4 f   LIBCMT:libm_error.obj
 0001:0016cefc       _handle_errorf             000000014016defc f   LIBCMT:libm_error.obj
 0001:0016d030       __remainder_piby2          000000014016e030 f   LIBCMT:remainder_piby2.obj
 0001:0016d508       _cos_special               000000014016e508 f   LIBCMT:sincos_special.obj
 0001:0016d51c       _cosf_special              000000014016e51c f   LIBCMT:sincos_special.obj
 0001:0016d530       _sincos_special            000000014016e530 f   LIBCMT:sincos_special.obj
 0001:0016d604       _sincosf_special           000000014016e604 f   LIBCMT:sincos_special.obj
 0001:0016d6a0       _sinf_special              000000014016e6a0 f   LIBCMT:sincos_special.obj
 0001:0016d6b4       __remainder_piby2f         000000014016e6b4 f   LIBCMT:remainder_piby2f.obj
 0001:0016d924       _expf_special              000000014016e924 f   LIBCMT:exp_special.obj
 0001:0016da10       _log10f_special            000000014016ea10 f   LIBCMT:log_special.obj
 0001:0016da30       _logf_special              000000014016ea30 f   LIBCMT:log_special.obj
 0001:0016db70       _powf_special              000000014016eb70 f   LIBCMT:pow_special.obj
 0001:0016dc98       ?_ValidateRead@@YAHPEBXI@Z 000000014016ec98 f   LIBCMT:validate.obj
 0001:0016dc98       ?_ValidateWrite@@YAHPEAXI@Z 000000014016ec98 f   LIBCMT:validate.obj
 0001:0016dc98       ?_ValidateExecute@@YAHP6A_JXZ@Z 000000014016ec98 f   LIBCMT:validate.obj
 0001:0016dcc0       _CallSettingFrame          000000014016ecc0 f   LIBCMT:handlers.obj
 0001:0016dd00       _GetNextInstrOffset        000000014016ed00 f   LIBCMT:handlers.obj
 0001:0016dd08       ??0exception@std@@QEAA@AEBQEBD@Z 000000014016ed08 f   LIBCMT:stdexcpt.obj
 0001:0016dd38       ??0exception@std@@QEAA@AEBV01@@Z 000000014016ed38 f   LIBCMT:stdexcpt.obj
 0001:0016dd64       ??1exception@std@@UEAA@XZ  000000014016ed64 f   LIBCMT:stdexcpt.obj
 0001:0016dd74       ??4exception@std@@QEAAAEAV01@AEBV01@@Z 000000014016ed74 f   LIBCMT:stdexcpt.obj
 0001:0016ddb8       ??_Eexception@std@@UEAAPEAXI@Z 000000014016edb8 f i LIBCMT:stdexcpt.obj
 0001:0016ddb8       ??_Gexception@std@@UEAAPEAXI@Z 000000014016edb8 f i LIBCMT:stdexcpt.obj
 0001:0016ddf4       ?_Copy_str@exception@std@@AEAAXPEBD@Z 000000014016edf4 f   LIBCMT:stdexcpt.obj
 0001:0016de50       ?_Tidy@exception@std@@AEAAXXZ 000000014016ee50 f   LIBCMT:stdexcpt.obj
 0001:0016de78       ?what@exception@std@@UEBAPEBDXZ 000000014016ee78 f   LIBCMT:stdexcpt.obj
 0001:0016de8c       _CxxThrowException         000000014016ee8c f   LIBCMT:throw.obj
 0001:0016df80       _get_fpsr                  000000014016ef80 f   LIBCMT:fpsr.obj
 0001:0016df90       _set_fpsr                  000000014016ef90 f   LIBCMT:fpsr.obj
 0001:0016df9a       _fclrf                     000000014016ef9a f   LIBCMT:fpsr.obj
 0001:0016dfae       _frnd                      000000014016efae f   LIBCMT:fpsr.obj
 0001:0016dfd0       _raise_exc                 000000014016efd0 f   LIBCMT:fpexcept.obj
 0001:0016dff8       _raise_exc_ex              000000014016eff8 f   LIBCMT:fpexcept.obj
 0001:0016e2fc       _raise_excf                000000014016f2fc f   LIBCMT:fpexcept.obj
 0001:0016e328       _set_errno_from_matherr    000000014016f328 f   LIBCMT:fpexcept.obj
 0001:0016e358       _matherr                   000000014016f358 f   LIBCMT:matherr.obj
 0001:00189f10       ??__Fmeshgroups@?1??sharemeshes@animmodel@@QEAAPEAUmeshgroup@1@PEBDZZ@YAXXZ 000000014018af10 f i rendermodel.obj
 0001:00189f20       ??__Fskeletons@?4??shareskeleton@skelmeshgroup@skelmodel@@QEAAXPEAD@Z@YAXXZ 000000014018af20 f i rendermodel.obj
 0002:00000000       __imp_RaiseException       000000014018c000     kernel32:KERNEL32.dll
 0002:00000008       __imp_RtlPcToFileHeader    000000014018c008     kernel32:KERNEL32.dll
 0002:00000010       __imp_SetEnvironmentVariableA 000000014018c010     kernel32:KERNEL32.dll
 0002:00000018       __imp_SetEndOfFile         000000014018c018     kernel32:KERNEL32.dll
 0002:00000020       __imp_CreateFileW          000000014018c020     kernel32:KERNEL32.dll
 0002:00000028       __imp_GetStringTypeW       000000014018c028     kernel32:KERNEL32.dll
 0002:00000030       __imp_WriteConsoleW        000000014018c030     kernel32:KERNEL32.dll
 0002:00000038       __imp_FlushFileBuffers     000000014018c038     kernel32:KERNEL32.dll
 0002:00000040       __imp_LCMapStringW         000000014018c040     kernel32:KERNEL32.dll
 0002:00000048       __imp_CompareStringW       000000014018c048     kernel32:KERNEL32.dll
 0002:00000050       __imp_GetCurrentProcessId  000000014018c050     kernel32:KERNEL32.dll
 0002:00000058       __imp_QueryPerformanceCounter 000000014018c058     kernel32:KERNEL32.dll
 0002:00000060       __imp_GetModuleFileNameA   000000014018c060     kernel32:KERNEL32.dll
 0002:00000068       __imp_SetFilePointer       000000014018c068     kernel32:KERNEL32.dll
 0002:00000070       __imp_ReadConsoleW         000000014018c070     kernel32:KERNEL32.dll
 0002:00000078       __imp_SetFilePointerEx     000000014018c078     kernel32:KERNEL32.dll
 0002:00000080       __imp_GetFileType          000000014018c080     kernel32:KERNEL32.dll
 0002:00000088       __imp_GetTimeZoneInformation 000000014018c088     kernel32:KERNEL32.dll
 0002:00000090       __imp_LoadLibraryExW       000000014018c090     kernel32:KERNEL32.dll
 0002:00000098       __imp_DeleteCriticalSection 000000014018c098     kernel32:KERNEL32.dll
 0002:000000a0       __imp_GetCurrentThreadId   000000014018c0a0     kernel32:KERNEL32.dll
 0002:000000a8       __imp_GetCPInfo            000000014018c0a8     kernel32:KERNEL32.dll
 0002:000000b0       __imp_GetOEMCP             000000014018c0b0     kernel32:KERNEL32.dll
 0002:000000b8       __imp_GetACP               000000014018c0b8     kernel32:KERNEL32.dll
 0002:000000c0       __imp_IsValidCodePage      000000014018c0c0     kernel32:KERNEL32.dll
 0002:000000c8       __imp_GetConsoleMode       000000014018c0c8     kernel32:KERNEL32.dll
 0002:000000d0       __imp_GetConsoleCP         000000014018c0d0     kernel32:KERNEL32.dll
 0002:000000d8       __imp_GetModuleHandleW     000000014018c0d8     kernel32:KERNEL32.dll
 0002:000000e0       __imp_GetStartupInfoW      000000014018c0e0     kernel32:KERNEL32.dll
 0002:000000e8       __imp_TlsFree              000000014018c0e8     kernel32:KERNEL32.dll
 0002:000000f0       __imp_TlsSetValue          000000014018c0f0     kernel32:KERNEL32.dll
 0002:000000f8       __imp_TlsGetValue          000000014018c0f8     kernel32:KERNEL32.dll
 0002:00000100       __imp_TlsAlloc             000000014018c100     kernel32:KERNEL32.dll
 0002:00000108       __imp_TerminateProcess     000000014018c108     kernel32:KERNEL32.dll
 0002:00000110       __imp_InitializeCriticalSectionAndSpinCount 000000014018c110     kernel32:KERNEL32.dll
 0002:00000118       __imp_SetLastError         000000014018c118     kernel32:KERNEL32.dll
 0002:00000120       __imp_SetUnhandledExceptionFilter 000000014018c120     kernel32:KERNEL32.dll
 0002:00000128       __imp_UnhandledExceptionFilter 000000014018c128     kernel32:KERNEL32.dll
 0002:00000130       __imp_RtlVirtualUnwind     000000014018c130     kernel32:KERNEL32.dll
 0002:00000138       __imp_RtlLookupFunctionEntry 000000014018c138     kernel32:KERNEL32.dll
 0002:00000140       __imp_RtlCaptureContext    000000014018c140     kernel32:KERNEL32.dll
 0002:00000148       __imp_MoveFileExW          000000014018c148     kernel32:KERNEL32.dll
 0002:00000150       __imp_DeleteFileW          000000014018c150     kernel32:KERNEL32.dll
 0002:00000158       __imp_LeaveCriticalSection 000000014018c158     kernel32:KERNEL32.dll
 0002:00000160       __imp_EnterCriticalSection 000000014018c160     kernel32:KERNEL32.dll
 0002:00000168       __imp_RtlUnwindEx          000000014018c168     kernel32:KERNEL32.dll
 0002:00000170       __imp_Sleep                000000014018c170     kernel32:KERNEL32.dll
 0002:00000178       __imp_HeapSize             000000014018c178     kernel32:KERNEL32.dll
 0002:00000180       __imp_GetModuleFileNameW   000000014018c180     kernel32:KERNEL32.dll
 0002:00000188       __imp_WriteFile            000000014018c188     kernel32:KERNEL32.dll
 0002:00000190       __imp_IsDebuggerPresent    000000014018c190     kernel32:KERNEL32.dll
 0002:00000198       __imp_GetProcessHeap       000000014018c198     kernel32:KERNEL32.dll
 0002:000001a0       __imp_ReadFile             000000014018c1a0     kernel32:KERNEL32.dll
 0002:000001a8       __imp_WideCharToMultiByte  000000014018c1a8     kernel32:KERNEL32.dll
 0002:000001b0       __imp_GetSystemTimeAsFileTime 000000014018c1b0     kernel32:KERNEL32.dll
 0002:000001b8       __imp_GetProcAddress       000000014018c1b8     kernel32:KERNEL32.dll
 0002:000001c0       __imp_GetModuleHandleExW   000000014018c1c0     kernel32:KERNEL32.dll
 0002:000001c8       __imp_ExitProcess          000000014018c1c8     kernel32:KERNEL32.dll
 0002:000001d0       __imp_MultiByteToWideChar  000000014018c1d0     kernel32:KERNEL32.dll
 0002:000001d8       __imp_AreFileApisANSI      000000014018c1d8     kernel32:KERNEL32.dll
 0002:000001e0       __imp_DecodePointer        000000014018c1e0     kernel32:KERNEL32.dll
 0002:000001e8       __imp_EncodePointer        000000014018c1e8     kernel32:KERNEL32.dll
 0002:000001f0       __imp_HeapAlloc            000000014018c1f0     kernel32:KERNEL32.dll
 0002:000001f8       __imp_IsProcessorFeaturePresent 000000014018c1f8     kernel32:KERNEL32.dll
 0002:00000200       __imp_HeapFree             000000014018c200     kernel32:KERNEL32.dll
 0002:00000208       __imp_GetLastError         000000014018c208     kernel32:KERNEL32.dll
 0002:00000210       __imp_GetSystemInfo        000000014018c210     kernel32:KERNEL32.dll
 0002:00000218       __imp_FindClose            000000014018c218     kernel32:KERNEL32.dll
 0002:00000220       __imp_FindNextFileA        000000014018c220     kernel32:KERNEL32.dll
 0002:00000228       __imp_FindFirstFileA       000000014018c228     kernel32:KERNEL32.dll
 0002:00000230       __imp_CreateDirectoryA     000000014018c230     kernel32:KERNEL32.dll
 0002:00000238       __imp_GetFileAttributesA   000000014018c238     kernel32:KERNEL32.dll
 0002:00000240       __imp_CloseHandle          000000014018c240     kernel32:KERNEL32.dll
 0002:00000248       __imp_UnmapViewOfFile      000000014018c248     kernel32:KERNEL32.dll
 0002:00000250       __imp_MapViewOfFile        000000014018c250     kernel32:KERNEL32.dll
 0002:00000258       __imp_OpenFileMappingA     000000014018c258     kernel32:KERNEL32.dll
 0002:00000260       __imp_GetCurrentThread     000000014018c260     kernel32:KERNEL32.dll
 0002:00000268       __imp_GlobalUnlock         000000014018c268     kernel32:KERNEL32.dll
 0002:00000270       __imp_GlobalLock           000000014018c270     kernel32:KERNEL32.dll
 0002:00000278       __imp_GlobalSize           000000014018c278     kernel32:KERNEL32.dll
 0002:00000280       __imp_GetCurrentProcess    000000014018c280     kernel32:KERNEL32.dll
 0002:00000288       __imp_SetPriorityClass     000000014018c288     kernel32:KERNEL32.dll
 0002:00000290       __imp_GetCommandLineA      000000014018c290     kernel32:KERNEL32.dll
 0002:00000298       __imp_SetConsoleOutputCP   000000014018c298     kernel32:KERNEL32.dll
 0002:000002a0       __imp_SetConsoleCP         000000014018c2a0     kernel32:KERNEL32.dll
 0002:000002a8       __imp_SetConsoleScreenBufferSize 000000014018c2a8     kernel32:KERNEL32.dll
 0002:000002b0       __imp_GetConsoleScreenBufferInfo 000000014018c2b0     kernel32:KERNEL32.dll
 0002:000002b8       __imp_GetStdHandle         000000014018c2b8     kernel32:KERNEL32.dll
 0002:000002c0       __imp_SetConsoleTitleA     000000014018c2c0     kernel32:KERNEL32.dll
 0002:000002c8       __imp_GetConsoleWindow     000000014018c2c8     kernel32:KERNEL32.dll
 0002:000002d0       __imp_SetConsoleCtrlHandler 000000014018c2d0     kernel32:KERNEL32.dll
 0002:000002d8       __imp_AllocConsole         000000014018c2d8     kernel32:KERNEL32.dll
 0002:000002e0       __imp_WriteConsoleA        000000014018c2e0     kernel32:KERNEL32.dll
 0002:000002e8       __imp_FreeEnvironmentStringsW 000000014018c2e8     kernel32:KERNEL32.dll
 0002:000002f0       __imp_SetStdHandle         000000014018c2f0     kernel32:KERNEL32.dll
 0002:000002f8       __imp_OutputDebugStringW   000000014018c2f8     kernel32:KERNEL32.dll
 0002:00000300       __imp_LoadLibraryW         000000014018c300     kernel32:KERNEL32.dll
 0002:00000308       __imp_HeapReAlloc          000000014018c308     kernel32:KERNEL32.dll
 0002:00000310       __imp_GetDateFormatW       000000014018c310     kernel32:KERNEL32.dll
 0002:00000318       __imp_GetTimeFormatW       000000014018c318     kernel32:KERNEL32.dll
 0002:00000320       __imp_GetEnvironmentStringsW 000000014018c320     kernel32:KERNEL32.dll
 0002:00000328       \177KERNEL32_NULL_THUNK_DATA 000000014018c328     kernel32:KERNEL32.dll
 0002:00000330       __imp_glTexCoord3f         000000014018c330     opengl32:OPENGL32.dll
 0002:00000338       __imp_glFrontFace          000000014018c338     opengl32:OPENGL32.dll
 0002:00000340       __imp_glNormalPointer      000000014018c340     opengl32:OPENGL32.dll
 0002:00000348       __imp_glLoadMatrixf        000000014018c348     opengl32:OPENGL32.dll
 0002:00000350       __imp_glFrustum            000000014018c350     opengl32:OPENGL32.dll
 0002:00000358       __imp_glMultMatrixf        000000014018c358     opengl32:OPENGL32.dll
 0002:00000360       __imp_glPolygonOffset      000000014018c360     opengl32:OPENGL32.dll
 0002:00000368       __imp_glIsEnabled          000000014018c368     opengl32:OPENGL32.dll
 0002:00000370       __imp_glFogf               000000014018c370     opengl32:OPENGL32.dll
 0002:00000378       __imp_glClear              000000014018c378     opengl32:OPENGL32.dll
 0002:00000380       __imp_glColorMask          000000014018c380     opengl32:OPENGL32.dll
 0002:00000388       __imp_glMaterialfv         000000014018c388     opengl32:OPENGL32.dll
 0002:00000390       __imp_glLightfv            000000014018c390     opengl32:OPENGL32.dll
 0002:00000398       __imp_glAlphaFunc          000000014018c398     opengl32:OPENGL32.dll
 0002:000003a0       __imp_glTexGeni            000000014018c3a0     opengl32:OPENGL32.dll
 0002:000003a8       __imp_glLightModelfv       000000014018c3a8     opengl32:OPENGL32.dll
 0002:000003b0       __imp_glColor4ubv          000000014018c3b0     opengl32:OPENGL32.dll
 0002:000003b8       __imp_glDepthRange         000000014018c3b8     opengl32:OPENGL32.dll
 0002:000003c0       __imp_glTexGenfv           000000014018c3c0     opengl32:OPENGL32.dll
 0002:000003c8       __imp_glColor4fv           000000014018c3c8     opengl32:OPENGL32.dll
 0002:000003d0       __imp_glTexEnvi            000000014018c3d0     opengl32:OPENGL32.dll
 0002:000003d8       __imp_glTexEnvfv           000000014018c3d8     opengl32:OPENGL32.dll
 0002:000003e0       __imp_glTexCoord4f         000000014018c3e0     opengl32:OPENGL32.dll
 0002:000003e8       __imp_glHint               000000014018c3e8     opengl32:OPENGL32.dll
 0002:000003f0       __imp_glTexImage1D         000000014018c3f0     opengl32:OPENGL32.dll
 0002:000003f8       __imp_glTexImage2D         000000014018c3f8     opengl32:OPENGL32.dll
 0002:00000400       __imp_glReadPixels         000000014018c400     opengl32:OPENGL32.dll
 0002:00000408       __imp_glGetTexLevelParameteriv 000000014018c408     opengl32:OPENGL32.dll
 0002:00000410       __imp_glFogi               000000014018c410     opengl32:OPENGL32.dll
 0002:00000418       __imp_glShadeModel         000000014018c418     opengl32:OPENGL32.dll
 0002:00000420       __imp_glClearDepth         000000014018c420     opengl32:OPENGL32.dll
 0002:00000428       __imp_glClearColor         000000014018c428     opengl32:OPENGL32.dll
 0002:00000430       __imp_glGetIntegerv        000000014018c430     opengl32:OPENGL32.dll
 0002:00000438       __imp_glGetString          000000014018c438     opengl32:OPENGL32.dll
 0002:00000440       __imp_glColor3ubv          000000014018c440     opengl32:OPENGL32.dll
 0002:00000448       __imp_glPolygonMode        000000014018c448     opengl32:OPENGL32.dll
 0002:00000450       __imp_glVertex3f           000000014018c450     opengl32:OPENGL32.dll
 0002:00000458       __imp_glVertex2i           000000014018c458     opengl32:OPENGL32.dll
 0002:00000460       __imp_glCopyTexSubImage2D  000000014018c460     opengl32:OPENGL32.dll
 0002:00000468       __imp_glReadBuffer         000000014018c468     opengl32:OPENGL32.dll
 0002:00000470       __imp_glDrawBuffer         000000014018c470     opengl32:OPENGL32.dll
 0002:00000478       __imp_glFlush              000000014018c478     opengl32:OPENGL32.dll
 0002:00000480       __imp_glDrawArrays         000000014018c480     opengl32:OPENGL32.dll
 0002:00000488       __imp_glFogfv              000000014018c488     opengl32:OPENGL32.dll
 0002:00000490       __imp_glGetFloatv          000000014018c490     opengl32:OPENGL32.dll
 0002:00000498       __imp_glDeleteTextures     000000014018c498     opengl32:OPENGL32.dll
 0002:000004a0       __imp_glGenTextures        000000014018c4a0     opengl32:OPENGL32.dll
 0002:000004a8       __imp_glTexParameteri      000000014018c4a8     opengl32:OPENGL32.dll
 0002:000004b0       __imp_glTexParameterfv     000000014018c4b0     opengl32:OPENGL32.dll
 0002:000004b8       __imp_glBindTexture        000000014018c4b8     opengl32:OPENGL32.dll
 0002:000004c0       __imp_glPixelStorei        000000014018c4c0     opengl32:OPENGL32.dll
 0002:000004c8       __imp_glTexSubImage2D      000000014018c4c8     opengl32:OPENGL32.dll
 0002:000004d0       __imp_glBegin              000000014018c4d0     opengl32:OPENGL32.dll
 0002:000004d8       __imp_glVertex3fv          000000014018c4d8     opengl32:OPENGL32.dll
 0002:000004e0       __imp_glEnd                000000014018c4e0     opengl32:OPENGL32.dll
 0002:000004e8       __imp_glEnable             000000014018c4e8     opengl32:OPENGL32.dll
 0002:000004f0       __imp_glBlendFunc          000000014018c4f0     opengl32:OPENGL32.dll
 0002:000004f8       __imp_glDrawElements       000000014018c4f8     opengl32:OPENGL32.dll
 0002:00000500       __imp_glColor3ub           000000014018c500     opengl32:OPENGL32.dll
 0002:00000508       __imp_glDisable            000000014018c508     opengl32:OPENGL32.dll
 0002:00000510       __imp_glPushMatrix         000000014018c510     opengl32:OPENGL32.dll
 0002:00000518       __imp_glScalef             000000014018c518     opengl32:OPENGL32.dll
 0002:00000520       __imp_glColor4f            000000014018c520     opengl32:OPENGL32.dll
 0002:00000528       __imp_glTexCoord2fv        000000014018c528     opengl32:OPENGL32.dll
 0002:00000530       __imp_glVertex2f           000000014018c530     opengl32:OPENGL32.dll
 0002:00000538       __imp_glPopMatrix          000000014018c538     opengl32:OPENGL32.dll
 0002:00000540       __imp_glColor3f            000000014018c540     opengl32:OPENGL32.dll
 0002:00000548       __imp_glLineWidth          000000014018c548     opengl32:OPENGL32.dll
 0002:00000550       __imp_glDepthFunc          000000014018c550     opengl32:OPENGL32.dll
 0002:00000558       __imp_glViewport           000000014018c558     opengl32:OPENGL32.dll
 0002:00000560       __imp_glScissor            000000014018c560     opengl32:OPENGL32.dll
 0002:00000568       __imp_glColor3fv           000000014018c568     opengl32:OPENGL32.dll
 0002:00000570       __imp_glColor4ub           000000014018c570     opengl32:OPENGL32.dll
 0002:00000578       __imp_glTexCoord2f         000000014018c578     opengl32:OPENGL32.dll
 0002:00000580       __imp_glTranslatef         000000014018c580     opengl32:OPENGL32.dll
 0002:00000588       __imp_glRotatef            000000014018c588     opengl32:OPENGL32.dll
 0002:00000590       __imp_glDepthMask          000000014018c590     opengl32:OPENGL32.dll
 0002:00000598       __imp_glMatrixMode         000000014018c598     opengl32:OPENGL32.dll
 0002:000005a0       __imp_glLoadIdentity       000000014018c5a0     opengl32:OPENGL32.dll
 0002:000005a8       __imp_glOrtho              000000014018c5a8     opengl32:OPENGL32.dll
 0002:000005b0       __imp_glEnableClientState  000000014018c5b0     opengl32:OPENGL32.dll
 0002:000005b8       __imp_glDisableClientState 000000014018c5b8     opengl32:OPENGL32.dll
 0002:000005c0       __imp_glVertexPointer      000000014018c5c0     opengl32:OPENGL32.dll
 0002:000005c8       __imp_glTexCoordPointer    000000014018c5c8     opengl32:OPENGL32.dll
 0002:000005d0       __imp_glColorPointer       000000014018c5d0     opengl32:OPENGL32.dll
 0002:000005d8       __imp_glCullFace           000000014018c5d8     opengl32:OPENGL32.dll
 0002:000005e0       \177OPENGL32_NULL_THUNK_DATA 000000014018c5e0     opengl32:OPENGL32.dll
 0002:000005e8       __imp_SDL_AllocRW          000000014018c5e8     SDL:SDL.dll
 0002:000005f0       __imp_SDL_RWFromFile       000000014018c5f0     SDL:SDL.dll
 0002:000005f8       __imp_SDL_UnlockAudio      000000014018c5f8     SDL:SDL.dll
 0002:00000600       __imp_SDL_LockAudio        000000014018c600     SDL:SDL.dll
 0002:00000608       __imp_SDL_WM_SetCaption    000000014018c608     SDL:SDL.dll
 0002:00000610       __imp_SDL_GetVideoInfo     000000014018c610     SDL:SDL.dll
 0002:00000618       __imp_SDL_Linked_Version   000000014018c618     SDL:SDL.dll
 0002:00000620       __imp_SDL_Init             000000014018c620     SDL:SDL.dll
 0002:00000628       __imp_SDL_GL_SwapBuffers   000000014018c628     SDL:SDL.dll
 0002:00000630       __imp_SDL_PeepEvents       000000014018c630     SDL:SDL.dll
 0002:00000638       __imp_SDL_PumpEvents       000000014018c638     SDL:SDL.dll
 0002:00000640       __imp_SDL_PollEvent        000000014018c640     SDL:SDL.dll
 0002:00000648       __imp_SDL_SetVideoMode     000000014018c648     SDL:SDL.dll
 0002:00000650       __imp_SDL_GL_SetAttribute  000000014018c650     SDL:SDL.dll
 0002:00000658       __imp_SDL_VideoModeOK      000000014018c658     SDL:SDL.dll
 0002:00000660       __imp_SDL_ListModes        000000014018c660     SDL:SDL.dll
 0002:00000668       __imp_SDL_CondBroadcast    000000014018c668     SDL:SDL.dll
 0002:00000670       __imp_SDL_CondWait         000000014018c670     SDL:SDL.dll
 0002:00000678       __imp_SDL_CondSignal       000000014018c678     SDL:SDL.dll
 0002:00000680       __imp_SDL_mutexV           000000014018c680     SDL:SDL.dll
 0002:00000688       __imp_SDL_mutexP           000000014018c688     SDL:SDL.dll
 0002:00000690       __imp_SDL_GetTicks         000000014018c690     SDL:SDL.dll
 0002:00000698       __imp_SDL_GetError         000000014018c698     SDL:SDL.dll
 0002:000006a0       __imp_SDL_SetGamma         000000014018c6a0     SDL:SDL.dll
 0002:000006a8       __imp_SDL_EnableKeyRepeat  000000014018c6a8     SDL:SDL.dll
 0002:000006b0       __imp_SDL_DestroyCond      000000014018c6b0     SDL:SDL.dll
 0002:000006b8       __imp_SDL_WasInit          000000014018c6b8     SDL:SDL.dll
 0002:000006c0       __imp_SDL_Quit             000000014018c6c0     SDL:SDL.dll
 0002:000006c8       __imp_SDL_WM_GrabInput     000000014018c6c8     SDL:SDL.dll
 0002:000006d0       __imp_SDL_ShowCursor       000000014018c6d0     SDL:SDL.dll
 0002:000006d8       __imp_SDL_GetModState      000000014018c6d8     SDL:SDL.dll
 0002:000006e0       __imp_SDL_SaveBMP_RW       000000014018c6e0     SDL:SDL.dll
 0002:000006e8       __imp_SDL_FreeRW           000000014018c6e8     SDL:SDL.dll
 0002:000006f0       __imp_SDL_SetAlpha         000000014018c6f0     SDL:SDL.dll
 0002:000006f8       __imp_SDL_FreeSurface      000000014018c6f8     SDL:SDL.dll
 0002:00000700       __imp_SDL_UpperBlit        000000014018c700     SDL:SDL.dll
 0002:00000708       __imp_SDL_CreateRGBSurface 000000014018c708     SDL:SDL.dll
 0002:00000710       __imp_SDL_CreateRGBSurfaceFrom 000000014018c710     SDL:SDL.dll
 0002:00000718       __imp_SDL_GL_GetProcAddress 000000014018c718     SDL:SDL.dll
 0002:00000720       __imp_SDL_EnableUNICODE    000000014018c720     SDL:SDL.dll
 0002:00000728       __imp_SDL_KillThread       000000014018c728     SDL:SDL.dll
 0002:00000730       __imp_SDL_ThreadID         000000014018c730     SDL:SDL.dll
 0002:00000738       __imp_SDL_GetThreadID      000000014018c738     SDL:SDL.dll
 0002:00000740       __imp_SDL_SetModuleHandle  000000014018c740     SDL:SDL.dll
 0002:00000748       __imp_SDL_Delay            000000014018c748     SDL:SDL.dll
 0002:00000750       __imp_SDL_RemoveTimer      000000014018c750     SDL:SDL.dll
 0002:00000758       __imp_SDL_AddTimer         000000014018c758     SDL:SDL.dll
 0002:00000760       __imp_SDL_WaitThread       000000014018c760     SDL:SDL.dll
 0002:00000768       __imp_SDL_CreateMutex      000000014018c768     SDL:SDL.dll
 0002:00000770       __imp_SDL_DestroyMutex     000000014018c770     SDL:SDL.dll
 0002:00000778       __imp_SDL_CreateThread     000000014018c778     SDL:SDL.dll
 0002:00000780       __imp_SDL_CreateCond       000000014018c780     SDL:SDL.dll
 0002:00000788       __imp_SDL_CondWaitTimeout  000000014018c788     SDL:SDL.dll
 0002:00000790       \177SDL_NULL_THUNK_DATA    000000014018c790     SDL:SDL.dll
 0002:00000798       __imp_IMG_Load_RW          000000014018c798     SDL_image:SDL_image.dll
 0002:000007a0       __imp_IMG_Load             000000014018c7a0     SDL_image:SDL_image.dll
 0002:000007a8       \177SDL_image_NULL_THUNK_DATA 000000014018c7a8     SDL_image:SDL_image.dll
 0002:000007b0       __imp_Mix_Volume           000000014018c7b0     SDL_mixer:SDL_mixer.dll
 0002:000007b8       __imp_Mix_SetPanning       000000014018c7b8     SDL_mixer:SDL_mixer.dll
 0002:000007c0       __imp_Mix_HaltChannel      000000014018c7c0     SDL_mixer:SDL_mixer.dll
 0002:000007c8       __imp_Mix_VolumeMusic      000000014018c7c8     SDL_mixer:SDL_mixer.dll
 0002:000007d0       __imp_Mix_HaltMusic        000000014018c7d0     SDL_mixer:SDL_mixer.dll
 0002:000007d8       __imp_Mix_FreeMusic        000000014018c7d8     SDL_mixer:SDL_mixer.dll
 0002:000007e0       __imp_Mix_OpenAudio        000000014018c7e0     SDL_mixer:SDL_mixer.dll
 0002:000007e8       __imp_Mix_AllocateChannels 000000014018c7e8     SDL_mixer:SDL_mixer.dll
 0002:000007f0       __imp_Mix_ChannelFinished  000000014018c7f0     SDL_mixer:SDL_mixer.dll
 0002:000007f8       __imp_Mix_LoadMUS_RW       000000014018c7f8     SDL_mixer:SDL_mixer.dll
 0002:00000800       __imp_Mix_FadingChannel    000000014018c800     SDL_mixer:SDL_mixer.dll
 0002:00000808       __imp_Mix_CloseAudio       000000014018c808     SDL_mixer:SDL_mixer.dll
 0002:00000810       __imp_Mix_PlayingMusic     000000014018c810     SDL_mixer:SDL_mixer.dll
 0002:00000818       __imp_Mix_PausedMusic      000000014018c818     SDL_mixer:SDL_mixer.dll
 0002:00000820       __imp_Mix_ResumeMusic      000000014018c820     SDL_mixer:SDL_mixer.dll
 0002:00000828       __imp_Mix_LoadWAV_RW       000000014018c828     SDL_mixer:SDL_mixer.dll
 0002:00000830       __imp_Mix_PlayChannelTimed 000000014018c830     SDL_mixer:SDL_mixer.dll
 0002:00000838       __imp_Mix_Linked_Version   000000014018c838     SDL_mixer:SDL_mixer.dll
 0002:00000840       __imp_Mix_QuerySpec        000000014018c840     SDL_mixer:SDL_mixer.dll
 0002:00000848       __imp_Mix_FreeChunk        000000014018c848     SDL_mixer:SDL_mixer.dll
 0002:00000850       __imp_Mix_PlayMusic        000000014018c850     SDL_mixer:SDL_mixer.dll
 0002:00000858       __imp_Mix_LoadMUS          000000014018c858     SDL_mixer:SDL_mixer.dll
 0002:00000860       __imp_Mix_SetPostMix       000000014018c860     SDL_mixer:SDL_mixer.dll
 0002:00000868       \177SDL_mixer_NULL_THUNK_DATA 000000014018c868     SDL_mixer:SDL_mixer.dll
 0002:00000870       __imp_SHGetFolderPathA     000000014018c870     shell32:SHELL32.dll
 0002:00000878       __imp_Shell_NotifyIconA    000000014018c878     shell32:SHELL32.dll
 0002:00000880       \177SHELL32_NULL_THUNK_DATA 000000014018c880     shell32:SHELL32.dll
 0002:00000888       __imp_UnregisterClassA     000000014018c888     user32:USER32.dll
 0002:00000890       __imp_MessageBoxA          000000014018c890     user32:USER32.dll
 0002:00000898       __imp_CloseClipboard       000000014018c898     user32:USER32.dll
 0002:000008a0       __imp_GetClipboardData     000000014018c8a0     user32:USER32.dll
 0002:000008a8       __imp_OpenClipboard        000000014018c8a8     user32:USER32.dll
 0002:000008b0       __imp_IsClipboardFormatAvailable 000000014018c8b0     user32:USER32.dll
 0002:000008b8       __imp_DispatchMessageA     000000014018c8b8     user32:USER32.dll
 0002:000008c0       __imp_TranslateMessage     000000014018c8c0     user32:USER32.dll
 0002:000008c8       __imp_PeekMessageA         000000014018c8c8     user32:USER32.dll
 0002:000008d0       __imp_CreateWindowExA      000000014018c8d0     user32:USER32.dll
 0002:000008d8       __imp_SendMessageA         000000014018c8d8     user32:USER32.dll
 0002:000008e0       __imp_RegisterClassA       000000014018c8e0     user32:USER32.dll
 0002:000008e8       __imp_AppendMenuA          000000014018c8e8     user32:USER32.dll
 0002:000008f0       __imp_CreatePopupMenu      000000014018c8f0     user32:USER32.dll
 0002:000008f8       __imp_LoadIconA            000000014018c8f8     user32:USER32.dll
 0002:00000900       __imp_DefWindowProcA       000000014018c900     user32:USER32.dll
 0002:00000908       __imp_PostQuitMessage      000000014018c908     user32:USER32.dll
 0002:00000910       __imp_ShowWindow           000000014018c910     user32:USER32.dll
 0002:00000918       __imp_ModifyMenuA          000000014018c918     user32:USER32.dll
 0002:00000920       __imp_PostMessageA         000000014018c920     user32:USER32.dll
 0002:00000928       __imp_TrackPopupMenu       000000014018c928     user32:USER32.dll
 0002:00000930       __imp_GetCursorPos         000000014018c930     user32:USER32.dll
 0002:00000938       __imp_SetForegroundWindow  000000014018c938     user32:USER32.dll
 0002:00000940       __imp_DestroyMenu          000000014018c940     user32:USER32.dll
 0002:00000948       \177USER32_NULL_THUNK_DATA 000000014018c948     user32:USER32.dll
 0002:00000950       __imp_timeGetTime          000000014018c950     winmm:WINMM.dll
 0002:00000958       __imp_timeEndPeriod        000000014018c958     winmm:WINMM.dll
 0002:00000960       __imp_timeBeginPeriod      000000014018c960     winmm:WINMM.dll
 0002:00000968       \177WINMM_NULL_THUNK_DATA  000000014018c968     winmm:WINMM.dll
 0002:00000970       __imp_WSASendTo            000000014018c970     ws2_32:WS2_32.dll
 0002:00000978       __imp_closesocket          000000014018c978     ws2_32:WS2_32.dll
 0002:00000980       __imp_shutdown             000000014018c980     ws2_32:WS2_32.dll
 0002:00000988       __imp_accept               000000014018c988     ws2_32:WS2_32.dll
 0002:00000990       __imp_WSAGetLastError      000000014018c990     ws2_32:WS2_32.dll
 0002:00000998       __imp_connect              000000014018c998     ws2_32:WS2_32.dll
 0002:000009a0       __imp_ioctlsocket          000000014018c9a0     ws2_32:WS2_32.dll
 0002:000009a8       __imp_setsockopt           000000014018c9a8     ws2_32:WS2_32.dll
 0002:000009b0       __imp_socket               000000014018c9b0     ws2_32:WS2_32.dll
 0002:000009b8       __imp_listen               000000014018c9b8     ws2_32:WS2_32.dll
 0002:000009c0       __imp_WSARecvFrom          000000014018c9c0     ws2_32:WS2_32.dll
 0002:000009c8       __imp_gethostbyaddr        000000014018c9c8     ws2_32:WS2_32.dll
 0002:000009d0       __imp_inet_addr            000000014018c9d0     ws2_32:WS2_32.dll
 0002:000009d8       __imp_gethostbyname        000000014018c9d8     ws2_32:WS2_32.dll
 0002:000009e0       __imp_WSACleanup           000000014018c9e0     ws2_32:WS2_32.dll
 0002:000009e8       __imp_WSAStartup           000000014018c9e8     ws2_32:WS2_32.dll
 0002:000009f0       __imp_ntohs                000000014018c9f0     ws2_32:WS2_32.dll
 0002:000009f8       __imp_ntohl                000000014018c9f8     ws2_32:WS2_32.dll
 0002:00000a00       __imp_htonl                000000014018ca00     ws2_32:WS2_32.dll
 0002:00000a08       __imp_htons                000000014018ca08     ws2_32:WS2_32.dll
 0002:00000a10       __imp___WSAFDIsSet         000000014018ca10     ws2_32:WS2_32.dll
 0002:00000a18       __imp_select               000000014018ca18     ws2_32:WS2_32.dll
 0002:00000a20       __imp_bind                 000000014018ca20     ws2_32:WS2_32.dll
 0002:00000a28       __imp_inet_ntoa            000000014018ca28     ws2_32:WS2_32.dll
 0002:00000a30       \177WS2_32_NULL_THUNK_DATA 000000014018ca30     ws2_32:WS2_32.dll
 0002:00000a38       __imp_SymGetLineFromAddr64 000000014018ca38     dbghelp:dbghelp.dll
 0002:00000a40       __imp_SymGetSymFromAddr64  000000014018ca40     dbghelp:dbghelp.dll
 0002:00000a48       __imp_SymFunctionTableAccess64 000000014018ca48     dbghelp:dbghelp.dll
 0002:00000a50       __imp_SymGetModuleBase64   000000014018ca50     dbghelp:dbghelp.dll
 0002:00000a58       __imp_StackWalk64          000000014018ca58     dbghelp:dbghelp.dll
 0002:00000a60       __imp_SymInitialize        000000014018ca60     dbghelp:dbghelp.dll
 0002:00000a68       \177dbghelp_NULL_THUNK_DATA 000000014018ca68     dbghelp:dbghelp.dll
 0002:00000a70       __imp_zError               000000014018ca70     zdll:zlib1.dll
 0002:00000a78       __imp_inflate              000000014018ca78     zdll:zlib1.dll
 0002:00000a80       __imp_inflateReset         000000014018ca80     zdll:zlib1.dll
 0002:00000a88       __imp_inflateEnd           000000014018ca88     zdll:zlib1.dll
 0002:00000a90       __imp_deflateInit2_        000000014018ca90     zdll:zlib1.dll
 0002:00000a98       __imp_inflateInit2_        000000014018ca98     zdll:zlib1.dll
 0002:00000aa0       __imp_deflateEnd           000000014018caa0     zdll:zlib1.dll
 0002:00000aa8       __imp_deflate              000000014018caa8     zdll:zlib1.dll
 0002:00000ab0       __imp_deflateInit_         000000014018cab0     zdll:zlib1.dll
 0002:00000ab8       __imp_crc32                000000014018cab8     zdll:zlib1.dll
 0002:00000ac0       \177zlib1_NULL_THUNK_DATA  000000014018cac0     zdll:zlib1.dll
 0002:00000ac8       __xc_a                     000000014018cac8     LIBCMT:crt0init.obj
 0002:00003168       __xc_z                     000000014018f168     LIBCMT:crt0init.obj
 0002:00003170       __xi_a                     000000014018f170     LIBCMT:crt0init.obj
 0002:000031a0       __xi_z                     000000014018f1a0     LIBCMT:crt0init.obj
 0002:000031a8       __xp_a                     000000014018f1a8     LIBCMT:crt0init.obj
 0002:000031c8       __xp_z                     000000014018f1c8     LIBCMT:crt0init.obj
 0002:000031d0       __xt_a                     000000014018f1d0     LIBCMT:crt0init.obj
 0002:000031d8       __xt_z                     000000014018f1d8     LIBCMT:crt0init.obj
 0002:000033e8       ??_7type_info@@6B@         000000014018f3e8     LIBCMT:typinfo.obj
 0002:000033f0       ??_C@_1BI@BGOHAHKC@?$AAm?$AAs?$AAc?$AAo?$AAr?$AAe?$AAe?$AA?4?$AAd?$AAl?$AAl?$AA?$AA@ 000000014018f3f0     LIBCMT:crt0dat.obj
 0002:00003408       ??_C@_0P@MIGLKIOC@CorExitProcess?$AA@ 000000014018f408     LIBCMT:crt0dat.obj
 0002:00003590       ??_C@_1FK@PGACCAFB@?$AAR?$AA6?$AA0?$AA0?$AA2?$AA?$AN?$AA?6?$AA?9?$AA?5?$AAf?$AAl?$AAo?$AAa?$AAt?$AAi?$AAn?$AAg?$AA?5?$AAp?$AAo?$AAi?$AAn?$AAt?$AA?5?$AAs?$AAu?$AAp?$AAp?$AAo?$AAr?$AAt?$AA?5@ 000000014018f590     LIBCMT:crt0msg.obj
 0002:000035f0       ??_C@_1FE@LLNEDJMD@?$AAR?$AA6?$AA0?$AA0?$AA8?$AA?$AN?$AA?6?$AA?9?$AA?5?$AAn?$AAo?$AAt?$AA?5?$AAe?$AAn?$AAo?$AAu?$AAg?$AAh?$AA?5?$AAs?$AAp?$AAa?$AAc?$AAe?$AA?5?$AAf?$AAo?$AAr?$AA?5?$AAa?$AAr@ 000000014018f5f0     LIBCMT:crt0msg.obj
 0002:00003650       ??_C@_1FI@HONFMGBI@?$AAR?$AA6?$AA0?$AA0?$AA9?$AA?$AN?$AA?6?$AA?9?$AA?5?$AAn?$AAo?$AAt?$AA?5?$AAe?$AAn?$AAo?$AAu?$AAg?$AAh?$AA?5?$AAs?$AAp?$AAa?$AAc?$AAe?$AA?5?$AAf?$AAo?$AAr?$AA?5?$AAe?$AAn@ 000000014018f650     LIBCMT:crt0msg.obj
 0002:000036b0       ??_C@_1EG@BEHAGFJD@?$AAR?$AA6?$AA0?$AA1?$AA0?$AA?$AN?$AA?6?$AA?9?$AA?5?$AAa?$AAb?$AAo?$AAr?$AAt?$AA?$CI?$AA?$CJ?$AA?5?$AAh?$AAa?$AAs?$AA?5?$AAb?$AAe?$AAe?$AAn?$AA?5?$AAc?$AAa?$AAl?$AAl?$AAe?$AAd@ 000000014018f6b0     LIBCMT:crt0msg.obj
 0002:00003700       ??_C@_1FI@LOGNIKDM@?$AAR?$AA6?$AA0?$AA1?$AA6?$AA?$AN?$AA?6?$AA?9?$AA?5?$AAn?$AAo?$AAt?$AA?5?$AAe?$AAn?$AAo?$AAu?$AAg?$AAh?$AA?5?$AAs?$AAp?$AAa?$AAc?$AAe?$AA?5?$AAf?$AAo?$AAr?$AA?5?$AAt?$AAh@ 000000014018f700     LIBCMT:crt0msg.obj
 0002:00003760       ??_C@_1FK@BEOGODMC@?$AAR?$AA6?$AA0?$AA1?$AA7?$AA?$AN?$AA?6?$AA?9?$AA?5?$AAu?$AAn?$AAe?$AAx?$AAp?$AAe?$AAc?$AAt?$AAe?$AAd?$AA?5?$AAm?$AAu?$AAl?$AAt?$AAi?$AAt?$AAh?$AAr?$AAe?$AAa?$AAd?$AA?5@ 000000014018f760     LIBCMT:crt0msg.obj
 0002:000037c0       ??_C@_1EC@JIBHAOPH@?$AAR?$AA6?$AA0?$AA1?$AA8?$AA?$AN?$AA?6?$AA?9?$AA?5?$AAu?$AAn?$AAe?$AAx?$AAp?$AAe?$AAc?$AAt?$AAe?$AAd?$AA?5?$AAh?$AAe?$AAa?$AAp?$AA?5?$AAe?$AAr?$AAr?$AAo?$AAr?$AA?$AN?$AA?6@ 000000014018f7c0     LIBCMT:crt0msg.obj
 0002:00003810       ??_C@_1FC@ECHBIFBC@?$AAR?$AA6?$AA0?$AA1?$AA9?$AA?$AN?$AA?6?$AA?9?$AA?5?$AAu?$AAn?$AAa?$AAb?$AAl?$AAe?$AA?5?$AAt?$AAo?$AA?5?$AAo?$AAp?$AAe?$AAn?$AA?5?$AAc?$AAo?$AAn?$AAs?$AAo?$AAl?$AAe?$AA?5@ 000000014018f810     LIBCMT:crt0msg.obj
 0002:00003870       ??_C@_1GK@FHCKBEFA@?$AAR?$AA6?$AA0?$AA2?$AA4?$AA?$AN?$AA?6?$AA?9?$AA?5?$AAn?$AAo?$AAt?$AA?5?$AAe?$AAn?$AAo?$AAu?$AAg?$AAh?$AA?5?$AAs?$AAp?$AAa?$AAc?$AAe?$AA?5?$AAf?$AAo?$AAr?$AA?5?$AA_?$AAo@ 000000014018f870     LIBCMT:crt0msg.obj
 0002:000038e0       ??_C@_1EM@MAADIHMB@?$AAR?$AA6?$AA0?$AA2?$AA5?$AA?$AN?$AA?6?$AA?9?$AA?5?$AAp?$AAu?$AAr?$AAe?$AA?5?$AAv?$AAi?$AAr?$AAt?$AAu?$AAa?$AAl?$AA?5?$AAf?$AAu?$AAn?$AAc?$AAt?$AAi?$AAo?$AAn?$AA?5?$AAc@ 000000014018f8e0     LIBCMT:crt0msg.obj
 0002:00003930       ??_C@_1GK@MCAAGJMO@?$AAR?$AA6?$AA0?$AA2?$AA6?$AA?$AN?$AA?6?$AA?9?$AA?5?$AAn?$AAo?$AAt?$AA?5?$AAe?$AAn?$AAo?$AAu?$AAg?$AAh?$AA?5?$AAs?$AAp?$AAa?$AAc?$AAe?$AA?5?$AAf?$AAo?$AAr?$AA?5?$AAs?$AAt@ 000000014018f930     LIBCMT:crt0msg.obj
 0002:000039a0       ??_C@_1GK@MFGOKLAG@?$AAR?$AA6?$AA0?$AA2?$AA7?$AA?$AN?$AA?6?$AA?9?$AA?5?$AAn?$AAo?$AAt?$AA?5?$AAe?$AAn?$AAo?$AAu?$AAg?$AAh?$AA?5?$AAs?$AAp?$AAa?$AAc?$AAe?$AA?5?$AAf?$AAo?$AAr?$AA?5?$AAl?$AAo@ 000000014018f9a0     LIBCMT:crt0msg.obj
 0002:00003a10       ??_C@_1EK@HHFLMAOL@?$AAR?$AA6?$AA0?$AA2?$AA8?$AA?$AN?$AA?6?$AA?9?$AA?5?$AAu?$AAn?$AAa?$AAb?$AAl?$AAe?$AA?5?$AAt?$AAo?$AA?5?$AAi?$AAn?$AAi?$AAt?$AAi?$AAa?$AAl?$AAi?$AAz?$AAe?$AA?5?$AAh?$AAe@ 000000014018fa10     LIBCMT:crt0msg.obj
 0002:00003a60       ??_C@_1DO@BMFCDCD@?$AAR?$AA6?$AA0?$AA3?$AA0?$AA?$AN?$AA?6?$AA?9?$AA?5?$AAC?$AAR?$AAT?$AA?5?$AAn?$AAo?$AAt?$AA?5?$AAi?$AAn?$AAi?$AAt?$AAi?$AAa?$AAl?$AAi?$AAz?$AAe?$AAd?$AA?$AN?$AA?6?$AA?$AA@ 000000014018fa60     LIBCMT:crt0msg.obj
 0002:00003aa0       ??_C@_1MG@ENCOOIDF@?$AAR?$AA6?$AA0?$AA3?$AA1?$AA?$AN?$AA?6?$AA?9?$AA?5?$AAA?$AAt?$AAt?$AAe?$AAm?$AAp?$AAt?$AA?5?$AAt?$AAo?$AA?5?$AAi?$AAn?$AAi?$AAt?$AAi?$AAa?$AAl?$AAi?$AAz?$AAe?$AA?5?$AAt@ 000000014018faa0     LIBCMT:crt0msg.obj
 0002:00003b70       ??_C@_1GG@GOPILAJP@?$AAR?$AA6?$AA0?$AA3?$AA2?$AA?$AN?$AA?6?$AA?9?$AA?5?$AAn?$AAo?$AAt?$AA?5?$AAe?$AAn?$AAo?$AAu?$AAg?$AAh?$AA?5?$AAs?$AAp?$AAa?$AAc?$AAe?$AA?5?$AAf?$AAo?$AAr?$AA?5?$AAl?$AAo@ 000000014018fb70     LIBCMT:crt0msg.obj
 0002:00003be0       ??_C@_1BOO@KGEDBGAJ@?$AAR?$AA6?$AA0?$AA3?$AA3?$AA?$AN?$AA?6?$AA?9?$AA?5?$AAA?$AAt?$AAt?$AAe?$AAm?$AAp?$AAt?$AA?5?$AAt?$AAo?$AA?5?$AAu?$AAs?$AAe?$AA?5?$AAM?$AAS?$AAI?$AAL?$AA?5?$AAc?$AAo?$AAd@ 000000014018fbe0     LIBCMT:crt0msg.obj
 0002:00003dd0       ??_C@_1GG@MKFPEKFO@?$AAR?$AA6?$AA0?$AA3?$AA4?$AA?$AN?$AA?6?$AA?9?$AA?5?$AAi?$AAn?$AAc?$AAo?$AAn?$AAs?$AAi?$AAs?$AAt?$AAe?$AAn?$AAt?$AA?5?$AAo?$AAn?$AAe?$AAx?$AAi?$AAt?$AA?5?$AAb?$AAe?$AAg@ 000000014018fdd0     LIBCMT:crt0msg.obj
 0002:00003e38       ??_C@_1BO@BFCDCGC@?$AAD?$AAO?$AAM?$AAA?$AAI?$AAN?$AA?5?$AAe?$AAr?$AAr?$AAo?$AAr?$AA?$AN?$AA?6?$AA?$AA@ 000000014018fe38     LIBCMT:crt0msg.obj
 0002:00003e58       ??_C@_1BK@KMOMNAAI@?$AAS?$AAI?$AAN?$AAG?$AA?5?$AAe?$AAr?$AAr?$AAo?$AAr?$AA?$AN?$AA?6?$AA?$AA@ 000000014018fe58     LIBCMT:crt0msg.obj
 0002:00003e78       ??_C@_1BM@JBBEPPHI@?$AAT?$AAL?$AAO?$AAS?$AAS?$AA?5?$AAe?$AAr?$AAr?$AAo?$AAr?$AA?$AN?$AA?6?$AA?$AA@ 000000014018fe78     LIBCMT:crt0msg.obj
 0002:00003e94       ??_C@_15JNBOKNOG@?$AA?$AN?$AA?6?$AA?$AA@ 000000014018fe94     LIBCMT:crt0msg.obj
 0002:00003ea0       ??_C@_1BO@BKOMIGKJ@?$AAr?$AAu?$AAn?$AAt?$AAi?$AAm?$AAe?$AA?5?$AAe?$AAr?$AAr?$AAo?$AAr?$AA?5?$AA?$AA@ 000000014018fea0     LIBCMT:crt0msg.obj
 0002:00003ec0       ??_C@_1DE@JNGNBFGO@?$AAR?$AAu?$AAn?$AAt?$AAi?$AAm?$AAe?$AA?5?$AAE?$AAr?$AAr?$AAo?$AAr?$AA?$CB?$AA?6?$AA?6?$AAP?$AAr?$AAo?$AAg?$AAr?$AAa?$AAm?$AA?3?$AA?5?$AA?$AA@ 000000014018fec0     LIBCMT:crt0msg.obj
 0002:00003ef8       ??_C@_1CO@EAEJAADC@?$AA?$DM?$AAp?$AAr?$AAo?$AAg?$AAr?$AAa?$AAm?$AA?5?$AAn?$AAa?$AAm?$AAe?$AA?5?$AAu?$AAn?$AAk?$AAn?$AAo?$AAw?$AAn?$AA?$DO?$AA?$AA@ 000000014018fef8     LIBCMT:crt0msg.obj
 0002:00003f28       ??_C@_17LGKOMLJ@?$AA?4?$AA?4?$AA?4?$AA?$AA@ 000000014018ff28     LIBCMT:crt0msg.obj
 0002:00003f30       ??_C@_15IABLJNFO@?$AA?6?$AA?6?$AA?$AA@ 000000014018ff30     LIBCMT:crt0msg.obj
 0002:00003f40       ??_C@_1EK@MBDPDCGA@?$AAM?$AAi?$AAc?$AAr?$AAo?$AAs?$AAo?$AAf?$AAt?$AA?5?$AAV?$AAi?$AAs?$AAu?$AAa?$AAl?$AA?5?$AAC?$AA?$CL?$AA?$CL?$AA?5?$AAR?$AAu?$AAn?$AAt?$AAi?$AAm?$AAe?$AA?5?$AAL?$AAi?$AAb@ 000000014018ff40     LIBCMT:crt0msg.obj
 0002:00003f8c       ??_C@_06OJHGLDPL@?$CInull?$CJ?$AA@ 000000014018ff8c     LIBCMT:output.obj
 0002:00003f98       ??_C@_1O@CEDCILHN@?$AA?$CI?$AAn?$AAu?$AAl?$AAl?$AA?$CJ?$AA?$AA@ 000000014018ff98     LIBCMT:output.obj
 0002:00003fb0       __lookuptable              000000014018ffb0     LIBCMT:output.obj
 0002:00004020       ??_C@_1BK@MGMFAEKH@?$AAk?$AAe?$AAr?$AAn?$AAe?$AAl?$AA3?$AA2?$AA?4?$AAd?$AAl?$AAl?$AA?$AA@ 0000000140190020     LIBCMT:winapisupp.obj
 0002:00004040       ??_C@_08KNHFBNJ@FlsAlloc?$AA@ 0000000140190040     LIBCMT:winapisupp.obj
 0002:00004050       ??_C@_07PEJMOBNF@FlsFree?$AA@ 0000000140190050     LIBCMT:winapisupp.obj
 0002:00004058       ??_C@_0M@GDNOONDI@FlsGetValue?$AA@ 0000000140190058     LIBCMT:winapisupp.obj
 0002:00004068       ??_C@_0M@JCPCPOEF@FlsSetValue?$AA@ 0000000140190068     LIBCMT:winapisupp.obj
 0002:00004078       ??_C@_0BM@HCFOFFN@InitializeCriticalSectionEx?$AA@ 0000000140190078     LIBCMT:winapisupp.obj
 0002:00004098       ??_C@_0BD@KIEEOEEH@CreateSemaphoreExW?$AA@ 0000000140190098     LIBCMT:winapisupp.obj
 0002:000040b0       ??_C@_0BI@BKLFFAPO@SetThreadStackGuarantee?$AA@ 00000001401900b0     LIBCMT:winapisupp.obj
 0002:000040c8       ??_C@_0BG@OGFAJCKC@CreateThreadpoolTimer?$AA@ 00000001401900c8     LIBCMT:winapisupp.obj
 0002:000040e0       ??_C@_0BD@LPLEMMDI@SetThreadpoolTimer?$AA@ 00000001401900e0     LIBCMT:winapisupp.obj
 0002:000040f8       ??_C@_0CA@FMNJENH@WaitForThreadpoolTimerCallbacks?$AA@ 00000001401900f8     LIBCMT:winapisupp.obj
 0002:00004118       ??_C@_0BF@DCFCCNOC@CloseThreadpoolTimer?$AA@ 0000000140190118     LIBCMT:winapisupp.obj
 0002:00004130       ??_C@_0BF@FLABGKKM@CreateThreadpoolWait?$AA@ 0000000140190130     LIBCMT:winapisupp.obj
 0002:00004148       ??_C@_0BC@MGCOHNA@SetThreadpoolWait?$AA@ 0000000140190148     LIBCMT:winapisupp.obj
 0002:00004160       ??_C@_0BE@OCIOMIMP@CloseThreadpoolWait?$AA@ 0000000140190160     LIBCMT:winapisupp.obj
 0002:00004178       ??_C@_0BJ@LKGHFHBO@FlushProcessWriteBuffers?$AA@ 0000000140190178     LIBCMT:winapisupp.obj
 0002:00004198       ??_C@_0BP@KALKKPMO@FreeLibraryWhenCallbackReturns?$AA@ 0000000140190198     LIBCMT:winapisupp.obj
 0002:000041b8       ??_C@_0BK@DFNBACLA@GetCurrentProcessorNumber?$AA@ 00000001401901b8     LIBCMT:winapisupp.obj
 0002:000041d8       ??_C@_0BP@KHGALBC@GetLogicalProcessorInformation?$AA@ 00000001401901d8     LIBCMT:winapisupp.obj
 0002:000041f8       ??_C@_0BE@FKKLLFLM@CreateSymbolicLinkW?$AA@ 00000001401901f8     LIBCMT:winapisupp.obj
 0002:00004210       ??_C@_0BJ@OHNKDLIJ@SetDefaultDllDirectories?$AA@ 0000000140190210     LIBCMT:winapisupp.obj
 0002:00004230       ??_C@_0BE@LJANKFHF@EnumSystemLocalesEx?$AA@ 0000000140190230     LIBCMT:winapisupp.obj
 0002:00004248       ??_C@_0BA@IHGNDAEB@CompareStringEx?$AA@ 0000000140190248     LIBCMT:winapisupp.obj
 0002:00004258       ??_C@_0BA@EPCJIIPD@GetDateFormatEx?$AA@ 0000000140190258     LIBCMT:winapisupp.obj
 0002:00004268       ??_C@_0BA@ONOKGCMP@GetLocaleInfoEx?$AA@ 0000000140190268     LIBCMT:winapisupp.obj
 0002:00004278       ??_C@_0BA@CIJJKCJJ@GetTimeFormatEx?$AA@ 0000000140190278     LIBCMT:winapisupp.obj
 0002:00004288       ??_C@_0BJ@PBCCBIPI@GetUserDefaultLocaleName?$AA@ 0000000140190288     LIBCMT:winapisupp.obj
 0002:000042a8       ??_C@_0BC@CELBKLLA@IsValidLocaleName?$AA@ 00000001401902a8     LIBCMT:winapisupp.obj
 0002:000042c0       ??_C@_0O@KKBNKAPF@LCMapStringEx?$AA@ 00000001401902c0     LIBCMT:winapisupp.obj
 0002:000042d0       ??_C@_0BE@JOGNEJCI@GetCurrentPackageId?$AA@ 00000001401902d0     LIBCMT:winapisupp.obj
 0002:00004330       ??_C@_1M@HPNHIDJI@?$AAj?$AAa?$AA?9?$AAJ?$AAP?$AA?$AA@ 0000000140190330     LIBCMT:mbctype.obj
 0002:00004340       ??_C@_1M@BIBDDEMK@?$AAz?$AAh?$AA?9?$AAC?$AAN?$AA?$AA@ 0000000140190340     LIBCMT:mbctype.obj
 0002:00004350       ??_C@_1M@JLOOOEGK@?$AAk?$AAo?$AA?9?$AAK?$AAR?$AA?$AA@ 0000000140190350     LIBCMT:mbctype.obj
 0002:00004360       ??_C@_1M@CLNBBOPM@?$AAz?$AAh?$AA?9?$AAT?$AAW?$AA?$AA@ 0000000140190360     LIBCMT:mbctype.obj
 0002:0000436c       ??_C@_03KOEHGMDN@Sun?$AA@  000000014019036c     LIBCMT:nlsdata.obj
 0002:00004370       ??_C@_03PDAGKDH@Mon?$AA@   0000000140190370     LIBCMT:nlsdata.obj
 0002:00004374       ??_C@_03NAGEINEP@Tue?$AA@  0000000140190374     LIBCMT:nlsdata.obj
 0002:00004378       ??_C@_03MHOMLAJA@Wed?$AA@  0000000140190378     LIBCMT:nlsdata.obj
 0002:0000437c       ??_C@_03IOFIKPDN@Thu?$AA@  000000014019037c     LIBCMT:nlsdata.obj
 0002:00004380       ??_C@_03IDIOELNC@Fri?$AA@  0000000140190380     LIBCMT:nlsdata.obj
 0002:00004384       ??_C@_03FEFJNEK@Sat?$AA@   0000000140190384     LIBCMT:nlsdata.obj
 0002:00004388       ??_C@_06OOPIFAJ@Sunday?$AA@ 0000000140190388     LIBCMT:nlsdata.obj
 0002:00004390       ??_C@_06JLEDEDGH@Monday?$AA@ 0000000140190390     LIBCMT:nlsdata.obj
 0002:00004398       ??_C@_07BAAGCFCM@Tuesday?$AA@ 0000000140190398     LIBCMT:nlsdata.obj
 0002:000043a0       ??_C@_09DLIGFAKA@Wednesday?$AA@ 00000001401903a0     LIBCMT:nlsdata.obj
 0002:000043b0       ??_C@_08HACCIKIA@Thursday?$AA@ 00000001401903b0     LIBCMT:nlsdata.obj
 0002:000043bc       ??_C@_06JECMNKMI@Friday?$AA@ 00000001401903bc     LIBCMT:nlsdata.obj
 0002:000043c8       ??_C@_08INBOOONO@Saturday?$AA@ 00000001401903c8     LIBCMT:nlsdata.obj
 0002:000043d4       ??_C@_03JIHJHPIE@Jan?$AA@  00000001401903d4     LIBCMT:nlsdata.obj
 0002:000043d8       ??_C@_03HJBDCHOM@Feb?$AA@  00000001401903d8     LIBCMT:nlsdata.obj
 0002:000043dc       ??_C@_03ODNJBKGA@Mar?$AA@  00000001401903dc     LIBCMT:nlsdata.obj
 0002:000043e0       ??_C@_03LEOLGMJP@Apr?$AA@  00000001401903e0     LIBCMT:nlsdata.obj
 0002:000043e4       ??_C@_03CNMDKL@May?$AA@    00000001401903e4     LIBCMT:nlsdata.obj
 0002:000043e8       ??_C@_03IDFGHECI@Jun?$AA@  00000001401903e8     LIBCMT:nlsdata.obj
 0002:000043ec       ??_C@_03LBGABGKK@Jul?$AA@  00000001401903ec     LIBCMT:nlsdata.obj
 0002:000043f0       ??_C@_03IFJFEIGA@Aug?$AA@  00000001401903f0     LIBCMT:nlsdata.obj
 0002:000043f4       ??_C@_03GGCAPAJC@Sep?$AA@  00000001401903f4     LIBCMT:nlsdata.obj
 0002:000043f8       ??_C@_03BMAOKBAD@Oct?$AA@  00000001401903f8     LIBCMT:nlsdata.obj
 0002:000043fc       ??_C@_03JPJOFNIA@Nov?$AA@  00000001401903fc     LIBCMT:nlsdata.obj
 0002:00004400       ??_C@_03MKABNOCG@Dec?$AA@  0000000140190400     LIBCMT:nlsdata.obj
 0002:00004408       ??_C@_07CGJPFGJA@January?$AA@ 0000000140190408     LIBCMT:nlsdata.obj
 0002:00004410       ??_C@_08GNJGEPFN@February?$AA@ 0000000140190410     LIBCMT:nlsdata.obj
 0002:0000441c       ??_C@_05HPCKOFNC@March?$AA@ 000000014019041c     LIBCMT:nlsdata.obj
 0002:00004424       ??_C@_05DMJDNLEJ@April?$AA@ 0000000140190424     LIBCMT:nlsdata.obj
 0002:0000442c       ??_C@_04CNLMGBGM@June?$AA@ 000000014019042c     LIBCMT:nlsdata.obj
 0002:00004434       ??_C@_04MIEPOIFP@July?$AA@ 0000000140190434     LIBCMT:nlsdata.obj
 0002:0000443c       ??_C@_06LBBHFDDG@August?$AA@ 000000014019043c     LIBCMT:nlsdata.obj
 0002:00004448       ??_C@_09BHHEALKD@September?$AA@ 0000000140190448     LIBCMT:nlsdata.obj
 0002:00004458       ??_C@_07JJNFCEND@October?$AA@ 0000000140190458     LIBCMT:nlsdata.obj
 0002:00004460       ??_C@_08HCHEGEOA@November?$AA@ 0000000140190460     LIBCMT:nlsdata.obj
 0002:00004470       ??_C@_08EDHMEBNP@December?$AA@ 0000000140190470     LIBCMT:nlsdata.obj
 0002:0000447c       ??_C@_02DEDBPAFC@AM?$AA@   000000014019047c     LIBCMT:nlsdata.obj
 0002:00004480       ??_C@_02CJNFDJBF@PM?$AA@   0000000140190480     LIBCMT:nlsdata.obj
 0002:00004488       ??_C@_08BPBNCDIB@MM?1dd?1yy?$AA@ 0000000140190488     LIBCMT:nlsdata.obj
 0002:00004498       ??_C@_0BE@CKGJFCPC@dddd?0?5MMMM?5dd?0?5yyyy?$AA@ 0000000140190498     LIBCMT:nlsdata.obj
 0002:000044b0       ??_C@_08JCCMCCIL@HH?3mm?3ss?$AA@ 00000001401904b0     LIBCMT:nlsdata.obj
 0002:000044c0       ??_C@_17MBGCMIPB@?$AAS?$AAu?$AAn?$AA?$AA@ 00000001401904c0     LIBCMT:nlsdata.obj
 0002:000044c8       ??_C@_17KBOMKBF@?$AAM?$AAo?$AAn?$AA?$AA@ 00000001401904c8     LIBCMT:nlsdata.obj
 0002:000044d0       ??_C@_17BMKGEGOJ@?$AAT?$AAu?$AAe?$AA?$AA@ 00000001401904d0     LIBCMT:nlsdata.obj
 0002:000044d8       ??_C@_17CJEDCEPE@?$AAW?$AAe?$AAd?$AA?$AA@ 00000001401904d8     LIBCMT:nlsdata.obj
 0002:000044e0       ??_C@_17PDPHAADD@?$AAT?$AAh?$AAu?$AA?$AA@ 00000001401904e0     LIBCMT:nlsdata.obj
 0002:000044e8       ??_C@_17HFOLPPLP@?$AAF?$AAr?$AAi?$AA?$AA@ 00000001401904e8     LIBCMT:nlsdata.obj
 0002:000044f0       ??_C@_17GGIBDPIH@?$AAS?$AAa?$AAt?$AA?$AA@ 00000001401904f0     LIBCMT:nlsdata.obj
 0002:000044f8       ??_C@_1O@IHNHDHPB@?$AAS?$AAu?$AAn?$AAd?$AAa?$AAy?$AA?$AA@ 00000001401904f8     LIBCMT:nlsdata.obj
 0002:00004508       ??_C@_1O@MMNBFLIA@?$AAM?$AAo?$AAn?$AAd?$AAa?$AAy?$AA?$AA@ 0000000140190508     LIBCMT:nlsdata.obj
 0002:00004518       ??_C@_1BA@ENFBFFEK@?$AAT?$AAu?$AAe?$AAs?$AAd?$AAa?$AAy?$AA?$AA@ 0000000140190518     LIBCMT:nlsdata.obj
 0002:00004528       ??_C@_1BE@EBOGMDOH@?$AAW?$AAe?$AAd?$AAn?$AAe?$AAs?$AAd?$AAa?$AAy?$AA?$AA@ 0000000140190528     LIBCMT:nlsdata.obj
 0002:00004540       ??_C@_1BC@HHMNLIHE@?$AAT?$AAh?$AAu?$AAr?$AAs?$AAd?$AAa?$AAy?$AA?$AA@ 0000000140190540     LIBCMT:nlsdata.obj
 0002:00004558       ??_C@_1O@PDICJHAG@?$AAF?$AAr?$AAi?$AAd?$AAa?$AAy?$AA?$AA@ 0000000140190558     LIBCMT:nlsdata.obj
 0002:00004568       ??_C@_1BC@ENMNNPAJ@?$AAS?$AAa?$AAt?$AAu?$AAr?$AAd?$AAa?$AAy?$AA?$AA@ 0000000140190568     LIBCMT:nlsdata.obj
 0002:00004580       ??_C@_17DKNBKCHM@?$AAJ?$AAa?$AAn?$AA?$AA@ 0000000140190580     LIBCMT:nlsdata.obj
 0002:00004588       ??_C@_17LMDJEKJN@?$AAF?$AAe?$AAb?$AA?$AA@ 0000000140190588     LIBCMT:nlsdata.obj
 0002:00004590       ??_C@_17CKNLEDEC@?$AAM?$AAa?$AAr?$AA?$AA@ 0000000140190590     LIBCMT:nlsdata.obj
 0002:00004598       ??_C@_17LFPOIHDD@?$AAA?$AAp?$AAr?$AA?$AA@ 0000000140190598     LIBCMT:nlsdata.obj
 0002:000045a0       ??_C@_17PNNKMEED@?$AAM?$AAa?$AAy?$AA?$AA@ 00000001401905a0     LIBCMT:nlsdata.obj
 0002:000045a8       ??_C@_17KCJGOCPB@?$AAJ?$AAu?$AAn?$AA?$AA@ 00000001401905a8     LIBCMT:nlsdata.obj
 0002:000045b0       ??_C@_17IJPCKHK@?$AAJ?$AAu?$AAl?$AA?$AA@ 00000001401905b0     LIBCMT:nlsdata.obj
 0002:000045b8       ??_C@_17ICPELBCN@?$AAA?$AAu?$AAg?$AA?$AA@ 00000001401905b8     LIBCMT:nlsdata.obj
 0002:000045c0       ??_C@_17HCHCOKMG@?$AAS?$AAe?$AAp?$AA?$AA@ 00000001401905c0     LIBCMT:nlsdata.obj
 0002:000045c8       ??_C@_17FNLKOI@?$AAO?$AAc?$AAt?$AA?$AA@ 00000001401905c8     LIBCMT:nlsdata.obj
 0002:000045d0       ??_C@_17BBDMLCIG@?$AAN?$AAo?$AAv?$AA?$AA@ 00000001401905d0     LIBCMT:nlsdata.obj
 0002:000045d8       ??_C@_17EGKACKIF@?$AAD?$AAe?$AAc?$AA?$AA@ 00000001401905d8     LIBCMT:nlsdata.obj
 0002:000045e0       ??_C@_1BA@EFMEIEBA@?$AAJ?$AAa?$AAn?$AAu?$AAa?$AAr?$AAy?$AA?$AA@ 00000001401905e0     LIBCMT:nlsdata.obj
 0002:000045f0       ??_C@_1BC@JGDDFFAM@?$AAF?$AAe?$AAb?$AAr?$AAu?$AAa?$AAr?$AAy?$AA?$AA@ 00000001401905f0     LIBCMT:nlsdata.obj
 0002:00004608       ??_C@_1M@IKEENEDF@?$AAM?$AAa?$AAr?$AAc?$AAh?$AA?$AA@ 0000000140190608     LIBCMT:nlsdata.obj
 0002:00004618       ??_C@_1M@GJNLMHFD@?$AAA?$AAp?$AAr?$AAi?$AAl?$AA?$AA@ 0000000140190618     LIBCMT:nlsdata.obj
 0002:00004628       ??_C@_19EPFLPGAP@?$AAJ?$AAu?$AAn?$AAe?$AA?$AA@ 0000000140190628     LIBCMT:nlsdata.obj
 0002:00004638       ??_C@_19BIFMLPCD@?$AAJ?$AAu?$AAl?$AAy?$AA?$AA@ 0000000140190638     LIBCMT:nlsdata.obj
 0002:00004648       ??_C@_1O@PAHLKOAC@?$AAA?$AAu?$AAg?$AAu?$AAs?$AAt?$AA?$AA@ 0000000140190648     LIBCMT:nlsdata.obj
 0002:00004658       ??_C@_1BE@DKAAMBJL@?$AAS?$AAe?$AAp?$AAt?$AAe?$AAm?$AAb?$AAe?$AAr?$AA?$AA@ 0000000140190658     LIBCMT:nlsdata.obj
 0002:00004670       ??_C@_1BA@EPANDLNG@?$AAO?$AAc?$AAt?$AAo?$AAb?$AAe?$AAr?$AA?$AA@ 0000000140190670     LIBCMT:nlsdata.obj
 0002:00004680       ??_C@_1BC@BGLIFPF@?$AAN?$AAo?$AAv?$AAe?$AAm?$AAb?$AAe?$AAr?$AA?$AA@ 0000000140190680     LIBCMT:nlsdata.obj
 0002:00004698       ??_C@_1BC@FEMKIFH@?$AAD?$AAe?$AAc?$AAe?$AAm?$AAb?$AAe?$AAr?$AA?$AA@ 0000000140190698     LIBCMT:nlsdata.obj
 0002:000046ac       ??_C@_15ODEHAHHF@?$AAA?$AAM?$AA?$AA@ 00000001401906ac     LIBCMT:nlsdata.obj
 0002:000046b4       ??_C@_15CLMNNGEL@?$AAP?$AAM?$AA?$AA@ 00000001401906b4     LIBCMT:nlsdata.obj
 0002:000046c0       ??_C@_1BC@IEBCMHCM@?$AAM?$AAM?$AA?1?$AAd?$AAd?$AA?1?$AAy?$AAy?$AA?$AA@ 00000001401906c0     LIBCMT:nlsdata.obj
 0002:000046d8       ??_C@_1CI@KNAKOEBC@?$AAd?$AAd?$AAd?$AAd?$AA?0?$AA?5?$AAM?$AAM?$AAM?$AAM?$AA?5?$AAd?$AAd?$AA?0?$AA?5?$AAy?$AAy?$AAy?$AAy?$AA?$AA@ 00000001401906d8     LIBCMT:nlsdata.obj
 0002:00004700       ??_C@_1BC@GDGBMEMK@?$AAH?$AAH?$AA?3?$AAm?$AAm?$AA?3?$AAs?$AAs?$AA?$AA@ 0000000140190700     LIBCMT:nlsdata.obj
 0002:00004718       ??_C@_1M@BMHNFIME@?$AAe?$AAn?$AA?9?$AAU?$AAS?$AA?$AA@ 0000000140190718     LIBCMT:nlsdata.obj
 0002:000047b0       __dnames                   00000001401907b0     LIBCMT:timeset.obj
 0002:000047c8       __mnames                   00000001401907c8     LIBCMT:timeset.obj
 0002:000047f0       ??_C@_02CLFPBFFP@TZ?$AA@   00000001401907f0     LIBCMT:tzset.obj
 0002:000047f8       ??_C@_1M@PBPMMENC@?$AAa?$AAm?$AA?1?$AAp?$AAm?$AA?$AA@ 00000001401907f8     LIBCMT:wcsftime.obj
 0002:00004808       ??_C@_17BLFJJHMM@?$AAa?$AA?1?$AAp?$AA?$AA@ 0000000140190808     LIBCMT:wcsftime.obj
 0002:00004810       _FPinit                    0000000140190810     LIBCMT:fpinit.obj
 0002:00004820       __lookuptable_s            0000000140190820     LIBCMT:outputs.obj
 0002:00004880       _XcptActTab                0000000140190880     LIBCMT:winxfltr.obj
 0002:00004940       _XcptActTabCount           0000000140190940     LIBCMT:winxfltr.obj
 0002:00004944       _XcptActTabSize            0000000140190944     LIBCMT:winxfltr.obj
 0002:00004948       _First_FPE_Indx            0000000140190948     LIBCMT:winxfltr.obj
 0002:0000494c       _Num_FPE                   000000014019094c     LIBCMT:winxfltr.obj
 0002:00004950       _sys_errlist               0000000140190950     LIBCMT:syserr.obj
 0002:00004ab0       ??_C@_08INEPGKHH@No?5error?$AA@ 0000000140190ab0     LIBCMT:syserr.obj
 0002:00004ac0       ??_C@_0BI@BJFCGOHL@Operation?5not?5permitted?$AA@ 0000000140190ac0     LIBCMT:syserr.obj
 0002:00004ad8       ??_C@_0BK@FMDHKPNF@No?5such?5file?5or?5directory?$AA@ 0000000140190ad8     LIBCMT:syserr.obj
 0002:00004af8       ??_C@_0BA@FKIAIBGA@No?5such?5process?$AA@ 0000000140190af8     LIBCMT:syserr.obj
 0002:00004b08       ??_C@_0BK@FJBOAFDK@Interrupted?5function?5call?$AA@ 0000000140190b08     LIBCMT:syserr.obj
 0002:00004b28       ??_C@_0BD@KKNFOBBD@Input?1output?5error?$AA@ 0000000140190b28     LIBCMT:syserr.obj
 0002:00004b40       ??_C@_0BK@DPKMCKJ@No?5such?5device?5or?5address?$AA@ 0000000140190b40     LIBCMT:syserr.obj
 0002:00004b60       ??_C@_0BC@MFFGCDFL@Arg?5list?5too?5long?$AA@ 0000000140190b60     LIBCMT:syserr.obj
 0002:00004b78       ??_C@_0BC@HKPNECK@Exec?5format?5error?$AA@ 0000000140190b78     LIBCMT:syserr.obj
 0002:00004b90       ??_C@_0BE@NFGDDCEF@Bad?5file?5descriptor?$AA@ 0000000140190b90     LIBCMT:syserr.obj
 0002:00004ba8       ??_C@_0BD@LOHELEP@No?5child?5processes?$AA@ 0000000140190ba8     LIBCMT:syserr.obj
 0002:00004bc0       ??_C@_0CB@EPFKGNAK@Resource?5temporarily?5unavailable@ 0000000140190bc0     LIBCMT:syserr.obj
 0002:00004be8       ??_C@_0BB@IMDKMPFB@Not?5enough?5space?$AA@ 0000000140190be8     LIBCMT:syserr.obj
 0002:00004c00       ??_C@_0BC@HFNFNKAI@Permission?5denied?$AA@ 0000000140190c00     LIBCMT:syserr.obj
 0002:00004c18       ??_C@_0M@LOEHLCJD@Bad?5address?$AA@ 0000000140190c18     LIBCMT:syserr.obj
 0002:00004c28       ??_C@_0O@NIPGCINC@Unknown?5error?$AA@ 0000000140190c28     LIBCMT:syserr.obj
 0002:00004c38       ??_C@_0BA@BIBLIOEK@Resource?5device?$AA@ 0000000140190c38     LIBCMT:syserr.obj
 0002:00004c48       ??_C@_0M@NAAJNNGH@File?5exists?$AA@ 0000000140190c48     LIBCMT:syserr.obj
 0002:00004c58       ??_C@_0O@OAMDNOCP@Improper?5link?$AA@ 0000000140190c58     LIBCMT:syserr.obj
 0002:00004c68       ??_C@_0P@NLEIANHE@No?5such?5device?$AA@ 0000000140190c68     LIBCMT:syserr.obj
 0002:00004c78       ??_C@_0BA@CJBACOOL@Not?5a?5directory?$AA@ 0000000140190c78     LIBCMT:syserr.obj
 0002:00004c88       ??_C@_0P@NDHGCGKE@Is?5a?5directory?$AA@ 0000000140190c88     LIBCMT:syserr.obj
 0002:00004c98       ??_C@_0BB@HMGGCEBG@Invalid?5argument?$AA@ 0000000140190c98     LIBCMT:syserr.obj
 0002:00004cb0       ??_C@_0BO@IIFBODJE@Too?5many?5open?5files?5in?5system?$AA@ 0000000140190cb0     LIBCMT:syserr.obj
 0002:00004cd0       ??_C@_0BE@INBJMKGG@Too?5many?5open?5files?$AA@ 0000000140190cd0     LIBCMT:syserr.obj
 0002:00004ce8       ??_C@_0CE@ONOKNLPF@Inappropriate?5I?1O?5control?5operat@ 0000000140190ce8     LIBCMT:syserr.obj
 0002:00004d10       ??_C@_0P@LFMMIPAE@File?5too?5large?$AA@ 0000000140190d10     LIBCMT:syserr.obj
 0002:00004d20       ??_C@_0BI@FEALHKLD@No?5space?5left?5on?5device?$AA@ 0000000140190d20     LIBCMT:syserr.obj
 0002:00004d38       ??_C@_0N@FEHLOILP@Invalid?5seek?$AA@ 0000000140190d38     LIBCMT:syserr.obj
 0002:00004d48       ??_C@_0BG@DDBFNKBH@Read?9only?5file?5system?$AA@ 0000000140190d48     LIBCMT:syserr.obj
 0002:00004d60       ??_C@_0P@PKCJJLLM@Too?5many?5links?$AA@ 0000000140190d60     LIBCMT:syserr.obj
 0002:00004d70       ??_C@_0M@LHEPIIOM@Broken?5pipe?$AA@ 0000000140190d70     LIBCMT:syserr.obj
 0002:00004d80       ??_C@_0N@MMJPGLJK@Domain?5error?$AA@ 0000000140190d80     LIBCMT:syserr.obj
 0002:00004d90       ??_C@_0BB@FCBJFCAJ@Result?5too?5large?$AA@ 0000000140190d90     LIBCMT:syserr.obj
 0002:00004da8       ??_C@_0BK@JAEBMJJM@Resource?5deadlock?5avoided?$AA@ 0000000140190da8     LIBCMT:syserr.obj
 0002:00004dc8       ??_C@_0BC@BEDIHIDK@Filename?5too?5long?$AA@ 0000000140190dc8     LIBCMT:syserr.obj
 0002:00004de0       ??_C@_0BD@CLHBCGPB@No?5locks?5available?$AA@ 0000000140190de0     LIBCMT:syserr.obj
 0002:00004df8       ??_C@_0BJ@IHEHINLI@Function?5not?5implemented?$AA@ 0000000140190df8     LIBCMT:syserr.obj
 0002:00004e18       ??_C@_0BE@ICMCHPHH@Directory?5not?5empty?$AA@ 0000000140190e18     LIBCMT:syserr.obj
 0002:00004e30       ??_C@_0BG@KLEAJEFJ@Illegal?5byte?5sequence?$AA@ 0000000140190e30     LIBCMT:syserr.obj
 0002:00004e48       ??_C@_1BG@GOEBHBDC@?$AAU?$AAS?$AAE?$AAR?$AA3?$AA2?$AA?4?$AAD?$AAL?$AAL?$AA?$AA@ 0000000140190e48     LIBCMT:crtmboxw.obj
 0002:00004e60       ??_C@_0M@DLDCCGNP@MessageBoxW?$AA@ 0000000140190e60     LIBCMT:crtmboxw.obj
 0002:00004e70       ??_C@_0BA@HNOPNCHB@GetActiveWindow?$AA@ 0000000140190e70     LIBCMT:crtmboxw.obj
 0002:00004e80       ??_C@_0BD@HHGDFDBJ@GetLastActivePopup?$AA@ 0000000140190e80     LIBCMT:crtmboxw.obj
 0002:00004e98       ??_C@_0BK@DEKFELLI@GetUserObjectInformationW?$AA@ 0000000140190e98     LIBCMT:crtmboxw.obj
 0002:00004eb8       ??_C@_0BI@DFKBFLJE@GetProcessWindowStation?$AA@ 0000000140190eb8     LIBCMT:crtmboxw.obj
 0002:00004ed0       ??_C@_15PJPFLCCM@?$AAu?$AAk?$AA?$AA@ 0000000140190ed0     LIBCMT:winapinls.obj
 0002:00004ed8       ??_C@_15HPJPHDM@?$AAb?$AAe?$AA?$AA@ 0000000140190ed8     LIBCMT:winapinls.obj
 0002:00004ee0       ??_C@_15LCHLGJII@?$AAs?$AAl?$AA?$AA@ 0000000140190ee0     LIBCMT:winapinls.obj
 0002:00004ee8       ??_C@_15PCFJPHHO@?$AAe?$AAt?$AA?$AA@ 0000000140190ee8     LIBCMT:winapinls.obj
 0002:00004ef0       ??_C@_15HPFPGODN@?$AAl?$AAv?$AA?$AA@ 0000000140190ef0     LIBCMT:winapinls.obj
 0002:00004ef8       ??_C@_15NFFGKGLG@?$AAl?$AAt?$AA?$AA@ 0000000140190ef8     LIBCMT:winapinls.obj
 0002:00004f00       ??_C@_15BDAKCCHN@?$AAf?$AAa?$AA?$AA@ 0000000140190f00     LIBCMT:winapinls.obj
 0002:00004f08       ??_C@_15NFGIAIAJ@?$AAv?$AAi?$AA?$AA@ 0000000140190f08     LIBCMT:winapinls.obj
 0002:00004f10       ??_C@_15LMKNDMHN@?$AAh?$AAy?$AA?$AA@ 0000000140190f10     LIBCMT:winapinls.obj
 0002:00004f18       ??_C@_15IJBHMCFL@?$AAa?$AAz?$AA?$AA@ 0000000140190f18     LIBCMT:winapinls.obj
 0002:00004f20       ??_C@_15EKOFJABL@?$AAe?$AAu?$AA?$AA@ 0000000140190f20     LIBCMT:winapinls.obj
 0002:00004f28       ??_C@_15BGHADCNK@?$AAm?$AAk?$AA?$AA@ 0000000140190f28     LIBCMT:winapinls.obj
 0002:00004f30       ??_C@_15JDNICKHM@?$AAa?$AAf?$AA?$AA@ 0000000140190f30     LIBCMT:winapinls.obj
 0002:00004f38       ??_C@_15KPJEDBKD@?$AAk?$AAa?$AA?$AA@ 0000000140190f38     LIBCMT:winapinls.obj
 0002:00004f40       ??_C@_15PDNFFFEO@?$AAf?$AAo?$AA?$AA@ 0000000140190f40     LIBCMT:winapinls.obj
 0002:00004f48       ??_C@_15OMLEGLOC@?$AAh?$AAi?$AA?$AA@ 0000000140190f48     LIBCMT:winapinls.obj
 0002:00004f50       ??_C@_15IDNNENKK@?$AAm?$AAs?$AA?$AA@ 0000000140190f50     LIBCMT:winapinls.obj
 0002:00004f58       ??_C@_15MACJNBMH@?$AAk?$AAk?$AA?$AA@ 0000000140190f58     LIBCMT:winapinls.obj
 0002:00004f60       ??_C@_15DKDJEOND@?$AAk?$AAy?$AA?$AA@ 0000000140190f60     LIBCMT:winapinls.obj
 0002:00004f68       ??_C@_15DFGDLJBG@?$AAs?$AAw?$AA?$AA@ 0000000140190f68     LIBCMT:winapinls.obj
 0002:00004f70       ??_C@_15BBFAICNG@?$AAu?$AAz?$AA?$AA@ 0000000140190f70     LIBCMT:winapinls.obj
 0002:00004f78       ??_C@_15DKNDCGEA@?$AAt?$AAt?$AA?$AA@ 0000000140190f78     LIBCMT:winapinls.obj
 0002:00004f80       ??_C@_15MGIFMDPL@?$AAp?$AAa?$AA?$AA@ 0000000140190f80     LIBCMT:winapinls.obj
 0002:00004f88       ??_C@_15HCNDBBA@?$AAg?$AAu?$AA?$AA@ 0000000140190f88     LIBCMT:winapinls.obj
 0002:00004f90       ??_C@_15FNBEIBON@?$AAt?$AAa?$AA?$AA@ 0000000140190f90     LIBCMT:winapinls.obj
 0002:00004f98       ??_C@_15NCHGBGLK@?$AAt?$AAe?$AA?$AA@ 0000000140190f98     LIBCMT:winapinls.obj
 0002:00004fa0       ??_C@_15PHPHCBPF@?$AAk?$AAn?$AA?$AA@ 0000000140190fa0     LIBCMT:winapinls.obj
 0002:00004fa8       ??_C@_15DLGBCKMP@?$AAm?$AAr?$AA?$AA@ 0000000140190fa8     LIBCMT:winapinls.obj
 0002:00004fb0       ??_C@_15EABBLBFF@?$AAs?$AAa?$AA?$AA@ 0000000140190fb0     LIBCMT:winapinls.obj
 0002:00004fb8       ??_C@_15CBKOMCOI@?$AAm?$AAn?$AA?$AA@ 0000000140190fb8     LIBCMT:winapinls.obj
 0002:00004fc0       ??_C@_15CKDMCJAF@?$AAg?$AAl?$AA?$AA@ 0000000140190fc0     LIBCMT:winapinls.obj
 0002:00004fc8       ??_C@_17CNJFBPG@?$AAk?$AAo?$AAk?$AA?$AA@ 0000000140190fc8     LIBCMT:winapinls.obj
 0002:00004fd0       ??_C@_17FFBJICPL@?$AAs?$AAy?$AAr?$AA?$AA@ 0000000140190fd0     LIBCMT:winapinls.obj
 0002:00004fd8       ??_C@_17KPNDCPAF@?$AAd?$AAi?$AAv?$AA?$AA@ 0000000140190fd8     LIBCMT:winapinls.obj
 0002:00004fe0       ??_C@_11LOCGONAA@?$AA?$AA@ 0000000140190fe0     LIBCMT:winapinls.obj
 0002:00004fe8       ??_C@_1M@OKAHONE@?$AAa?$AAr?$AA?9?$AAS?$AAA?$AA?$AA@ 0000000140190fe8     LIBCMT:winapinls.obj
 0002:00004ff8       ??_C@_1M@FFFIGIGK@?$AAb?$AAg?$AA?9?$AAB?$AAG?$AA?$AA@ 0000000140190ff8     LIBCMT:winapinls.obj
 0002:00005008       ??_C@_1M@BJNKEDC@?$AAc?$AAa?$AA?9?$AAE?$AAS?$AA?$AA@ 0000000140191008     LIBCMT:winapinls.obj
 0002:00005018       ??_C@_1M@IJJHFJHA@?$AAc?$AAs?$AA?9?$AAC?$AAZ?$AA?$AA@ 0000000140191018     LIBCMT:winapinls.obj
 0002:00005028       ??_C@_1M@CLPEOBGI@?$AAd?$AAa?$AA?9?$AAD?$AAK?$AA?$AA@ 0000000140191028     LIBCMT:winapinls.obj
 0002:00005038       ??_C@_1M@MCMADGCB@?$AAd?$AAe?$AA?9?$AAD?$AAE?$AA?$AA@ 0000000140191038     LIBCMT:winapinls.obj
 0002:00005048       ??_C@_1M@OOCKEMAM@?$AAe?$AAl?$AA?9?$AAG?$AAR?$AA?$AA@ 0000000140191048     LIBCMT:winapinls.obj
 0002:00005058       ??_C@_1M@DDNJFGID@?$AAf?$AAi?$AA?9?$AAF?$AAI?$AA?$AA@ 0000000140191058     LIBCMT:winapinls.obj
 0002:00005068       ??_C@_1M@GLIPPMAC@?$AAf?$AAr?$AA?9?$AAF?$AAR?$AA?$AA@ 0000000140191068     LIBCMT:winapinls.obj
 0002:00005078       ??_C@_1M@GFMCHPE@?$AAh?$AAe?$AA?9?$AAI?$AAL?$AA?$AA@ 0000000140191078     LIBCMT:winapinls.obj
 0002:00005088       ??_C@_1M@MHLPGNKM@?$AAh?$AAu?$AA?9?$AAH?$AAU?$AA?$AA@ 0000000140191088     LIBCMT:winapinls.obj
 0002:00005098       ??_C@_1M@LPDDNNPN@?$AAi?$AAs?$AA?9?$AAI?$AAS?$AA?$AA@ 0000000140191098     LIBCMT:winapinls.obj
 0002:000050a8       ??_C@_1M@MADIPODN@?$AAi?$AAt?$AA?9?$AAI?$AAT?$AA?$AA@ 00000001401910a8     LIBCMT:winapinls.obj
 0002:000050b8       ??_C@_1M@IHBJJGG@?$AAn?$AAl?$AA?9?$AAN?$AAL?$AA?$AA@ 00000001401910b8     LIBCMT:winapinls.obj
 0002:000050c8       ??_C@_1M@EANAGDL@?$AAn?$AAb?$AA?9?$AAN?$AAO?$AA?$AA@ 00000001401910c8     LIBCMT:winapinls.obj
 0002:000050d8       ??_C@_1M@NEIEMEGP@?$AAp?$AAl?$AA?9?$AAP?$AAL?$AA?$AA@ 00000001401910d8     LIBCMT:winapinls.obj
 0002:000050e8       ??_C@_1M@BOCFIGEP@?$AAp?$AAt?$AA?9?$AAB?$AAR?$AA?$AA@ 00000001401910e8     LIBCMT:winapinls.obj
 0002:000050f8       ??_C@_1M@IMPFOPBG@?$AAr?$AAo?$AA?9?$AAR?$AAO?$AA?$AA@ 00000001401910f8     LIBCMT:winapinls.obj
 0002:00005108       ??_C@_1M@IDNNEJMM@?$AAr?$AAu?$AA?9?$AAR?$AAU?$AA?$AA@ 0000000140191108     LIBCMT:winapinls.obj
 0002:00005118       ??_C@_1M@LILEEOGM@?$AAh?$AAr?$AA?9?$AAH?$AAR?$AA?$AA@ 0000000140191118     LIBCMT:winapinls.obj
 0002:00005128       ??_C@_1M@FKIFEHPB@?$AAs?$AAk?$AA?9?$AAS?$AAK?$AA?$AA@ 0000000140191128     LIBCMT:winapinls.obj
 0002:00005138       ??_C@_1M@LJMAMNPJ@?$AAs?$AAq?$AA?9?$AAA?$AAL?$AA?$AA@ 0000000140191138     LIBCMT:winapinls.obj
 0002:00005148       ??_C@_1M@GIAKDKJK@?$AAs?$AAv?$AA?9?$AAS?$AAE?$AA?$AA@ 0000000140191148     LIBCMT:winapinls.obj
 0002:00005158       ??_C@_1M@MKJKIKCL@?$AAt?$AAh?$AA?9?$AAT?$AAH?$AA?$AA@ 0000000140191158     LIBCMT:winapinls.obj
 0002:00005168       ??_C@_1M@MFLCCMPB@?$AAt?$AAr?$AA?9?$AAT?$AAR?$AA?$AA@ 0000000140191168     LIBCMT:winapinls.obj
 0002:00005178       ??_C@_1M@OIJHDKJN@?$AAu?$AAr?$AA?9?$AAP?$AAK?$AA?$AA@ 0000000140191178     LIBCMT:winapinls.obj
 0002:00005188       ??_C@_1M@LHIPCIEK@?$AAi?$AAd?$AA?9?$AAI?$AAD?$AA?$AA@ 0000000140191188     LIBCMT:winapinls.obj
 0002:00005198       ??_C@_1M@MFMOBGI@?$AAu?$AAk?$AA?9?$AAU?$AAA?$AA?$AA@ 0000000140191198     LIBCMT:winapinls.obj
 0002:000051a8       ??_C@_1M@OBGLJIPL@?$AAb?$AAe?$AA?9?$AAB?$AAY?$AA?$AA@ 00000001401911a8     LIBCMT:winapinls.obj
 0002:000051b8       ??_C@_1M@BCFAJEAD@?$AAs?$AAl?$AA?9?$AAS?$AAI?$AA?$AA@ 00000001401911b8     LIBCMT:winapinls.obj
 0002:000051c8       ??_C@_1M@FKFFEDDN@?$AAe?$AAt?$AA?9?$AAE?$AAE?$AA?$AA@ 00000001401911c8     LIBCMT:winapinls.obj
 0002:000051d8       ??_C@_1M@KGKKAACI@?$AAl?$AAv?$AA?9?$AAL?$AAV?$AA?$AA@ 00000001401911d8     LIBCMT:winapinls.obj
 0002:000051e8       ??_C@_1M@IFGBIJO@?$AAl?$AAt?$AA?9?$AAL?$AAT?$AA?$AA@ 00000001401911e8     LIBCMT:winapinls.obj
 0002:000051f8       ??_C@_1M@FGEAHEDM@?$AAf?$AAa?$AA?9?$AAI?$AAR?$AA?$AA@ 00000001401911f8     LIBCMT:winapinls.obj
 0002:00005208       ??_C@_1M@KBMAIBFN@?$AAv?$AAi?$AA?9?$AAV?$AAN?$AA?$AA@ 0000000140191208     LIBCMT:winapinls.obj
 0002:00005218       ??_C@_1M@GPCBKDJK@?$AAh?$AAy?$AA?9?$AAA?$AAM?$AA?$AA@ 0000000140191218     LIBCMT:winapinls.obj
 0002:00005228       ??_C@_1BG@BECMDDJB@?$AAa?$AAz?$AA?9?$AAA?$AAZ?$AA?9?$AAL?$AAa?$AAt?$AAn?$AA?$AA@ 0000000140191228     LIBCMT:winapinls.obj
 0002:00005240       ??_C@_1M@MAOFCAEA@?$AAe?$AAu?$AA?9?$AAE?$AAS?$AA?$AA@ 0000000140191240     LIBCMT:winapinls.obj
 0002:00005250       ??_C@_1M@IGHABKPI@?$AAm?$AAk?$AA?9?$AAM?$AAK?$AA?$AA@ 0000000140191250     LIBCMT:winapinls.obj
 0002:00005260       ??_C@_1M@IAIGNEJG@?$AAt?$AAn?$AA?9?$AAZ?$AAA?$AA?$AA@ 0000000140191260     LIBCMT:winapinls.obj
 0002:00005270       ??_C@_1M@IIJCOJFA@?$AAx?$AAh?$AA?9?$AAZ?$AAA?$AA?$AA@ 0000000140191270     LIBCMT:winapinls.obj
 0002:00005280       ??_C@_1M@LGPJHNJH@?$AAz?$AAu?$AA?9?$AAZ?$AAA?$AA?$AA@ 0000000140191280     LIBCMT:winapinls.obj
 0002:00005290       ??_C@_1M@HOKAOIO@?$AAa?$AAf?$AA?9?$AAZ?$AAA?$AA?$AA@ 0000000140191290     LIBCMT:winapinls.obj
 0002:000052a0       ??_C@_1M@DPCLHLIE@?$AAk?$AAa?$AA?9?$AAG?$AAE?$AA?$AA@ 00000001401912a0     LIBCMT:winapinls.obj
 0002:000052b0       ??_C@_1M@BLKMHJBI@?$AAf?$AAo?$AA?9?$AAF?$AAO?$AA?$AA@ 00000001401912b0     LIBCMT:winapinls.obj
 0002:000052c0       ??_C@_1M@LGGJAPPB@?$AAh?$AAi?$AA?9?$AAI?$AAN?$AA?$AA@ 00000001401912c0     LIBCMT:winapinls.obj
 0002:000052d0       ??_C@_1M@FIKPIHFE@?$AAm?$AAt?$AA?9?$AAM?$AAT?$AA?$AA@ 00000001401912d0     LIBCMT:winapinls.obj
 0002:000052e0       ??_C@_1M@HEGGPBFA@?$AAs?$AAe?$AA?9?$AAN?$AAO?$AA?$AA@ 00000001401912e0     LIBCMT:winapinls.obj
 0002:000052f0       ??_C@_1M@EIBJEEPA@?$AAm?$AAs?$AA?9?$AAM?$AAY?$AA?$AA@ 00000001401912f0     LIBCMT:winapinls.obj
 0002:00005300       ??_C@_1M@FHLBGMPP@?$AAk?$AAk?$AA?9?$AAK?$AAZ?$AA?$AA@ 0000000140191300     LIBCMT:winapinls.obj
 0002:00005310       ??_C@_1M@NGJJLCGI@?$AAk?$AAy?$AA?9?$AAK?$AAG?$AA?$AA@ 0000000140191310     LIBCMT:winapinls.obj
 0002:00005320       ??_C@_1M@GIENNBFC@?$AAs?$AAw?$AA?9?$AAK?$AAE?$AA?$AA@ 0000000140191320     LIBCMT:winapinls.obj
 0002:00005330       ??_C@_1BG@NDGMJIMJ@?$AAu?$AAz?$AA?9?$AAU?$AAZ?$AA?9?$AAL?$AAa?$AAt?$AAn?$AA?$AA@ 0000000140191330     LIBCMT:winapinls.obj
 0002:00005348       ??_C@_1M@IDCCIHBC@?$AAt?$AAt?$AA?9?$AAR?$AAU?$AA?$AA@ 0000000140191348     LIBCMT:winapinls.obj
 0002:00005358       ??_C@_1M@LOICPMOJ@?$AAb?$AAn?$AA?9?$AAI?$AAN?$AA?$AA@ 0000000140191358     LIBCMT:winapinls.obj
 0002:00005368       ??_C@_1M@KPKKNEAH@?$AAp?$AAa?$AA?9?$AAI?$AAN?$AA?$AA@ 0000000140191368     LIBCMT:winapinls.obj
 0002:00005378       ??_C@_1M@PJGPPBOG@?$AAg?$AAu?$AA?9?$AAI?$AAN?$AA?$AA@ 0000000140191378     LIBCMT:winapinls.obj
 0002:00005388       ??_C@_1M@KMKMOPHI@?$AAt?$AAa?$AA?9?$AAI?$AAN?$AA?$AA@ 0000000140191388     LIBCMT:winapinls.obj
 0002:00005398       ??_C@_1M@KFEHEPAC@?$AAt?$AAe?$AA?9?$AAI?$AAN?$AA?$AA@ 0000000140191398     LIBCMT:winapinls.obj
 0002:000053a8       ??_C@_1M@CDCLMGHI@?$AAk?$AAn?$AA?9?$AAI?$AAN?$AA?$AA@ 00000001401913a8     LIBCMT:winapinls.obj
 0002:000053b8       ??_C@_1M@MIODLDKF@?$AAm?$AAl?$AA?9?$AAI?$AAN?$AA?$AA@ 00000001401913b8     LIBCMT:winapinls.obj
 0002:000053c8       ??_C@_1M@PBIEACPO@?$AAm?$AAr?$AA?9?$AAI?$AAN?$AA?$AA@ 00000001401913c8     LIBCMT:winapinls.obj
 0002:000053d8       ??_C@_1M@NIDEAGPH@?$AAs?$AAa?$AA?9?$AAI?$AAN?$AA?$AA@ 00000001401913d8     LIBCMT:winapinls.obj
 0002:000053e8       ??_C@_1M@FHIHCBIO@?$AAm?$AAn?$AA?9?$AAM?$AAN?$AA?$AA@ 00000001401913e8     LIBCMT:winapinls.obj
 0002:000053f8       ??_C@_1M@JAIJPENP@?$AAc?$AAy?$AA?9?$AAG?$AAB?$AA?$AA@ 00000001401913f8     LIBCMT:winapinls.obj
 0002:00005408       ??_C@_1M@PHGFBEPN@?$AAg?$AAl?$AA?9?$AAE?$AAS?$AA?$AA@ 0000000140191408     LIBCMT:winapinls.obj
 0002:00005418       ??_C@_1O@KPIPDNCP@?$AAk?$AAo?$AAk?$AA?9?$AAI?$AAN?$AA?$AA@ 0000000140191418     LIBCMT:winapinls.obj
 0002:00005428       ??_C@_1O@KNHJLDJA@?$AAs?$AAy?$AAr?$AA?9?$AAS?$AAY?$AA?$AA@ 0000000140191428     LIBCMT:winapinls.obj
 0002:00005438       ??_C@_1O@MKEKBLAH@?$AAd?$AAi?$AAv?$AA?9?$AAM?$AAV?$AA?$AA@ 0000000140191438     LIBCMT:winapinls.obj
 0002:00005448       ??_C@_1O@OHDCKDDF@?$AAq?$AAu?$AAz?$AA?9?$AAB?$AAO?$AA?$AA@ 0000000140191448     LIBCMT:winapinls.obj
 0002:00005458       ??_C@_1M@LEPJNLFD@?$AAn?$AAs?$AA?9?$AAZ?$AAA?$AA?$AA@ 0000000140191458     LIBCMT:winapinls.obj
 0002:00005468       ??_C@_1M@OMLEIIJB@?$AAm?$AAi?$AA?9?$AAN?$AAZ?$AA?$AA@ 0000000140191468     LIBCMT:winapinls.obj
 0002:00005478       ??_C@_1M@PMPEAILG@?$AAa?$AAr?$AA?9?$AAI?$AAQ?$AA?$AA@ 0000000140191478     LIBCMT:winapinls.obj
 0002:00005488       ??_C@_1M@CNKPNOEE@?$AAd?$AAe?$AA?9?$AAC?$AAH?$AA?$AA@ 0000000140191488     LIBCMT:winapinls.obj
 0002:00005498       ??_C@_1M@LKMGMLKO@?$AAe?$AAn?$AA?9?$AAG?$AAB?$AA?$AA@ 0000000140191498     LIBCMT:winapinls.obj
 0002:000054a8       ??_C@_1M@PGKJFFGL@?$AAe?$AAs?$AA?9?$AAM?$AAX?$AA?$AA@ 00000001401914a8     LIBCMT:winapinls.obj
 0002:000054b8       ??_C@_1M@DNNANBDC@?$AAf?$AAr?$AA?9?$AAB?$AAE?$AA?$AA@ 00000001401914b8     LIBCMT:winapinls.obj
 0002:000054c8       ??_C@_1M@HLGMDFHM@?$AAi?$AAt?$AA?9?$AAC?$AAH?$AA?$AA@ 00000001401914c8     LIBCMT:winapinls.obj
 0002:000054d8       ??_C@_1M@CLLBGJH@?$AAn?$AAl?$AA?9?$AAB?$AAE?$AA?$AA@ 00000001401914d8     LIBCMT:winapinls.obj
 0002:000054e8       ??_C@_1M@BODBOGLF@?$AAn?$AAn?$AA?9?$AAN?$AAO?$AA?$AA@ 00000001401914e8     LIBCMT:winapinls.obj
 0002:000054f8       ??_C@_1M@HFFAHKAD@?$AAp?$AAt?$AA?9?$AAP?$AAT?$AA?$AA@ 00000001401914f8     LIBCMT:winapinls.obj
 0002:00005508       ??_C@_1BG@LNOAKHIE@?$AAs?$AAr?$AA?9?$AAS?$AAP?$AA?9?$AAL?$AAa?$AAt?$AAn?$AA?$AA@ 0000000140191508     LIBCMT:winapinls.obj
 0002:00005520       ??_C@_1M@HBMHBGAK@?$AAs?$AAv?$AA?9?$AAF?$AAI?$AA?$AA@ 0000000140191520     LIBCMT:winapinls.obj
 0002:00005530       ??_C@_1BG@DGCJGJBE@?$AAa?$AAz?$AA?9?$AAA?$AAZ?$AA?9?$AAC?$AAy?$AAr?$AAl?$AA?$AA@ 0000000140191530     LIBCMT:winapinls.obj
 0002:00005548       ??_C@_1M@KEJDAAHB@?$AAs?$AAe?$AA?9?$AAS?$AAE?$AA?$AA@ 0000000140191548     LIBCMT:winapinls.obj
 0002:00005558       ??_C@_1M@HEIBJJAD@?$AAm?$AAs?$AA?9?$AAB?$AAN?$AA?$AA@ 0000000140191558     LIBCMT:winapinls.obj
 0002:00005568       ??_C@_1BG@PBGJMCEM@?$AAu?$AAz?$AA?9?$AAU?$AAZ?$AA?9?$AAC?$AAy?$AAr?$AAl?$AA?$AA@ 0000000140191568     LIBCMT:winapinls.obj
 0002:00005580       ??_C@_1O@LAOBCMDF@?$AAq?$AAu?$AAz?$AA?9?$AAE?$AAC?$AA?$AA@ 0000000140191580     LIBCMT:winapinls.obj
 0002:00005590       ??_C@_1M@POEEMAIO@?$AAa?$AAr?$AA?9?$AAE?$AAG?$AA?$AA@ 0000000140191590     LIBCMT:winapinls.obj
 0002:000055a0       ??_C@_1M@EFAKDEDL@?$AAz?$AAh?$AA?9?$AAH?$AAK?$AA?$AA@ 00000001401915a0     LIBCMT:winapinls.obj
 0002:000055b0       ??_C@_1M@HKKIJHGI@?$AAd?$AAe?$AA?9?$AAA?$AAT?$AA?$AA@ 00000001401915b0     LIBCMT:winapinls.obj
 0002:000055c0       ??_C@_1M@KBFBEHJF@?$AAe?$AAn?$AA?9?$AAA?$AAU?$AA?$AA@ 00000001401915c0     LIBCMT:winapinls.obj
 0002:000055d0       ??_C@_1M@MNPLFAAH@?$AAe?$AAs?$AA?9?$AAE?$AAS?$AA?$AA@ 00000001401915d0     LIBCMT:winapinls.obj
 0002:000055e0       ??_C@_1M@HJOOJFMA@?$AAf?$AAr?$AA?9?$AAC?$AAA?$AA?$AA@ 00000001401915e0     LIBCMT:winapinls.obj
 0002:000055f0       ??_C@_1BG@JPOFPNAB@?$AAs?$AAr?$AA?9?$AAS?$AAP?$AA?9?$AAC?$AAy?$AAr?$AAl?$AA?$AA@ 00000001401915f0     LIBCMT:winapinls.obj
 0002:00005608       ??_C@_1M@LNFOCMOB@?$AAs?$AAe?$AA?9?$AAF?$AAI?$AA?$AA@ 0000000140191608     LIBCMT:winapinls.obj
 0002:00005618       ??_C@_1O@MGJBOAMB@?$AAq?$AAu?$AAz?$AA?9?$AAP?$AAE?$AA?$AA@ 0000000140191618     LIBCMT:winapinls.obj
 0002:00005628       ??_C@_1M@GJINLBOK@?$AAa?$AAr?$AA?9?$AAL?$AAY?$AA?$AA@ 0000000140191628     LIBCMT:winapinls.obj
 0002:00005638       ??_C@_1M@GGMNHJNL@?$AAz?$AAh?$AA?9?$AAS?$AAG?$AA?$AA@ 0000000140191638     LIBCMT:winapinls.obj
 0002:00005648       ??_C@_1M@HOIKODND@?$AAd?$AAe?$AA?9?$AAL?$AAU?$AA?$AA@ 0000000140191648     LIBCMT:winapinls.obj
 0002:00005658       ??_C@_1M@DDOCCGFG@?$AAe?$AAn?$AA?9?$AAC?$AAA?$AA?$AA@ 0000000140191658     LIBCMT:winapinls.obj
 0002:00005668       ??_C@_1M@BNOEMJLF@?$AAe?$AAs?$AA?9?$AAG?$AAT?$AA?$AA@ 0000000140191668     LIBCMT:winapinls.obj
 0002:00005678       ??_C@_1M@EOGNKEK@?$AAf?$AAr?$AA?9?$AAC?$AAH?$AA?$AA@ 0000000140191678     LIBCMT:winapinls.obj
 0002:00005688       ??_C@_1M@FLIDJFHL@?$AAh?$AAr?$AA?9?$AAB?$AAA?$AA?$AA@ 0000000140191688     LIBCMT:winapinls.obj
 0002:00005698       ??_C@_1O@FMCELNAJ@?$AAs?$AAm?$AAj?$AA?9?$AAN?$AAO?$AA?$AA@ 0000000140191698     LIBCMT:winapinls.obj
 0002:000056a8       ??_C@_1M@JHGLJMGJ@?$AAa?$AAr?$AA?9?$AAD?$AAZ?$AA?$AA@ 00000001401916a8     LIBCMT:winapinls.obj
 0002:000056b8       ??_C@_1M@JKKFDCNP@?$AAz?$AAh?$AA?9?$AAM?$AAO?$AA?$AA@ 00000001401916b8     LIBCMT:winapinls.obj
 0002:000056c8       ??_C@_1M@GEEFALPE@?$AAd?$AAe?$AA?9?$AAL?$AAI?$AA?$AA@ 00000001401916c8     LIBCMT:winapinls.obj
 0002:000056d8       ??_C@_1M@IGEOFBG@?$AAe?$AAn?$AA?9?$AAN?$AAZ?$AA?$AA@ 00000001401916d8     LIBCMT:winapinls.obj
 0002:000056e8       ??_C@_1M@KDBONEHP@?$AAe?$AAs?$AA?9?$AAC?$AAR?$AA?$AA@ 00000001401916e8     LIBCMT:winapinls.obj
 0002:000056f8       ??_C@_1M@FHMDOHNN@?$AAf?$AAr?$AA?9?$AAL?$AAU?$AA?$AA@ 00000001401916f8     LIBCMT:winapinls.obj
 0002:00005708       ??_C@_1BG@NFKKMAFG@?$AAb?$AAs?$AA?9?$AAB?$AAA?$AA?9?$AAL?$AAa?$AAt?$AAn?$AA?$AA@ 0000000140191708     LIBCMT:winapinls.obj
 0002:00005720       ??_C@_1O@IMNBEMCI@?$AAs?$AAm?$AAj?$AA?9?$AAS?$AAE?$AA?$AA@ 0000000140191720     LIBCMT:winapinls.obj
 0002:00005730       ??_C@_1M@DHHMBNDP@?$AAa?$AAr?$AA?9?$AAM?$AAA?$AA?$AA@ 0000000140191730     LIBCMT:winapinls.obj
 0002:00005740       ??_C@_1M@BNBLJCGH@?$AAe?$AAn?$AA?9?$AAI?$AAE?$AA?$AA@ 0000000140191740     LIBCMT:winapinls.obj
 0002:00005750       ??_C@_1M@GEPAFMDL@?$AAe?$AAs?$AA?9?$AAP?$AAA?$AA?$AA@ 0000000140191750     LIBCMT:winapinls.obj
 0002:00005760       ??_C@_1M@OJONDMDL@?$AAf?$AAr?$AA?9?$AAM?$AAC?$AA?$AA@ 0000000140191760     LIBCMT:winapinls.obj
 0002:00005770       ??_C@_1BG@OBCNFJB@?$AAs?$AAr?$AA?9?$AAB?$AAA?$AA?9?$AAL?$AAa?$AAt?$AAn?$AA?$AA@ 0000000140191770     LIBCMT:winapinls.obj
 0002:00005788       ??_C@_1O@KEMEEGPO@?$AAs?$AAm?$AAa?$AA?9?$AAN?$AAO?$AA?$AA@ 0000000140191788     LIBCMT:winapinls.obj
 0002:00005798       ??_C@_1M@ELMGFODK@?$AAa?$AAr?$AA?9?$AAT?$AAN?$AA?$AA@ 0000000140191798     LIBCMT:winapinls.obj
 0002:000057a8       ??_C@_1M@BHDLHFAF@?$AAe?$AAn?$AA?9?$AAZ?$AAA?$AA?$AA@ 00000001401917a8     LIBCMT:winapinls.obj
 0002:000057b8       ??_C@_1M@BMGIGLIF@?$AAe?$AAs?$AA?9?$AAD?$AAO?$AA?$AA@ 00000001401917b8     LIBCMT:winapinls.obj
 0002:000057c8       ??_C@_1BG@CMBHIPBE@?$AAs?$AAr?$AA?9?$AAB?$AAA?$AA?9?$AAC?$AAy?$AAr?$AAl?$AA?$AA@ 00000001401917c8     LIBCMT:winapinls.obj
 0002:000057e0       ??_C@_1O@HEDBLHNP@?$AAs?$AAm?$AAa?$AA?9?$AAS?$AAE?$AA?$AA@ 00000001401917e0     LIBCMT:winapinls.obj
 0002:000057f0       ??_C@_1M@DAGCADIM@?$AAa?$AAr?$AA?9?$AAO?$AAM?$AA?$AA@ 00000001401917f0     LIBCMT:winapinls.obj
 0002:00005800       ??_C@_1M@FODLMICG@?$AAe?$AAn?$AA?9?$AAJ?$AAM?$AA?$AA@ 0000000140191800     LIBCMT:winapinls.obj
 0002:00005810       ??_C@_1M@DNMLCIHB@?$AAe?$AAs?$AA?9?$AAV?$AAE?$AA?$AA@ 0000000140191810     LIBCMT:winapinls.obj
 0002:00005820       ??_C@_1O@EOKHMKJK@?$AAs?$AAm?$AAs?$AA?9?$AAF?$AAI?$AA?$AA@ 0000000140191820     LIBCMT:winapinls.obj
 0002:00005830       ??_C@_1M@CAFJMKOF@?$AAa?$AAr?$AA?9?$AAY?$AAE?$AA?$AA@ 0000000140191830     LIBCMT:winapinls.obj
 0002:00005840       ??_C@_1M@CBFHIJLI@?$AAe?$AAn?$AA?9?$AAC?$AAB?$AA?$AA@ 0000000140191840     LIBCMT:winapinls.obj
 0002:00005850       ??_C@_1M@BGNFLDN@?$AAe?$AAs?$AA?9?$AAC?$AAO?$AA?$AA@ 0000000140191850     LIBCMT:winapinls.obj
 0002:00005860       ??_C@_1O@JMPHMAMC@?$AAs?$AAm?$AAn?$AA?9?$AAF?$AAI?$AA?$AA@ 0000000140191860     LIBCMT:winapinls.obj
 0002:00005870       ??_C@_1M@JLANABKE@?$AAa?$AAr?$AA?9?$AAS?$AAY?$AA?$AA@ 0000000140191870     LIBCMT:winapinls.obj
 0002:00005880       ??_C@_1M@HPKGCFGN@?$AAe?$AAn?$AA?9?$AAB?$AAZ?$AA?$AA@ 0000000140191880     LIBCMT:winapinls.obj
 0002:00005890       ??_C@_1M@OLJCMLGM@?$AAe?$AAs?$AA?9?$AAP?$AAE?$AA?$AA@ 0000000140191890     LIBCMT:winapinls.obj
 0002:000058a0       ??_C@_1M@MKKGFKLE@?$AAa?$AAr?$AA?9?$AAJ?$AAO?$AA?$AA@ 00000001401918a0     LIBCMT:winapinls.obj
 0002:000058b0       ??_C@_1M@EKPGLDNI@?$AAe?$AAn?$AA?9?$AAT?$AAT?$AA?$AA@ 00000001401918b0     LIBCMT:winapinls.obj
 0002:000058c0       ??_C@_1M@OONGHFHE@?$AAe?$AAs?$AA?9?$AAA?$AAR?$AA?$AA@ 00000001401918c0     LIBCMT:winapinls.obj
 0002:000058d0       ??_C@_1M@OOJFGBHE@?$AAa?$AAr?$AA?9?$AAL?$AAB?$AA?$AA@ 00000001401918d0     LIBCMT:winapinls.obj
 0002:000058e0       ??_C@_1M@GCEJHNEG@?$AAe?$AAn?$AA?9?$AAZ?$AAW?$AA?$AA@ 00000001401918e0     LIBCMT:winapinls.obj
 0002:000058f0       ??_C@_1M@JNOCAHJI@?$AAe?$AAs?$AA?9?$AAE?$AAC?$AA?$AA@ 00000001401918f0     LIBCMT:winapinls.obj
 0002:00005900       ??_C@_1M@JEFHPGGB@?$AAa?$AAr?$AA?9?$AAK?$AAW?$AA?$AA@ 0000000140191900     LIBCMT:winapinls.obj
 0002:00005910       ??_C@_1M@MLKIBJOJ@?$AAe?$AAn?$AA?9?$AAP?$AAH?$AA?$AA@ 0000000140191910     LIBCMT:winapinls.obj
 0002:00005920       ??_C@_1M@BDNIPEND@?$AAe?$AAs?$AA?9?$AAC?$AAL?$AA?$AA@ 0000000140191920     LIBCMT:winapinls.obj
 0002:00005930       ??_C@_1M@MPNMEKBD@?$AAa?$AAr?$AA?9?$AAA?$AAE?$AA?$AA@ 0000000140191930     LIBCMT:winapinls.obj
 0002:00005940       ??_C@_1M@KBJALCPI@?$AAe?$AAs?$AA?9?$AAU?$AAY?$AA?$AA@ 0000000140191940     LIBCMT:winapinls.obj
 0002:00005950       ??_C@_1M@LLCCOAGA@?$AAa?$AAr?$AA?9?$AAB?$AAH?$AA?$AA@ 0000000140191950     LIBCMT:winapinls.obj
 0002:00005960       ??_C@_1M@PBFNCDEL@?$AAe?$AAs?$AA?9?$AAP?$AAY?$AA?$AA@ 0000000140191960     LIBCMT:winapinls.obj
 0002:00005970       ??_C@_1M@EDGINPNP@?$AAa?$AAr?$AA?9?$AAQ?$AAA?$AA?$AA@ 0000000140191970     LIBCMT:winapinls.obj
 0002:00005980       ??_C@_1M@MKDBIIJI@?$AAe?$AAs?$AA?9?$AAB?$AAO?$AA?$AA@ 0000000140191980     LIBCMT:winapinls.obj
 0002:00005990       ??_C@_1M@CPKKEBLD@?$AAe?$AAs?$AA?9?$AAS?$AAV?$AA?$AA@ 0000000140191990     LIBCMT:winapinls.obj
 0002:000059a0       ??_C@_1M@NDBGMMJL@?$AAe?$AAs?$AA?9?$AAH?$AAN?$AA?$AA@ 00000001401919a0     LIBCMT:winapinls.obj
 0002:000059b0       ??_C@_1M@JIJIBHDP@?$AAe?$AAs?$AA?9?$AAN?$AAI?$AA?$AA@ 00000001401919b0     LIBCMT:winapinls.obj
 0002:000059c0       ??_C@_1M@CGFMKEEK@?$AAe?$AAs?$AA?9?$AAP?$AAR?$AA?$AA@ 00000001401919c0     LIBCMT:winapinls.obj
 0002:000059d0       ??_C@_1O@ICJHKIIK@?$AAz?$AAh?$AA?9?$AAC?$AAH?$AAT?$AA?$AA@ 00000001401919d0     LIBCMT:winapinls.obj
 0002:000059e0       ??_C@_15CLNEJCE@?$AAs?$AAr?$AA?$AA@ 00000001401919e0     LIBCMT:winapinls.obj
 0002:000059f0       LocaleNameToIndexTable     00000001401919f0     LIBCMT:winapinls.obj
 0002:00006830       LcidToLocaleNameTable      0000000140192830     LIBCMT:winapinls.obj
 0002:00007670       ??_C@_1M@KAHEKEIG@?$AAa?$AAf?$AA?9?$AAz?$AAa?$AA?$AA@ 0000000140193670     LIBCMT:winapinls.obj
 0002:00007680       ??_C@_1M@GIECOABL@?$AAa?$AAr?$AA?9?$AAa?$AAe?$AA?$AA@ 0000000140193680     LIBCMT:winapinls.obj
 0002:00007690       ??_C@_1M@BMLMEKGI@?$AAa?$AAr?$AA?9?$AAb?$AAh?$AA?$AA@ 0000000140193690     LIBCMT:winapinls.obj
 0002:000076a0       ??_C@_1M@DAPFDGGB@?$AAa?$AAr?$AA?9?$AAd?$AAz?$AA?$AA@ 00000001401936a0     LIBCMT:winapinls.obj
 0002:000076b0       ??_C@_1M@FJNKGKIG@?$AAa?$AAr?$AA?9?$AAe?$AAg?$AA?$AA@ 00000001401936b0     LIBCMT:winapinls.obj
 0002:000076c0       ??_C@_1M@FLGKKCLO@?$AAa?$AAr?$AA?9?$AAi?$AAq?$AA?$AA@ 00000001401936c0     LIBCMT:winapinls.obj
 0002:000076d0       ??_C@_1M@GNDIPALM@?$AAa?$AAr?$AA?9?$AAj?$AAo?$AA?$AA@ 00000001401936d0     LIBCMT:winapinls.obj
 0002:000076e0       ??_C@_1M@DDMJFMGJ@?$AAa?$AAr?$AA?9?$AAk?$AAw?$AA?$AA@ 00000001401936e0     LIBCMT:winapinls.obj
 0002:000076f0       ??_C@_1M@EJALMLHM@?$AAa?$AAr?$AA?9?$AAl?$AAb?$AA?$AA@ 00000001401936f0     LIBCMT:winapinls.obj
 0002:00007700       ??_C@_1M@MOBDBLOC@?$AAa?$AAr?$AA?9?$AAl?$AAy?$AA?$AA@ 0000000140193700     LIBCMT:winapinls.obj
 0002:00007710       ??_C@_1M@JAOCLHDH@?$AAa?$AAr?$AA?9?$AAm?$AAa?$AA?$AA@ 0000000140193710     LIBCMT:winapinls.obj
 0002:00007720       ??_C@_1M@JHPMKJIE@?$AAa?$AAr?$AA?9?$AAo?$AAm?$AA?$AA@ 0000000140193720     LIBCMT:winapinls.obj
 0002:00007730       ??_C@_1M@OEPGHFNH@?$AAa?$AAr?$AA?9?$AAq?$AAa?$AA?$AA@ 0000000140193730     LIBCMT:winapinls.obj
 0002:00007740       ??_C@_1M@KJDONENM@?$AAa?$AAr?$AA?9?$AAs?$AAa?$AA?$AA@ 0000000140193740     LIBCMT:winapinls.obj
 0002:00007750       ??_C@_1M@DMJDKLKM@?$AAa?$AAr?$AA?9?$AAs?$AAy?$AA?$AA@ 0000000140193750     LIBCMT:winapinls.obj
 0002:00007760       ??_C@_1M@OMFIPEDC@?$AAa?$AAr?$AA?9?$AAt?$AAn?$AA?$AA@ 0000000140193760     LIBCMT:winapinls.obj
 0002:00007770       ??_C@_1M@IHMHGAON@?$AAa?$AAr?$AA?9?$AAy?$AAe?$AA?$AA@ 0000000140193770     LIBCMT:winapinls.obj
 0002:00007780       ??_C@_1BG@KDCPGJGB@?$AAa?$AAz?$AA?9?$AAa?$AAz?$AA?9?$AAc?$AAy?$AAr?$AAl?$AA?$AA@ 0000000140193780     LIBCMT:winapinls.obj
 0002:00007798       ??_C@_1BG@IBCKDDOE@?$AAa?$AAz?$AA?9?$AAa?$AAz?$AA?9?$AAl?$AAa?$AAt?$AAn?$AA?$AA@ 0000000140193798     LIBCMT:winapinls.obj
 0002:000077b0       ??_C@_1M@EGPFDCPD@?$AAb?$AAe?$AA?9?$AAb?$AAy?$AA?$AA@ 00000001401937b0     LIBCMT:winapinls.obj
 0002:000077c0       ??_C@_1M@PCMGMCGC@?$AAb?$AAg?$AA?9?$AAb?$AAg?$AA?$AA@ 00000001401937c0     LIBCMT:winapinls.obj
 0002:000077d0       ??_C@_1M@BJBMFGOB@?$AAb?$AAn?$AA?9?$AAi?$AAn?$AA?$AA@ 00000001401937d0     LIBCMT:winapinls.obj
 0002:000077e0       ??_C@_1BG@EAKMMACD@?$AAb?$AAs?$AA?9?$AAb?$AAa?$AA?9?$AAl?$AAa?$AAt?$AAn?$AA?$AA@ 00000001401937e0     LIBCMT:winapinls.obj
 0002:000077f8       ??_C@_1M@KGADAODK@?$AAc?$AAa?$AA?9?$AAe?$AAs?$AA?$AA@ 00000001401937f8     LIBCMT:winapinls.obj
 0002:00007808       ??_C@_1M@COAJPDHI@?$AAc?$AAs?$AA?9?$AAc?$AAz?$AA?$AA@ 0000000140193808     LIBCMT:winapinls.obj
 0002:00007818       ??_C@_1M@DHBHFONH@?$AAc?$AAy?$AA?9?$AAg?$AAb?$AA?$AA@ 0000000140193818     LIBCMT:winapinls.obj
 0002:00007828       ??_C@_1M@IMGKELGA@?$AAd?$AAa?$AA?9?$AAd?$AAk?$AA?$AA@ 0000000140193828     LIBCMT:winapinls.obj
 0002:00007838       ??_C@_1M@NNDGDNGA@?$AAd?$AAe?$AA?9?$AAa?$AAt?$AA?$AA@ 0000000140193838     LIBCMT:winapinls.obj
 0002:00007848       ??_C@_1M@IKDBHEEM@?$AAd?$AAe?$AA?9?$AAc?$AAh?$AA?$AA@ 0000000140193848     LIBCMT:winapinls.obj
 0002:00007858       ??_C@_1M@GFFOJMCJ@?$AAd?$AAe?$AA?9?$AAd?$AAe?$AA?$AA@ 0000000140193858     LIBCMT:winapinls.obj
 0002:00007868       ??_C@_1M@MDNLKBPM@?$AAd?$AAe?$AA?9?$AAl?$AAi?$AA?$AA@ 0000000140193868     LIBCMT:winapinls.obj
 0002:00007878       ??_C@_1M@NJBEEJNL@?$AAd?$AAe?$AA?9?$AAl?$AAu?$AA?$AA@ 0000000140193878     LIBCMT:winapinls.obj
 0002:00007888       ??_C@_1O@GNNELBAP@?$AAd?$AAi?$AAv?$AA?9?$AAm?$AAv?$AA?$AA@ 0000000140193888     LIBCMT:winapinls.obj
 0002:00007898       ??_C@_1M@EJLEOGAE@?$AAe?$AAl?$AA?9?$AAg?$AAr?$AA?$AA@ 0000000140193898     LIBCMT:winapinls.obj
 0002:000078a8       ??_C@_1M@GMPONJN@?$AAe?$AAn?$AA?9?$AAa?$AAu?$AA?$AA@ 00000001401938a8     LIBCMT:winapinls.obj
 0002:000078b8       ??_C@_1M@NIDIIPGF@?$AAe?$AAn?$AA?9?$AAb?$AAz?$AA?$AA@ 00000001401938b8     LIBCMT:winapinls.obj
 0002:000078c8       ??_C@_1M@JEHMIMFO@?$AAe?$AAn?$AA?9?$AAc?$AAa?$AA?$AA@ 00000001401938c8     LIBCMT:winapinls.obj
 0002:000078d8       ??_C@_1M@IGMJCDLA@?$AAe?$AAn?$AA?9?$AAc?$AAb?$AA?$AA@ 00000001401938d8     LIBCMT:winapinls.obj
 0002:000078e8       ??_C@_1M@BNFIGBKG@?$AAe?$AAn?$AA?9?$AAg?$AAb?$AA?$AA@ 00000001401938e8     LIBCMT:winapinls.obj
 0002:000078f8       ??_C@_1M@LKIFDIGP@?$AAe?$AAn?$AA?9?$AAi?$AAe?$AA?$AA@ 00000001401938f8     LIBCMT:winapinls.obj
 0002:00007908       ??_C@_1M@PJKFGCCO@?$AAe?$AAn?$AA?9?$AAj?$AAm?$AA?$AA@ 0000000140193908     LIBCMT:winapinls.obj
 0002:00007918       ??_C@_1M@KPPKEPBO@?$AAe?$AAn?$AA?9?$AAn?$AAz?$AA?$AA@ 0000000140193918     LIBCMT:winapinls.obj
 0002:00007928       ??_C@_1M@GMDGLDOB@?$AAe?$AAn?$AA?9?$AAp?$AAh?$AA?$AA@ 0000000140193928     LIBCMT:winapinls.obj
 0002:00007938       ??_C@_1M@ONGIBJNA@?$AAe?$AAn?$AA?9?$AAt?$AAt?$AA?$AA@ 0000000140193938     LIBCMT:winapinls.obj
 0002:00007948       ??_C@_1M@LLODPCMM@?$AAe?$AAn?$AA?9?$AAu?$AAs?$AA?$AA@ 0000000140193948     LIBCMT:winapinls.obj
 0002:00007958       ??_C@_1M@LAKFNPAN@?$AAe?$AAn?$AA?9?$AAz?$AAa?$AA?$AA@ 0000000140193958     LIBCMT:winapinls.obj
 0002:00007968       ??_C@_1M@MFNHNHEO@?$AAe?$AAn?$AA?9?$AAz?$AAw?$AA?$AA@ 0000000140193968     LIBCMT:winapinls.obj
 0002:00007978       ??_C@_1M@EJEINPHM@?$AAe?$AAs?$AA?9?$AAa?$AAr?$AA?$AA@ 0000000140193978     LIBCMT:winapinls.obj
 0002:00007988       ??_C@_1M@GNKPCCJA@?$AAe?$AAs?$AA?9?$AAb?$AAo?$AA?$AA@ 0000000140193988     LIBCMT:winapinls.obj
 0002:00007998       ??_C@_1M@LEEGFONL@?$AAe?$AAs?$AA?9?$AAc?$AAl?$AA?$AA@ 0000000140193998     LIBCMT:winapinls.obj
 0002:000079a8       ??_C@_1M@KGPDPBDF@?$AAe?$AAs?$AA?9?$AAc?$AAo?$AA?$AA@ 00000001401939a8     LIBCMT:winapinls.obj
 0002:000079b8       ??_C@_1M@EIAHOHH@?$AAe?$AAs?$AA?9?$AAc?$AAr?$AA?$AA@ 00000001401939b8     LIBCMT:winapinls.obj
 0002:000079c8       ??_C@_1M@LLPGMBIN@?$AAe?$AAs?$AA?9?$AAd?$AAo?$AA?$AA@ 00000001401939c8     LIBCMT:winapinls.obj
 0002:000079d8       ??_C@_1M@DKHMKNJA@?$AAe?$AAs?$AA?9?$AAe?$AAc?$AA?$AA@ 00000001401939d8     LIBCMT:winapinls.obj
 0002:000079e8       ??_C@_1M@GKGFPKAP@?$AAe?$AAs?$AA?9?$AAe?$AAs?$AA?$AA@ 00000001401939e8     LIBCMT:winapinls.obj
 0002:000079f8       ??_C@_1M@LKHKGDLN@?$AAe?$AAs?$AA?9?$AAg?$AAt?$AA?$AA@ 00000001401939f8     LIBCMT:winapinls.obj
 0002:00007a08       ??_C@_1M@HEIIGGJD@?$AAe?$AAs?$AA?9?$AAh?$AAn?$AA?$AA@ 0000000140193a08     LIBCMT:winapinls.obj
 0002:00007a18       ??_C@_1M@FBDHPPGD@?$AAe?$AAs?$AA?9?$AAm?$AAx?$AA?$AA@ 0000000140193a18     LIBCMT:winapinls.obj
 0002:00007a28       ??_C@_1M@DPAGLNDH@?$AAe?$AAs?$AA?9?$AAn?$AAi?$AA?$AA@ 0000000140193a28     LIBCMT:winapinls.obj
 0002:00007a38       ??_C@_1M@MDGOPGDD@?$AAe?$AAs?$AA?9?$AAp?$AAa?$AA?$AA@ 0000000140193a38     LIBCMT:winapinls.obj
 0002:00007a48       ??_C@_1M@EMAMGBGE@?$AAe?$AAs?$AA?9?$AAp?$AAe?$AA?$AA@ 0000000140193a48     LIBCMT:winapinls.obj
 0002:00007a58       ??_C@_1M@IBMCAOEC@?$AAe?$AAs?$AA?9?$AAp?$AAr?$AA?$AA@ 0000000140193a58     LIBCMT:winapinls.obj
 0002:00007a68       ??_C@_1M@FGMDIJED@?$AAe?$AAs?$AA?9?$AAp?$AAy?$AA?$AA@ 0000000140193a68     LIBCMT:winapinls.obj
 0002:00007a78       ??_C@_1M@IIDEOLLL@?$AAe?$AAs?$AA?9?$AAs?$AAv?$AA?$AA@ 0000000140193a78     LIBCMT:winapinls.obj
 0002:00007a88       ??_C@_1M@GAOBIPA@?$AAe?$AAs?$AA?9?$AAu?$AAy?$AA?$AA@ 0000000140193a88     LIBCMT:winapinls.obj
 0002:00007a98       ??_C@_1M@JKFFICHJ@?$AAe?$AAs?$AA?9?$AAv?$AAe?$AA?$AA@ 0000000140193a98     LIBCMT:winapinls.obj
 0002:00007aa8       ??_C@_1M@PNMLOJDF@?$AAe?$AAt?$AA?9?$AAe?$AAe?$AA?$AA@ 0000000140193aa8     LIBCMT:winapinls.obj
 0002:00007ab8       ??_C@_1M@GHHLIKEI@?$AAe?$AAu?$AA?9?$AAe?$AAs?$AA?$AA@ 0000000140193ab8     LIBCMT:winapinls.obj
 0002:00007ac8       ??_C@_1M@PBNONODE@?$AAf?$AAa?$AA?9?$AAi?$AAr?$AA?$AA@ 0000000140193ac8     LIBCMT:winapinls.obj
 0002:00007ad8       ??_C@_1M@JEEHPMIL@?$AAf?$AAi?$AA?9?$AAf?$AAi?$AA?$AA@ 0000000140193ad8     LIBCMT:winapinls.obj
 0002:00007ae8       ??_C@_1M@LMDCNDBA@?$AAf?$AAo?$AA?9?$AAf?$AAo?$AA?$AA@ 0000000140193ae8     LIBCMT:winapinls.obj
 0002:00007af8       ??_C@_1M@JKEOHLDK@?$AAf?$AAr?$AA?9?$AAb?$AAe?$AA?$AA@ 0000000140193af8     LIBCMT:winapinls.obj
 0002:00007b08       ??_C@_1M@NOHADPMI@?$AAf?$AAr?$AA?9?$AAc?$AAa?$AA?$AA@ 0000000140193b08     LIBCMT:winapinls.obj
 0002:00007b18       ??_C@_1M@KDHIHAEC@?$AAf?$AAr?$AA?9?$AAc?$AAh?$AA?$AA@ 0000000140193b18     LIBCMT:winapinls.obj
 0002:00007b28       ??_C@_1M@MMBBFGAK@?$AAf?$AAr?$AA?9?$AAf?$AAr?$AA?$AA@ 0000000140193b28     LIBCMT:winapinls.obj
 0002:00007b38       ??_C@_1M@PAFNENNF@?$AAf?$AAr?$AA?9?$AAl?$AAu?$AA?$AA@ 0000000140193b38     LIBCMT:winapinls.obj
 0002:00007b48       ??_C@_1M@EOHDJGDD@?$AAf?$AAr?$AA?9?$AAm?$AAc?$AA?$AA@ 0000000140193b48     LIBCMT:winapinls.obj
 0002:00007b58       ??_C@_1M@FAPLLOPF@?$AAg?$AAl?$AA?9?$AAe?$AAs?$AA?$AA@ 0000000140193b58     LIBCMT:winapinls.obj
 0002:00007b68       ??_C@_1M@FOPBFLOO@?$AAg?$AAu?$AA?9?$AAi?$AAn?$AA?$AA@ 0000000140193b68     LIBCMT:winapinls.obj
 0002:00007b78       ??_C@_1M@KBMCINPM@?$AAh?$AAe?$AA?9?$AAi?$AAl?$AA?$AA@ 0000000140193b78     LIBCMT:winapinls.obj
 0002:00007b88       ??_C@_1M@BBPHKFPJ@?$AAh?$AAi?$AA?9?$AAi?$AAn?$AA?$AA@ 0000000140193b88     LIBCMT:winapinls.obj
 0002:00007b98       ??_C@_1M@PMBNDPHD@?$AAh?$AAr?$AA?9?$AAb?$AAa?$AA?$AA@ 0000000140193b98     LIBCMT:winapinls.obj
 0002:00007ba8       ??_C@_1M@BPCKOEGE@?$AAh?$AAr?$AA?9?$AAh?$AAr?$AA?$AA@ 0000000140193ba8     LIBCMT:winapinls.obj
 0002:00007bb8       ??_C@_1M@GACBMHKE@?$AAh?$AAu?$AA?9?$AAh?$AAu?$AA?$AA@ 0000000140193bb8     LIBCMT:winapinls.obj
 0002:00007bc8       ??_C@_1M@MILPAJJC@?$AAh?$AAy?$AA?9?$AAa?$AAm?$AA?$AA@ 0000000140193bc8     LIBCMT:winapinls.obj
 0002:00007bd8       ??_C@_1M@BABBICEC@?$AAi?$AAd?$AA?9?$AAi?$AAd?$AA?$AA@ 0000000140193bd8     LIBCMT:winapinls.obj
 0002:00007be8       ??_C@_1M@BIKNHHPF@?$AAi?$AAs?$AA?9?$AAi?$AAs?$AA?$AA@ 0000000140193be8     LIBCMT:winapinls.obj
 0002:00007bf8       ??_C@_1M@NMPCJPHE@?$AAi?$AAt?$AA?9?$AAc?$AAh?$AA?$AA@ 0000000140193bf8     LIBCMT:winapinls.obj
 0002:00007c08       ??_C@_1M@GHKGFEDF@?$AAi?$AAt?$AA?9?$AAi?$AAt?$AA?$AA@ 0000000140193c08     LIBCMT:winapinls.obj
 0002:00007c18       ??_C@_1M@NIEJCJJA@?$AAj?$AAa?$AA?9?$AAj?$AAp?$AA?$AA@ 0000000140193c18     LIBCMT:winapinls.obj
 0002:00007c28       ??_C@_1M@JILFNBIM@?$AAk?$AAa?$AA?9?$AAg?$AAe?$AA?$AA@ 0000000140193c28     LIBCMT:winapinls.obj
 0002:00007c38       ??_C@_1M@PACPMGPH@?$AAk?$AAk?$AA?9?$AAk?$AAz?$AA?$AA@ 0000000140193c38     LIBCMT:winapinls.obj
 0002:00007c48       ??_C@_1M@IELFGMHA@?$AAk?$AAn?$AA?9?$AAi?$AAn?$AA?$AA@ 0000000140193c48     LIBCMT:winapinls.obj
 0002:00007c58       ??_C@_1O@IBBJHCH@?$AAk?$AAo?$AAk?$AA?9?$AAi?$AAn?$AA?$AA@ 0000000140193c58     LIBCMT:winapinls.obj
 0002:00007c68       ??_C@_1M@DMHAEOGC@?$AAk?$AAo?$AA?9?$AAk?$AAr?$AA?$AA@ 0000000140193c68     LIBCMT:winapinls.obj
 0002:00007c78       ??_C@_1M@HBAHBIGA@?$AAk?$AAy?$AA?9?$AAk?$AAg?$AA?$AA@ 0000000140193c78     LIBCMT:winapinls.obj
 0002:00007c88       ??_C@_1M@KPMILCJG@?$AAl?$AAt?$AA?9?$AAl?$AAt?$AA?$AA@ 0000000140193c88     LIBCMT:winapinls.obj
 0002:00007c98       ??_C@_1M@BDEKKCA@?$AAl?$AAv?$AA?9?$AAl?$AAv?$AA?$AA@ 0000000140193c98     LIBCMT:winapinls.obj
 0002:00007ca8       ??_C@_1M@ELCKCCJJ@?$AAm?$AAi?$AA?9?$AAn?$AAz?$AA?$AA@ 0000000140193ca8     LIBCMT:winapinls.obj
 0002:00007cb8       ??_C@_1M@CBOOLAPA@?$AAm?$AAk?$AA?9?$AAm?$AAk?$AA?$AA@ 0000000140193cb8     LIBCMT:winapinls.obj
 0002:00007cc8       ??_C@_1M@GPHNBJKN@?$AAm?$AAl?$AA?9?$AAi?$AAn?$AA?$AA@ 0000000140193cc8     LIBCMT:winapinls.obj
 0002:00007cd8       ??_C@_1M@PABJILIG@?$AAm?$AAn?$AA?9?$AAm?$AAn?$AA?$AA@ 0000000140193cd8     LIBCMT:winapinls.obj
 0002:00007ce8       ??_C@_1M@FGBKKIPG@?$AAm?$AAr?$AA?9?$AAi?$AAn?$AA?$AA@ 0000000140193ce8     LIBCMT:winapinls.obj
 0002:00007cf8       ??_C@_1M@NDBPDDAL@?$AAm?$AAs?$AA?9?$AAb?$AAn?$AA?$AA@ 0000000140193cf8     LIBCMT:winapinls.obj
 0002:00007d08       ??_C@_1M@OPIHOOPI@?$AAm?$AAs?$AA?9?$AAm?$AAy?$AA?$AA@ 0000000140193d08     LIBCMT:winapinls.obj
 0002:00007d18       ??_C@_1M@PPDBCNFM@?$AAm?$AAt?$AA?9?$AAm?$AAt?$AA?$AA@ 0000000140193d18     LIBCMT:winapinls.obj
 0002:00007d28       ??_C@_1M@KDJDKMDD@?$AAn?$AAb?$AA?9?$AAn?$AAo?$AA?$AA@ 0000000140193d28     LIBCMT:winapinls.obj
 0002:00007d38       ??_C@_1M@KFCFLMJP@?$AAn?$AAl?$AA?9?$AAb?$AAe?$AA?$AA@ 0000000140193d38     LIBCMT:winapinls.obj
 0002:00007d48       ??_C@_1M@KPOPDDGO@?$AAn?$AAl?$AA?9?$AAn?$AAl?$AA?$AA@ 0000000140193d48     LIBCMT:winapinls.obj
 0002:00007d58       ??_C@_1M@LJKPEMLN@?$AAn?$AAn?$AA?9?$AAn?$AAo?$AA?$AA@ 0000000140193d58     LIBCMT:winapinls.obj
 0002:00007d68       ??_C@_1M@BDGHHBFL@?$AAn?$AAs?$AA?9?$AAz?$AAa?$AA?$AA@ 0000000140193d68     LIBCMT:winapinls.obj
 0002:00007d78       ??_C@_1M@IDEHOAP@?$AAp?$AAa?$AA?9?$AAi?$AAn?$AA?$AA@ 0000000140193d78     LIBCMT:winapinls.obj
 0002:00007d88       ??_C@_1M@HDBKGOGH@?$AAp?$AAl?$AA?9?$AAp?$AAl?$AA?$AA@ 0000000140193d88     LIBCMT:winapinls.obj
 0002:00007d98       ??_C@_1M@LJLLCMEH@?$AAp?$AAt?$AA?9?$AAb?$AAr?$AA?$AA@ 0000000140193d98     LIBCMT:winapinls.obj
 0002:00007da8       ??_C@_1M@NCMONAAL@?$AAp?$AAt?$AA?9?$AAp?$AAt?$AA?$AA@ 0000000140193da8     LIBCMT:winapinls.obj
 0002:00007db8       ??_C@_1O@EAKMAJDN@?$AAq?$AAu?$AAz?$AA?9?$AAb?$AAo?$AA?$AA@ 0000000140193db8     LIBCMT:winapinls.obj
 0002:00007dc8       ??_C@_1O@BHHPIGDN@?$AAq?$AAu?$AAz?$AA?9?$AAe?$AAc?$AA?$AA@ 0000000140193dc8     LIBCMT:winapinls.obj
 0002:00007dd8       ??_C@_1O@GBAPEKMJ@?$AAq?$AAu?$AAz?$AA?9?$AAp?$AAe?$AA?$AA@ 0000000140193dd8     LIBCMT:winapinls.obj
 0002:00007de8       ??_C@_1M@CLGLEFBO@?$AAr?$AAo?$AA?9?$AAr?$AAo?$AA?$AA@ 0000000140193de8     LIBCMT:winapinls.obj
 0002:00007df8       ??_C@_1M@CEEDODME@?$AAr?$AAu?$AA?9?$AAr?$AAu?$AA?$AA@ 0000000140193df8     LIBCMT:winapinls.obj
 0002:00007e08       ??_C@_1M@HPKKKMPP@?$AAs?$AAa?$AA?9?$AAi?$AAn?$AA?$AA@ 0000000140193e08     LIBCMT:winapinls.obj
 0002:00007e18       ??_C@_1M@BKMAIGOJ@?$AAs?$AAe?$AA?9?$AAf?$AAi?$AA?$AA@ 0000000140193e18     LIBCMT:winapinls.obj
 0002:00007e28       ??_C@_1M@NDPIFLFI@?$AAs?$AAe?$AA?9?$AAn?$AAo?$AA?$AA@ 0000000140193e28     LIBCMT:winapinls.obj
 0002:00007e38       ??_C@_1M@DANKKHJ@?$AAs?$AAe?$AA?9?$AAs?$AAe?$AA?$AA@ 0000000140193e38     LIBCMT:winapinls.obj
 0002:00007e48       ??_C@_1M@PNBLONPJ@?$AAs?$AAk?$AA?9?$AAs?$AAk?$AA?$AA@ 0000000140193e48     LIBCMT:winapinls.obj
 0002:00007e58       ??_C@_1M@LFMODOAL@?$AAs?$AAl?$AA?9?$AAs?$AAi?$AA?$AA@ 0000000140193e58     LIBCMT:winapinls.obj
 0002:00007e68       ??_C@_1O@DFKOMPG@?$AAs?$AAm?$AAa?$AA?9?$AAn?$AAo?$AA?$AA@ 0000000140193e68     LIBCMT:winapinls.obj
 0002:00007e78       ??_C@_1O@NDKPBNNH@?$AAs?$AAm?$AAa?$AA?9?$AAs?$AAe?$AA?$AA@ 0000000140193e78     LIBCMT:winapinls.obj
 0002:00007e88       ??_C@_1O@PLLKBHAB@?$AAs?$AAm?$AAj?$AA?9?$AAn?$AAo?$AA?$AA@ 0000000140193e88     LIBCMT:winapinls.obj
 0002:00007e98       ??_C@_1O@CLEPOGCA@?$AAs?$AAm?$AAj?$AA?9?$AAs?$AAe?$AA?$AA@ 0000000140193e98     LIBCMT:winapinls.obj
 0002:00007ea8       ??_C@_1O@DLGJGKMK@?$AAs?$AAm?$AAn?$AA?9?$AAf?$AAi?$AA?$AA@ 0000000140193ea8     LIBCMT:winapinls.obj
 0002:00007eb8       ??_C@_1O@OJDJGAJC@?$AAs?$AAm?$AAs?$AA?9?$AAf?$AAi?$AA?$AA@ 0000000140193eb8     LIBCMT:winapinls.obj
 0002:00007ec8       ??_C@_1M@BOFOGHPB@?$AAs?$AAq?$AA?9?$AAa?$AAl?$AA?$AA@ 0000000140193ec8     LIBCMT:winapinls.obj
 0002:00007ed8       ??_C@_1BG@LJBBIPGB@?$AAs?$AAr?$AA?9?$AAb?$AAa?$AA?9?$AAc?$AAy?$AAr?$AAl?$AA?$AA@ 0000000140193ed8     LIBCMT:winapinls.obj
 0002:00007ef0       ??_C@_1BG@JLBENFOE@?$AAs?$AAr?$AA?9?$AAb?$AAa?$AA?9?$AAl?$AAa?$AAt?$AAn?$AA?$AA@ 0000000140193ef0     LIBCMT:winapinls.obj
 0002:00007f08       ??_C@_1BG@KODPNHE@?$AAs?$AAr?$AA?9?$AAs?$AAp?$AA?9?$AAc?$AAy?$AAr?$AAl?$AA?$AA@ 0000000140193f08     LIBCMT:winapinls.obj
 0002:00007f20       ??_C@_1BG@CIOGKHPB@?$AAs?$AAr?$AA?9?$AAs?$AAp?$AA?9?$AAl?$AAa?$AAt?$AAn?$AA?$AA@ 0000000140193f20     LIBCMT:winapinls.obj
 0002:00007f38       ??_C@_1M@NGFJLMAC@?$AAs?$AAv?$AA?9?$AAf?$AAi?$AA?$AA@ 0000000140193f38     LIBCMT:winapinls.obj
 0002:00007f48       ??_C@_1M@MPJEJAJC@?$AAs?$AAv?$AA?9?$AAs?$AAe?$AA?$AA@ 0000000140193f48     LIBCMT:winapinls.obj
 0002:00007f58       ??_C@_1M@MPNDHLFK@?$AAs?$AAw?$AA?9?$AAk?$AAe?$AA?$AA@ 0000000140193f58     LIBCMT:winapinls.obj
 0002:00007f68       ??_C@_1O@KOHBJJI@?$AAs?$AAy?$AAr?$AA?9?$AAs?$AAy?$AA?$AA@ 0000000140193f68     LIBCMT:winapinls.obj
 0002:00007f78       ??_C@_1M@LDCEFHA@?$AAt?$AAa?$AA?9?$AAi?$AAn?$AA?$AA@ 0000000140193f78     LIBCMT:winapinls.obj
 0002:00007f88       ??_C@_1M@CNJOFAK@?$AAt?$AAe?$AA?9?$AAi?$AAn?$AA?$AA@ 0000000140193f88     LIBCMT:winapinls.obj
 0002:00007f98       ??_C@_1M@GNAECACD@?$AAt?$AAh?$AA?9?$AAt?$AAh?$AA?$AA@ 0000000140193f98     LIBCMT:winapinls.obj
 0002:00007fa8       ??_C@_1M@CHBIHOJO@?$AAt?$AAn?$AA?9?$AAz?$AAa?$AA?$AA@ 0000000140193fa8     LIBCMT:winapinls.obj
 0002:00007fb8       ??_C@_1M@GCCMIGPJ@?$AAt?$AAr?$AA?9?$AAt?$AAr?$AA?$AA@ 0000000140193fb8     LIBCMT:winapinls.obj
 0002:00007fc8       ??_C@_1M@CELMCNBK@?$AAt?$AAt?$AA?9?$AAr?$AAu?$AA?$AA@ 0000000140193fc8     LIBCMT:winapinls.obj
 0002:00007fd8       ??_C@_1M@KLMCELGA@?$AAu?$AAk?$AA?9?$AAu?$AAa?$AA?$AA@ 0000000140193fd8     LIBCMT:winapinls.obj
 0002:00007fe8       ??_C@_1M@EPAJJAJF@?$AAu?$AAr?$AA?9?$AAp?$AAk?$AA?$AA@ 0000000140193fe8     LIBCMT:winapinls.obj
 0002:00007ff8       ??_C@_1BG@GEGPMCDJ@?$AAu?$AAz?$AA?9?$AAu?$AAz?$AA?9?$AAc?$AAy?$AAr?$AAl?$AA?$AA@ 0000000140193ff8     LIBCMT:winapinls.obj
 0002:00008010       ??_C@_1BG@EGGKJILM@?$AAu?$AAz?$AA?9?$AAu?$AAz?$AA?9?$AAl?$AAa?$AAt?$AAn?$AA?$AA@ 0000000140194010     LIBCMT:winapinls.obj
 0002:00008028       ??_C@_1M@GFOCLFF@?$AAv?$AAi?$AA?9?$AAv?$AAn?$AA?$AA@ 0000000140194028     LIBCMT:winapinls.obj
 0002:00008038       ??_C@_1M@CPAMEDFI@?$AAx?$AAh?$AA?9?$AAz?$AAa?$AA?$AA@ 0000000140194038     LIBCMT:winapinls.obj
 0002:00008048       ??_C@_1O@EBKIFIGN@?$AAz?$AAh?$AA?9?$AAc?$AAh?$AAs?$AA?$AA@ 0000000140194048     LIBCMT:winapinls.obj
 0002:00008058       ??_C@_1O@NMHPGANE@?$AAz?$AAh?$AA?9?$AAc?$AAh?$AAt?$AA?$AA@ 0000000140194058     LIBCMT:winapinls.obj
 0002:00008068       ??_C@_1M@LPINJOMC@?$AAz?$AAh?$AA?9?$AAc?$AAn?$AA?$AA@ 0000000140194068     LIBCMT:winapinls.obj
 0002:00008078       ??_C@_1M@OCJEJODD@?$AAz?$AAh?$AA?9?$AAh?$AAk?$AA?$AA@ 0000000140194078     LIBCMT:winapinls.obj
 0002:00008088       ??_C@_1M@DNDLJINH@?$AAz?$AAh?$AA?9?$AAm?$AAo?$AA?$AA@ 0000000140194088     LIBCMT:winapinls.obj
 0002:00008098       ??_C@_1M@MBFDNDND@?$AAz?$AAh?$AA?9?$AAs?$AAg?$AA?$AA@ 0000000140194098     LIBCMT:winapinls.obj
 0002:000080a8       ??_C@_1M@IMEPLEPE@?$AAz?$AAh?$AA?9?$AAt?$AAw?$AA?$AA@ 00000001401940a8     LIBCMT:winapinls.obj
 0002:000080b8       ??_C@_1M@BBGHNHJP@?$AAz?$AAu?$AA?9?$AAz?$AAa?$AA?$AA@ 00000001401940b8     LIBCMT:winapinls.obj
 0002:000080c4       ??_C@_15EMKDOKLE@?$AAa?$AAr?$AA?$AA@ 00000001401940c4     LIBCMT:winapinls.obj
 0002:000080cc       ??_C@_15KNPADPLH@?$AAb?$AAg?$AA?$AA@ 00000001401940cc     LIBCMT:winapinls.obj
 0002:000080d4       ??_C@_15EDMHLDMO@?$AAc?$AAa?$AA?$AA@ 00000001401940d4     LIBCMT:winapinls.obj
 0002:000080e0       ??_C@_1O@BPEAJADD@?$AAz?$AAh?$AA?9?$AAC?$AAH?$AAS?$AA?$AA@ 00000001401940e0     LIBCMT:winapinls.obj
 0002:000080f0       ??_C@_15LJNHCMNK@?$AAc?$AAs?$AA?$AA@ 00000001401940f0     LIBCMT:winapinls.obj
 0002:000080f8       ??_C@_15FOMCIDHG@?$AAd?$AAa?$AA?$AA@ 00000001401940f8     LIBCMT:winapinls.obj
 0002:00008100       ??_C@_15NBKABECB@?$AAd?$AAe?$AA?$AA@ 0000000140194100     LIBCMT:winapinls.obj
 0002:00008108       ??_C@_15GHPEIIAO@?$AAe?$AAl?$AA?$AA@ 0000000140194108     LIBCMT:winapinls.obj
 0002:00008110       ??_C@_15MNPNEAIF@?$AAe?$AAn?$AA?$AA@ 0000000140194110     LIBCMT:winapinls.obj
 0002:00008118       ??_C@_15GPIOMPMH@?$AAe?$AAs?$AA?$AA@ 0000000140194118     LIBCMT:winapinls.obj
 0002:00008120       ??_C@_15NGLOAKJC@?$AAf?$AAi?$AA?$AA@ 0000000140194120     LIBCMT:winapinls.obj
 0002:00008128       ??_C@_15FBKGNKAM@?$AAf?$AAr?$AA?$AA@ 0000000140194128     LIBCMT:winapinls.obj
 0002:00008130       ??_C@_15KGGCNEFK@?$AAh?$AAe?$AA?$AA@ 0000000140194130     LIBCMT:winapinls.obj
 0002:00008138       ??_C@_15PGHLIDMF@?$AAh?$AAu?$AA?$AA@ 0000000140194138     LIBCMT:winapinls.obj
 0002:00008140       ??_C@_15BIEMAPLM@?$AAi?$AAs?$AA?$AA@ 0000000140194140     LIBCMT:winapinls.obj
 0002:00008148       ??_C@_15IFJLDHAF@?$AAi?$AAt?$AA?$AA@ 0000000140194148     LIBCMT:winapinls.obj
 0002:00008150       ??_C@_15GEMIOCAG@?$AAj?$AAa?$AA?$AA@ 0000000140194150     LIBCMT:winapinls.obj
 0002:00008158       ??_C@_15EPELEGJA@?$AAk?$AAo?$AA?$AA@ 0000000140194158     LIBCMT:winapinls.obj
 0002:00008160       ??_C@_15NDDHIMN@?$AAn?$AAl?$AA?$AA@ 0000000140194160     LIBCMT:winapinls.obj
 0002:00008168       ??_C@_15BPIGNHCD@?$AAn?$AAo?$AA?$AA@ 0000000140194168     LIBCMT:winapinls.obj
 0002:00008170       ??_C@_15DEOPBLCG@?$AAp?$AAl?$AA?$AA@ 0000000140194170     LIBCMT:winapinls.obj
 0002:00008178       ??_C@_15KBECGEFG@?$AAp?$AAt?$AA?$AA@ 0000000140194178     LIBCMT:winapinls.obj
 0002:00008180       ??_C@_15GLJCBFMD@?$AAr?$AAo?$AA?$AA@ 0000000140194180     LIBCMT:winapinls.obj
 0002:00008188       ??_C@_15FEDGKCDI@?$AAr?$AAu?$AA?$AA@ 0000000140194188     LIBCMT:winapinls.obj
 0002:00008190       ??_C@_15GLKMLLHM@?$AAh?$AAr?$AA?$AA@ 0000000140194190     LIBCMT:winapinls.obj
 0002:00008198       ??_C@_15CPKMFBDB@?$AAs?$AAk?$AA?$AA@ 0000000140194198     LIBCMT:winapinls.obj
 0002:000081a0       ??_C@_15BAAIOGMK@?$AAs?$AAq?$AA?$AA@ 00000001401941a0     LIBCMT:winapinls.obj
 0002:000081a8       ??_C@_15INNPNOHD@?$AAs?$AAv?$AA?$AA@ 00000001401941a8     LIBCMT:winapinls.obj
 0002:000081b0       ??_C@_15CABMMOGH@?$AAt?$AAh?$AA?$AA@ 00000001401941b0     LIBCMT:winapinls.obj
 0002:000081b8       ??_C@_15BPLIHJJM@?$AAt?$AAr?$AA?$AA@ 00000001401941b8     LIBCMT:winapinls.obj
 0002:000081c0       ??_C@_15NEOEKKDJ@?$AAu?$AAr?$AA?$AA@ 00000001401941c0     LIBCMT:winapinls.obj
 0002:000081c8       ??_C@_15NFICGAJK@?$AAi?$AAd?$AA?$AA@ 00000001401941c8     LIBCMT:winapinls.obj
 0002:000084e0       ??_C@_08EHJDFFNH@__based?$CI?$AA@ 00000001401944e0     LIBCMT:undname.obj
 0002:000084f0       ??_C@_07KOLFKCDI@__cdecl?$AA@ 00000001401944f0     LIBCMT:undname.obj
 0002:000084f8       ??_C@_08GHMPAG@__pascal?$AA@ 00000001401944f8     LIBCMT:undname.obj
 0002:00008508       ??_C@_09IFJBGAPI@__stdcall?$AA@ 0000000140194508     LIBCMT:undname.obj
 0002:00008518       ??_C@_0L@NPHFGOKO@__thiscall?$AA@ 0000000140194518     LIBCMT:undname.obj
 0002:00008528       ??_C@_0L@JMKHOMEK@__fastcall?$AA@ 0000000140194528     LIBCMT:undname.obj
 0002:00008538       ??_C@_09HIJEGCPM@__clrcall?$AA@ 0000000140194538     LIBCMT:undname.obj
 0002:00008544       ??_C@_06GHPCKEAG@__eabi?$AA@ 0000000140194544     LIBCMT:undname.obj
 0002:00008550       ??_C@_07JOMMBBKO@__ptr64?$AA@ 0000000140194550     LIBCMT:undname.obj
 0002:00008558       ??_C@_0L@PILCLIHE@__restrict?$AA@ 0000000140194558     LIBCMT:undname.obj
 0002:00008568       ??_C@_0M@GFIIJFMG@__unaligned?$AA@ 0000000140194568     LIBCMT:undname.obj
 0002:00008578       ??_C@_09DHDLOLLB@restrict?$CI?$AA@ 0000000140194578     LIBCMT:undname.obj
 0002:00008584       ??_C@_04NIHEBCM@?5new?$AA@ 0000000140194584     LIBCMT:undname.obj
 0002:00008590       ??_C@_07FPCDHGMM@?5delete?$AA@ 0000000140194590     LIBCMT:undname.obj
 0002:00008598       ??_C@_02EGOFBIJA@?$DN?$DN?$AA@ 0000000140194598     LIBCMT:undname.obj
 0002:0000859c       ??_C@_02GPECMEKF@?$FL?$FN?$AA@ 000000014019459c     LIBCMT:undname.obj
 0002:000085a0       ??_C@_08LHJFAFGD@operator?$AA@ 00000001401945a0     LIBCMT:undname.obj
 0002:000085ac       ??_C@_02HBOOOICD@?9?$DO?$AA@ 00000001401945ac     LIBCMT:undname.obj
 0002:000085b0       ??_C@_02ECNGHCIF@?$CL?$CL?$AA@ 00000001401945b0     LIBCMT:undname.obj
 0002:000085b4       ??_C@_02BAABKJLB@?9?9?$AA@ 00000001401945b4     LIBCMT:undname.obj
 0002:000085b8       ??_C@_03MNHNFDLC@?9?$DO?$CK?$AA@ 00000001401945b8     LIBCMT:undname.obj
 0002:000085bc       ??_C@_01FGNFDNOH@?$CF?$AA@ 00000001401945bc     LIBCMT:undname.obj
 0002:000085c0       ??_C@_02HCKGKOFO@?$CI?$CJ?$AA@ 00000001401945c0     LIBCMT:undname.obj
 0002:000085c4       ??_C@_02FPIMKNGF@?$CK?$DN?$AA@ 00000001401945c4     LIBCMT:undname.obj
 0002:000085c8       ??_C@_02FOEOMHFC@?$CL?$DN?$AA@ 00000001401945c8     LIBCMT:undname.obj
 0002:000085cc       ??_C@_02FKMDLLOA@?9?$DN?$AA@ 00000001401945cc     LIBCMT:undname.obj
 0002:000085d0       ??_C@_02FJEHGPIO@?1?$DN?$AA@ 00000001401945d0     LIBCMT:undname.obj
 0002:000085d4       ??_C@_02FENAOKFI@?$CF?$DN?$AA@ 00000001401945d4     LIBCMT:undname.obj
 0002:000085d8       ??_C@_03IKFCCPFF@?$DO?$DO?$DN?$AA@ 00000001401945d8     LIBCMT:undname.obj
 0002:000085dc       ??_C@_03CDNPDDLA@?$DM?$DM?$DN?$AA@ 00000001401945dc     LIBCMT:undname.obj
 0002:000085e0       ??_C@_02FGJGFEAB@?$CG?$DN?$AA@ 00000001401945e0     LIBCMT:undname.obj
 0002:000085e4       ??_C@_02DHLNPPGH@?$HM?$DN?$AA@ 00000001401945e4     LIBCMT:undname.obj
 0002:000085e8       ??_C@_02MHEGNOJ@?$FO?$DN?$AA@ 00000001401945e8     LIBCMT:undname.obj
 0002:000085f0       ??_C@_09IFPLHPGF@?$GAvftable?8?$AA@ 00000001401945f0     LIBCMT:undname.obj
 0002:00008600       ??_C@_09BLBHBJP@?$GAvbtable?8?$AA@ 0000000140194600     LIBCMT:undname.obj
 0002:00008610       ??_C@_07FEEIOKP@?$GAvcall?8?$AA@ 0000000140194610     LIBCMT:undname.obj
 0002:00008618       ??_C@_08LLFFHHDJ@?$GAtypeof?8?$AA@ 0000000140194618     LIBCMT:undname.obj
 0002:00008628       ??_C@_0BF@KDPPACIK@?$GAlocal?5static?5guard?8?$AA@ 0000000140194628     LIBCMT:undname.obj
 0002:00008640       ??_C@_08OBABFOLI@?$GAstring?8?$AA@ 0000000140194640     LIBCMT:undname.obj
 0002:00008650       ??_C@_0BD@JDLKDPAB@?$GAvbase?5destructor?8?$AA@ 0000000140194650     LIBCMT:undname.obj
 0002:00008668       ??_C@_0BN@DEGPLNFK@?$GAvector?5deleting?5destructor?8?$AA@ 0000000140194668     LIBCMT:undname.obj
 0002:00008688       ??_C@_0BO@OBMKPJIG@?$GAdefault?5constructor?5closure?8?$AA@ 0000000140194688     LIBCMT:undname.obj
 0002:000086a8       ??_C@_0BN@IMDCHIKM@?$GAscalar?5deleting?5destructor?8?$AA@ 00000001401946a8     LIBCMT:undname.obj
 0002:000086c8       ??_C@_0BO@PFGOCPJJ@?$GAvector?5constructor?5iterator?8?$AA@ 00000001401946c8     LIBCMT:undname.obj
 0002:000086e8       ??_C@_0BN@LFPFMEDL@?$GAvector?5destructor?5iterator?8?$AA@ 00000001401946e8     LIBCMT:undname.obj
 0002:00008708       ??_C@_0CE@IKBNEHA@?$GAvector?5vbase?5constructor?5iterat@ 0000000140194708     LIBCMT:undname.obj
 0002:00008730       ??_C@_0BL@NILFHHPC@?$GAvirtual?5displacement?5map?8?$AA@ 0000000140194730     LIBCMT:undname.obj
 0002:00008750       ??_C@_0CB@JONCMFFK@?$GAeh?5vector?5constructor?5iterator?8@ 0000000140194750     LIBCMT:undname.obj
 0002:00008778       ??_C@_0CA@GCEOPDGL@?$GAeh?5vector?5destructor?5iterator?8?$AA@ 0000000140194778     LIBCMT:undname.obj
 0002:00008798       ??_C@_0CH@OOJPLCPH@?$GAeh?5vector?5vbase?5constructor?5ite@ 0000000140194798     LIBCMT:undname.obj
 0002:000087c0       ??_C@_0BL@LLKPOHJI@?$GAcopy?5constructor?5closure?8?$AA@ 00000001401947c0     LIBCMT:undname.obj
 0002:000087e0       ??_C@_0BA@KBCDOMBN@?$GAudt?5returning?8?$AA@ 00000001401947e0     LIBCMT:undname.obj
 0002:000087f0       ??_C@_03KLGMFNMG@?$GAEH?$AA@ 00000001401947f0     LIBCMT:undname.obj
 0002:000087f4       ??_C@_05KHLCHHI@?$GARTTI?$AA@ 00000001401947f4     LIBCMT:undname.obj
 0002:00008800       ??_C@_0BA@KKLDJDLB@?$GAlocal?5vftable?8?$AA@ 0000000140194800     LIBCMT:undname.obj
 0002:00008810       ??_C@_0CE@IIHCMGGL@?$GAlocal?5vftable?5constructor?5closu@ 0000000140194810     LIBCMT:undname.obj
 0002:00008834       ??_C@_06FHBGPFGH@?5new?$FL?$FN?$AA@ 0000000140194834     LIBCMT:undname.obj
 0002:00008840       ??_C@_09LBNFPBCA@?5delete?$FL?$FN?$AA@ 0000000140194840     LIBCMT:undname.obj
 0002:00008850       ??_C@_0P@HJKNJFNN@?$GAomni?5callsig?8?$AA@ 0000000140194850     LIBCMT:undname.obj
 0002:00008860       ??_C@_0BL@CNOONJFP@?$GAplacement?5delete?5closure?8?$AA@ 0000000140194860     LIBCMT:undname.obj
 0002:00008880       ??_C@_0BN@CKNJLHMB@?$GAplacement?5delete?$FL?$FN?5closure?8?$AA@ 0000000140194880     LIBCMT:undname.obj
 0002:000088a0       ??_C@_0CG@CFDHKGGD@?$GAmanaged?5vector?5constructor?5iter@ 00000001401948a0     LIBCMT:undname.obj
 0002:000088c8       ??_C@_0CF@IMGKMJNO@?$GAmanaged?5vector?5destructor?5itera@ 00000001401948c8     LIBCMT:undname.obj
 0002:000088f0       ??_C@_0CG@HLDDJMAG@?$GAeh?5vector?5copy?5constructor?5iter@ 00000001401948f0     LIBCMT:undname.obj
 0002:00008918       ??_C@_0CM@FCBBDIGB@?$GAeh?5vector?5vbase?5copy?5constructo@ 0000000140194918     LIBCMT:undname.obj
 0002:00008948       ??_C@_0BL@CLIPGLGB@?$GAdynamic?5initializer?5for?5?8?$AA@ 0000000140194948     LIBCMT:undname.obj
 0002:00008968       ??_C@_0CB@PDBIFEP@?$GAdynamic?5atexit?5destructor?5for?5?8@ 0000000140194968     LIBCMT:undname.obj
 0002:00008990       ??_C@_0CD@CGAJBKEJ@?$GAvector?5copy?5constructor?5iterato@ 0000000140194990     LIBCMT:undname.obj
 0002:000089b8       ??_C@_0CJ@GJELGAMM@?$GAvector?5vbase?5copy?5constructor?5i@ 00000001401949b8     LIBCMT:undname.obj
 0002:000089e8       ??_C@_0CL@FGIJHLCE@?$GAmanaged?5vector?5copy?5constructor@ 00000001401949e8     LIBCMT:undname.obj
 0002:00008a18       ??_C@_0BM@PMGGMLDN@?$GAlocal?5static?5thread?5guard?8?$AA@ 0000000140194a18     LIBCMT:undname.obj
 0002:00008a38       ??_C@_0BC@DAFEJGAK@?5Type?5Descriptor?8?$AA@ 0000000140194a38     LIBCMT:undname.obj
 0002:00008a50       ??_C@_0BM@LDKODKLH@?5Base?5Class?5Descriptor?5at?5?$CI?$AA@ 0000000140194a50     LIBCMT:undname.obj
 0002:00008a70       ??_C@_0BD@LGICGFMM@?5Base?5Class?5Array?8?$AA@ 0000000140194a70     LIBCMT:undname.obj
 0002:00008a88       ??_C@_0BN@MECKDCOJ@?5Class?5Hierarchy?5Descriptor?8?$AA@ 0000000140194a88     LIBCMT:undname.obj
 0002:00008aa8       ??_C@_0BK@CFCOFLF@?5Complete?5Object?5Locator?8?$AA@ 0000000140194aa8     LIBCMT:undname.obj
 0002:00008ad0       __newctype                 0000000140194ad0     LIBCMT:ctype.obj
 0002:00008dd0       _wctype                    0000000140194dd0     LIBCMT:ctype.obj
 0002:00008fe0       __newclmap                 0000000140194fe0     LIBCMT:ctype.obj
 0002:00009160       __newcumap                 0000000140195160     LIBCMT:ctype.obj
 0002:000092e0       __rg_language_count        00000001401952e0     LIBCMT:getqloc.obj
 0002:000092e4       __rg_country_count         00000001401952e4     LIBCMT:getqloc.obj
 0002:000092e8       ??_C@_05KLBDPFGC@e?$CL000?$AA@ 00000001401952e8     LIBCMT:cvt.obj
 0002:000092f0       __real@0000000000000000    00000001401952f0     LIBCMT:cvt.obj
 0002:000092f8       ??_C@_0M@HHGEPIBF@CreateFile2?$AA@ 00000001401952f8     LIBCMT:wopen.obj
 0002:00009308       ??_C@_1BA@BALFACEM@?$AAC?$AAO?$AAN?$AAO?$AAU?$AAT?$AA$?$AA?$AA@ 0000000140195308     LIBCMT:initcon.obj
 0002:00009318       ??_C@_06PGGFOGJG@1?$CDSNAN?$AA@ 0000000140195318     LIBCMT:x10fout.obj
 0002:00009320       ??_C@_05PHHOCPM@1?$CDIND?$AA@ 0000000140195320     LIBCMT:x10fout.obj
 0002:00009328       ??_C@_05DNEBIAHO@1?$CDINF?$AA@ 0000000140195328     LIBCMT:x10fout.obj
 0002:00009330       ??_C@_06IMKFLFPG@1?$CDQNAN?$AA@ 0000000140195330     LIBCMT:x10fout.obj
 0002:00009338       ??_C@_0P@DKHCFOLI@blendpaintmode?$AA@ 0000000140195338     blend.obj
 0002:00009348       ??_C@_0CE@GKLGOCGP@could?5not?5load?5blend?5brush?5image@ 0000000140195348     blend.obj
 0002:00009370       ??_C@_0DB@KCKFCGKP@blend?5brush?5image?5size?5exceeded?5@ 0000000140195370     blend.obj
 0002:000093a8       ??_C@_0BC@NEGFKPJL@clearblendbrushes?$AA@ 00000001401953a8     blend.obj
 0002:000093bc       ??_C@_01LKDEMHDF@s?$AA@    00000001401953bc     blend.obj
 0002:000093c0       ??_C@_0O@ILOCGBKL@delblendbrush?$AA@ 00000001401953c0     blend.obj
 0002:000093d0       ??_C@_02FCBLNKNB@ss?$AA@   00000001401953d0     blend.obj
 0002:000093d8       ??_C@_0O@NENLKALN@addblendbrush?$AA@ 00000001401953d8     blend.obj
 0002:000093e8       ??_C@_01KBJDNOO@i?$AA@     00000001401953e8     blend.obj
 0002:000093f0       ??_C@_0P@EGPHPKMN@nextblendbrush?$AA@ 00000001401953f0     blend.obj
 0002:00009400       ??_C@_0O@ICIJGMAF@setblendbrush?$AA@ 0000000140195400     blend.obj
 0002:00009410       ??_C@_0BC@EHPCBGLN@getblendbrushname?$AA@ 0000000140195410     blend.obj
 0002:00009428       ??_C@_0O@LPABFDFD@curblendbrush?$AA@ 0000000140195428     blend.obj
 0002:00009438       ??_C@_0CL@EOPOHJKA@operation?5only?5allowed?5in?5blend?5@ 0000000140195438     blend.obj
 0002:00009468       ??_C@_0BI@FIONHOHB@no?5blend?5brush?5selected?$AA@ 0000000140195468     blend.obj
 0002:00009480       ??_C@_0BB@GICOMJLE@rotateblendbrush?$AA@ 0000000140195480     blend.obj
 0002:00009498       ??_C@_0BD@BIBPFMLF@paintblendmapdelay?$AA@ 0000000140195498     blend.obj
 0002:000094b0       ??_C@_0BG@ICMPADBN@paintblendmapinterval?$AA@ 00000001401954b0     blend.obj
 0002:000094c8       ??_C@_01CKDDGHAB@D?$AA@    00000001401954c8     blend.obj
 0002:000094d0       ??_C@_0O@ICMAMPOP@paintblendmap?$AA@ 00000001401954d0     blend.obj
 0002:000094e0       ??_C@_0BB@HFGDPOFD@clearblendmapsel?$AA@ 00000001401954e0     blend.obj
 0002:000094f8       ??_C@_0BC@HOEDPBNE@invertblendmapsel?$AA@ 00000001401954f8     blend.obj
 0002:00009510       ??_C@_0P@HFFPDFKA@invertblendmap?$AA@ 0000000140195510     blend.obj
 0002:00009520       ??_C@_0N@NDCHHINC@showblendmap?$AA@ 0000000140195520     blend.obj
 0002:00009530       ??_C@_0BB@PIKIAINA@optimizeblendmap?$AA@ 0000000140195530     blend.obj
 0002:00009548       ??_C@_0O@EENDHPCG@clearblendmap?$AA@ 0000000140195548     blend.obj
 0002:00009558       ??_C@_02PDIHAGKM@ii?$AA@   0000000140195558     blend.obj
 0002:00009560       ??_C@_0N@BPLOJAKM@moveblendmap?$AA@ 0000000140195560     blend.obj
 0002:00009570       ??_C@_0CN@IPHPKECI@blendmap?5movement?5must?5be?5in?5mul@ 0000000140195570     blend.obj
 0002:0000959d       ??_C@_00CNPNBAHC@?$AA@     000000014019559d     blend.obj
 0002:000095a0       ??_C@_0BA@HBMBINDF@importcuberemip?$AA@ 00000001401955a0     cubeloader.obj
 0002:000095b0       ??_C@_0BH@JHFKBAFM@creating?5cubes?4?4?4?5?$CFd?$CF?$CF?$AA@ 00000001401955b0     cubeloader.obj
 0002:000095c8       ??_C@_07KMMCDPHI@cube?1?$CFs?$AA@ 00000001401955c8     cubeloader.obj
 0002:000095d0       ??_C@_0BA@OFNGFJLA@packages?1?$CFs?4cgz?$AA@ 00000001401955d0     cubeloader.obj
 0002:000095e0       ??_C@_02JDPG@rb?$AA@       00000001401955e0     cubeloader.obj
 0002:000095e8       ??_C@_0BL@MOCCFNFE@could?5not?5read?5cube?5map?5?$CFs?$AA@ 00000001401955e8     cubeloader.obj
 0002:00009604       ??_C@_04CEENDHAF@CUBE?$AA@ 0000000140195604     cubeloader.obj
 0002:0000960c       ??_C@_04BHBGMNAP@ACMP?$AA@ 000000014019560c     cubeloader.obj
 0002:00009618       ??_C@_0BP@DELPDANB@map?5?$CFs?5has?5malformatted?5header?$AA@ 0000000140195618     cubeloader.obj
 0002:00009638       ??_C@_0N@HKPFLAFL@importing?5?$CFs?$AA@ 0000000140195638     cubeloader.obj
 0002:00009648       ??_C@_07JEMIPMLL@?$CFd?5?$EA?5?$CFd?$AA@ 0000000140195648     cubeloader.obj
 0002:00009650       ??_C@_0CJ@PMPDIMLN@while?5reading?5map?3?5type?5out?5of?5r@ 0000000140195650     cubeloader.obj
 0002:00009680       ??_C@_0BF@FPGPPMPD@packages?1cube?1?$CFs?4cfg?$AA@ 0000000140195680     cubeloader.obj
 0002:00009698       ??_C@_0BK@FMCKCEIA@packages?1cube?1package?4cfg?$AA@ 0000000140195698     cubeloader.obj
 0002:000096b8       ??_C@_0CA@MMGGPEH@read?5cube?5map?5?$CFs?5?$CI?$CF?41f?5seconds?$CJ?$AA@ 00000001401956b8     cubeloader.obj
 0002:000096d8       ??_C@_0L@FIHOELOG@importcube?$AA@ 00000001401956d8     cubeloader.obj
 0002:000096e8       ??_C@_0P@HLFCKHKL@lightprecision?$AA@ 00000001401956e8     lightmap.obj
 0002:000096f8       ??_C@_0L@IEPABEDF@lighterror?$AA@ 00000001401956f8     lightmap.obj
 0002:00009708       ??_C@_09JAEKHCCH@bumperror?$AA@ 0000000140195708     lightmap.obj
 0002:00009718       ??_C@_08PJALPBCH@lightlod?$AA@ 0000000140195718     lightmap.obj
 0002:00009728       ??_C@_07LIABELBC@ambient?$AA@ 0000000140195728     lightmap.obj
 0002:00009730       ??_C@_08GENLAOJJ@skylight?$AA@ 0000000140195730     lightmap.obj
 0002:00009740       ??_C@_08KPJDIPMA@sunlight?$AA@ 0000000140195740     lightmap.obj
 0002:00009750       ??_C@_0O@DBMKHAL@sunlightscale?$AA@ 0000000140195750     lightmap.obj
 0002:00009760       ??_C@_0M@HLOOHBKF@sunlightyaw?$AA@ 0000000140195760     lightmap.obj
 0002:00009770       ??_C@_0O@BGANFDNJ@sunlightpitch?$AA@ 0000000140195770     lightmap.obj
 0002:00009780       ??_C@_0BA@IBFLMHPP@skytexturelight?$AA@ 0000000140195780     lightmap.obj
 0002:00009790       ??_C@_09HJPHDPLC@lmshadows?$AA@ 0000000140195790     lightmap.obj
 0002:0000979c       ??_C@_04JJKAEGIB@lmaa?$AA@ 000000014019579c     lightmap.obj
 0002:000097a8       ??_C@_0M@GMKBPKOI@lerptjoints?$AA@ 00000001401957a8     lightmap.obj
 0002:000097b8       ??_C@_0BH@ODOBLJFP@?$CFd?$CF?$CF?5using?5?$CFd?5textures?$AA@ 00000001401957b8     lightmap.obj
 0002:000097d0       ??_C@_0O@BIFMPIKC@lightcompress?$AA@ 00000001401957d0     lightmap.obj
 0002:000097e0       ??_C@_07KJBFLEOB@blurlms?$AA@ 00000001401957e0     lightmap.obj
 0002:000097e8       ??_C@_0N@LDJILJDN@blurskylight?$AA@ 00000001401957e8     lightmap.obj
 0002:000097f8       ??_C@_0O@NMNBENPE@edgetolerance?$AA@ 00000001401957f8     lightmap.obj
 0002:00009808       ??_C@_0P@IEPOFCMK@adaptivesample?$AA@ 0000000140195808     lightmap.obj
 0002:00009818       ??_C@_0P@GIDFMGKC@lightcachesize?$AA@ 0000000140195818     lightmap.obj
 0002:00009828       ??_C@_0N@IIIEMJBH@lightthreads?$AA@ 0000000140195828     lightmap.obj
 0002:00009838       ??_C@_0CL@DPKNEPMB@valid?5range?5for?5calclight?5qualit@ 0000000140195838     lightmap.obj
 0002:00009868       ??_C@_0CG@NAICJAFF@computing?5lightmaps?4?4?4?5?$CIesc?5to?5a@ 0000000140195868     lightmap.obj
 0002:00009890       ??_C@_0BB@BNPILHCM@lighting?5done?4?4?4?$AA@ 0000000140195890     lightmap.obj
 0002:000098a8       ??_C@_0BC@JJACDAHL@calclight?5aborted?$AA@ 00000001401958a8     lightmap.obj
 0002:000098c0       ??_C@_0EA@PDNDMFEG@generated?5?$CFd?5lightmaps?5using?5?$CFd?$CF@ 00000001401958c0     lightmap.obj
 0002:00009900       ??_C@_09BANFGNFM@calclight?$AA@ 0000000140195900     lightmap.obj
 0002:00009910       ??_C@_0N@DDIKEBIE@patchnormals?$AA@ 0000000140195910     lightmap.obj
 0002:00009920       ??_C@_0CM@HBPODCAL@valid?5range?5for?5patchlight?5quali@ 0000000140195920     lightmap.obj
 0002:00009950       ??_C@_0CF@PAJDEPLO@patching?5lightmaps?4?4?4?5?$CIesc?5to?5ab@ 0000000140195950     lightmap.obj
 0002:00009978       ??_C@_0BF@MBCHIICN@computing?5normals?4?4?4?$AA@ 0000000140195978     lightmap.obj
 0002:00009990       ??_C@_0BD@OKOKEINJ@patchlight?5aborted?$AA@ 0000000140195990     lightmap.obj
 0002:000099a8       ??_C@_0DO@BIPOHHDP@patched?5?$CFd?5lightmaps?5using?5?$CFd?$CF?$CF?5@ 00000001401959a8     lightmap.obj
 0002:000099e8       ??_C@_0L@FPHPHHGA@patchlight?$AA@ 00000001401959e8     lightmap.obj
 0002:000099f8       ??_C@_0BG@IOKONHDI@clearing?5lightmaps?4?4?4?$AA@ 00000001401959f8     lightmap.obj
 0002:00009a10       ??_C@_0P@KACGDJJH@clearlightmaps?$AA@ 0000000140195a10     lightmap.obj
 0002:00009a20       ??_C@_0L@GEONJGBK@fullbright?$AA@ 0000000140195a20     lightmap.obj
 0002:00009a30       ??_C@_0BA@PFDEDJDH@fullbrightlevel?$AA@ 0000000140195a30     lightmap.obj
 0002:00009a40       ??_C@_0L@CFOHJAIM@convertlms?$AA@ 0000000140195a40     lightmap.obj
 0002:00009a50       ??_C@_0BB@OKADECAN@roundlightmaptex?$AA@ 0000000140195a50     lightmap.obj
 0002:00009a68       ??_C@_0P@GHNEOPKL@batchlightmaps?$AA@ 0000000140195a68     lightmap.obj
 0002:00009a78       ??_C@_0BD@JMLGBJKB@lightmap_?$CFs_?$CFd?4png?$AA@ 0000000140195a78     lightmap.obj
 0002:00009a90       ??_C@_07IHJLHON@dumplms?$AA@ 0000000140195a90     lightmap.obj
 0002:00009ab0       ?fvmasks@@3QBEB            0000000140195ab0     octa.obj
 0002:00009af0       ?fv@@3QAY03$$CBEA          0000000140195af0     octa.obj
 0002:00009b08       ?faceedgesidx@@3QAY03$$CBEA 0000000140195b08     octa.obj
 0002:00009b2c       ?GRAVITY@@3MB              0000000140195b2c     physics.obj
 0002:00009b3c       ?JUMPVEL@@3MB              0000000140195b3c     physics.obj
 0002:00009c60       ?patches@gui@@2QBUpatch@1@B 0000000140195c60     3dgui.obj
 0002:00009d78       ?skiny@gui@@2QBHB          0000000140195d78     3dgui.obj
 0002:00009da8       ?skinx@gui@@2QBHB          0000000140195da8     3dgui.obj
 0002:0000add0       ?cube2unichars@@3QBHB      0000000140196dd0     stream.obj
 0002:0000b1d0       ?cubectype@@3QBEB          00000001401971d0     stream.obj
 0002:0000b2d0       ?uni2cubechars@@3QBEB      00000001401972d0     stream.obj
 0002:0000b640       ?uni2cubeoffsets@@3QBHB    0000000140197640     stream.obj
 0002:0000d500       ??_C@_09NJFLIGJF@lerpangle?$AA@ 0000000140199500     normal.obj
 0002:0000d510       ??_C@_0L@GEMHMDHJ@lerpsubdiv?$AA@ 0000000140199510     normal.obj
 0002:0000d520       ??_C@_0P@PCAKHDDF@lerpsubdivsize?$AA@ 0000000140199520     normal.obj
 0002:0000d530       ??_C@_0BJ@MAFBKHJN@?$DN?5?$CFp?5?$DN?5?$CI?$CFd?0?5?$CFd?0?5?$CFd?$CJ?5?$EA?5?$CFd?$AA@ 0000000140199530     octa.obj
 0002:0000d550       ??_C@_08KIPBOANC@?5x?5?5?$CF?48x?$AA@ 0000000140199550     octa.obj
 0002:0000d560       ??_C@_08GEFLOAEM@?5y?5?5?$CF?48x?$AA@ 0000000140199560     octa.obj
 0002:0000d570       ??_C@_08OKNEOHKP@?5z?5?5?$CF?48x?$AA@ 0000000140199570     octa.obj
 0002:0000d580       ??_C@_09GBFNOHCC@printcube?$AA@ 0000000140199580     octa.obj
 0002:0000d58c       ??_C@_06FDJLJGCD@mipvis?$AA@ 000000014019958c     octa.obj
 0002:0000d598       ??_C@_0N@OGILLOA@remipping?4?4?4?$AA@ 0000000140199598     octa.obj
 0002:0000d5a8       ??_C@_05PIHAKMCM@remip?$AA@ 00000001401995a8     octa.obj
 0002:0000d5b0       ??_C@_08GIAHNCC@maxmerge?$AA@ 00000001401995b0     octa.obj
 0002:0000d5c0       ??_C@_07DKBAAKPA@minface?$AA@ 00000001401995c0     octa.obj
 0002:0000d5c8       ??_C@_0BB@DLDKLLJO@merging?5faces?4?4?4?$AA@ 00000001401995c8     octa.obj
 0002:0000d5e0       ??_C@_0CA@IDNDHILF@invalidating?5merged?5surfaces?4?4?4?$AA@ 00000001401995e0     octa.obj
 0002:0000d6e0       ??_C@_08MLPFNNDJ@dragging?$AA@ 00000001401996e0     octaedit.obj
 0002:0000d6ec       ??_C@_06CJBJAGIH@moving?$AA@ 00000001401996ec     octaedit.obj
 0002:0000d6f8       ??_C@_09PEPLNHHC@gridpower?$AA@ 00000001401996f8     octaedit.obj
 0002:0000d708       ??_C@_0P@MMCAOJOE@passthroughsel?$AA@ 0000000140199708     octaedit.obj
 0002:0000d718       ??_C@_07HAFNFNOB@editing?$AA@ 0000000140199718     octaedit.obj
 0002:0000d720       ??_C@_0O@CMDPCADK@selectcorners?$AA@ 0000000140199720     octaedit.obj
 0002:0000d730       ??_C@_08HKIDODCD@hmapedit?$AA@ 0000000140199730     octaedit.obj
 0002:0000d740       ??_C@_0CE@FFBGEABP@operation?5only?5allowed?5in?5edit?5m@ 0000000140199740     octaedit.obj
 0002:0000d768       ??_C@_0BG@KMLAPNDI@selection?5not?5in?5view?$AA@ 0000000140199768     octaedit.obj
 0002:0000d780       ??_C@_0L@IAAMPIAA@edittoggle?$AA@ 0000000140199780     octaedit.obj
 0002:0000d790       ??_C@_09GGDDKLMH@entcancel?$AA@ 0000000140199790     octaedit.obj
 0002:0000d7a0       ??_C@_0L@FGIDMBCN@cubecancel?$AA@ 00000001401997a0     octaedit.obj
 0002:0000d7b0       ??_C@_09OIKHHPFL@cancelsel?$AA@ 00000001401997b0     octaedit.obj
 0002:0000d7c0       ??_C@_08PFHMHGMO@reorient?$AA@ 00000001401997c0     octaedit.obj
 0002:0000d7d0       ??_C@_09ONDGDNFE@selextend?$AA@ 00000001401997d0     octaedit.obj
 0002:0000d7e0       ??_C@_07MGGFOIDK@havesel?$AA@ 00000001401997e0     octaedit.obj
 0002:0000d7e8       ??_C@_0L@IELONJHO@gridlookup?$AA@ 00000001401997e8     octaedit.obj
 0002:0000d7f8       ??_C@_0BA@IFEGHEHN@passthroughcube?$AA@ 00000001401997f8     octaedit.obj
 0002:0000d808       ??_C@_08MECIEJGG@undomegs?$AA@ 0000000140199808     octaedit.obj
 0002:0000d818       ??_C@_0L@GJOHGMDK@clearundos?$AA@ 0000000140199818     octaedit.obj
 0002:0000d828       ??_C@_08IMBMPHKA@nompedit?$AA@ 0000000140199828     octaedit.obj
 0002:0000d838       ??_C@_0BD@KNNPPEDE@nothing?5more?5to?5?$CFs?$AA@ 0000000140199838     octaedit.obj
 0002:0000d84c       ??_C@_04HOKNPDPJ@undo?$AA@ 000000014019984c     octaedit.obj
 0002:0000d854       ??_C@_04BLIMKIOI@redo?$AA@ 0000000140199854     octaedit.obj
 0002:0000d860       ??_C@_0BB@IDFOEKJB@deleted?5brush?5?$CFs?$AA@ 0000000140199860     octaedit.obj
 0002:0000d878       ??_C@_08KNDIMJEB@delbrush?$AA@ 0000000140199878     octaedit.obj
 0002:0000d884       ??_C@_02CFKBDFGI@?1?2?$AA@ 0000000140199884     octaedit.obj
 0002:0000d888       ??_C@_0BA@GBBCKOOL@packages?1?$CFs?4obr?$AA@ 0000000140199888     octaedit.obj
 0002:0000d898       ??_C@_0BG@DNBHGDPI@packages?1brush?1?$CFs?4obr?$AA@ 0000000140199898     octaedit.obj
 0002:0000d8b0       ??_C@_02GMLFBBN@wb?$AA@    00000001401998b0     octaedit.obj
 0002:0000d8b8       ??_C@_0BM@EHIJBOFJ@could?5not?5write?5brush?5to?5?$CFs?$AA@ 00000001401998b8     octaedit.obj
 0002:0000d8d4       ??_C@_04LECHAJAN@OEBR?$AA@ 00000001401998d4     octaedit.obj
 0002:0000d8e0       ??_C@_0BI@BAHKLDEB@could?5not?5pack?5brush?5?$CFs?$AA@ 00000001401998e0     octaedit.obj
 0002:0000d8f8       ??_C@_0BE@IPBIMFPJ@wrote?5brush?5file?5?$CFs?$AA@ 00000001401998f8     octaedit.obj
 0002:0000d910       ??_C@_09JIPOLNFG@savebrush?$AA@ 0000000140199910     octaedit.obj
 0002:0000d920       ??_C@_0BI@EOGOHHCD@could?5not?5read?5brush?5?$CFs?$AA@ 0000000140199920     octaedit.obj
 0002:0000d938       ??_C@_0CB@CADFPIMC@brush?5?$CFs?5has?5malformatted?5header@ 0000000140199938     octaedit.obj
 0002:0000d960       ??_C@_0CC@OJJFBGAP@brush?5?$CFs?5uses?5unsupported?5versio@ 0000000140199960     octaedit.obj
 0002:0000d988       ??_C@_0BK@PPFBNKBJ@could?5not?5unpack?5brush?5?$CFs?$AA@ 0000000140199988     octaedit.obj
 0002:0000d9a8       ??_C@_0L@NJJAKGA@pastebrush?$AA@ 00000001401999a8     octaedit.obj
 0002:0000d9b4       ??_C@_04COAGEIMF@copy?$AA@ 00000001401999b4     octaedit.obj
 0002:0000d9c0       ??_C@_0M@NPDMNCLK@pastehilite?$AA@ 00000001401999c0     octaedit.obj
 0002:0000d9cc       ??_C@_05NDLFFNHM@paste?$AA@ 00000001401999cc     octaedit.obj
 0002:0000d9d4       ??_C@_06NBMKNICM@brushx?$AA@ 00000001401999d4     octaedit.obj
 0002:0000d9dc       ??_C@_06MINBOJGN@brushy?$AA@ 00000001401999dc     octaedit.obj
 0002:0000d9e8       ??_C@_0L@IGILIFOO@clearbrush?$AA@ 00000001401999e8     octaedit.obj
 0002:0000d9f4       ??_C@_03GLKMLICL@iii?$AA@  00000001401999f4     octaedit.obj
 0002:0000d9f8       ??_C@_09KMOJGCHA@brushvert?$AA@ 00000001401999f8     octaedit.obj
 0002:0000da08       ??_C@_0L@EMANIEPP@hmapcancel?$AA@ 0000000140199a08     octaedit.obj
 0002:0000da18       ??_C@_0L@GJHPLCHA@hmapselect?$AA@ 0000000140199a18     octaedit.obj
 0002:0000da28       ??_C@_0BF@EACIFAFI@bypassheightmapcheck?$AA@ 0000000140199a28     octaedit.obj
 0002:0000da40       ??_C@_0BB@PDFCDJPB@invalidcubeguard?$AA@ 0000000140199a40     octaedit.obj
 0002:0000da58       ??_C@_0O@DGDHBMKK@selectionsurf?$AA@ 0000000140199a58     octaedit.obj
 0002:0000da68       ??_C@_07FCPHCPHL@pushsel?$AA@ 0000000140199a68     octaedit.obj
 0002:0000da70       ??_C@_08BCMNDPAK@editface?$AA@ 0000000140199a70     octaedit.obj
 0002:0000da80       ??_C@_07LJGOPPCL@delcube?$AA@ 0000000140199a80     octaedit.obj
 0002:0000da88       ??_C@_09EONBAKCL@usevdelta?$AA@ 0000000140199a88     octaedit.obj
 0002:0000da98       ??_C@_08IANOCEHK@allfaces?$AA@ 0000000140199a98     octaedit.obj
 0002:0000daa4       ??_C@_06HBHCKCDA@vdelta?$AA@ 0000000140199aa4     octaedit.obj
 0002:0000dab0       ??_C@_07LGANENAL@vrotate?$AA@ 0000000140199ab0     octaedit.obj
 0002:0000dab8       ??_C@_07DJAGFAGM@voffset?$AA@ 0000000140199ab8     octaedit.obj
 0002:0000dac0       ??_C@_02HPEDFNFO@ff?$AA@   0000000140199ac0     octaedit.obj
 0002:0000dac8       ??_C@_07MLNAENNG@vscroll?$AA@ 0000000140199ac8     octaedit.obj
 0002:0000dad0       ??_C@_01INIBCBCB@f?$AA@    0000000140199ad0     octaedit.obj
 0002:0000dad4       ??_C@_06GENCIKKC@vscale?$AA@ 0000000140199ad4     octaedit.obj
 0002:0000dadc       ??_C@_06HDGNKJOF@vlayer?$AA@ 0000000140199adc     octaedit.obj
 0002:0000dae4       ??_C@_06CDFMODMB@valpha?$AA@ 0000000140199ae4     octaedit.obj
 0002:0000daec       ??_C@_03LPALPDIP@fff?$AA@  0000000140199aec     octaedit.obj
 0002:0000daf0       ??_C@_06FHFLIHCK@vcolor?$AA@ 0000000140199af0     octaedit.obj
 0002:0000daf8       ??_C@_06IGNGCLCM@vreset?$AA@ 0000000140199af8     octaedit.obj
 0002:0000db00       ??_C@_05LEEJHALC@sffff?$AA@ 0000000140199b00     octaedit.obj
 0002:0000db08       ??_C@_0N@HIAPGBLA@vshaderparam?$AA@ 0000000140199b08     octaedit.obj
 0002:0000db18       ??_C@_07BDCBDDNM@edittex?$AA@ 0000000140199b18     octaedit.obj
 0002:0000db20       ??_C@_06DFEOEHPC@gettex?$AA@ 0000000140199b20     octaedit.obj
 0002:0000db28       ??_C@_09DOKEGHFK@getcurtex?$AA@ 0000000140199b28     octaedit.obj
 0002:0000db38       ??_C@_09IFHMNAOM@getseltex?$AA@ 0000000140199b38     octaedit.obj
 0002:0000db48       ??_C@_09IGBLKBNL@getreptex?$AA@ 0000000140199b48     octaedit.obj
 0002:0000db58       ??_C@_0L@JMOOHNBK@gettexname?$AA@ 0000000140199b58     octaedit.obj
 0002:0000db68       ??_C@_0CG@JDIDDNFG@can?5only?5replace?5after?5a?5texture@ 0000000140199b68     octaedit.obj
 0002:0000db90       ??_C@_07CLEHDIEJ@replace?$AA@ 0000000140199b90     octaedit.obj
 0002:0000db98       ??_C@_0L@HOLCPMLO@replacesel?$AA@ 0000000140199b98     octaedit.obj
 0002:0000dba4       ??_C@_04DGGGELON@flip?$AA@ 0000000140199ba4     octaedit.obj
 0002:0000dbac       ??_C@_06CEHMNFAL@rotate?$AA@ 0000000140199bac     octaedit.obj
 0002:0000dbb4       ??_C@_05LBJMNBOG@empty?$AA@ 0000000140199bb4     octaedit.obj
 0002:0000dbc0       ??_C@_08GDBKHIPC@notempty?$AA@ 0000000140199bc0     octaedit.obj
 0002:0000dbcc       ??_C@_05OPIONHBI@solid?$AA@ 0000000140199bcc     octaedit.obj
 0002:0000dbd8       ??_C@_08DNAIHOAM@notsolid?$AA@ 0000000140199bd8     octaedit.obj
 0002:0000dbe8       ??_C@_0BG@HGOHELP@unknown?5material?5?$CC?$CFs?$CC?$AA@ 0000000140199be8     octaedit.obj
 0002:0000dc00       ??_C@_07JFIMMMBJ@editmat?$AA@ 0000000140199c00     octaedit.obj
 0002:0000dc08       ??_C@_0M@GNHKGPJA@texguiwidth?$AA@ 0000000140199c08     octaedit.obj
 0002:0000dc18       ??_C@_0N@OHFJEFEF@texguiheight?$AA@ 0000000140199c18     octaedit.obj
 0002:0000dc28       ??_C@_0L@PPEKPADA@texguitime?$AA@ 0000000140199c28     octaedit.obj
 0002:0000dc38       ??_C@_08LHKGDOJC@texgui2d?$AA@ 0000000140199c38     octaedit.obj
 0002:0000dc48       ??_C@_08FLHNKADJ@Textures?$AA@ 0000000140199c48     octaedit.obj
 0002:0000dc58       ??_C@_0L@NNIPJMKJ@showtexgui?$AA@ 0000000140199c58     octaedit.obj
 0002:0000dc68       ??_C@_07COPKBG@rgbonly?$AA@ 0000000140199c68     octaedit.obj
 0002:0000dc78       ??_7texturegui@@6B@        0000000140199c78     octaedit.obj
 0002:0000dc90       ??_7g3d_callback@@6B@      0000000140199c90     octaedit.obj
 0002:0000dca0       ??_C@_08MAMAAIBM@printvbo?$AA@ 0000000140199ca0     octarender.obj
 0002:0000dcb0       ??_C@_07KMNJAIDA@vbosize?$AA@ 0000000140199cb0     octarender.obj
 0002:0000dcb8       ??_C@_0CC@CJMJGMBH@vbo?5?$CFd?3?5type?5?$CFd?0?5size?5?$CFd?0?5?$CFd?5use@ 0000000140199cb8     octarender.obj
 0002:0000dcdc       ??_C@_05JOBLOEL@grass?$AA@ 0000000140199cdc     octarender.obj
 0002:0000dce8       ??_C@_0M@PPBPIAHA@filltjoints?$AA@ 0000000140199ce8     octarender.obj
 0002:0000dcf8       ??_C@_0BD@DDFMAHIA@fixing?5t?9joints?4?4?4?$AA@ 0000000140199cf8     octarender.obj
 0002:0000dd10       ??_C@_09CPHCOBCC@vafacemax?$AA@ 0000000140199d10     octarender.obj
 0002:0000dd20       ??_C@_09DNPJAFEN@vafacemin?$AA@ 0000000140199d20     octarender.obj
 0002:0000dd30       ??_C@_0L@MADEAIKP@vacubesize?$AA@ 0000000140199d30     octarender.obj
 0002:0000dd40       ??_C@_0BK@IIPIFLME@recalculating?5geometry?4?4?4?$AA@ 0000000140199d40     octarender.obj
 0002:0000dd60       ??_C@_0BK@GNNBPDFJ@clearing?5vertex?5arrays?4?4?4?$AA@ 0000000140199d60     octarender.obj
 0002:0000dd7c       ??_C@_06BDEIOILB@recalc?$AA@ 0000000140199d7c     octarender.obj
 0002:0000dda8       ??_C@_0L@IAAJNJIP@dynentsize?$AA@ 0000000140199da8     physics.obj
 0002:0000ddb4       ??_C@_05KNFBNCOH@float?$AA@ 0000000140199db4     physics.obj
 0002:0000ddbc       ??_C@_04CELAAMIG@fall?$AA@ 0000000140199dbc     physics.obj
 0002:0000ddc4       ??_C@_05IODDPPOI@slide?$AA@ 0000000140199dc4     physics.obj
 0002:0000ddcc       ??_C@_05LAHHKLJI@slope?$AA@ 0000000140199dcc     physics.obj
 0002:0000ddd4       ??_C@_05PBJFFIGL@floor?$AA@ 0000000140199dd4     physics.obj
 0002:0000dde0       ??_C@_07NMPJEAII@step?5up?$AA@ 0000000140199de0     physics.obj
 0002:0000dde8       ??_C@_09HKLMEOCN@step?5down?$AA@ 0000000140199de8     physics.obj
 0002:0000ddf4       ??_C@_06DPMIMFNG@bounce?$AA@ 0000000140199df4     physics.obj
 0002:0000de00       ??_C@_0EP@FPPBJMBJ@PHYS?$CIpl?$CJ?3?5?$CFs?0?5air?5?$CFd?0?5floor?3?5?$CI?$CFf@ 0000000140199e00     physics.obj
 0002:0000de50       ??_C@_0FA@KGAIIKF@PHYS?$CIcam?$CJ?3?5?$CFs?0?5air?5?$CFd?0?5floor?3?5?$CI?$CF@ 0000000140199e50     physics.obj
 0002:0000dea0       ??_C@_08DFDFCNI@phystest?$AA@ 0000000140199ea0     physics.obj
 0002:0000deb0       ??_C@_07HDFBBPBE@maxroll?$AA@ 0000000140199eb0     physics.obj
 0002:0000deb8       ??_C@_0L@BGIDLBFG@straferoll?$AA@ 0000000140199eb8     physics.obj
 0002:0000dec8       ??_C@_08GFNMAHFA@faderoll?$AA@ 0000000140199ec8     physics.obj
 0002:0000ded8       ??_C@_0L@FHGPNDAH@floatspeed?$AA@ 0000000140199ed8     physics.obj
 0002:0000dee8       ??_C@_0L@ICIFFIHD@physinterp?$AA@ 0000000140199ee8     physics.obj
 0002:0000def4       ??_C@_06JMLBDJHL@attack?$AA@ 0000000140199ef4     physics.obj
 0002:0000df00       ??_C@_0DB@PPNKBMFI@can?8t?5find?5entity?5spawn?5spot?$CB?5?$CI?$CF@ 0000000140199f00     physics.obj
 0002:0000df34       ??_C@_04NJIOBGCF@jump?$AA@ 0000000140199f34     physics.obj
 0002:0000df3c       ??_C@_05DHJDAOHK@right?$AA@ 0000000140199f3c     physics.obj
 0002:0000df44       ??_C@_04GOOOJOPP@left?$AA@ 0000000140199f44     physics.obj
 0002:0000df50       ??_C@_07CJMBKHEI@forward?$AA@ 0000000140199f50     physics.obj
 0002:0000df58       ??_C@_08DBMDPFJD@backward?$AA@ 0000000140199f58     physics.obj
 0002:0000df68       ??_C@_0O@GOMBIGFP@maxpvsblocker?$AA@ 0000000140199f68     pvs.obj
 0002:0000df78       ??_C@_0M@MDAJDJME@pvsleafsize?$AA@ 0000000140199f78     pvs.obj
 0002:0000df88       ??_C@_0L@BHAOAGJP@pvsthreads?$AA@ 0000000140199f88     pvs.obj
 0002:0000df98       ??_C@_0CH@FAJPFCNG@?$CFd?$CF?$CF?5?9?5?$CFd?5of?5?$CFd?5view?5cells?5?$CI?$CFd?5u@ 0000000140199f98     pvs.obj
 0002:0000dfc0       ??_C@_0CF@LNDJIBDD@locked?5view?5cell?5at?5?$CF?41f?0?5?$CF?41f?0?5@ 0000000140199fc0     pvs.obj
 0002:0000dfe8       ??_C@_07DPLEAMIN@lockpvs?$AA@ 0000000140199fe8     pvs.obj
 0002:0000dff0       ??_C@_03OBOKLOKI@pvs?$AA@  0000000140199ff0     pvs.obj
 0002:0000dff8       ??_C@_08GNCIKCFN@waterpvs?$AA@ 0000000140199ff8     pvs.obj
 0002:0000e008       ??_C@_08FNDJHBJN@clearpvs?$AA@ 000000014019a008     pvs.obj
 0002:0000e018       ??_C@_0DP@LCFLEMC@generated?5test?5view?5cell?5of?5size@ 000000014019a018     pvs.obj
 0002:0000e058       ??_C@_07NFPMHLJF@testpvs?$AA@ 000000014019a058     pvs.obj
 0002:0000e060       ??_C@_0BJ@MANDPFBI@map?5is?5too?5large?5for?5PVS?$AA@ 000000014019a060     pvs.obj
 0002:0000e080       ??_C@_0BO@IPAPMGLG@generating?5PVS?5?$CIesc?5to?5abort?$CJ?$AA@ 000000014019a080     pvs.obj
 0002:0000e0a0       ??_C@_0BD@KEEBJBLG@finding?5view?5cells?$AA@ 000000014019a0a0     pvs.obj
 0002:0000e0b8       ??_C@_0BB@BNDBHBCK@creating?5threads?$AA@ 000000014019a0b8     pvs.obj
 0002:0000e0d0       ??_C@_0P@HBCCEHFN@genpvs?5aborted?$AA@ 000000014019a0d0     pvs.obj
 0002:0000e0e0       ??_C@_0FC@PFNMEHGM@generated?5?$CFd?5unique?5view?5cells?5t@ 000000014019a0e0     pvs.obj
 0002:0000e134       ??_C@_06GNOIJLGE@genpvs?$AA@ 000000014019a134     pvs.obj
 0002:0000e140       ??_C@_0DJ@BMJNKCHA@?$CFd?5unique?5view?5cells?5totaling?5?$CF?4@ 000000014019a140     pvs.obj
 0002:0000e180       ??_C@_08LHODJJK@pvsstats?$AA@ 000000014019a180     pvs.obj
 0002:0000e190       ??_C@_0L@HEEMIGIK@mapversion?$AA@ 000000014019a190     world.obj
 0002:0000e1a0       ??_C@_08MNAKLCJO@mapscale?$AA@ 000000014019a1a0     world.obj
 0002:0000e1b0       ??_C@_07EOGAIPJO@mapsize?$AA@ 000000014019a1b0     world.obj
 0002:0000e1b8       ??_C@_0BI@DJPFJNDC@Untitled?5Map?5by?5Unknown?$AA@ 000000014019a1b8     world.obj
 0002:0000e1d0       ??_C@_08PNHIDNCK@maptitle?$AA@ 000000014019a1d0     world.obj
 0002:0000e1e0       ??_C@_0M@MJOBAMJH@octaentsize?$AA@ 000000014019a1e0     world.obj
 0002:0000e1f0       ??_C@_0N@CEOKPFKE@entselradius?$AA@ 000000014019a1f0     world.obj
 0002:0000e200       ??_C@_02LMMGGCAJ@?3?5?$AA@ 000000014019a200     world.obj
 0002:0000e208       ??_C@_0L@DNBKKPAE@entediting?$AA@ 000000014019a208     world.obj
 0002:0000e218       ??_C@_0N@NGHHLMAK@attachradius?$AA@ 000000014019a218     world.obj
 0002:0000e228       ??_C@_0L@FAFMCKKN@entselsnap?$AA@ 000000014019a228     world.obj
 0002:0000e238       ??_C@_0BA@GAOFJCDA@entmovingshadow?$AA@ 000000014019a238     world.obj
